
tileinfo:     file format elf64-littleaarch64


Disassembly of section .init:

00000000000047d0 <_init>:
    47d0:	d503201f 	nop
    47d4:	a9bf7bfd 	stp	x29, x30, [sp, #-16]!
    47d8:	910003fd 	mov	x29, sp
    47dc:	940007be 	bl	66d4 <call_weak_fn>
    47e0:	a8c17bfd 	ldp	x29, x30, [sp], #16
    47e4:	d65f03c0 	ret

Disassembly of section .plt:

00000000000047f0 <.plt>:
    47f0:	a9bf7bf0 	stp	x16, x30, [sp, #-16]!
    47f4:	d0000230 	adrp	x16, 4a000 <_ZTVN11vector_tile10Tile_ValueE+0x10>
    47f8:	f9452a11 	ldr	x17, [x16, #2640]
    47fc:	91294210 	add	x16, x16, #0xa50
    4800:	d61f0220 	br	x17
    4804:	d503201f 	nop
    4808:	d503201f 	nop
    480c:	d503201f 	nop

0000000000004810 <_Znam@plt>:
    4810:	d0000230 	adrp	x16, 4a000 <_ZTVN11vector_tile10Tile_ValueE+0x10>
    4814:	f9452e11 	ldr	x17, [x16, #2648]
    4818:	91296210 	add	x16, x16, #0xa58
    481c:	d61f0220 	br	x17

0000000000004820 <memcpy@plt>:
    4820:	d0000230 	adrp	x16, 4a000 <_ZTVN11vector_tile10Tile_ValueE+0x10>
    4824:	f9453211 	ldr	x17, [x16, #2656]
    4828:	91298210 	add	x16, x16, #0xa60
    482c:	d61f0220 	br	x17

0000000000004830 <_ZSt29_Rb_tree_insert_and_rebalancebPSt18_Rb_tree_node_baseS0_RS_@plt>:
    4830:	d0000230 	adrp	x16, 4a000 <_ZTVN11vector_tile10Tile_ValueE+0x10>
    4834:	f9453611 	ldr	x17, [x16, #2664]
    4838:	9129a210 	add	x16, x16, #0xa68
    483c:	d61f0220 	br	x17

0000000000004840 <_ZNSt14basic_ifstreamIcSt11char_traitsIcEE5closeEv@plt>:
    4840:	d0000230 	adrp	x16, 4a000 <_ZTVN11vector_tile10Tile_ValueE+0x10>
    4844:	f9453a11 	ldr	x17, [x16, #2672]
    4848:	9129c210 	add	x16, x16, #0xa70
    484c:	d61f0220 	br	x17

0000000000004850 <_ZNKSt12__basic_fileIcE7is_openEv@plt>:
    4850:	d0000230 	adrp	x16, 4a000 <_ZTVN11vector_tile10Tile_ValueE+0x10>
    4854:	f9453e11 	ldr	x17, [x16, #2680]
    4858:	9129e210 	add	x16, x16, #0xa78
    485c:	d61f0220 	br	x17

0000000000004860 <_ZNSt7__cxx1119basic_ostringstreamIcSt11char_traitsIcESaIcEED1Ev@plt>:
    4860:	d0000230 	adrp	x16, 4a000 <_ZTVN11vector_tile10Tile_ValueE+0x10>
    4864:	f9454211 	ldr	x17, [x16, #2688]
    4868:	912a0210 	add	x16, x16, #0xa80
    486c:	d61f0220 	br	x17

0000000000004870 <_ZNSt14basic_ifstreamIcSt11char_traitsIcEED1Ev@plt>:
    4870:	d0000230 	adrp	x16, 4a000 <_ZTVN11vector_tile10Tile_ValueE+0x10>
    4874:	f9454611 	ldr	x17, [x16, #2696]
    4878:	912a2210 	add	x16, x16, #0xa88
    487c:	d61f0220 	br	x17

0000000000004880 <_ZNSt8ios_baseC2Ev@plt>:
    4880:	d0000230 	adrp	x16, 4a000 <_ZTVN11vector_tile10Tile_ValueE+0x10>
    4884:	f9454a11 	ldr	x17, [x16, #2704]
    4888:	912a4210 	add	x16, x16, #0xa90
    488c:	d61f0220 	br	x17

0000000000004890 <pthread_mutex_lock@plt>:
    4890:	d0000230 	adrp	x16, 4a000 <_ZTVN11vector_tile10Tile_ValueE+0x10>
    4894:	f9454e11 	ldr	x17, [x16, #2712]
    4898:	912a6210 	add	x16, x16, #0xa98
    489c:	d61f0220 	br	x17

00000000000048a0 <_ZNSt7__cxx1112basic_stringIcSt11char_traitsIcESaIcEE6resizeEmc@plt>:
    48a0:	d0000230 	adrp	x16, 4a000 <_ZTVN11vector_tile10Tile_ValueE+0x10>
    48a4:	f9455211 	ldr	x17, [x16, #2720]
    48a8:	912a8210 	add	x16, x16, #0xaa0
    48ac:	d61f0220 	br	x17

00000000000048b0 <strlen@plt>:
    48b0:	d0000230 	adrp	x16, 4a000 <_ZTVN11vector_tile10Tile_ValueE+0x10>
    48b4:	f9455611 	ldr	x17, [x16, #2728]
    48b8:	912aa210 	add	x16, x16, #0xaa8
    48bc:	d61f0220 	br	x17

00000000000048c0 <_ZNSt15basic_streambufIcSt11char_traitsIcEE5uflowEv@plt>:
    48c0:	d0000230 	adrp	x16, 4a000 <_ZTVN11vector_tile10Tile_ValueE+0x10>
    48c4:	f9455a11 	ldr	x17, [x16, #2736]
    48c8:	912ac210 	add	x16, x16, #0xab0
    48cc:	d61f0220 	br	x17

00000000000048d0 <_ZNSt7__cxx1112basic_stringIcSt11char_traitsIcESaIcEE9_M_appendEPKcm@plt>:
    48d0:	d0000230 	adrp	x16, 4a000 <_ZTVN11vector_tile10Tile_ValueE+0x10>
    48d4:	f9455e11 	ldr	x17, [x16, #2744]
    48d8:	912ae210 	add	x16, x16, #0xab8
    48dc:	d61f0220 	br	x17

00000000000048e0 <_ZNSt8ios_baseD2Ev@plt>:
    48e0:	d0000230 	adrp	x16, 4a000 <_ZTVN11vector_tile10Tile_ValueE+0x10>
    48e4:	f9456211 	ldr	x17, [x16, #2752]
    48e8:	912b0210 	add	x16, x16, #0xac0
    48ec:	d61f0220 	br	x17

00000000000048f0 <__stack_chk_fail@plt>:
    48f0:	d0000230 	adrp	x16, 4a000 <_ZTVN11vector_tile10Tile_ValueE+0x10>
    48f4:	f9456611 	ldr	x17, [x16, #2760]
    48f8:	912b2210 	add	x16, x16, #0xac8
    48fc:	d61f0220 	br	x17

0000000000004900 <_mcount@plt>:
    4900:	d0000230 	adrp	x16, 4a000 <_ZTVN11vector_tile10Tile_ValueE+0x10>
    4904:	f9456a11 	ldr	x17, [x16, #2768]
    4908:	912b4210 	add	x16, x16, #0xad0
    490c:	d61f0220 	br	x17

0000000000004910 <_ZSt17__throw_bad_allocv@plt>:
    4910:	d0000230 	adrp	x16, 4a000 <_ZTVN11vector_tile10Tile_ValueE+0x10>
    4914:	f9456e11 	ldr	x17, [x16, #2776]
    4918:	912b6210 	add	x16, x16, #0xad8
    491c:	d61f0220 	br	x17

0000000000004920 <__cxa_begin_catch@plt>:
    4920:	d0000230 	adrp	x16, 4a000 <_ZTVN11vector_tile10Tile_ValueE+0x10>
    4924:	f9457211 	ldr	x17, [x16, #2784]
    4928:	912b8210 	add	x16, x16, #0xae0
    492c:	d61f0220 	br	x17

0000000000004930 <__cxa_allocate_exception@plt>:
    4930:	d0000230 	adrp	x16, 4a000 <_ZTVN11vector_tile10Tile_ValueE+0x10>
    4934:	f9457611 	ldr	x17, [x16, #2792]
    4938:	912ba210 	add	x16, x16, #0xae8
    493c:	d61f0220 	br	x17

0000000000004940 <memcmp@plt>:
    4940:	d0000230 	adrp	x16, 4a000 <_ZTVN11vector_tile10Tile_ValueE+0x10>
    4944:	f9457a11 	ldr	x17, [x16, #2800]
    4948:	912bc210 	add	x16, x16, #0xaf0
    494c:	d61f0220 	br	x17

0000000000004950 <_ZSt20__throw_length_errorPKc@plt>:
    4950:	d0000230 	adrp	x16, 4a000 <_ZTVN11vector_tile10Tile_ValueE+0x10>
    4954:	f9457e11 	ldr	x17, [x16, #2808]
    4958:	912be210 	add	x16, x16, #0xaf8
    495c:	d61f0220 	br	x17

0000000000004960 <_ZNSt7__cxx1112basic_stringIcSt11char_traitsIcESaIcEE9_M_assignERKS4_@plt>:
    4960:	d0000230 	adrp	x16, 4a000 <_ZTVN11vector_tile10Tile_ValueE+0x10>
    4964:	f9458211 	ldr	x17, [x16, #2816]
    4968:	912c0210 	add	x16, x16, #0xb00
    496c:	d61f0220 	br	x17

0000000000004970 <memset@plt>:
    4970:	d0000230 	adrp	x16, 4a000 <_ZTVN11vector_tile10Tile_ValueE+0x10>
    4974:	f9458611 	ldr	x17, [x16, #2824]
    4978:	912c2210 	add	x16, x16, #0xb08
    497c:	d61f0220 	br	x17

0000000000004980 <pthread_mutex_unlock@plt>:
    4980:	d0000230 	adrp	x16, 4a000 <_ZTVN11vector_tile10Tile_ValueE+0x10>
    4984:	f9458a11 	ldr	x17, [x16, #2832]
    4988:	912c4210 	add	x16, x16, #0xb10
    498c:	d61f0220 	br	x17

0000000000004990 <__fprintf_chk@plt>:
    4990:	d0000230 	adrp	x16, 4a000 <_ZTVN11vector_tile10Tile_ValueE+0x10>
    4994:	f9458e11 	ldr	x17, [x16, #2840]
    4998:	912c6210 	add	x16, x16, #0xb18
    499c:	d61f0220 	br	x17

00000000000049a0 <__cxa_finalize@plt>:
    49a0:	d0000230 	adrp	x16, 4a000 <_ZTVN11vector_tile10Tile_ValueE+0x10>
    49a4:	f9459211 	ldr	x17, [x16, #2848]
    49a8:	912c8210 	add	x16, x16, #0xb20
    49ac:	d61f0220 	br	x17

00000000000049b0 <__snprintf_chk@plt>:
    49b0:	d0000230 	adrp	x16, 4a000 <_ZTVN11vector_tile10Tile_ValueE+0x10>
    49b4:	f9459611 	ldr	x17, [x16, #2856]
    49b8:	912ca210 	add	x16, x16, #0xb28
    49bc:	d61f0220 	br	x17

00000000000049c0 <_ZSt28_Rb_tree_rebalance_for_erasePSt18_Rb_tree_node_baseRS_@plt>:
    49c0:	d0000230 	adrp	x16, 4a000 <_ZTVN11vector_tile10Tile_ValueE+0x10>
    49c4:	f9459a11 	ldr	x17, [x16, #2864]
    49c8:	912cc210 	add	x16, x16, #0xb30
    49cc:	d61f0220 	br	x17

00000000000049d0 <_ZNSt7__cxx1112basic_stringIcSt11char_traitsIcESaIcEED1Ev@plt>:
    49d0:	d0000230 	adrp	x16, 4a000 <_ZTVN11vector_tile10Tile_ValueE+0x10>
    49d4:	f9459e11 	ldr	x17, [x16, #2872]
    49d8:	912ce210 	add	x16, x16, #0xb38
    49dc:	d61f0220 	br	x17

00000000000049e0 <pthread_mutex_init@plt>:
    49e0:	d0000230 	adrp	x16, 4a000 <_ZTVN11vector_tile10Tile_ValueE+0x10>
    49e4:	f945a211 	ldr	x17, [x16, #2880]
    49e8:	912d0210 	add	x16, x16, #0xb40
    49ec:	d61f0220 	br	x17

00000000000049f0 <_ZNSo9_M_insertImEERSoT_@plt>:
    49f0:	d0000230 	adrp	x16, 4a000 <_ZTVN11vector_tile10Tile_ValueE+0x10>
    49f4:	f945a611 	ldr	x17, [x16, #2888]
    49f8:	912d2210 	add	x16, x16, #0xb48
    49fc:	d61f0220 	br	x17

0000000000004a00 <_ZSt18_Rb_tree_incrementPSt18_Rb_tree_node_base@plt>:
    4a00:	d0000230 	adrp	x16, 4a000 <_ZTVN11vector_tile10Tile_ValueE+0x10>
    4a04:	f945aa11 	ldr	x17, [x16, #2896]
    4a08:	912d4210 	add	x16, x16, #0xb50
    4a0c:	d61f0220 	br	x17

0000000000004a10 <strerror@plt>:
    4a10:	d0000230 	adrp	x16, 4a000 <_ZTVN11vector_tile10Tile_ValueE+0x10>
    4a14:	f945ae11 	ldr	x17, [x16, #2904]
    4a18:	912d6210 	add	x16, x16, #0xb58
    4a1c:	d61f0220 	br	x17

0000000000004a20 <_ZNSt7__cxx1118basic_stringstreamIcSt11char_traitsIcESaIcEEC1Ev@plt>:
    4a20:	d0000230 	adrp	x16, 4a000 <_ZTVN11vector_tile10Tile_ValueE+0x10>
    4a24:	f945b211 	ldr	x17, [x16, #2912]
    4a28:	912d8210 	add	x16, x16, #0xb60
    4a2c:	d61f0220 	br	x17

0000000000004a30 <_ZNKSt8__detail20_Prime_rehash_policy11_M_next_bktEm@plt>:
    4a30:	d0000230 	adrp	x16, 4a000 <_ZTVN11vector_tile10Tile_ValueE+0x10>
    4a34:	f945b611 	ldr	x17, [x16, #2920]
    4a38:	912da210 	add	x16, x16, #0xb68
    4a3c:	d61f0220 	br	x17

0000000000004a40 <_ZSt19__throw_logic_errorPKc@plt>:
    4a40:	d0000230 	adrp	x16, 4a000 <_ZTVN11vector_tile10Tile_ValueE+0x10>
    4a44:	f945ba11 	ldr	x17, [x16, #2928]
    4a48:	912dc210 	add	x16, x16, #0xb70
    4a4c:	d61f0220 	br	x17

0000000000004a50 <_ZNSt7__cxx1112basic_stringIcSt11char_traitsIcESaIcEE4swapERS4_@plt>:
    4a50:	d0000230 	adrp	x16, 4a000 <_ZTVN11vector_tile10Tile_ValueE+0x10>
    4a54:	f945be11 	ldr	x17, [x16, #2936]
    4a58:	912de210 	add	x16, x16, #0xb78
    4a5c:	d61f0220 	br	x17

0000000000004a60 <__cxa_free_exception@plt>:
    4a60:	d0000230 	adrp	x16, 4a000 <_ZTVN11vector_tile10Tile_ValueE+0x10>
    4a64:	f945c211 	ldr	x17, [x16, #2944]
    4a68:	912e0210 	add	x16, x16, #0xb80
    4a6c:	d61f0220 	br	x17

0000000000004a70 <__libc_start_main@plt>:
    4a70:	d0000230 	adrp	x16, 4a000 <_ZTVN11vector_tile10Tile_ValueE+0x10>
    4a74:	f945c611 	ldr	x17, [x16, #2952]
    4a78:	912e2210 	add	x16, x16, #0xb88
    4a7c:	d61f0220 	br	x17

0000000000004a80 <_ZNSt7__cxx1118basic_stringstreamIcSt11char_traitsIcESaIcEED1Ev@plt>:
    4a80:	d0000230 	adrp	x16, 4a000 <_ZTVN11vector_tile10Tile_ValueE+0x10>
    4a84:	f945ca11 	ldr	x17, [x16, #2960]
    4a88:	912e4210 	add	x16, x16, #0xb90
    4a8c:	d61f0220 	br	x17

0000000000004a90 <_ZSt28__throw_bad_array_new_lengthv@plt>:
    4a90:	d0000230 	adrp	x16, 4a000 <_ZTVN11vector_tile10Tile_ValueE+0x10>
    4a94:	f945ce11 	ldr	x17, [x16, #2968]
    4a98:	912e6210 	add	x16, x16, #0xb98
    4a9c:	d61f0220 	br	x17

0000000000004aa0 <inflate@plt>:
    4aa0:	d0000230 	adrp	x16, 4a000 <_ZTVN11vector_tile10Tile_ValueE+0x10>
    4aa4:	f945d211 	ldr	x17, [x16, #2976]
    4aa8:	912e8210 	add	x16, x16, #0xba0
    4aac:	d61f0220 	br	x17

0000000000004ab0 <inflateInit2_@plt>:
    4ab0:	d0000230 	adrp	x16, 4a000 <_ZTVN11vector_tile10Tile_ValueE+0x10>
    4ab4:	f945d611 	ldr	x17, [x16, #2984]
    4ab8:	912ea210 	add	x16, x16, #0xba8
    4abc:	d61f0220 	br	x17

0000000000004ac0 <_ZdlPv@plt>:
    4ac0:	d0000230 	adrp	x16, 4a000 <_ZTVN11vector_tile10Tile_ValueE+0x10>
    4ac4:	f945da11 	ldr	x17, [x16, #2992]
    4ac8:	912ec210 	add	x16, x16, #0xbb0
    4acc:	d61f0220 	br	x17

0000000000004ad0 <_ZNSo9_M_insertIlEERSoT_@plt>:
    4ad0:	d0000230 	adrp	x16, 4a000 <_ZTVN11vector_tile10Tile_ValueE+0x10>
    4ad4:	f945de11 	ldr	x17, [x16, #3000]
    4ad8:	912ee210 	add	x16, x16, #0xbb8
    4adc:	d61f0220 	br	x17

0000000000004ae0 <_ZStlsISt11char_traitsIcEERSt13basic_ostreamIcT_ES5_PKc@plt>:
    4ae0:	d0000230 	adrp	x16, 4a000 <_ZTVN11vector_tile10Tile_ValueE+0x10>
    4ae4:	f945e211 	ldr	x17, [x16, #3008]
    4ae8:	912f0210 	add	x16, x16, #0xbc0
    4aec:	d61f0220 	br	x17

0000000000004af0 <_Znwm@plt>:
    4af0:	d0000230 	adrp	x16, 4a000 <_ZTVN11vector_tile10Tile_ValueE+0x10>
    4af4:	f945e611 	ldr	x17, [x16, #3016]
    4af8:	912f2210 	add	x16, x16, #0xbc8
    4afc:	d61f0220 	br	x17

0000000000004b00 <_ZdlPvm@plt>:
    4b00:	d0000230 	adrp	x16, 4a000 <_ZTVN11vector_tile10Tile_ValueE+0x10>
    4b04:	f945ea11 	ldr	x17, [x16, #3024]
    4b08:	912f4210 	add	x16, x16, #0xbd0
    4b0c:	d61f0220 	br	x17

0000000000004b10 <_ZSt18_Rb_tree_decrementPSt18_Rb_tree_node_base@plt>:
    4b10:	d0000230 	adrp	x16, 4a000 <_ZTVN11vector_tile10Tile_ValueE+0x10>
    4b14:	f945ee11 	ldr	x17, [x16, #3032]
    4b18:	912f6210 	add	x16, x16, #0xbd8
    4b1c:	d61f0220 	br	x17

0000000000004b20 <inflateEnd@plt>:
    4b20:	d0000230 	adrp	x16, 4a000 <_ZTVN11vector_tile10Tile_ValueE+0x10>
    4b24:	f945f211 	ldr	x17, [x16, #3040]
    4b28:	912f8210 	add	x16, x16, #0xbe0
    4b2c:	d61f0220 	br	x17

0000000000004b30 <__cxa_atexit@plt>:
    4b30:	d0000230 	adrp	x16, 4a000 <_ZTVN11vector_tile10Tile_ValueE+0x10>
    4b34:	f945f611 	ldr	x17, [x16, #3048]
    4b38:	912fa210 	add	x16, x16, #0xbe8
    4b3c:	d61f0220 	br	x17

0000000000004b40 <_ZSt16__ostream_insertIcSt11char_traitsIcEERSt13basic_ostreamIT_T0_ES6_PKS3_l@plt>:
    4b40:	d0000230 	adrp	x16, 4a000 <_ZTVN11vector_tile10Tile_ValueE+0x10>
    4b44:	f945fa11 	ldr	x17, [x16, #3056]
    4b48:	912fc210 	add	x16, x16, #0xbf0
    4b4c:	d61f0220 	br	x17

0000000000004b50 <_ZNKSt5ctypeIcE13_M_widen_initEv@plt>:
    4b50:	d0000230 	adrp	x16, 4a000 <_ZTVN11vector_tile10Tile_ValueE+0x10>
    4b54:	f945fe11 	ldr	x17, [x16, #3064]
    4b58:	912fe210 	add	x16, x16, #0xbf8
    4b5c:	d61f0220 	br	x17

0000000000004b60 <_ZSt18_Rb_tree_incrementPKSt18_Rb_tree_node_base@plt>:
    4b60:	d0000230 	adrp	x16, 4a000 <_ZTVN11vector_tile10Tile_ValueE+0x10>
    4b64:	f9460211 	ldr	x17, [x16, #3072]
    4b68:	91300210 	add	x16, x16, #0xc00
    4b6c:	d61f0220 	br	x17

0000000000004b70 <__vsnprintf_chk@plt>:
    4b70:	d0000230 	adrp	x16, 4a000 <_ZTVN11vector_tile10Tile_ValueE+0x10>
    4b74:	f9460611 	ldr	x17, [x16, #3080]
    4b78:	91302210 	add	x16, x16, #0xc08
    4b7c:	d61f0220 	br	x17

0000000000004b80 <fflush@plt>:
    4b80:	d0000230 	adrp	x16, 4a000 <_ZTVN11vector_tile10Tile_ValueE+0x10>
    4b84:	f9460a11 	ldr	x17, [x16, #3088]
    4b88:	91304210 	add	x16, x16, #0xc10
    4b8c:	d61f0220 	br	x17

0000000000004b90 <memmove@plt>:
    4b90:	d0000230 	adrp	x16, 4a000 <_ZTVN11vector_tile10Tile_ValueE+0x10>
    4b94:	f9460e11 	ldr	x17, [x16, #3096]
    4b98:	91306210 	add	x16, x16, #0xc18
    4b9c:	d61f0220 	br	x17

0000000000004ba0 <_ZSt16__throw_bad_castv@plt>:
    4ba0:	d0000230 	adrp	x16, 4a000 <_ZTVN11vector_tile10Tile_ValueE+0x10>
    4ba4:	f9461211 	ldr	x17, [x16, #3104]
    4ba8:	91308210 	add	x16, x16, #0xc20
    4bac:	d61f0220 	br	x17

0000000000004bb0 <_ZdaPv@plt>:
    4bb0:	d0000230 	adrp	x16, 4a000 <_ZTVN11vector_tile10Tile_ValueE+0x10>
    4bb4:	f9461611 	ldr	x17, [x16, #3112]
    4bb8:	9130a210 	add	x16, x16, #0xc28
    4bbc:	d61f0220 	br	x17

0000000000004bc0 <sched_yield@plt>:
    4bc0:	d0000230 	adrp	x16, 4a000 <_ZTVN11vector_tile10Tile_ValueE+0x10>
    4bc4:	f9461a11 	ldr	x17, [x16, #3120]
    4bc8:	9130c210 	add	x16, x16, #0xc30
    4bcc:	d61f0220 	br	x17

0000000000004bd0 <_ZNKSt8__detail20_Prime_rehash_policy14_M_need_rehashEmmm@plt>:
    4bd0:	d0000230 	adrp	x16, 4a000 <_ZTVN11vector_tile10Tile_ValueE+0x10>
    4bd4:	f9461e11 	ldr	x17, [x16, #3128]
    4bd8:	9130e210 	add	x16, x16, #0xc38
    4bdc:	d61f0220 	br	x17

0000000000004be0 <_ZNSt9basic_iosIcSt11char_traitsIcEE4initEPSt15basic_streambufIcS1_E@plt>:
    4be0:	d0000230 	adrp	x16, 4a000 <_ZTVN11vector_tile10Tile_ValueE+0x10>
    4be4:	f9462211 	ldr	x17, [x16, #3136]
    4be8:	91310210 	add	x16, x16, #0xc40
    4bec:	d61f0220 	br	x17

0000000000004bf0 <_ZNSt6localeD1Ev@plt>:
    4bf0:	d0000230 	adrp	x16, 4a000 <_ZTVN11vector_tile10Tile_ValueE+0x10>
    4bf4:	f9462611 	ldr	x17, [x16, #3144]
    4bf8:	91312210 	add	x16, x16, #0xc48
    4bfc:	d61f0220 	br	x17

0000000000004c00 <strcmp@plt>:
    4c00:	d0000230 	adrp	x16, 4a000 <_ZTVN11vector_tile10Tile_ValueE+0x10>
    4c04:	f9462a11 	ldr	x17, [x16, #3152]
    4c08:	91314210 	add	x16, x16, #0xc50
    4c0c:	d61f0220 	br	x17

0000000000004c10 <__cxa_rethrow@plt>:
    4c10:	d0000230 	adrp	x16, 4a000 <_ZTVN11vector_tile10Tile_ValueE+0x10>
    4c14:	f9462e11 	ldr	x17, [x16, #3160]
    4c18:	91316210 	add	x16, x16, #0xc58
    4c1c:	d61f0220 	br	x17

0000000000004c20 <__monstartup@plt>:
    4c20:	d0000230 	adrp	x16, 4a000 <_ZTVN11vector_tile10Tile_ValueE+0x10>
    4c24:	f9463211 	ldr	x17, [x16, #3168]
    4c28:	91318210 	add	x16, x16, #0xc60
    4c2c:	d61f0220 	br	x17

0000000000004c30 <_ZNSt8ios_base4InitC1Ev@plt>:
    4c30:	d0000230 	adrp	x16, 4a000 <_ZTVN11vector_tile10Tile_ValueE+0x10>
    4c34:	f9463611 	ldr	x17, [x16, #3176]
    4c38:	9131a210 	add	x16, x16, #0xc68
    4c3c:	d61f0220 	br	x17

0000000000004c40 <_ZNSt7__cxx1112basic_stringIcSt11char_traitsIcESaIcEE10_M_replaceEmmPKcm@plt>:
    4c40:	d0000230 	adrp	x16, 4a000 <_ZTVN11vector_tile10Tile_ValueE+0x10>
    4c44:	f9463a11 	ldr	x17, [x16, #3184]
    4c48:	9131c210 	add	x16, x16, #0xc70
    4c4c:	d61f0220 	br	x17

0000000000004c50 <_ZNSt7__cxx1112basic_stringIcSt11char_traitsIcESaIcEE7reserveEm@plt>:
    4c50:	d0000230 	adrp	x16, 4a000 <_ZTVN11vector_tile10Tile_ValueE+0x10>
    4c54:	f9463e11 	ldr	x17, [x16, #3192]
    4c58:	9131e210 	add	x16, x16, #0xc78
    4c5c:	d61f0220 	br	x17

0000000000004c60 <_ZNKSt7__cxx1115basic_stringbufIcSt11char_traitsIcESaIcEE3strEv@plt>:
    4c60:	d0000230 	adrp	x16, 4a000 <_ZTVN11vector_tile10Tile_ValueE+0x10>
    4c64:	f9464211 	ldr	x17, [x16, #3200]
    4c68:	91320210 	add	x16, x16, #0xc80
    4c6c:	d61f0220 	br	x17

0000000000004c70 <abort@plt>:
    4c70:	d0000230 	adrp	x16, 4a000 <_ZTVN11vector_tile10Tile_ValueE+0x10>
    4c74:	f9464611 	ldr	x17, [x16, #3208]
    4c78:	91322210 	add	x16, x16, #0xc88
    4c7c:	d61f0220 	br	x17

0000000000004c80 <_ZNSo9_M_insertIdEERSoT_@plt>:
    4c80:	d0000230 	adrp	x16, 4a000 <_ZTVN11vector_tile10Tile_ValueE+0x10>
    4c84:	f9464a11 	ldr	x17, [x16, #3216]
    4c88:	91324210 	add	x16, x16, #0xc90
    4c8c:	d61f0220 	br	x17

0000000000004c90 <_ZNSt13runtime_errorC1ERKNSt7__cxx1112basic_stringIcSt11char_traitsIcESaIcEEE@plt>:
    4c90:	d0000230 	adrp	x16, 4a000 <_ZTVN11vector_tile10Tile_ValueE+0x10>
    4c94:	f9464e11 	ldr	x17, [x16, #3224]
    4c98:	91326210 	add	x16, x16, #0xc98
    4c9c:	d61f0220 	br	x17

0000000000004ca0 <__cxa_end_catch@plt>:
    4ca0:	d0000230 	adrp	x16, 4a000 <_ZTVN11vector_tile10Tile_ValueE+0x10>
    4ca4:	f9465211 	ldr	x17, [x16, #3232]
    4ca8:	91328210 	add	x16, x16, #0xca0
    4cac:	d61f0220 	br	x17

0000000000004cb0 <pthread_mutex_destroy@plt>:
    4cb0:	d0000230 	adrp	x16, 4a000 <_ZTVN11vector_tile10Tile_ValueE+0x10>
    4cb4:	f9465611 	ldr	x17, [x16, #3240]
    4cb8:	9132a210 	add	x16, x16, #0xca8
    4cbc:	d61f0220 	br	x17

0000000000004cc0 <_ZNSo9_M_insertIbEERSoT_@plt>:
    4cc0:	d0000230 	adrp	x16, 4a000 <_ZTVN11vector_tile10Tile_ValueE+0x10>
    4cc4:	f9465a11 	ldr	x17, [x16, #3248]
    4cc8:	9132c210 	add	x16, x16, #0xcb0
    4ccc:	d61f0220 	br	x17

0000000000004cd0 <__gxx_personality_v0@plt>:
    4cd0:	d0000230 	adrp	x16, 4a000 <_ZTVN11vector_tile10Tile_ValueE+0x10>
    4cd4:	f9465e11 	ldr	x17, [x16, #3256]
    4cd8:	9132e210 	add	x16, x16, #0xcb8
    4cdc:	d61f0220 	br	x17

0000000000004ce0 <__cxa_throw@plt>:
    4ce0:	d0000230 	adrp	x16, 4a000 <_ZTVN11vector_tile10Tile_ValueE+0x10>
    4ce4:	f9466211 	ldr	x17, [x16, #3264]
    4ce8:	91330210 	add	x16, x16, #0xcc0
    4cec:	d61f0220 	br	x17

0000000000004cf0 <_ZNSolsEi@plt>:
    4cf0:	d0000230 	adrp	x16, 4a000 <_ZTVN11vector_tile10Tile_ValueE+0x10>
    4cf4:	f9466611 	ldr	x17, [x16, #3272]
    4cf8:	91332210 	add	x16, x16, #0xcc8
    4cfc:	d61f0220 	br	x17

0000000000004d00 <_Unwind_Resume@plt>:
    4d00:	d0000230 	adrp	x16, 4a000 <_ZTVN11vector_tile10Tile_ValueE+0x10>
    4d04:	f9466a11 	ldr	x17, [x16, #3280]
    4d08:	91334210 	add	x16, x16, #0xcd0
    4d0c:	d61f0220 	br	x17

0000000000004d10 <_ZNSt7__cxx1112basic_stringIcSt11char_traitsIcESaIcEE9_M_createERmm@plt>:
    4d10:	d0000230 	adrp	x16, 4a000 <_ZTVN11vector_tile10Tile_ValueE+0x10>
    4d14:	f9466e11 	ldr	x17, [x16, #3288]
    4d18:	91336210 	add	x16, x16, #0xcd8
    4d1c:	d61f0220 	br	x17

0000000000004d20 <_ZNSt14basic_ifstreamIcSt11char_traitsIcEEC1EPKcSt13_Ios_Openmode@plt>:
    4d20:	d0000230 	adrp	x16, 4a000 <_ZTVN11vector_tile10Tile_ValueE+0x10>
    4d24:	f9467211 	ldr	x17, [x16, #3296]
    4d28:	91338210 	add	x16, x16, #0xce0
    4d2c:	d61f0220 	br	x17

0000000000004d30 <_ZNSt9exceptionD2Ev@plt>:
    4d30:	d0000230 	adrp	x16, 4a000 <_ZTVN11vector_tile10Tile_ValueE+0x10>
    4d34:	f9467611 	ldr	x17, [x16, #3304]
    4d38:	9133a210 	add	x16, x16, #0xce8
    4d3c:	d61f0220 	br	x17

0000000000004d40 <_ZNSt7__cxx1112basic_stringIcSt11char_traitsIcESaIcEE14_M_replace_auxEmmmc@plt>:
    4d40:	d0000230 	adrp	x16, 4a000 <_ZTVN11vector_tile10Tile_ValueE+0x10>
    4d44:	f9467a11 	ldr	x17, [x16, #3312]
    4d48:	9133c210 	add	x16, x16, #0xcf0
    4d4c:	d61f0220 	br	x17

0000000000004d50 <__cxa_pure_virtual@plt>:
    4d50:	d0000230 	adrp	x16, 4a000 <_ZTVN11vector_tile10Tile_ValueE+0x10>
    4d54:	f9467e11 	ldr	x17, [x16, #3320]
    4d58:	9133e210 	add	x16, x16, #0xcf8
    4d5c:	d61f0220 	br	x17

0000000000004d60 <_ZNSt6localeC1Ev@plt>:
    4d60:	d0000230 	adrp	x16, 4a000 <_ZTVN11vector_tile10Tile_ValueE+0x10>
    4d64:	f9468211 	ldr	x17, [x16, #3328]
    4d68:	91340210 	add	x16, x16, #0xd00
    4d6c:	d61f0220 	br	x17

Disassembly of section .text:

0000000000004d80 <_GLOBAL__sub_I_tileinfo.cpp>:
    4d80:	a9be7bfd 	stp	x29, x30, [sp, #-32]!
    4d84:	910003fd 	mov	x29, sp
    4d88:	f9000bf3 	str	x19, [sp, #16]
    4d8c:	d50320ff 	xpaclri
    4d90:	f0000233 	adrp	x19, 4b000 <__data_start>
    4d94:	aa1e03e0 	mov	x0, x30
    4d98:	9100e273 	add	x19, x19, #0x38
    4d9c:	97fffed9 	bl	4900 <_mcount@plt>
    4da0:	aa1303e0 	mov	x0, x19
    4da4:	97ffffa3 	bl	4c30 <_ZNSt8ios_base4InitC1Ev@plt>
    4da8:	aa1303e1 	mov	x1, x19
    4dac:	d0000220 	adrp	x0, 4a000 <_ZTVN11vector_tile10Tile_ValueE+0x10>
    4db0:	f9400bf3 	ldr	x19, [sp, #16]
    4db4:	f0000222 	adrp	x2, 4b000 <__data_start>
    4db8:	a8c27bfd 	ldp	x29, x30, [sp], #32
    4dbc:	91002042 	add	x2, x2, #0x8
    4dc0:	f947f800 	ldr	x0, [x0, #4080]
    4dc4:	17ffff5b 	b	4b30 <__cxa_atexit@plt>
    4dc8:	d503201f 	nop
    4dcc:	d503201f 	nop

0000000000004dd0 <main>:
    4dd0:	d114c3ff 	sub	sp, sp, #0x530
    4dd4:	a9007bfd 	stp	x29, x30, [sp]
    4dd8:	910003fd 	mov	x29, sp
    4ddc:	a90153f3 	stp	x19, x20, [sp, #16]
    4de0:	a9025bf5 	stp	x21, x22, [sp, #32]
    4de4:	a90363f7 	stp	x23, x24, [sp, #48]
    4de8:	a9046bf9 	stp	x25, x26, [sp, #64]
    4dec:	a90573fb 	stp	x27, x28, [sp, #80]
    4df0:	d50320ff 	xpaclri
    4df4:	aa0103f3 	mov	x19, x1
    4df8:	2a0003f4 	mov	w20, w0
    4dfc:	aa1e03e0 	mov	x0, x30
    4e00:	97fffec0 	bl	4900 <_mcount@plt>
    4e04:	d0000223 	adrp	x3, 4a000 <_ZTVN11vector_tile10Tile_ValueE+0x10>
    4e08:	529b4901 	mov	w1, #0xda48                	// #55880
    4e0c:	529b4920 	mov	w0, #0xda49                	// #55881
    4e10:	72a005a1 	movk	w1, #0x2d, lsl #16
    4e14:	f946b863 	ldr	x3, [x3, #3440]
    4e18:	72a005a0 	movk	w0, #0x2d, lsl #16
    4e1c:	b0000142 	adrp	x2, 2d000 <_ZN6google8protobuf13SStringPrintfEPNSt7__cxx1112basic_stringIcSt11char_traitsIcESaIcEEEPKcz+0x90>
    4e20:	912a0042 	add	x2, x2, #0xa80
    4e24:	f9400064 	ldr	x4, [x3]
    4e28:	f90297e4 	str	x4, [sp, #1320]
    4e2c:	d2800004 	mov	x4, #0x0                   	// #0
    4e30:	94002fdd 	bl	10da4 <_ZN6google8protobuf8internal13VerifyVersionEiiPKc>
    4e34:	a90b7fff 	stp	xzr, xzr, [sp, #176]
    4e38:	f90063ff 	str	xzr, [sp, #192]
    4e3c:	7100069f 	cmp	w20, #0x1
    4e40:	540078ed 	b.le	5d5c <main+0xf8c>
    4e44:	51000a94 	sub	w20, w20, #0x2
    4e48:	91004260 	add	x0, x19, #0x10
    4e4c:	b0000158 	adrp	x24, 2d000 <_ZN6google8protobuf13SStringPrintfEPNSt7__cxx1112basic_stringIcSt11char_traitsIcESaIcEEEPKcz+0x90>
    4e50:	91002273 	add	x19, x19, #0x8
    4e54:	8b344c17 	add	x23, x0, w20, uxtw #3
    4e58:	912c0318 	add	x24, x24, #0xb00
    4e5c:	910c63fa 	add	x26, sp, #0x318
    4e60:	910ca3f9 	add	x25, sp, #0x328
    4e64:	9102c3fb 	add	x27, sp, #0xb0
    4e68:	52800014 	mov	w20, #0x0                   	// #0
    4e6c:	14000005 	b	4e80 <main+0xb0>
    4e70:	52800034 	mov	w20, #0x1                   	// #1
    4e74:	91002273 	add	x19, x19, #0x8
    4e78:	eb1302ff 	cmp	x23, x19
    4e7c:	540004e0 	b.eq	4f18 <main+0x148>  // b.none
    4e80:	f9400276 	ldr	x22, [x19]
    4e84:	aa1803e1 	mov	x1, x24
    4e88:	aa1603e0 	mov	x0, x22
    4e8c:	97ffff5d 	bl	4c00 <strcmp@plt>
    4e90:	34ffff00 	cbz	w0, 4e70 <main+0xa0>
    4e94:	aa1603e0 	mov	x0, x22
    4e98:	f9018ff9 	str	x25, [sp, #792]
    4e9c:	97fffe85 	bl	48b0 <strlen@plt>
    4ea0:	f90057e0 	str	x0, [sp, #168]
    4ea4:	aa0003f5 	mov	x21, x0
    4ea8:	f1003c1f 	cmp	x0, #0xf
    4eac:	54000f08 	b.hi	508c <main+0x2bc>  // b.pmore
    4eb0:	f100041f 	cmp	x0, #0x1
    4eb4:	54000c61 	b.ne	5040 <main+0x270>  // b.any
    4eb8:	394002c1 	ldrb	w1, [x22]
    4ebc:	aa1903e0 	mov	x0, x25
    4ec0:	390ca3e1 	strb	w1, [sp, #808]
    4ec4:	f90193f5 	str	x21, [sp, #800]
    4ec8:	3835681f 	strb	wzr, [x0, x21]
    4ecc:	f9405fe1 	ldr	x1, [sp, #184]
    4ed0:	f94063e0 	ldr	x0, [sp, #192]
    4ed4:	eb00003f 	cmp	x1, x0
    4ed8:	54000c40 	b.eq	5060 <main+0x290>  // b.none
    4edc:	91004020 	add	x0, x1, #0x10
    4ee0:	f9000020 	str	x0, [x1]
    4ee4:	f9418fe0 	ldr	x0, [sp, #792]
    4ee8:	eb19001f 	cmp	x0, x25
    4eec:	54000ea0 	b.eq	50c0 <main+0x2f0>  // b.none
    4ef0:	f9000020 	str	x0, [x1]
    4ef4:	f94197e0 	ldr	x0, [sp, #808]
    4ef8:	f9000820 	str	x0, [x1, #16]
    4efc:	f94193e0 	ldr	x0, [sp, #800]
    4f00:	91008022 	add	x2, x1, #0x20
    4f04:	91002273 	add	x19, x19, #0x8
    4f08:	f9000420 	str	x0, [x1, #8]
    4f0c:	f9005fe2 	str	x2, [sp, #184]
    4f10:	eb1302ff 	cmp	x23, x19
    4f14:	54fffb61 	b.ne	4e80 <main+0xb0>  // b.any
    4f18:	a94b03e1 	ldp	x1, x0, [sp, #176]
    4f1c:	eb00003f 	cmp	x1, x0
    4f20:	540071e0 	b.eq	5d5c <main+0xf8c>  // b.none
    4f24:	910363e0 	add	x0, sp, #0xd8
    4f28:	f90067e0 	str	x0, [sp, #200]
    4f2c:	f9400433 	ldr	x19, [x1, #8]
    4f30:	f9004fe0 	str	x0, [sp, #152]
    4f34:	f9400035 	ldr	x21, [x1]
    4f38:	910323e0 	add	x0, sp, #0xc8
    4f3c:	ab1302bf 	cmn	x21, x19
    4f40:	fa401aa0 	ccmp	x21, #0x0, #0x0, ne  // ne = any
    4f44:	54007300 	b.eq	5da4 <main+0xfd4>  // b.none
    4f48:	f90057f3 	str	x19, [sp, #168]
    4f4c:	f1003e7f 	cmp	x19, #0xf
    4f50:	54003fa8 	b.hi	5744 <main+0x974>  // b.pmore
    4f54:	f100067f 	cmp	x19, #0x1
    4f58:	54000bc1 	b.ne	50d0 <main+0x300>  // b.any
    4f5c:	394002a0 	ldrb	w0, [x21]
    4f60:	390363e0 	strb	w0, [sp, #216]
    4f64:	f94057e1 	ldr	x1, [sp, #168]
    4f68:	f9006be1 	str	x1, [sp, #208]
    4f6c:	f94067e3 	ldr	x3, [sp, #200]
    4f70:	910c63e0 	add	x0, sp, #0x318
    4f74:	52800182 	mov	w2, #0xc                   	// #12
    4f78:	f90047e0 	str	x0, [sp, #136]
    4f7c:	3821687f 	strb	wzr, [x3, x1]
    4f80:	f94067e1 	ldr	x1, [sp, #200]
    4f84:	97ffff67 	bl	4d20 <_ZNSt14basic_ifstreamIcSt11char_traitsIcEEC1EPKcSt13_Ios_Openmode@plt>
    4f88:	910e63e0 	add	x0, sp, #0x398
    4f8c:	97fffe31 	bl	4850 <_ZNKSt12__basic_fileIcE7is_openEv@plt>
    4f90:	72001c1f 	tst	w0, #0xff
    4f94:	54007900 	b.eq	5eb4 <main+0x10e4>  // b.none
    4f98:	9103e3e0 	add	x0, sp, #0xf8
    4f9c:	910ca3f6 	add	x22, sp, #0x328
    4fa0:	aa0003e1 	mov	x1, x0
    4fa4:	d28001e0 	mov	x0, #0xf                   	// #15
    4fa8:	f90057e0 	str	x0, [sp, #168]
    4fac:	aa0103e0 	mov	x0, x1
    4fb0:	f90043e1 	str	x1, [sp, #128]
    4fb4:	d2800013 	mov	x19, #0x0                   	// #0
    4fb8:	f90077e0 	str	x0, [sp, #232]
    4fbc:	f9419fe1 	ldr	x1, [sp, #824]
    4fc0:	f941a3e0 	ldr	x0, [sp, #832]
    4fc4:	eb00003f 	cmp	x1, x0
    4fc8:	540002c2 	b.cs	5020 <main+0x250>  // b.hs, b.nlast
    4fcc:	d503201f 	nop
    4fd0:	f94057e1 	ldr	x1, [sp, #168]
    4fd4:	eb13003f 	cmp	x1, x19
    4fd8:	540008e9 	b.ls	50f4 <main+0x324>  // b.plast
    4fdc:	f94077e2 	ldr	x2, [sp, #232]
    4fe0:	91000675 	add	x21, x19, #0x1
    4fe4:	f9419fe1 	ldr	x1, [sp, #824]
    4fe8:	8b130053 	add	x19, x2, x19
    4fec:	eb00003f 	cmp	x1, x0
    4ff0:	54006a62 	b.cs	5d3c <main+0xf6c>  // b.hs, b.nlast
    4ff4:	39400020 	ldrb	w0, [x1]
    4ff8:	39000260 	strb	w0, [x19]
    4ffc:	f9419fe1 	ldr	x1, [sp, #824]
    5000:	f941a3e0 	ldr	x0, [sp, #832]
    5004:	eb00003f 	cmp	x1, x0
    5008:	540006a2 	b.cs	50dc <main+0x30c>  // b.hs, b.nlast
    500c:	aa1503f3 	mov	x19, x21
    5010:	91000421 	add	x1, x1, #0x1
    5014:	f9019fe1 	str	x1, [sp, #824]
    5018:	eb00003f 	cmp	x1, x0
    501c:	54fffda3 	b.cc	4fd0 <main+0x200>  // b.lo, b.ul, b.last
    5020:	f94197e1 	ldr	x1, [sp, #808]
    5024:	aa1603e0 	mov	x0, x22
    5028:	f9402421 	ldr	x1, [x1, #72]
    502c:	d63f0020 	blr	x1
    5030:	3100041f 	cmn	w0, #0x1
    5034:	54000a40 	b.eq	517c <main+0x3ac>  // b.none
    5038:	f941a3e0 	ldr	x0, [sp, #832]
    503c:	17ffffe5 	b	4fd0 <main+0x200>
    5040:	aa1903e0 	mov	x0, x25
    5044:	b5000335 	cbnz	x21, 50a8 <main+0x2d8>
    5048:	f90193f5 	str	x21, [sp, #800]
    504c:	3835681f 	strb	wzr, [x0, x21]
    5050:	f9405fe1 	ldr	x1, [sp, #184]
    5054:	f94063e0 	ldr	x0, [sp, #192]
    5058:	eb00003f 	cmp	x1, x0
    505c:	54fff401 	b.ne	4edc <main+0x10c>  // b.any
    5060:	aa1b03f5 	mov	x21, x27
    5064:	aa1a03e2 	mov	x2, x26
    5068:	aa1b03e0 	mov	x0, x27
    506c:	94000685 	bl	6a80 <_ZNSt6vectorINSt7__cxx1112basic_stringIcSt11char_traitsIcESaIcEEESaIS5_EE17_M_realloc_insertIJS5_EEEvN9__gnu_cxx17__normal_iteratorIPS5_S7_EEDpOT_>
    5070:	f9418fe0 	ldr	x0, [sp, #792]
    5074:	eb19001f 	cmp	x0, x25
    5078:	54ffefe0 	b.eq	4e74 <main+0xa4>  // b.none
    507c:	f94197e1 	ldr	x1, [sp, #808]
    5080:	91000421 	add	x1, x1, #0x1
    5084:	97fffe9f 	bl	4b00 <_ZdlPvm@plt>
    5088:	17ffff7b 	b	4e74 <main+0xa4>
    508c:	9102a3e1 	add	x1, sp, #0xa8
    5090:	aa1a03e0 	mov	x0, x26
    5094:	d2800002 	mov	x2, #0x0                   	// #0
    5098:	97ffff1e 	bl	4d10 <_ZNSt7__cxx1112basic_stringIcSt11char_traitsIcESaIcEE9_M_createERmm@plt>
    509c:	f94057e1 	ldr	x1, [sp, #168]
    50a0:	f9018fe0 	str	x0, [sp, #792]
    50a4:	f90197e1 	str	x1, [sp, #808]
    50a8:	aa1503e2 	mov	x2, x21
    50ac:	aa1603e1 	mov	x1, x22
    50b0:	97fffddc 	bl	4820 <memcpy@plt>
    50b4:	f94057f5 	ldr	x21, [sp, #168]
    50b8:	f9418fe0 	ldr	x0, [sp, #792]
    50bc:	17ffff82 	b	4ec4 <main+0xf4>
    50c0:	910903e0 	add	x0, sp, #0x240
    50c4:	a94e8c02 	ldp	x2, x3, [x0, #232]
    50c8:	a9010c22 	stp	x2, x3, [x1, #16]
    50cc:	17ffff8c 	b	4efc <main+0x12c>
    50d0:	b4fff4b3 	cbz	x19, 4f64 <main+0x194>
    50d4:	f9404fe0 	ldr	x0, [sp, #152]
    50d8:	140001a1 	b	575c <main+0x98c>
    50dc:	aa1603e0 	mov	x0, x22
    50e0:	97fffdf8 	bl	48c0 <_ZNSt15basic_streambufIcSt11char_traitsIcEE5uflowEv@plt>
    50e4:	aa1503f3 	mov	x19, x21
    50e8:	f9419fe1 	ldr	x1, [sp, #824]
    50ec:	f941a3e0 	ldr	x0, [sp, #832]
    50f0:	17ffffca 	b	5018 <main+0x248>
    50f4:	f9419fe1 	ldr	x1, [sp, #824]
    50f8:	910ca3f8 	add	x24, sp, #0x328
    50fc:	9102a3f7 	add	x23, sp, #0xa8
    5100:	9103a3f6 	add	x22, sp, #0xe8
    5104:	eb00003f 	cmp	x1, x0
    5108:	540002e2 	b.cs	5164 <main+0x394>  // b.hs, b.nlast
    510c:	f94057e0 	ldr	x0, [sp, #168]
    5110:	91000675 	add	x21, x19, #0x1
    5114:	eb13001f 	cmp	x0, x19
    5118:	54002bc0 	b.eq	5690 <main+0x8c0>  // b.none
    511c:	f94077f9 	ldr	x25, [sp, #232]
    5120:	f9419fe0 	ldr	x0, [sp, #824]
    5124:	8b130339 	add	x25, x25, x19
    5128:	f941a3e1 	ldr	x1, [sp, #832]
    512c:	eb01001f 	cmp	x0, x1
    5130:	54002e82 	b.cs	5700 <main+0x930>  // b.hs, b.nlast
    5134:	39400000 	ldrb	w0, [x0]
    5138:	39000320 	strb	w0, [x25]
    513c:	f9419fe1 	ldr	x1, [sp, #824]
    5140:	f941a3e0 	ldr	x0, [sp, #832]
    5144:	eb00003f 	cmp	x1, x0
    5148:	54002f42 	b.cs	5730 <main+0x960>  // b.hs, b.nlast
    514c:	aa1503f3 	mov	x19, x21
    5150:	91000421 	add	x1, x1, #0x1
    5154:	f9019fe1 	str	x1, [sp, #824]
    5158:	f9419fe1 	ldr	x1, [sp, #824]
    515c:	eb00003f 	cmp	x1, x0
    5160:	54fffd63 	b.cc	510c <main+0x33c>  // b.lo, b.ul, b.last
    5164:	f94197e1 	ldr	x1, [sp, #808]
    5168:	aa1803e0 	mov	x0, x24
    516c:	f9402421 	ldr	x1, [x1, #72]
    5170:	d63f0020 	blr	x1
    5174:	3100041f 	cmn	w0, #0x1
    5178:	54fffca1 	b.ne	510c <main+0x33c>  // b.any
    517c:	f94077e1 	ldr	x1, [sp, #232]
    5180:	f9007bf3 	str	x19, [sp, #240]
    5184:	f94047e0 	ldr	x0, [sp, #136]
    5188:	3833683f 	strb	wzr, [x1, x19]
    518c:	97fffdad 	bl	4840 <_ZNSt14basic_ifstreamIcSt11char_traitsIcEE5closeEv@plt>
    5190:	9104a3e0 	add	x0, sp, #0x128
    5194:	f9004be0 	str	x0, [sp, #144]
    5198:	94001ee2 	bl	cd20 <_ZN11vector_tile4TileC2Ev>
    519c:	f9407be0 	ldr	x0, [sp, #240]
    51a0:	f100081f 	cmp	x0, #0x2
    51a4:	54003528 	b.hi	5848 <main+0xa78>  // b.pmore
    51a8:	b0000236 	adrp	x22, 4a000 <_ZTVN11vector_tile10Tile_ValueE+0x10>
    51ac:	90000141 	adrp	x1, 2d000 <_ZN6google8protobuf13SStringPrintfEPNSt7__cxx1112basic_stringIcSt11char_traitsIcESaIcEEEPKcz+0x90>
    51b0:	d28004c2 	mov	x2, #0x26                  	// #38
    51b4:	912ea021 	add	x1, x1, #0xba8
    51b8:	f94762c0 	ldr	x0, [x22, #3776]
    51bc:	97fffe61 	bl	4b40 <_ZSt16__ostream_insertIcSt11char_traitsIcEERSt13basic_ostreamIT_T0_ES6_PKS3_l@plt>
    51c0:	f9404be0 	ldr	x0, [sp, #144]
    51c4:	9103a3e1 	add	x1, sp, #0xe8
    51c8:	940083ea 	bl	26170 <_ZN6google8protobuf11MessageLite15ParseFromStringERKNSt7__cxx1112basic_stringIcSt11char_traitsIcESaIcEEE>
    51cc:	72001c1f 	tst	w0, #0xff
    51d0:	54005aa0 	b.eq	5d24 <main+0xf54>  // b.none
    51d4:	340035b4 	cbz	w20, 5888 <main+0xab8>
    51d8:	b94183e0 	ldr	w0, [sp, #384]
    51dc:	90000141 	adrp	x1, 2d000 <_ZN6google8protobuf13SStringPrintfEPNSt7__cxx1112basic_stringIcSt11char_traitsIcESaIcEEEPKcz+0x90>
    51e0:	91344021 	add	x1, x1, #0xd10
    51e4:	a90707ff 	stp	xzr, x1, [sp, #112]
    51e8:	90000159 	adrp	x25, 2d000 <_ZN6google8protobuf13SStringPrintfEPNSt7__cxx1112basic_stringIcSt11char_traitsIcESaIcEEEPKcz+0x90>
    51ec:	91346339 	add	x25, x25, #0xd18
    51f0:	34002060 	cbz	w0, 55fc <main+0x82c>
    51f4:	d503201f 	nop
    51f8:	f9403be1 	ldr	x1, [sp, #112]
    51fc:	d28000e2 	mov	x2, #0x7                   	// #7
    5200:	f940c7e3 	ldr	x3, [sp, #392]
    5204:	2a0103e0 	mov	w0, w1
    5208:	b90063e0 	str	w0, [sp, #96]
    520c:	f94762c0 	ldr	x0, [x22, #3776]
    5210:	8b21cc63 	add	x3, x3, w1, sxtw #3
    5214:	f9403fe1 	ldr	x1, [sp, #120]
    5218:	f940047c 	ldr	x28, [x3, #8]
    521c:	97fffe49 	bl	4b40 <_ZSt16__ostream_insertIcSt11char_traitsIcEERSt13basic_ostreamIT_T0_ES6_PKS3_l@plt>
    5220:	f9404f82 	ldr	x2, [x28, #152]
    5224:	f94762c0 	ldr	x0, [x22, #3776]
    5228:	a9400841 	ldp	x1, x2, [x2]
    522c:	97fffe45 	bl	4b40 <_ZSt16__ostream_insertIcSt11char_traitsIcEERSt13basic_ostreamIT_T0_ES6_PKS3_l@plt>
    5230:	9000015a 	adrp	x26, 2d000 <_ZN6google8protobuf13SStringPrintfEPNSt7__cxx1112basic_stringIcSt11char_traitsIcESaIcEEEPKcz+0x90>
    5234:	d2800022 	mov	x2, #0x1                   	// #1
    5238:	912d6341 	add	x1, x26, #0xb58
    523c:	97fffe41 	bl	4b40 <_ZSt16__ostream_insertIcSt11char_traitsIcEERSt13basic_ostreamIT_T0_ES6_PKS3_l@plt>
    5240:	f94762c0 	ldr	x0, [x22, #3776]
    5244:	90000141 	adrp	x1, 2d000 <_ZN6google8protobuf13SStringPrintfEPNSt7__cxx1112basic_stringIcSt11char_traitsIcESaIcEEEPKcz+0x90>
    5248:	d2800162 	mov	x2, #0xb                   	// #11
    524c:	91302021 	add	x1, x1, #0xc08
    5250:	97fffe3c 	bl	4b40 <_ZSt16__ostream_insertIcSt11char_traitsIcEERSt13basic_ostreamIT_T0_ES6_PKS3_l@plt>
    5254:	f94762c0 	ldr	x0, [x22, #3776]
    5258:	b940a781 	ldr	w1, [x28, #164]
    525c:	97fffde5 	bl	49f0 <_ZNSo9_M_insertImEERSoT_@plt>
    5260:	912d6341 	add	x1, x26, #0xb58
    5264:	d2800022 	mov	x2, #0x1                   	// #1
    5268:	97fffe36 	bl	4b40 <_ZSt16__ostream_insertIcSt11char_traitsIcEERSt13basic_ostreamIT_T0_ES6_PKS3_l@plt>
    526c:	f94762c0 	ldr	x0, [x22, #3776]
    5270:	90000141 	adrp	x1, 2d000 <_ZN6google8protobuf13SStringPrintfEPNSt7__cxx1112basic_stringIcSt11char_traitsIcESaIcEEEPKcz+0x90>
    5274:	d2800142 	mov	x2, #0xa                   	// #10
    5278:	91306021 	add	x1, x1, #0xc18
    527c:	97fffe31 	bl	4b40 <_ZSt16__ostream_insertIcSt11char_traitsIcEERSt13basic_ostreamIT_T0_ES6_PKS3_l@plt>
    5280:	f94762c0 	ldr	x0, [x22, #3776]
    5284:	b940a381 	ldr	w1, [x28, #160]
    5288:	97fffdda 	bl	49f0 <_ZNSo9_M_insertImEERSoT_@plt>
    528c:	912d6341 	add	x1, x26, #0xb58
    5290:	d2800022 	mov	x2, #0x1                   	// #1
    5294:	97fffe2b 	bl	4b40 <_ZSt16__ostream_insertIcSt11char_traitsIcEERSt13basic_ostreamIT_T0_ES6_PKS3_l@plt>
    5298:	f94762c0 	ldr	x0, [x22, #3776]
    529c:	90000141 	adrp	x1, 2d000 <_ZN6google8protobuf13SStringPrintfEPNSt7__cxx1112basic_stringIcSt11char_traitsIcESaIcEEEPKcz+0x90>
    52a0:	d2800102 	mov	x2, #0x8                   	// #8
    52a4:	9130e021 	add	x1, x1, #0xc38
    52a8:	97fffe26 	bl	4b40 <_ZSt16__ostream_insertIcSt11char_traitsIcEERSt13basic_ostreamIT_T0_ES6_PKS3_l@plt>
    52ac:	b9407380 	ldr	w0, [x28, #112]
    52b0:	9101a394 	add	x20, x28, #0x68
    52b4:	f94762d5 	ldr	x21, [x22, #3776]
    52b8:	d2800013 	mov	x19, #0x0                   	// #0
    52bc:	350000a0 	cbnz	w0, 52d0 <main+0x500>
    52c0:	14000016 	b	5318 <main+0x548>
    52c4:	91000673 	add	x19, x19, #0x1
    52c8:	eb00027f 	cmp	x19, x0
    52cc:	54000262 	b.cs	5318 <main+0x548>  // b.hs, b.nlast
    52d0:	f9400a81 	ldr	x1, [x20, #16]
    52d4:	aa1503e0 	mov	x0, x21
    52d8:	8b33cc21 	add	x1, x1, w19, sxtw #3
    52dc:	f9400422 	ldr	x2, [x1, #8]
    52e0:	a9400841 	ldp	x1, x2, [x2]
    52e4:	97fffe17 	bl	4b40 <_ZSt16__ostream_insertIcSt11char_traitsIcEERSt13basic_ostreamIT_T0_ES6_PKS3_l@plt>
    52e8:	b9800a80 	ldrsw	x0, [x20, #8]
    52ec:	d1000401 	sub	x1, x0, #0x1
    52f0:	eb13003f 	cmp	x1, x19
    52f4:	54fffe89 	b.ls	52c4 <main+0x4f4>  // b.plast
    52f8:	aa1903e1 	mov	x1, x25
    52fc:	aa1503e0 	mov	x0, x21
    5300:	d2800022 	mov	x2, #0x1                   	// #1
    5304:	97fffe0f 	bl	4b40 <_ZSt16__ostream_insertIcSt11char_traitsIcEERSt13basic_ostreamIT_T0_ES6_PKS3_l@plt>
    5308:	b9800a80 	ldrsw	x0, [x20, #8]
    530c:	91000673 	add	x19, x19, #0x1
    5310:	eb00027f 	cmp	x19, x0
    5314:	54fffde3 	b.cc	52d0 <main+0x500>  // b.lo, b.ul, b.last
    5318:	f94762c0 	ldr	x0, [x22, #3776]
    531c:	912d6341 	add	x1, x26, #0xb58
    5320:	d2800022 	mov	x2, #0x1                   	// #1
    5324:	97fffe07 	bl	4b40 <_ZSt16__ostream_insertIcSt11char_traitsIcEERSt13basic_ostreamIT_T0_ES6_PKS3_l@plt>
    5328:	f94762c0 	ldr	x0, [x22, #3776]
    532c:	90000141 	adrp	x1, 2d000 <_ZN6google8protobuf13SStringPrintfEPNSt7__cxx1112basic_stringIcSt11char_traitsIcESaIcEEEPKcz+0x90>
    5330:	d2800142 	mov	x2, #0xa                   	// #10
    5334:	91312021 	add	x1, x1, #0xc48
    5338:	97fffe02 	bl	4b40 <_ZSt16__ostream_insertIcSt11char_traitsIcEERSt13basic_ostreamIT_T0_ES6_PKS3_l@plt>
    533c:	91020394 	add	x20, x28, #0x80
    5340:	90000140 	adrp	x0, 2d000 <_ZN6google8protobuf13SStringPrintfEPNSt7__cxx1112basic_stringIcSt11char_traitsIcESaIcEEEPKcz+0x90>
    5344:	91348017 	add	x23, x0, #0xd20
    5348:	d2800013 	mov	x19, #0x0                   	// #0
    534c:	f94762d5 	ldr	x21, [x22, #3776]
    5350:	b9400a80 	ldr	w0, [x20, #8]
    5354:	35000240 	cbnz	w0, 539c <main+0x5cc>
    5358:	14000026 	b	53f0 <main+0x620>
    535c:	37102080 	tbnz	w0, #2, 576c <main+0x99c>
    5360:	370820e0 	tbnz	w0, #1, 577c <main+0x9ac>
    5364:	37182420 	tbnz	w0, #3, 57e8 <main+0xa18>
    5368:	37202560 	tbnz	w0, #4, 5814 <main+0xa44>
    536c:	37302660 	tbnz	w0, #6, 5838 <main+0xa68>
    5370:	362825a0 	tbz	w0, #5, 5824 <main+0xa54>
    5374:	f94762c0 	ldr	x0, [x22, #3776]
    5378:	f9403821 	ldr	x1, [x1, #112]
    537c:	97fffd9d 	bl	49f0 <_ZNSo9_M_insertImEERSoT_@plt>
    5380:	b9800a80 	ldrsw	x0, [x20, #8]
    5384:	d1000401 	sub	x1, x0, #0x1
    5388:	eb13003f 	cmp	x1, x19
    538c:	54000228 	b.hi	53d0 <main+0x600>  // b.pmore
    5390:	91000673 	add	x19, x19, #0x1
    5394:	eb13001f 	cmp	x0, x19
    5398:	540002c9 	b.ls	53f0 <main+0x620>  // b.plast
    539c:	f9400a80 	ldr	x0, [x20, #16]
    53a0:	8b33cc00 	add	x0, x0, w19, sxtw #3
    53a4:	f9400401 	ldr	x1, [x0, #8]
    53a8:	b9404820 	ldr	w0, [x1, #72]
    53ac:	3607fd80 	tbz	w0, #0, 535c <main+0x58c>
    53b0:	f9402822 	ldr	x2, [x1, #80]
    53b4:	f94762c0 	ldr	x0, [x22, #3776]
    53b8:	a9400841 	ldp	x1, x2, [x2]
    53bc:	97fffde1 	bl	4b40 <_ZSt16__ostream_insertIcSt11char_traitsIcEERSt13basic_ostreamIT_T0_ES6_PKS3_l@plt>
    53c0:	b9800a80 	ldrsw	x0, [x20, #8]
    53c4:	d1000401 	sub	x1, x0, #0x1
    53c8:	eb13003f 	cmp	x1, x19
    53cc:	54fffe29 	b.ls	5390 <main+0x5c0>  // b.plast
    53d0:	f94762c0 	ldr	x0, [x22, #3776]
    53d4:	aa1903e1 	mov	x1, x25
    53d8:	d2800022 	mov	x2, #0x1                   	// #1
    53dc:	97fffdd9 	bl	4b40 <_ZSt16__ostream_insertIcSt11char_traitsIcEERSt13basic_ostreamIT_T0_ES6_PKS3_l@plt>
    53e0:	b9800a80 	ldrsw	x0, [x20, #8]
    53e4:	91000673 	add	x19, x19, #0x1
    53e8:	eb13001f 	cmp	x0, x19
    53ec:	54fffd88 	b.hi	539c <main+0x5cc>  // b.pmore
    53f0:	f94762c0 	ldr	x0, [x22, #3776]
    53f4:	912d6341 	add	x1, x26, #0xb58
    53f8:	d2800022 	mov	x2, #0x1                   	// #1
    53fc:	97fffdd1 	bl	4b40 <_ZSt16__ostream_insertIcSt11char_traitsIcEERSt13basic_ostreamIT_T0_ES6_PKS3_l@plt>
    5400:	9101439c 	add	x28, x28, #0x50
    5404:	90000140 	adrp	x0, 2d000 <_ZN6google8protobuf13SStringPrintfEPNSt7__cxx1112basic_stringIcSt11char_traitsIcESaIcEEEPKcz+0x90>
    5408:	9134e000 	add	x0, x0, #0xd38
    540c:	f90037e0 	str	x0, [sp, #104]
    5410:	d280001b 	mov	x27, #0x0                   	// #0
    5414:	b9400b80 	ldr	w0, [x28, #8]
    5418:	34000de0 	cbz	w0, 55d4 <main+0x804>
    541c:	d503201f 	nop
    5420:	f9400b80 	ldr	x0, [x28, #16]
    5424:	8b3bcc00 	add	x0, x0, w27, sxtw #3
    5428:	f9400414 	ldr	x20, [x0, #8]
    542c:	b9401280 	ldr	w0, [x20, #16]
    5430:	36081ae0 	tbz	w0, #1, 578c <main+0x9bc>
    5434:	f94762c0 	ldr	x0, [x22, #3776]
    5438:	90000141 	adrp	x1, 2d000 <_ZN6google8protobuf13SStringPrintfEPNSt7__cxx1112basic_stringIcSt11char_traitsIcESaIcEEEPKcz+0x90>
    543c:	d2800162 	mov	x2, #0xb                   	// #11
    5440:	9134a021 	add	x1, x1, #0xd28
    5444:	97fffdbf 	bl	4b40 <_ZSt16__ostream_insertIcSt11char_traitsIcEERSt13basic_ostreamIT_T0_ES6_PKS3_l@plt>
    5448:	f94762c0 	ldr	x0, [x22, #3776]
    544c:	f9402a81 	ldr	x1, [x20, #80]
    5450:	97fffd68 	bl	49f0 <_ZNSo9_M_insertImEERSoT_@plt>
    5454:	912d6341 	add	x1, x26, #0xb58
    5458:	d2800022 	mov	x2, #0x1                   	// #1
    545c:	97fffdb9 	bl	4b40 <_ZSt16__ostream_insertIcSt11char_traitsIcEERSt13basic_ostreamIT_T0_ES6_PKS3_l@plt>
    5460:	f94762c0 	ldr	x0, [x22, #3776]
    5464:	90000141 	adrp	x1, 2d000 <_ZN6google8protobuf13SStringPrintfEPNSt7__cxx1112basic_stringIcSt11char_traitsIcESaIcEEEPKcz+0x90>
    5468:	d2800142 	mov	x2, #0xa                   	// #10
    546c:	91354021 	add	x1, x1, #0xd50
    5470:	97fffdb4 	bl	4b40 <_ZSt16__ostream_insertIcSt11char_traitsIcEERSt13basic_ostreamIT_T0_ES6_PKS3_l@plt>
    5474:	b9405a80 	ldr	w0, [x20, #88]
    5478:	34001940 	cbz	w0, 57a0 <main+0x9d0>
    547c:	7100041f 	cmp	w0, #0x1
    5480:	540019c0 	b.eq	57b8 <main+0x9e8>  // b.none
    5484:	7100081f 	cmp	w0, #0x2
    5488:	54001a40 	b.eq	57d0 <main+0xa00>  // b.none
    548c:	71000c1f 	cmp	w0, #0x3
    5490:	54001b60 	b.eq	57fc <main+0xa2c>  // b.none
    5494:	f94762c0 	ldr	x0, [x22, #3776]
    5498:	912d6341 	add	x1, x26, #0xb58
    549c:	d2800022 	mov	x2, #0x1                   	// #1
    54a0:	97fffda8 	bl	4b40 <_ZSt16__ostream_insertIcSt11char_traitsIcEERSt13basic_ostreamIT_T0_ES6_PKS3_l@plt>
    54a4:	f94762c0 	ldr	x0, [x22, #3776]
    54a8:	90000141 	adrp	x1, 2d000 <_ZN6google8protobuf13SStringPrintfEPNSt7__cxx1112basic_stringIcSt11char_traitsIcESaIcEEEPKcz+0x90>
    54ac:	d2800142 	mov	x2, #0xa                   	// #10
    54b0:	91362021 	add	x1, x1, #0xd88
    54b4:	97fffda3 	bl	4b40 <_ZSt16__ostream_insertIcSt11char_traitsIcEERSt13basic_ostreamIT_T0_ES6_PKS3_l@plt>
    54b8:	b9401a80 	ldr	w0, [x20, #24]
    54bc:	91006295 	add	x21, x20, #0x18
    54c0:	b98063f7 	ldrsw	x23, [sp, #96]
    54c4:	d2800013 	mov	x19, #0x0                   	// #0
    54c8:	f94762d8 	ldr	x24, [x22, #3776]
    54cc:	d37ef6f7 	lsl	x23, x23, #2
    54d0:	350000a0 	cbnz	w0, 54e4 <main+0x714>
    54d4:	14000015 	b	5528 <main+0x758>
    54d8:	91000673 	add	x19, x19, #0x1
    54dc:	eb00027f 	cmp	x19, x0
    54e0:	54000242 	b.cs	5528 <main+0x758>  // b.hs, b.nlast
    54e4:	f94006a1 	ldr	x1, [x21, #8]
    54e8:	aa1803e0 	mov	x0, x24
    54ec:	8b170021 	add	x1, x1, x23
    54f0:	b9400821 	ldr	w1, [x1, #8]
    54f4:	97fffd3f 	bl	49f0 <_ZNSo9_M_insertImEERSoT_@plt>
    54f8:	b98002a0 	ldrsw	x0, [x21]
    54fc:	d1000401 	sub	x1, x0, #0x1
    5500:	eb13003f 	cmp	x1, x19
    5504:	54fffea9 	b.ls	54d8 <main+0x708>  // b.plast
    5508:	aa1903e1 	mov	x1, x25
    550c:	aa1803e0 	mov	x0, x24
    5510:	d2800022 	mov	x2, #0x1                   	// #1
    5514:	97fffd8b 	bl	4b40 <_ZSt16__ostream_insertIcSt11char_traitsIcEERSt13basic_ostreamIT_T0_ES6_PKS3_l@plt>
    5518:	b98002a0 	ldrsw	x0, [x21]
    551c:	91000673 	add	x19, x19, #0x1
    5520:	eb00027f 	cmp	x19, x0
    5524:	54fffe03 	b.cc	54e4 <main+0x714>  // b.lo, b.ul, b.last
    5528:	f94762c0 	ldr	x0, [x22, #3776]
    552c:	912d6341 	add	x1, x26, #0xb58
    5530:	d2800022 	mov	x2, #0x1                   	// #1
    5534:	97fffd83 	bl	4b40 <_ZSt16__ostream_insertIcSt11char_traitsIcEERSt13basic_ostreamIT_T0_ES6_PKS3_l@plt>
    5538:	f94762c0 	ldr	x0, [x22, #3776]
    553c:	90000141 	adrp	x1, 2d000 <_ZN6google8protobuf13SStringPrintfEPNSt7__cxx1112basic_stringIcSt11char_traitsIcESaIcEEEPKcz+0x90>
    5540:	d2800202 	mov	x2, #0x10                  	// #16
    5544:	91366021 	add	x1, x1, #0xd98
    5548:	97fffd7e 	bl	4b40 <_ZSt16__ostream_insertIcSt11char_traitsIcEERSt13basic_ostreamIT_T0_ES6_PKS3_l@plt>
    554c:	b9403280 	ldr	w0, [x20, #48]
    5550:	d2800013 	mov	x19, #0x0                   	// #0
    5554:	f94762d5 	ldr	x21, [x22, #3776]
    5558:	9100c294 	add	x20, x20, #0x30
    555c:	350000a0 	cbnz	w0, 5570 <main+0x7a0>
    5560:	14000015 	b	55b4 <main+0x7e4>
    5564:	91000673 	add	x19, x19, #0x1
    5568:	eb00027f 	cmp	x19, x0
    556c:	54000242 	b.cs	55b4 <main+0x7e4>  // b.hs, b.nlast
    5570:	f9400681 	ldr	x1, [x20, #8]
    5574:	aa1503e0 	mov	x0, x21
    5578:	8b33c821 	add	x1, x1, w19, sxtw #2
    557c:	b9400821 	ldr	w1, [x1, #8]
    5580:	97fffd1c 	bl	49f0 <_ZNSo9_M_insertImEERSoT_@plt>
    5584:	b9800280 	ldrsw	x0, [x20]
    5588:	d1000401 	sub	x1, x0, #0x1
    558c:	eb13003f 	cmp	x1, x19
    5590:	54fffea9 	b.ls	5564 <main+0x794>  // b.plast
    5594:	aa1903e1 	mov	x1, x25
    5598:	aa1503e0 	mov	x0, x21
    559c:	d2800022 	mov	x2, #0x1                   	// #1
    55a0:	97fffd68 	bl	4b40 <_ZSt16__ostream_insertIcSt11char_traitsIcEERSt13basic_ostreamIT_T0_ES6_PKS3_l@plt>
    55a4:	b9800280 	ldrsw	x0, [x20]
    55a8:	91000673 	add	x19, x19, #0x1
    55ac:	eb00027f 	cmp	x19, x0
    55b0:	54fffe03 	b.cc	5570 <main+0x7a0>  // b.lo, b.ul, b.last
    55b4:	f94762c0 	ldr	x0, [x22, #3776]
    55b8:	912d6341 	add	x1, x26, #0xb58
    55bc:	d2800022 	mov	x2, #0x1                   	// #1
    55c0:	97fffd60 	bl	4b40 <_ZSt16__ostream_insertIcSt11char_traitsIcEERSt13basic_ostreamIT_T0_ES6_PKS3_l@plt>
    55c4:	b9800b80 	ldrsw	x0, [x28, #8]
    55c8:	9100077b 	add	x27, x27, #0x1
    55cc:	eb1b001f 	cmp	x0, x27
    55d0:	54fff288 	b.hi	5420 <main+0x650>  // b.pmore
    55d4:	f94762c0 	ldr	x0, [x22, #3776]
    55d8:	912d6341 	add	x1, x26, #0xb58
    55dc:	d2800022 	mov	x2, #0x1                   	// #1
    55e0:	97fffd58 	bl	4b40 <_ZSt16__ostream_insertIcSt11char_traitsIcEERSt13basic_ostreamIT_T0_ES6_PKS3_l@plt>
    55e4:	f9403be1 	ldr	x1, [sp, #112]
    55e8:	b98183e0 	ldrsw	x0, [sp, #384]
    55ec:	91000421 	add	x1, x1, #0x1
    55f0:	f9003be1 	str	x1, [sp, #112]
    55f4:	eb01001f 	cmp	x0, x1
    55f8:	54ffe008 	b.hi	51f8 <main+0x428>  // b.pmore
    55fc:	f9404be0 	ldr	x0, [sp, #144]
    5600:	94001e68 	bl	cfa0 <_ZN11vector_tile4TileD2Ev>
    5604:	f94043e1 	ldr	x1, [sp, #128]
    5608:	f94077e0 	ldr	x0, [sp, #232]
    560c:	eb01001f 	cmp	x0, x1
    5610:	54000080 	b.eq	5620 <main+0x850>  // b.none
    5614:	f9407fe1 	ldr	x1, [sp, #248]
    5618:	91000421 	add	x1, x1, #0x1
    561c:	97fffd39 	bl	4b00 <_ZdlPvm@plt>
    5620:	f94047e0 	ldr	x0, [sp, #136]
    5624:	97fffc93 	bl	4870 <_ZNSt14basic_ifstreamIcSt11char_traitsIcEED1Ev@plt>
    5628:	f9404fe1 	ldr	x1, [sp, #152]
    562c:	f94067e0 	ldr	x0, [sp, #200]
    5630:	eb01001f 	cmp	x0, x1
    5634:	54000080 	b.eq	5644 <main+0x874>  // b.none
    5638:	f9406fe1 	ldr	x1, [sp, #216]
    563c:	91000421 	add	x1, x1, #0x1
    5640:	97fffd30 	bl	4b00 <_ZdlPvm@plt>
    5644:	94002eaf 	bl	11100 <_ZN6google8protobuf23ShutdownProtobufLibraryEv>
    5648:	9102c3e0 	add	x0, sp, #0xb0
    564c:	940004e5 	bl	69e0 <_ZNSt6vectorINSt7__cxx1112basic_stringIcSt11char_traitsIcESaIcEEESaIS5_EED2Ev>
    5650:	52800000 	mov	w0, #0x0                   	// #0
    5654:	b0000221 	adrp	x1, 4a000 <_ZTVN11vector_tile10Tile_ValueE+0x10>
    5658:	f946b821 	ldr	x1, [x1, #3440]
    565c:	f94297e3 	ldr	x3, [sp, #1320]
    5660:	f9400022 	ldr	x2, [x1]
    5664:	eb020063 	subs	x3, x3, x2
    5668:	d2800002 	mov	x2, #0x0                   	// #0
    566c:	540039a1 	b.ne	5da0 <main+0xfd0>  // b.any
    5670:	a9407bfd 	ldp	x29, x30, [sp]
    5674:	a94153f3 	ldp	x19, x20, [sp, #16]
    5678:	a9425bf5 	ldp	x21, x22, [sp, #32]
    567c:	a94363f7 	ldp	x23, x24, [sp, #48]
    5680:	a9446bf9 	ldp	x25, x26, [sp, #64]
    5684:	a94573fb 	ldp	x27, x28, [sp, #80]
    5688:	9114c3ff 	add	sp, sp, #0x530
    568c:	d65f03c0 	ret
    5690:	aa1303e2 	mov	x2, x19
    5694:	aa1703e1 	mov	x1, x23
    5698:	aa1603e0 	mov	x0, x22
    569c:	f90057f5 	str	x21, [sp, #168]
    56a0:	97fffd9c 	bl	4d10 <_ZNSt7__cxx1112basic_stringIcSt11char_traitsIcESaIcEE9_M_createERmm@plt>
    56a4:	aa0003f9 	mov	x25, x0
    56a8:	f94077e1 	ldr	x1, [sp, #232]
    56ac:	f100067f 	cmp	x19, #0x1
    56b0:	54000380 	b.eq	5720 <main+0x950>  // b.none
    56b4:	b4000093 	cbz	x19, 56c4 <main+0x8f4>
    56b8:	aa1303e2 	mov	x2, x19
    56bc:	97fffc59 	bl	4820 <memcpy@plt>
    56c0:	f94077e1 	ldr	x1, [sp, #232]
    56c4:	f94043e0 	ldr	x0, [sp, #128]
    56c8:	eb00003f 	cmp	x1, x0
    56cc:	540000a0 	b.eq	56e0 <main+0x910>  // b.none
    56d0:	f9407fe2 	ldr	x2, [sp, #248]
    56d4:	aa0103e0 	mov	x0, x1
    56d8:	91000441 	add	x1, x2, #0x1
    56dc:	97fffd09 	bl	4b00 <_ZdlPvm@plt>
    56e0:	f94057e0 	ldr	x0, [sp, #168]
    56e4:	f9007fe0 	str	x0, [sp, #248]
    56e8:	f9419fe0 	ldr	x0, [sp, #824]
    56ec:	f90077f9 	str	x25, [sp, #232]
    56f0:	f941a3e1 	ldr	x1, [sp, #832]
    56f4:	8b130339 	add	x25, x25, x19
    56f8:	eb01001f 	cmp	x0, x1
    56fc:	54ffd1c3 	b.cc	5134 <main+0x364>  // b.lo, b.ul, b.last
    5700:	f94197e1 	ldr	x1, [sp, #808]
    5704:	aa1803e0 	mov	x0, x24
    5708:	f9402421 	ldr	x1, [x1, #72]
    570c:	d63f0020 	blr	x1
    5710:	3100041f 	cmn	w0, #0x1
    5714:	54005140 	b.eq	613c <main+0x136c>  // b.none
    5718:	12001c00 	and	w0, w0, #0xff
    571c:	17fffe87 	b	5138 <main+0x368>
    5720:	39400020 	ldrb	w0, [x1]
    5724:	39000320 	strb	w0, [x25]
    5728:	f94077e1 	ldr	x1, [sp, #232]
    572c:	17ffffe6 	b	56c4 <main+0x8f4>
    5730:	aa1803e0 	mov	x0, x24
    5734:	97fffc63 	bl	48c0 <_ZNSt15basic_streambufIcSt11char_traitsIcEE5uflowEv@plt>
    5738:	aa1503f3 	mov	x19, x21
    573c:	f941a3e0 	ldr	x0, [sp, #832]
    5740:	17fffe86 	b	5158 <main+0x388>
    5744:	9102a3e1 	add	x1, sp, #0xa8
    5748:	d2800002 	mov	x2, #0x0                   	// #0
    574c:	97fffd71 	bl	4d10 <_ZNSt7__cxx1112basic_stringIcSt11char_traitsIcESaIcEE9_M_createERmm@plt>
    5750:	f94057e1 	ldr	x1, [sp, #168]
    5754:	f90067e0 	str	x0, [sp, #200]
    5758:	f9006fe1 	str	x1, [sp, #216]
    575c:	aa1303e2 	mov	x2, x19
    5760:	aa1503e1 	mov	x1, x21
    5764:	97fffc2f 	bl	4820 <memcpy@plt>
    5768:	17fffdff 	b	4f64 <main+0x194>
    576c:	f94762c0 	ldr	x0, [x22, #3776]
    5770:	f9403021 	ldr	x1, [x1, #96]
    5774:	97fffcd7 	bl	4ad0 <_ZNSo9_M_insertIlEERSoT_@plt>
    5778:	17ffff02 	b	5380 <main+0x5b0>
    577c:	f94762c0 	ldr	x0, [x22, #3776]
    5780:	fd402c20 	ldr	d0, [x1, #88]
    5784:	97fffd3f 	bl	4c80 <_ZNSo9_M_insertIdEERSoT_@plt>
    5788:	17fffefe 	b	5380 <main+0x5b0>
    578c:	f94762c0 	ldr	x0, [x22, #3776]
    5790:	d28002e2 	mov	x2, #0x17                  	// #23
    5794:	f94037e1 	ldr	x1, [sp, #104]
    5798:	97fffcea 	bl	4b40 <_ZSt16__ostream_insertIcSt11char_traitsIcEERSt13basic_ostreamIT_T0_ES6_PKS3_l@plt>
    579c:	17ffff31 	b	5460 <main+0x690>
    57a0:	f94762c0 	ldr	x0, [x22, #3776]
    57a4:	90000141 	adrp	x1, 2d000 <_ZN6google8protobuf13SStringPrintfEPNSt7__cxx1112basic_stringIcSt11char_traitsIcESaIcEEEPKcz+0x90>
    57a8:	d28000e2 	mov	x2, #0x7                   	// #7
    57ac:	91358021 	add	x1, x1, #0xd60
    57b0:	97fffce4 	bl	4b40 <_ZSt16__ostream_insertIcSt11char_traitsIcEERSt13basic_ostreamIT_T0_ES6_PKS3_l@plt>
    57b4:	17ffff38 	b	5494 <main+0x6c4>
    57b8:	f94762c0 	ldr	x0, [x22, #3776]
    57bc:	90000141 	adrp	x1, 2d000 <_ZN6google8protobuf13SStringPrintfEPNSt7__cxx1112basic_stringIcSt11char_traitsIcESaIcEEEPKcz+0x90>
    57c0:	d28000a2 	mov	x2, #0x5                   	// #5
    57c4:	9135a021 	add	x1, x1, #0xd68
    57c8:	97fffcde 	bl	4b40 <_ZSt16__ostream_insertIcSt11char_traitsIcEERSt13basic_ostreamIT_T0_ES6_PKS3_l@plt>
    57cc:	17ffff32 	b	5494 <main+0x6c4>
    57d0:	f94762c0 	ldr	x0, [x22, #3776]
    57d4:	90000141 	adrp	x1, 2d000 <_ZN6google8protobuf13SStringPrintfEPNSt7__cxx1112basic_stringIcSt11char_traitsIcESaIcEEEPKcz+0x90>
    57d8:	d2800142 	mov	x2, #0xa                   	// #10
    57dc:	9135c021 	add	x1, x1, #0xd70
    57e0:	97fffcd8 	bl	4b40 <_ZSt16__ostream_insertIcSt11char_traitsIcEERSt13basic_ostreamIT_T0_ES6_PKS3_l@plt>
    57e4:	17ffff2c 	b	5494 <main+0x6c4>
    57e8:	bd406820 	ldr	s0, [x1, #104]
    57ec:	f94762c0 	ldr	x0, [x22, #3776]
    57f0:	1e22c000 	fcvt	d0, s0
    57f4:	97fffd23 	bl	4c80 <_ZNSo9_M_insertIdEERSoT_@plt>
    57f8:	17fffee2 	b	5380 <main+0x5b0>
    57fc:	f94762c0 	ldr	x0, [x22, #3776]
    5800:	90000141 	adrp	x1, 2d000 <_ZN6google8protobuf13SStringPrintfEPNSt7__cxx1112basic_stringIcSt11char_traitsIcESaIcEEEPKcz+0x90>
    5804:	d28000e2 	mov	x2, #0x7                   	// #7
    5808:	91360021 	add	x1, x1, #0xd80
    580c:	97fffccd 	bl	4b40 <_ZSt16__ostream_insertIcSt11char_traitsIcEERSt13basic_ostreamIT_T0_ES6_PKS3_l@plt>
    5810:	17ffff21 	b	5494 <main+0x6c4>
    5814:	f94762c0 	ldr	x0, [x22, #3776]
    5818:	3941b021 	ldrb	w1, [x1, #108]
    581c:	97fffd29 	bl	4cc0 <_ZNSo9_M_insertIbEERSoT_@plt>
    5820:	17fffed8 	b	5380 <main+0x5b0>
    5824:	aa1703e1 	mov	x1, x23
    5828:	aa1503e0 	mov	x0, x21
    582c:	d2800082 	mov	x2, #0x4                   	// #4
    5830:	97fffcc4 	bl	4b40 <_ZSt16__ostream_insertIcSt11char_traitsIcEERSt13basic_ostreamIT_T0_ES6_PKS3_l@plt>
    5834:	17fffed3 	b	5380 <main+0x5b0>
    5838:	f94762c0 	ldr	x0, [x22, #3776]
    583c:	f9403c21 	ldr	x1, [x1, #120]
    5840:	97fffca4 	bl	4ad0 <_ZNSo9_M_insertIlEERSoT_@plt>
    5844:	17fffecf 	b	5380 <main+0x5b0>
    5848:	f94077e0 	ldr	x0, [sp, #232]
    584c:	39400001 	ldrb	w1, [x0]
    5850:	7101e03f 	cmp	w1, #0x78
    5854:	54002160 	b.eq	5c80 <main+0xeb0>  // b.none
    5858:	71007c3f 	cmp	w1, #0x1f
    585c:	54ffca61 	b.ne	51a8 <main+0x3d8>  // b.any
    5860:	39400400 	ldrb	w0, [x0, #1]
    5864:	71022c1f 	cmp	w0, #0x8b
    5868:	54ffca01 	b.ne	51a8 <main+0x3d8>  // b.any
    586c:	b0000236 	adrp	x22, 4a000 <_ZTVN11vector_tile10Tile_ValueE+0x10>
    5870:	90000141 	adrp	x1, 2d000 <_ZN6google8protobuf13SStringPrintfEPNSt7__cxx1112basic_stringIcSt11char_traitsIcESaIcEEEPKcz+0x90>
    5874:	d2800322 	mov	x2, #0x19                  	// #25
    5878:	912d8021 	add	x1, x1, #0xb60
    587c:	f94762c0 	ldr	x0, [x22, #3776]
    5880:	97fffcb0 	bl	4b40 <_ZSt16__ostream_insertIcSt11char_traitsIcEERSt13basic_ostreamIT_T0_ES6_PKS3_l@plt>
    5884:	1400010f 	b	5cc0 <main+0xef0>
    5888:	f94762c0 	ldr	x0, [x22, #3776]
    588c:	90000141 	adrp	x1, 2d000 <_ZN6google8protobuf13SStringPrintfEPNSt7__cxx1112basic_stringIcSt11char_traitsIcESaIcEEEPKcz+0x90>
    5890:	d2800102 	mov	x2, #0x8                   	// #8
    5894:	912fc021 	add	x1, x1, #0xbf0
    5898:	97fffcaa 	bl	4b40 <_ZSt16__ostream_insertIcSt11char_traitsIcEERSt13basic_ostreamIT_T0_ES6_PKS3_l@plt>
    589c:	f94762c0 	ldr	x0, [x22, #3776]
    58a0:	b98183e1 	ldrsw	x1, [sp, #384]
    58a4:	97fffc53 	bl	49f0 <_ZNSo9_M_insertImEERSoT_@plt>
    58a8:	9000015a 	adrp	x26, 2d000 <_ZN6google8protobuf13SStringPrintfEPNSt7__cxx1112basic_stringIcSt11char_traitsIcESaIcEEEPKcz+0x90>
    58ac:	912d6341 	add	x1, x26, #0xb58
    58b0:	97fffc8c 	bl	4ae0 <_ZStlsISt11char_traitsIcEERSt13basic_ostreamIcT_ES5_PKc@plt>
    58b4:	90000140 	adrp	x0, 2d000 <_ZN6google8protobuf13SStringPrintfEPNSt7__cxx1112basic_stringIcSt11char_traitsIcESaIcEEEPKcz+0x90>
    58b8:	91300000 	add	x0, x0, #0xc00
    58bc:	a90603ff 	stp	xzr, x0, [sp, #96]
    58c0:	b98183e0 	ldrsw	x0, [sp, #384]
    58c4:	f94033e1 	ldr	x1, [sp, #96]
    58c8:	eb01001f 	cmp	x0, x1
    58cc:	54ffe989 	b.ls	55fc <main+0x82c>  // b.plast
    58d0:	f940c7e1 	ldr	x1, [sp, #392]
    58d4:	b94063e2 	ldr	w2, [sp, #96]
    58d8:	f94762c0 	ldr	x0, [x22, #3776]
    58dc:	8b22cc21 	add	x1, x1, w2, sxtw #3
    58e0:	f9400433 	ldr	x19, [x1, #8]
    58e4:	f9404e62 	ldr	x2, [x19, #152]
    58e8:	a9400841 	ldp	x1, x2, [x2]
    58ec:	97fffc95 	bl	4b40 <_ZSt16__ostream_insertIcSt11char_traitsIcEERSt13basic_ostreamIT_T0_ES6_PKS3_l@plt>
    58f0:	f94037e1 	ldr	x1, [sp, #104]
    58f4:	97fffc7b 	bl	4ae0 <_ZStlsISt11char_traitsIcEERSt13basic_ostreamIcT_ES5_PKc@plt>
    58f8:	f94762c0 	ldr	x0, [x22, #3776]
    58fc:	90000141 	adrp	x1, 2d000 <_ZN6google8protobuf13SStringPrintfEPNSt7__cxx1112basic_stringIcSt11char_traitsIcESaIcEEEPKcz+0x90>
    5900:	d2800162 	mov	x2, #0xb                   	// #11
    5904:	91302021 	add	x1, x1, #0xc08
    5908:	97fffc8e 	bl	4b40 <_ZSt16__ostream_insertIcSt11char_traitsIcEERSt13basic_ostreamIT_T0_ES6_PKS3_l@plt>
    590c:	f94762c0 	ldr	x0, [x22, #3776]
    5910:	b940a661 	ldr	w1, [x19, #164]
    5914:	97fffc37 	bl	49f0 <_ZNSo9_M_insertImEERSoT_@plt>
    5918:	912d6341 	add	x1, x26, #0xb58
    591c:	97fffc71 	bl	4ae0 <_ZStlsISt11char_traitsIcEERSt13basic_ostreamIcT_ES5_PKc@plt>
    5920:	f94762c0 	ldr	x0, [x22, #3776]
    5924:	90000141 	adrp	x1, 2d000 <_ZN6google8protobuf13SStringPrintfEPNSt7__cxx1112basic_stringIcSt11char_traitsIcESaIcEEEPKcz+0x90>
    5928:	d2800142 	mov	x2, #0xa                   	// #10
    592c:	91306021 	add	x1, x1, #0xc18
    5930:	97fffc84 	bl	4b40 <_ZSt16__ostream_insertIcSt11char_traitsIcEERSt13basic_ostreamIT_T0_ES6_PKS3_l@plt>
    5934:	f94762c0 	ldr	x0, [x22, #3776]
    5938:	b940a261 	ldr	w1, [x19, #160]
    593c:	97fffc2d 	bl	49f0 <_ZNSo9_M_insertImEERSoT_@plt>
    5940:	912d6341 	add	x1, x26, #0xb58
    5944:	97fffc67 	bl	4ae0 <_ZStlsISt11char_traitsIcEERSt13basic_ostreamIcT_ES5_PKc@plt>
    5948:	f94762c0 	ldr	x0, [x22, #3776]
    594c:	90000141 	adrp	x1, 2d000 <_ZN6google8protobuf13SStringPrintfEPNSt7__cxx1112basic_stringIcSt11char_traitsIcESaIcEEEPKcz+0x90>
    5950:	d2800182 	mov	x2, #0xc                   	// #12
    5954:	9130a021 	add	x1, x1, #0xc28
    5958:	97fffc7a 	bl	4b40 <_ZSt16__ostream_insertIcSt11char_traitsIcEERSt13basic_ostreamIT_T0_ES6_PKS3_l@plt>
    595c:	f94762c0 	ldr	x0, [x22, #3776]
    5960:	91014274 	add	x20, x19, #0x50
    5964:	b9805a61 	ldrsw	x1, [x19, #88]
    5968:	97fffc22 	bl	49f0 <_ZNSo9_M_insertImEERSoT_@plt>
    596c:	912d6341 	add	x1, x26, #0xb58
    5970:	97fffc5c 	bl	4ae0 <_ZStlsISt11char_traitsIcEERSt13basic_ostreamIcT_ES5_PKc@plt>
    5974:	f94762c0 	ldr	x0, [x22, #3776]
    5978:	90000141 	adrp	x1, 2d000 <_ZN6google8protobuf13SStringPrintfEPNSt7__cxx1112basic_stringIcSt11char_traitsIcESaIcEEEPKcz+0x90>
    597c:	d2800102 	mov	x2, #0x8                   	// #8
    5980:	9130e021 	add	x1, x1, #0xc38
    5984:	97fffc6f 	bl	4b40 <_ZSt16__ostream_insertIcSt11char_traitsIcEERSt13basic_ostreamIT_T0_ES6_PKS3_l@plt>
    5988:	f94762c0 	ldr	x0, [x22, #3776]
    598c:	b9807261 	ldrsw	x1, [x19, #112]
    5990:	97fffc18 	bl	49f0 <_ZNSo9_M_insertImEERSoT_@plt>
    5994:	912d6341 	add	x1, x26, #0xb58
    5998:	97fffc52 	bl	4ae0 <_ZStlsISt11char_traitsIcEERSt13basic_ostreamIcT_ES5_PKc@plt>
    599c:	f94762c0 	ldr	x0, [x22, #3776]
    59a0:	90000141 	adrp	x1, 2d000 <_ZN6google8protobuf13SStringPrintfEPNSt7__cxx1112basic_stringIcSt11char_traitsIcESaIcEEEPKcz+0x90>
    59a4:	d2800142 	mov	x2, #0xa                   	// #10
    59a8:	91312021 	add	x1, x1, #0xc48
    59ac:	97fffc65 	bl	4b40 <_ZSt16__ostream_insertIcSt11char_traitsIcEERSt13basic_ostreamIT_T0_ES6_PKS3_l@plt>
    59b0:	f94762c0 	ldr	x0, [x22, #3776]
    59b4:	b9808a61 	ldrsw	x1, [x19, #136]
    59b8:	97fffc0e 	bl	49f0 <_ZNSo9_M_insertImEERSoT_@plt>
    59bc:	912d6341 	add	x1, x26, #0xb58
    59c0:	97fffc48 	bl	4ae0 <_ZStlsISt11char_traitsIcEERSt13basic_ostreamIcT_ES5_PKc@plt>
    59c4:	b9800a88 	ldrsw	x8, [x20, #8]
    59c8:	b4001dc8 	cbz	x8, 5d80 <main+0xfb0>
    59cc:	d2800006 	mov	x6, #0x0                   	// #0
    59d0:	52800015 	mov	w21, #0x0                   	// #0
    59d4:	52800018 	mov	w24, #0x0                   	// #0
    59d8:	52800017 	mov	w23, #0x0                   	// #0
    59dc:	52800019 	mov	w25, #0x0                   	// #0
    59e0:	5280001c 	mov	w28, #0x0                   	// #0
    59e4:	5280001b 	mov	w27, #0x0                   	// #0
    59e8:	f9400a87 	ldr	x7, [x20, #16]
    59ec:	52800014 	mov	w20, #0x0                   	// #0
    59f0:	8b26cce0 	add	x0, x7, w6, sxtw #3
    59f4:	f9400400 	ldr	x0, [x0, #8]
    59f8:	9100c005 	add	x5, x0, #0x30
    59fc:	b9403003 	ldr	w3, [x0, #48]
    5a00:	0b03037b 	add	w27, w27, w3
    5a04:	7100007f 	cmp	w3, #0x0
    5a08:	5400026d 	b.le	5a54 <main+0xc84>
    5a0c:	52800001 	mov	w1, #0x0                   	// #0
    5a10:	52800004 	mov	w4, #0x0                   	// #0
    5a14:	52800000 	mov	w0, #0x0                   	// #0
    5a18:	12800013 	mov	w19, #0xffffffff            	// #-1
    5a1c:	d503201f 	nop
    5a20:	35000c00 	cbnz	w0, 5ba0 <main+0xdd0>
    5a24:	f94004a0 	ldr	x0, [x5, #8]
    5a28:	11000422 	add	w2, w1, #0x1
    5a2c:	11000694 	add	w20, w20, #0x1
    5a30:	8b21c801 	add	x1, x0, w1, sxtw #2
    5a34:	b9400820 	ldr	w0, [x1, #8]
    5a38:	12000813 	and	w19, w0, #0x7
    5a3c:	53037c00 	lsr	w0, w0, #3
    5a40:	35000ae0 	cbnz	w0, 5b9c <main+0xdcc>
    5a44:	11000718 	add	w24, w24, #0x1
    5a48:	2a0203e1 	mov	w1, w2
    5a4c:	6b01007f 	cmp	w3, w1
    5a50:	54fffe8c 	b.gt	5a20 <main+0xc50>
    5a54:	910004c6 	add	x6, x6, #0x1
    5a58:	eb06011f 	cmp	x8, x6
    5a5c:	54fffca1 	b.ne	59f0 <main+0xc20>  // b.any
    5a60:	f94762c0 	ldr	x0, [x22, #3776]
    5a64:	90000141 	adrp	x1, 2d000 <_ZN6google8protobuf13SStringPrintfEPNSt7__cxx1112basic_stringIcSt11char_traitsIcESaIcEEEPKcz+0x90>
    5a68:	d2800282 	mov	x2, #0x14                  	// #20
    5a6c:	9131c021 	add	x1, x1, #0xc70
    5a70:	97fffc34 	bl	4b40 <_ZSt16__ostream_insertIcSt11char_traitsIcEERSt13basic_ostreamIT_T0_ES6_PKS3_l@plt>
    5a74:	f94762c0 	ldr	x0, [x22, #3776]
    5a78:	90000141 	adrp	x1, 2d000 <_ZN6google8protobuf13SStringPrintfEPNSt7__cxx1112basic_stringIcSt11char_traitsIcESaIcEEEPKcz+0x90>
    5a7c:	d2800162 	mov	x2, #0xb                   	// #11
    5a80:	91322021 	add	x1, x1, #0xc88
    5a84:	97fffc2f 	bl	4b40 <_ZSt16__ostream_insertIcSt11char_traitsIcEERSt13basic_ostreamIT_T0_ES6_PKS3_l@plt>
    5a88:	f94762c0 	ldr	x0, [x22, #3776]
    5a8c:	2a1b03e1 	mov	w1, w27
    5a90:	97fffbd8 	bl	49f0 <_ZNSo9_M_insertImEERSoT_@plt>
    5a94:	912d6341 	add	x1, x26, #0xb58
    5a98:	97fffc12 	bl	4ae0 <_ZStlsISt11char_traitsIcEERSt13basic_ostreamIcT_ES5_PKc@plt>
    5a9c:	f94762c0 	ldr	x0, [x22, #3776]
    5aa0:	90000141 	adrp	x1, 2d000 <_ZN6google8protobuf13SStringPrintfEPNSt7__cxx1112basic_stringIcSt11char_traitsIcESaIcEEEPKcz+0x90>
    5aa4:	d28001c2 	mov	x2, #0xe                   	// #14
    5aa8:	91326021 	add	x1, x1, #0xc98
    5aac:	97fffc25 	bl	4b40 <_ZSt16__ostream_insertIcSt11char_traitsIcEERSt13basic_ostreamIT_T0_ES6_PKS3_l@plt>
    5ab0:	f94762c0 	ldr	x0, [x22, #3776]
    5ab4:	2a1403e1 	mov	w1, w20
    5ab8:	97fffbce 	bl	49f0 <_ZNSo9_M_insertImEERSoT_@plt>
    5abc:	912d6341 	add	x1, x26, #0xb58
    5ac0:	97fffc08 	bl	4ae0 <_ZStlsISt11char_traitsIcEERSt13basic_ostreamIcT_ES5_PKc@plt>
    5ac4:	f94762c0 	ldr	x0, [x22, #3776]
    5ac8:	90000141 	adrp	x1, 2d000 <_ZN6google8protobuf13SStringPrintfEPNSt7__cxx1112basic_stringIcSt11char_traitsIcESaIcEEEPKcz+0x90>
    5acc:	d28001a2 	mov	x2, #0xd                   	// #13
    5ad0:	9132a021 	add	x1, x1, #0xca8
    5ad4:	97fffc1b 	bl	4b40 <_ZSt16__ostream_insertIcSt11char_traitsIcEERSt13basic_ostreamIT_T0_ES6_PKS3_l@plt>
    5ad8:	f94762c0 	ldr	x0, [x22, #3776]
    5adc:	2a1c03e1 	mov	w1, w28
    5ae0:	97fffbc4 	bl	49f0 <_ZNSo9_M_insertImEERSoT_@plt>
    5ae4:	912d6341 	add	x1, x26, #0xb58
    5ae8:	97fffbfe 	bl	4ae0 <_ZStlsISt11char_traitsIcEERSt13basic_ostreamIcT_ES5_PKc@plt>
    5aec:	f94762c0 	ldr	x0, [x22, #3776]
    5af0:	90000141 	adrp	x1, 2d000 <_ZN6google8protobuf13SStringPrintfEPNSt7__cxx1112basic_stringIcSt11char_traitsIcESaIcEEEPKcz+0x90>
    5af4:	d28001a2 	mov	x2, #0xd                   	// #13
    5af8:	9132e021 	add	x1, x1, #0xcb8
    5afc:	97fffc11 	bl	4b40 <_ZSt16__ostream_insertIcSt11char_traitsIcEERSt13basic_ostreamIT_T0_ES6_PKS3_l@plt>
    5b00:	f94762c0 	ldr	x0, [x22, #3776]
    5b04:	2a1903e1 	mov	w1, w25
    5b08:	97fffbba 	bl	49f0 <_ZNSo9_M_insertImEERSoT_@plt>
    5b0c:	912d6341 	add	x1, x26, #0xb58
    5b10:	97fffbf4 	bl	4ae0 <_ZStlsISt11char_traitsIcEERSt13basic_ostreamIcT_ES5_PKc@plt>
    5b14:	f94762c0 	ldr	x0, [x22, #3776]
    5b18:	90000141 	adrp	x1, 2d000 <_ZN6google8protobuf13SStringPrintfEPNSt7__cxx1112basic_stringIcSt11char_traitsIcESaIcEEEPKcz+0x90>
    5b1c:	d2800162 	mov	x2, #0xb                   	// #11
    5b20:	91332021 	add	x1, x1, #0xcc8
    5b24:	97fffc07 	bl	4b40 <_ZSt16__ostream_insertIcSt11char_traitsIcEERSt13basic_ostreamIT_T0_ES6_PKS3_l@plt>
    5b28:	f94762c0 	ldr	x0, [x22, #3776]
    5b2c:	2a1703e1 	mov	w1, w23
    5b30:	97fffbb0 	bl	49f0 <_ZNSo9_M_insertImEERSoT_@plt>
    5b34:	912d6341 	add	x1, x26, #0xb58
    5b38:	97fffbea 	bl	4ae0 <_ZStlsISt11char_traitsIcEERSt13basic_ostreamIcT_ES5_PKc@plt>
    5b3c:	f94762c0 	ldr	x0, [x22, #3776]
    5b40:	90000141 	adrp	x1, 2d000 <_ZN6google8protobuf13SStringPrintfEPNSt7__cxx1112basic_stringIcSt11char_traitsIcESaIcEEEPKcz+0x90>
    5b44:	d2800322 	mov	x2, #0x19                  	// #25
    5b48:	91336021 	add	x1, x1, #0xcd8
    5b4c:	97fffbfd 	bl	4b40 <_ZSt16__ostream_insertIcSt11char_traitsIcEERSt13basic_ostreamIT_T0_ES6_PKS3_l@plt>
    5b50:	f94762c0 	ldr	x0, [x22, #3776]
    5b54:	2a1503e1 	mov	w1, w21
    5b58:	97fffba6 	bl	49f0 <_ZNSo9_M_insertImEERSoT_@plt>
    5b5c:	912d6341 	add	x1, x26, #0xb58
    5b60:	97fffbe0 	bl	4ae0 <_ZStlsISt11char_traitsIcEERSt13basic_ostreamIcT_ES5_PKc@plt>
    5b64:	f94762c0 	ldr	x0, [x22, #3776]
    5b68:	90000141 	adrp	x1, 2d000 <_ZN6google8protobuf13SStringPrintfEPNSt7__cxx1112basic_stringIcSt11char_traitsIcESaIcEEEPKcz+0x90>
    5b6c:	d2800222 	mov	x2, #0x11                  	// #17
    5b70:	9133e021 	add	x1, x1, #0xcf8
    5b74:	97fffbf3 	bl	4b40 <_ZSt16__ostream_insertIcSt11char_traitsIcEERSt13basic_ostreamIT_T0_ES6_PKS3_l@plt>
    5b78:	f94762c0 	ldr	x0, [x22, #3776]
    5b7c:	2a1803e1 	mov	w1, w24
    5b80:	97fffb9c 	bl	49f0 <_ZNSo9_M_insertImEERSoT_@plt>
    5b84:	912d6341 	add	x1, x26, #0xb58
    5b88:	97fffbd6 	bl	4ae0 <_ZStlsISt11char_traitsIcEERSt13basic_ostreamIcT_ES5_PKc@plt>
    5b8c:	f94033e0 	ldr	x0, [sp, #96]
    5b90:	91000400 	add	x0, x0, #0x1
    5b94:	f90033e0 	str	x0, [sp, #96]
    5b98:	17ffff4a 	b	58c0 <main+0xaf0>
    5b9c:	2a0203e1 	mov	w1, w2
    5ba0:	51000662 	sub	w2, w19, #0x1
    5ba4:	51000400 	sub	w0, w0, #0x1
    5ba8:	7100045f 	cmp	w2, #0x1
    5bac:	54000129 	b.ls	5bd0 <main+0xe00>  // b.plast
    5bb0:	71001e7f 	cmp	w19, #0x7
    5bb4:	54000201 	b.ne	5bf4 <main+0xe24>  // b.any
    5bb8:	71000c9f 	cmp	w4, #0x3
    5bbc:	110006f7 	add	w23, w23, #0x1
    5bc0:	1a9526b5 	cinc	w21, w21, cc  // cc = lo, ul, last
    5bc4:	52800004 	mov	w4, #0x0                   	// #0
    5bc8:	52800000 	mov	w0, #0x0                   	// #0
    5bcc:	17ffffa0 	b	5a4c <main+0xc7c>
    5bd0:	11000821 	add	w1, w1, #0x2
    5bd4:	11000484 	add	w4, w4, #0x1
    5bd8:	7100067f 	cmp	w19, #0x1
    5bdc:	54000080 	b.eq	5bec <main+0xe1c>  // b.none
    5be0:	11000739 	add	w25, w25, #0x1
    5be4:	52800053 	mov	w19, #0x2                   	// #2
    5be8:	17ffff99 	b	5a4c <main+0xc7c>
    5bec:	1100079c 	add	w28, w28, #0x1
    5bf0:	17ffff97 	b	5a4c <main+0xc7c>
    5bf4:	910643f5 	add	x21, sp, #0x190
    5bf8:	aa1503e0 	mov	x0, x21
    5bfc:	97fffb89 	bl	4a20 <_ZNSt7__cxx1118basic_stringstreamIcSt11char_traitsIcESaIcEEC1Ev@plt>
    5c00:	910683f7 	add	x23, sp, #0x1a0
    5c04:	90000141 	adrp	x1, 2d000 <_ZN6google8protobuf13SStringPrintfEPNSt7__cxx1112basic_stringIcSt11char_traitsIcESaIcEEEPKcz+0x90>
    5c08:	aa1703e0 	mov	x0, x23
    5c0c:	91316021 	add	x1, x1, #0xc58
    5c10:	d28002c2 	mov	x2, #0x16                  	// #22
    5c14:	97fffbcb 	bl	4b40 <_ZSt16__ostream_insertIcSt11char_traitsIcEERSt13basic_ostreamIT_T0_ES6_PKS3_l@plt>
    5c18:	2a1303e1 	mov	w1, w19
    5c1c:	aa1703e0 	mov	x0, x23
    5c20:	97fffc34 	bl	4cf0 <_ZNSolsEi@plt>
    5c24:	910423f3 	add	x19, sp, #0x108
    5c28:	d2800200 	mov	x0, #0x10                  	// #16
    5c2c:	97fffb41 	bl	4930 <__cxa_allocate_exception@plt>
    5c30:	aa0003f6 	mov	x22, x0
    5c34:	aa1303e8 	mov	x8, x19
    5c38:	9106a3e0 	add	x0, sp, #0x1a8
    5c3c:	97fffc09 	bl	4c60 <_ZNKSt7__cxx1115basic_stringbufIcSt11char_traitsIcESaIcEE3strEv@plt>
    5c40:	aa1303e1 	mov	x1, x19
    5c44:	aa1603e0 	mov	x0, x22
    5c48:	97fffc12 	bl	4c90 <_ZNSt13runtime_errorC1ERKNSt7__cxx1112basic_stringIcSt11char_traitsIcESaIcEEE@plt>
    5c4c:	f94087e0 	ldr	x0, [sp, #264]
    5c50:	910463e1 	add	x1, sp, #0x118
    5c54:	eb01001f 	cmp	x0, x1
    5c58:	54000080 	b.eq	5c68 <main+0xe98>  // b.none
    5c5c:	f9408fe1 	ldr	x1, [sp, #280]
    5c60:	91000421 	add	x1, x1, #0x1
    5c64:	97fffba7 	bl	4b00 <_ZdlPvm@plt>
    5c68:	b0000222 	adrp	x2, 4a000 <_ZTVN11vector_tile10Tile_ValueE+0x10>
    5c6c:	b0000221 	adrp	x1, 4a000 <_ZTVN11vector_tile10Tile_ValueE+0x10>
    5c70:	aa1603e0 	mov	x0, x22
    5c74:	f9472842 	ldr	x2, [x2, #3664]
    5c78:	f947f021 	ldr	x1, [x1, #4064]
    5c7c:	97fffc19 	bl	4ce0 <__cxa_throw@plt>
    5c80:	39400400 	ldrb	w0, [x0, #1]
    5c84:	52801b42 	mov	w2, #0xda                  	// #218
    5c88:	7102701f 	cmp	w0, #0x9c
    5c8c:	7a411804 	ccmp	w0, #0x1, #0x4, ne  // ne = any
    5c90:	1a9f17e1 	cset	w1, eq  // eq = none
    5c94:	7101781f 	cmp	w0, #0x5e
    5c98:	7a421004 	ccmp	w0, w2, #0x4, ne  // ne = any
    5c9c:	1a9f17e0 	cset	w0, eq  // eq = none
    5ca0:	2a000020 	orr	w0, w1, w0
    5ca4:	34ffa820 	cbz	w0, 51a8 <main+0x3d8>
    5ca8:	b0000236 	adrp	x22, 4a000 <_ZTVN11vector_tile10Tile_ValueE+0x10>
    5cac:	90000141 	adrp	x1, 2d000 <_ZN6google8protobuf13SStringPrintfEPNSt7__cxx1112basic_stringIcSt11char_traitsIcESaIcEEEPKcz+0x90>
    5cb0:	d2800322 	mov	x2, #0x19                  	// #25
    5cb4:	912d0021 	add	x1, x1, #0xb40
    5cb8:	f94762c0 	ldr	x0, [x22, #3776]
    5cbc:	97fffba1 	bl	4b40 <_ZSt16__ostream_insertIcSt11char_traitsIcEERSt13basic_ostreamIT_T0_ES6_PKS3_l@plt>
    5cc0:	a94e87e0 	ldp	x0, x1, [sp, #232]
    5cc4:	910643f5 	add	x21, sp, #0x190
    5cc8:	910683f7 	add	x23, sp, #0x1a0
    5ccc:	aa1503e2 	mov	x2, x21
    5cd0:	a9197ff7 	stp	x23, xzr, [sp, #400]
    5cd4:	390683ff 	strb	wzr, [sp, #416]
    5cd8:	940002ba 	bl	67c0 <_ZN6mapnik16vector_tile_impl15zlib_decompressEPKcmRNSt7__cxx1112basic_stringIcSt11char_traitsIcESaIcEEE>
    5cdc:	f9404be0 	ldr	x0, [sp, #144]
    5ce0:	aa1503e1 	mov	x1, x21
    5ce4:	94008123 	bl	26170 <_ZN6google8protobuf11MessageLite15ParseFromStringERKNSt7__cxx1112basic_stringIcSt11char_traitsIcESaIcEEE>
    5ce8:	72001c1f 	tst	w0, #0xff
    5cec:	54000100 	b.eq	5d0c <main+0xf3c>  // b.none
    5cf0:	f940cbe0 	ldr	x0, [sp, #400]
    5cf4:	eb17001f 	cmp	x0, x23
    5cf8:	54ffa6e0 	b.eq	51d4 <main+0x404>  // b.none
    5cfc:	f940d3e1 	ldr	x1, [sp, #416]
    5d00:	91000421 	add	x1, x1, #0x1
    5d04:	97fffb7f 	bl	4b00 <_ZdlPvm@plt>
    5d08:	17fffd33 	b	51d4 <main+0x404>
    5d0c:	b0000220 	adrp	x0, 4a000 <_ZTVN11vector_tile10Tile_ValueE+0x10>
    5d10:	90000141 	adrp	x1, 2d000 <_ZN6google8protobuf13SStringPrintfEPNSt7__cxx1112basic_stringIcSt11char_traitsIcESaIcEEEPKcz+0x90>
    5d14:	912e0021 	add	x1, x1, #0xb80
    5d18:	f946ac00 	ldr	x0, [x0, #3416]
    5d1c:	97fffb71 	bl	4ae0 <_ZStlsISt11char_traitsIcEERSt13basic_ostreamIcT_ES5_PKc@plt>
    5d20:	17fffff4 	b	5cf0 <main+0xf20>
    5d24:	b0000220 	adrp	x0, 4a000 <_ZTVN11vector_tile10Tile_ValueE+0x10>
    5d28:	90000141 	adrp	x1, 2d000 <_ZN6google8protobuf13SStringPrintfEPNSt7__cxx1112basic_stringIcSt11char_traitsIcESaIcEEEPKcz+0x90>
    5d2c:	912f4021 	add	x1, x1, #0xbd0
    5d30:	f946ac00 	ldr	x0, [x0, #3416]
    5d34:	97fffb6b 	bl	4ae0 <_ZStlsISt11char_traitsIcEERSt13basic_ostreamIcT_ES5_PKc@plt>
    5d38:	17fffd27 	b	51d4 <main+0x404>
    5d3c:	f94197e1 	ldr	x1, [sp, #808]
    5d40:	aa1603e0 	mov	x0, x22
    5d44:	f9402421 	ldr	x1, [x1, #72]
    5d48:	d63f0020 	blr	x1
    5d4c:	3100041f 	cmn	w0, #0x1
    5d50:	540005e0 	b.eq	5e0c <main+0x103c>  // b.none
    5d54:	12001c00 	and	w0, w0, #0xff
    5d58:	17fffca8 	b	4ff8 <main+0x228>
    5d5c:	b0000220 	adrp	x0, 4a000 <_ZTVN11vector_tile10Tile_ValueE+0x10>
    5d60:	90000141 	adrp	x1, 2d000 <_ZN6google8protobuf13SStringPrintfEPNSt7__cxx1112basic_stringIcSt11char_traitsIcESaIcEEEPKcz+0x90>
    5d64:	912a8021 	add	x1, x1, #0xaa0
    5d68:	f946ac00 	ldr	x0, [x0, #3416]
    5d6c:	97fffb5d 	bl	4ae0 <_ZStlsISt11char_traitsIcEERSt13basic_ostreamIcT_ES5_PKc@plt>
    5d70:	9102c3e0 	add	x0, sp, #0xb0
    5d74:	9400031b 	bl	69e0 <_ZNSt6vectorINSt7__cxx1112basic_stringIcSt11char_traitsIcESaIcEEESaIS5_EED2Ev>
    5d78:	12800000 	mov	w0, #0xffffffff            	// #-1
    5d7c:	17fffe36 	b	5654 <main+0x884>
    5d80:	52800015 	mov	w21, #0x0                   	// #0
    5d84:	52800018 	mov	w24, #0x0                   	// #0
    5d88:	52800017 	mov	w23, #0x0                   	// #0
    5d8c:	52800019 	mov	w25, #0x0                   	// #0
    5d90:	5280001c 	mov	w28, #0x0                   	// #0
    5d94:	52800014 	mov	w20, #0x0                   	// #0
    5d98:	5280001b 	mov	w27, #0x0                   	// #0
    5d9c:	17ffff31 	b	5a60 <main+0xc90>
    5da0:	97fffad4 	bl	48f0 <__stack_chk_fail@plt>
    5da4:	90000140 	adrp	x0, 2d000 <_ZN6google8protobuf13SStringPrintfEPNSt7__cxx1112basic_stringIcSt11char_traitsIcESaIcEEEPKcz+0x90>
    5da8:	9128c000 	add	x0, x0, #0xa30
    5dac:	97fffb25 	bl	4a40 <_ZSt19__throw_logic_errorPKc@plt>
    5db0:	aa0103f4 	mov	x20, x1
    5db4:	f100069f 	cmp	x20, #0x1
    5db8:	54001ca1 	b.ne	614c <main+0x137c>  // b.any
    5dbc:	b0000234 	adrp	x20, 4a000 <_ZTVN11vector_tile10Tile_ValueE+0x10>
    5dc0:	97fffad8 	bl	4920 <__cxa_begin_catch@plt>
    5dc4:	aa0003f3 	mov	x19, x0
    5dc8:	90000141 	adrp	x1, 2d000 <_ZN6google8protobuf13SStringPrintfEPNSt7__cxx1112basic_stringIcSt11char_traitsIcESaIcEEEPKcz+0x90>
    5dcc:	f946ae80 	ldr	x0, [x20, #3416]
    5dd0:	9136c021 	add	x1, x1, #0xdb0
    5dd4:	d28000e2 	mov	x2, #0x7                   	// #7
    5dd8:	97fffb5a 	bl	4b40 <_ZSt16__ostream_insertIcSt11char_traitsIcEERSt13basic_ostreamIT_T0_ES6_PKS3_l@plt>
    5ddc:	f9400261 	ldr	x1, [x19]
    5de0:	aa1303e0 	mov	x0, x19
    5de4:	f9400821 	ldr	x1, [x1, #16]
    5de8:	d63f0020 	blr	x1
    5dec:	aa0003e1 	mov	x1, x0
    5df0:	f946ae80 	ldr	x0, [x20, #3416]
    5df4:	97fffb3b 	bl	4ae0 <_ZStlsISt11char_traitsIcEERSt13basic_ostreamIcT_ES5_PKc@plt>
    5df8:	90000141 	adrp	x1, 2d000 <_ZN6google8protobuf13SStringPrintfEPNSt7__cxx1112basic_stringIcSt11char_traitsIcESaIcEEEPKcz+0x90>
    5dfc:	912d6021 	add	x1, x1, #0xb58
    5e00:	97fffb38 	bl	4ae0 <_ZStlsISt11char_traitsIcEERSt13basic_ostreamIcT_ES5_PKc@plt>
    5e04:	97fffba7 	bl	4ca0 <__cxa_end_catch@plt>
    5e08:	17ffffda 	b	5d70 <main+0xfa0>
    5e0c:	d2800001 	mov	x1, #0x0                   	// #0
    5e10:	39000260 	strb	w0, [x19]
    5e14:	f9400820 	ldr	x0, [x1, #16]
    5e18:	d4207d00 	brk	#0x3e8
    5e1c:	aa0003f3 	mov	x19, x0
    5e20:	aa0103f4 	mov	x20, x1
    5e24:	aa1503e0 	mov	x0, x21
    5e28:	97fffb16 	bl	4a80 <_ZNSt7__cxx1118basic_stringstreamIcSt11char_traitsIcESaIcEED1Ev@plt>
    5e2c:	f9404be0 	ldr	x0, [sp, #144]
    5e30:	94001c5c 	bl	cfa0 <_ZN11vector_tile4TileD2Ev>
    5e34:	f94043e1 	ldr	x1, [sp, #128]
    5e38:	f94077e0 	ldr	x0, [sp, #232]
    5e3c:	eb01001f 	cmp	x0, x1
    5e40:	540002c1 	b.ne	5e98 <main+0x10c8>  // b.any
    5e44:	f94047e0 	ldr	x0, [sp, #136]
    5e48:	97fffa8a 	bl	4870 <_ZNSt14basic_ifstreamIcSt11char_traitsIcEED1Ev@plt>
    5e4c:	f9404fe1 	ldr	x1, [sp, #152]
    5e50:	f94067e0 	ldr	x0, [sp, #200]
    5e54:	eb01001f 	cmp	x0, x1
    5e58:	54000080 	b.eq	5e68 <main+0x1098>  // b.none
    5e5c:	f9406fe1 	ldr	x1, [sp, #216]
    5e60:	91000421 	add	x1, x1, #0x1
    5e64:	97fffb27 	bl	4b00 <_ZdlPvm@plt>
    5e68:	aa1303e0 	mov	x0, x19
    5e6c:	17ffffd2 	b	5db4 <main+0xfe4>
    5e70:	f940cbe2 	ldr	x2, [sp, #400]
    5e74:	aa0003f3 	mov	x19, x0
    5e78:	aa0103f4 	mov	x20, x1
    5e7c:	eb17005f 	cmp	x2, x23
    5e80:	54fffd60 	b.eq	5e2c <main+0x105c>  // b.none
    5e84:	f940d3e1 	ldr	x1, [sp, #416]
    5e88:	aa0203e0 	mov	x0, x2
    5e8c:	91000421 	add	x1, x1, #0x1
    5e90:	97fffb1c 	bl	4b00 <_ZdlPvm@plt>
    5e94:	17ffffe6 	b	5e2c <main+0x105c>
    5e98:	f9407fe1 	ldr	x1, [sp, #248]
    5e9c:	91000421 	add	x1, x1, #0x1
    5ea0:	97fffb18 	bl	4b00 <_ZdlPvm@plt>
    5ea4:	17ffffe8 	b	5e44 <main+0x1074>
    5ea8:	aa0003f3 	mov	x19, x0
    5eac:	aa0103f4 	mov	x20, x1
    5eb0:	17ffffe7 	b	5e4c <main+0x107c>
    5eb4:	d2800200 	mov	x0, #0x10                  	// #16
    5eb8:	97fffa9e 	bl	4930 <__cxa_allocate_exception@plt>
    5ebc:	9104a3e2 	add	x2, sp, #0x128
    5ec0:	aa0003f4 	mov	x20, x0
    5ec4:	f9406be1 	ldr	x1, [sp, #208]
    5ec8:	9104e3f5 	add	x21, sp, #0x138
    5ecc:	aa0203e0 	mov	x0, x2
    5ed0:	f9004be2 	str	x2, [sp, #144]
    5ed4:	91004421 	add	x1, x1, #0x11
    5ed8:	a912fff5 	stp	x21, xzr, [sp, #296]
    5edc:	3904e3ff 	strb	wzr, [sp, #312]
    5ee0:	97fffb5c 	bl	4c50 <_ZNSt7__cxx1112basic_stringIcSt11char_traitsIcESaIcEE7reserveEm@plt>
    5ee4:	f9409be1 	ldr	x1, [sp, #304]
    5ee8:	92f80000 	mov	x0, #0x3fffffffffffffff    	// #4611686018427387903
    5eec:	cb010000 	sub	x0, x0, x1
    5ef0:	f100401f 	cmp	x0, #0x10
    5ef4:	54000ba9 	b.ls	6068 <main+0x1298>  // b.plast
    5ef8:	f9404be0 	ldr	x0, [sp, #144]
    5efc:	90000141 	adrp	x1, 2d000 <_ZN6google8protobuf13SStringPrintfEPNSt7__cxx1112basic_stringIcSt11char_traitsIcESaIcEEEPKcz+0x90>
    5f00:	d2800222 	mov	x2, #0x11                  	// #17
    5f04:	912ca021 	add	x1, x1, #0xb28
    5f08:	97fffa72 	bl	48d0 <_ZNSt7__cxx1112basic_stringIcSt11char_traitsIcESaIcEE9_M_appendEPKcm@plt>
    5f0c:	a94c8be1 	ldp	x1, x2, [sp, #200]
    5f10:	f9404be0 	ldr	x0, [sp, #144]
    5f14:	97fffa6f 	bl	48d0 <_ZNSt7__cxx1112basic_stringIcSt11char_traitsIcESaIcEE9_M_appendEPKcm@plt>
    5f18:	f9409be1 	ldr	x1, [sp, #304]
    5f1c:	92f80000 	mov	x0, #0x3fffffffffffffff    	// #4611686018427387903
    5f20:	eb00003f 	cmp	x1, x0
    5f24:	54000940 	b.eq	604c <main+0x127c>  // b.none
    5f28:	f9404be0 	ldr	x0, [sp, #144]
    5f2c:	90000141 	adrp	x1, 2d000 <_ZN6google8protobuf13SStringPrintfEPNSt7__cxx1112basic_stringIcSt11char_traitsIcESaIcEEEPKcz+0x90>
    5f30:	d2800022 	mov	x2, #0x1                   	// #1
    5f34:	912ce021 	add	x1, x1, #0xb38
    5f38:	97fffa66 	bl	48d0 <_ZNSt7__cxx1112basic_stringIcSt11char_traitsIcESaIcEE9_M_appendEPKcm@plt>
    5f3c:	910683f7 	add	x23, sp, #0x1a0
    5f40:	f900cbf7 	str	x23, [sp, #400]
    5f44:	aa0003e2 	mov	x2, x0
    5f48:	f8410401 	ldr	x1, [x0], #16
    5f4c:	eb00003f 	cmp	x1, x0
    5f50:	54000841 	b.ne	6058 <main+0x1288>  // b.any
    5f54:	a9411444 	ldp	x4, x5, [x2, #16]
    5f58:	a91a17e4 	stp	x4, x5, [sp, #416]
    5f5c:	f9400441 	ldr	x1, [x2, #8]
    5f60:	f900cfe1 	str	x1, [sp, #408]
    5f64:	a9007c40 	stp	x0, xzr, [x2]
    5f68:	910643e1 	add	x1, sp, #0x190
    5f6c:	aa1403e0 	mov	x0, x20
    5f70:	3900405f 	strb	wzr, [x2, #16]
    5f74:	97fffb47 	bl	4c90 <_ZNSt13runtime_errorC1ERKNSt7__cxx1112basic_stringIcSt11char_traitsIcESaIcEEE@plt>
    5f78:	f940cbe0 	ldr	x0, [sp, #400]
    5f7c:	eb17001f 	cmp	x0, x23
    5f80:	54000080 	b.eq	5f90 <main+0x11c0>  // b.none
    5f84:	f940d3e1 	ldr	x1, [sp, #416]
    5f88:	91000421 	add	x1, x1, #0x1
    5f8c:	97fffadd 	bl	4b00 <_ZdlPvm@plt>
    5f90:	f94097e0 	ldr	x0, [sp, #296]
    5f94:	eb15001f 	cmp	x0, x21
    5f98:	54000080 	b.eq	5fa8 <main+0x11d8>  // b.none
    5f9c:	f9409fe1 	ldr	x1, [sp, #312]
    5fa0:	91000421 	add	x1, x1, #0x1
    5fa4:	97fffad7 	bl	4b00 <_ZdlPvm@plt>
    5fa8:	b0000222 	adrp	x2, 4a000 <_ZTVN11vector_tile10Tile_ValueE+0x10>
    5fac:	b0000221 	adrp	x1, 4a000 <_ZTVN11vector_tile10Tile_ValueE+0x10>
    5fb0:	aa1403e0 	mov	x0, x20
    5fb4:	f9472842 	ldr	x2, [x2, #3664]
    5fb8:	f947f021 	ldr	x1, [x1, #4064]
    5fbc:	97fffb49 	bl	4ce0 <__cxa_throw@plt>
    5fc0:	97fffa58 	bl	4920 <__cxa_begin_catch@plt>
    5fc4:	f94043e1 	ldr	x1, [sp, #128]
    5fc8:	f94077e0 	ldr	x0, [sp, #232]
    5fcc:	eb01001f 	cmp	x0, x1
    5fd0:	54000080 	b.eq	5fe0 <main+0x1210>  // b.none
    5fd4:	f9407fe1 	ldr	x1, [sp, #248]
    5fd8:	91000421 	add	x1, x1, #0x1
    5fdc:	97fffac9 	bl	4b00 <_ZdlPvm@plt>
    5fe0:	97fffb0c 	bl	4c10 <__cxa_rethrow@plt>
    5fe4:	aa0003f3 	mov	x19, x0
    5fe8:	aa0103f4 	mov	x20, x1
    5fec:	aa1603e0 	mov	x0, x22
    5ff0:	97fffa9c 	bl	4a60 <__cxa_free_exception@plt>
    5ff4:	17ffff8c 	b	5e24 <main+0x1054>
    5ff8:	f94087e3 	ldr	x3, [sp, #264]
    5ffc:	910463e2 	add	x2, sp, #0x118
    6000:	aa0003f3 	mov	x19, x0
    6004:	aa0103f4 	mov	x20, x1
    6008:	eb02007f 	cmp	x3, x2
    600c:	54ffff00 	b.eq	5fec <main+0x121c>  // b.none
    6010:	f9408fe1 	ldr	x1, [sp, #280]
    6014:	aa0303e0 	mov	x0, x3
    6018:	91000421 	add	x1, x1, #0x1
    601c:	97fffab9 	bl	4b00 <_ZdlPvm@plt>
    6020:	17fffff3 	b	5fec <main+0x121c>
    6024:	aa0003f3 	mov	x19, x0
    6028:	aa0103f4 	mov	x20, x1
    602c:	97fffb1d 	bl	4ca0 <__cxa_end_catch@plt>
    6030:	17ffff85 	b	5e44 <main+0x1074>
    6034:	9102c3f5 	add	x21, sp, #0xb0
    6038:	aa0003f3 	mov	x19, x0
    603c:	aa1503e0 	mov	x0, x21
    6040:	94000268 	bl	69e0 <_ZNSt6vectorINSt7__cxx1112basic_stringIcSt11char_traitsIcESaIcEEESaIS5_EED2Ev>
    6044:	aa1303e0 	mov	x0, x19
    6048:	97fffb2e 	bl	4d00 <_Unwind_Resume@plt>
    604c:	f0000120 	adrp	x0, 2d000 <_ZN6google8protobuf13SStringPrintfEPNSt7__cxx1112basic_stringIcSt11char_traitsIcESaIcEEEPKcz+0x90>
    6050:	912c4000 	add	x0, x0, #0xb10
    6054:	97fffa3f 	bl	4950 <_ZSt20__throw_length_errorPKc@plt>
    6058:	f900cbe1 	str	x1, [sp, #400]
    605c:	f9400841 	ldr	x1, [x2, #16]
    6060:	f900d3e1 	str	x1, [sp, #416]
    6064:	17ffffbe 	b	5f5c <main+0x118c>
    6068:	f0000120 	adrp	x0, 2d000 <_ZN6google8protobuf13SStringPrintfEPNSt7__cxx1112basic_stringIcSt11char_traitsIcESaIcEEEPKcz+0x90>
    606c:	912c4000 	add	x0, x0, #0xb10
    6070:	97fffa38 	bl	4950 <_ZSt20__throw_length_errorPKc@plt>
    6074:	f94097e2 	ldr	x2, [sp, #296]
    6078:	aa0003f3 	mov	x19, x0
    607c:	aa0103f6 	mov	x22, x1
    6080:	eb15005f 	cmp	x2, x21
    6084:	540001c0 	b.eq	60bc <main+0x12ec>  // b.none
    6088:	f9409fe1 	ldr	x1, [sp, #312]
    608c:	aa0203e0 	mov	x0, x2
    6090:	91000421 	add	x1, x1, #0x1
    6094:	97fffa9b 	bl	4b00 <_ZdlPvm@plt>
    6098:	14000009 	b	60bc <main+0x12ec>
    609c:	aa0003f3 	mov	x19, x0
    60a0:	aa0103f6 	mov	x22, x1
    60a4:	f94097e0 	ldr	x0, [sp, #296]
    60a8:	eb15001f 	cmp	x0, x21
    60ac:	54000080 	b.eq	60bc <main+0x12ec>  // b.none
    60b0:	f9409fe1 	ldr	x1, [sp, #312]
    60b4:	91000421 	add	x1, x1, #0x1
    60b8:	97fffa92 	bl	4b00 <_ZdlPvm@plt>
    60bc:	aa1403e0 	mov	x0, x20
    60c0:	aa1603f4 	mov	x20, x22
    60c4:	97fffa67 	bl	4a60 <__cxa_free_exception@plt>
    60c8:	17ffff5f 	b	5e44 <main+0x1074>
    60cc:	f940cbe2 	ldr	x2, [sp, #400]
    60d0:	aa0003f3 	mov	x19, x0
    60d4:	aa0103f6 	mov	x22, x1
    60d8:	eb17005f 	cmp	x2, x23
    60dc:	54fffe40 	b.eq	60a4 <main+0x12d4>  // b.none
    60e0:	f940d3e1 	ldr	x1, [sp, #416]
    60e4:	aa0203e0 	mov	x0, x2
    60e8:	91000421 	add	x1, x1, #0x1
    60ec:	97fffa85 	bl	4b00 <_ZdlPvm@plt>
    60f0:	17ffffed 	b	60a4 <main+0x12d4>
    60f4:	aa0003f3 	mov	x19, x0
    60f8:	aa0103f4 	mov	x20, x1
    60fc:	17ffff4e 	b	5e34 <main+0x1064>
    6100:	aa0003f3 	mov	x19, x0
    6104:	aa0103f4 	mov	x20, x1
    6108:	17ffff49 	b	5e2c <main+0x105c>
    610c:	aa0003f3 	mov	x19, x0
    6110:	aa0103f4 	mov	x20, x1
    6114:	17ffff4c 	b	5e44 <main+0x1074>
    6118:	f9418fe2 	ldr	x2, [sp, #792]
    611c:	aa0003f3 	mov	x19, x0
    6120:	eb19005f 	cmp	x2, x25
    6124:	54fff8c0 	b.eq	603c <main+0x126c>  // b.none
    6128:	f94197e1 	ldr	x1, [sp, #808]
    612c:	aa0203e0 	mov	x0, x2
    6130:	91000421 	add	x1, x1, #0x1
    6134:	97fffa73 	bl	4b00 <_ZdlPvm@plt>
    6138:	17ffffc1 	b	603c <main+0x126c>
    613c:	d2800001 	mov	x1, #0x0                   	// #0
    6140:	39000320 	strb	w0, [x25]
    6144:	f9400820 	ldr	x0, [x1, #16]
    6148:	d4207d00 	brk	#0x3e8
    614c:	aa0003f3 	mov	x19, x0
    6150:	9102c3f5 	add	x21, sp, #0xb0
    6154:	17ffffba 	b	603c <main+0x126c>
    6158:	9102c3f5 	add	x21, sp, #0xb0
    615c:	aa0003f3 	mov	x19, x0
    6160:	97fffad0 	bl	4ca0 <__cxa_end_catch@plt>
    6164:	17ffffb6 	b	603c <main+0x126c>
    6168:	d503201f 	nop
    616c:	d503201f 	nop

0000000000006170 <_GLOBAL__sub_I_vector_tile.pb.cc>:
    6170:	a9be7bfd 	stp	x29, x30, [sp, #-32]!
    6174:	910003fd 	mov	x29, sp
    6178:	f9000bf3 	str	x19, [sp, #16]
    617c:	b0000233 	adrp	x19, 4b000 <__data_start>
    6180:	d50320ff 	xpaclri
    6184:	91010273 	add	x19, x19, #0x40
    6188:	aa1e03e0 	mov	x0, x30
    618c:	91084273 	add	x19, x19, #0x210
    6190:	97fff9dc 	bl	4900 <_mcount@plt>
    6194:	aa1303e0 	mov	x0, x19
    6198:	97fffaa6 	bl	4c30 <_ZNSt8ios_base4InitC1Ev@plt>
    619c:	aa1303e1 	mov	x1, x19
    61a0:	90000220 	adrp	x0, 4a000 <_ZTVN11vector_tile10Tile_ValueE+0x10>
    61a4:	f9400bf3 	ldr	x19, [sp, #16]
    61a8:	b0000222 	adrp	x2, 4b000 <__data_start>
    61ac:	a8c27bfd 	ldp	x29, x30, [sp], #32
    61b0:	91002042 	add	x2, x2, #0x8
    61b4:	f947f800 	ldr	x0, [x0, #4080]
    61b8:	17fffa5e 	b	4b30 <__cxa_atexit@plt>
    61bc:	d503201f 	nop

00000000000061c0 <_GLOBAL__sub_I_common.cc>:
    61c0:	a9be7bfd 	stp	x29, x30, [sp, #-32]!
    61c4:	910003fd 	mov	x29, sp
    61c8:	f9000bf3 	str	x19, [sp, #16]
    61cc:	b0000233 	adrp	x19, 4b000 <__data_start>
    61d0:	91096273 	add	x19, x19, #0x258
    61d4:	91004273 	add	x19, x19, #0x10
    61d8:	aa1303e0 	mov	x0, x19
    61dc:	97fffa95 	bl	4c30 <_ZNSt8ios_base4InitC1Ev@plt>
    61e0:	aa1303e1 	mov	x1, x19
    61e4:	90000220 	adrp	x0, 4a000 <_ZTVN11vector_tile10Tile_ValueE+0x10>
    61e8:	f9400bf3 	ldr	x19, [sp, #16]
    61ec:	b0000222 	adrp	x2, 4b000 <__data_start>
    61f0:	a8c27bfd 	ldp	x29, x30, [sp], #32
    61f4:	91002042 	add	x2, x2, #0x8
    61f8:	f947f800 	ldr	x0, [x0, #4080]
    61fc:	17fffa4d 	b	4b30 <__cxa_atexit@plt>

0000000000006200 <_GLOBAL__sub_I_int128.cc>:
    6200:	a9be7bfd 	stp	x29, x30, [sp, #-32]!
    6204:	910003fd 	mov	x29, sp
    6208:	f9000bf3 	str	x19, [sp, #16]
    620c:	b0000233 	adrp	x19, 4b000 <__data_start>
    6210:	910a2273 	add	x19, x19, #0x288
    6214:	aa1303e0 	mov	x0, x19
    6218:	97fffa86 	bl	4c30 <_ZNSt8ios_base4InitC1Ev@plt>
    621c:	aa1303e1 	mov	x1, x19
    6220:	90000220 	adrp	x0, 4a000 <_ZTVN11vector_tile10Tile_ValueE+0x10>
    6224:	f9400bf3 	ldr	x19, [sp, #16]
    6228:	b0000222 	adrp	x2, 4b000 <__data_start>
    622c:	a8c27bfd 	ldp	x29, x30, [sp], #32
    6230:	91002042 	add	x2, x2, #0x8
    6234:	f947f800 	ldr	x0, [x0, #4080]
    6238:	17fffa3e 	b	4b30 <__cxa_atexit@plt>
    623c:	d503201f 	nop

0000000000006240 <_GLOBAL__sub_I_once.cc>:
    6240:	a9be7bfd 	stp	x29, x30, [sp, #-32]!
    6244:	910003fd 	mov	x29, sp
    6248:	f9000bf3 	str	x19, [sp, #16]
    624c:	b0000233 	adrp	x19, 4b000 <__data_start>
    6250:	910a4273 	add	x19, x19, #0x290
    6254:	aa1303e0 	mov	x0, x19
    6258:	97fffa76 	bl	4c30 <_ZNSt8ios_base4InitC1Ev@plt>
    625c:	aa1303e1 	mov	x1, x19
    6260:	90000220 	adrp	x0, 4a000 <_ZTVN11vector_tile10Tile_ValueE+0x10>
    6264:	f9400bf3 	ldr	x19, [sp, #16]
    6268:	b0000222 	adrp	x2, 4b000 <__data_start>
    626c:	a8c27bfd 	ldp	x29, x30, [sp], #32
    6270:	91002042 	add	x2, x2, #0x8
    6274:	f947f800 	ldr	x0, [x0, #4080]
    6278:	17fffa2e 	b	4b30 <__cxa_atexit@plt>
    627c:	d503201f 	nop

0000000000006280 <_GLOBAL__sub_I_status.cc>:
    6280:	a9bd7bfd 	stp	x29, x30, [sp, #-48]!
    6284:	910003fd 	mov	x29, sp
    6288:	a90153f3 	stp	x19, x20, [sp, #16]
    628c:	b0000234 	adrp	x20, 4b000 <__data_start>
    6290:	910a6294 	add	x20, x20, #0x298
    6294:	aa1403e0 	mov	x0, x20
    6298:	a9025bf5 	stp	x21, x22, [sp, #32]
    629c:	97fffa65 	bl	4c30 <_ZNSt8ios_base4InitC1Ev@plt>
    62a0:	90000220 	adrp	x0, 4a000 <_ZTVN11vector_tile10Tile_ValueE+0x10>
    62a4:	90000235 	adrp	x21, 4a000 <_ZTVN11vector_tile10Tile_ValueE+0x10>
    62a8:	b0000233 	adrp	x19, 4b000 <__data_start>
    62ac:	91002273 	add	x19, x19, #0x8
    62b0:	f947f800 	ldr	x0, [x0, #4080]
    62b4:	aa1403e1 	mov	x1, x20
    62b8:	aa1303e2 	mov	x2, x19
    62bc:	90000234 	adrp	x20, 4a000 <_ZTVN11vector_tile10Tile_ValueE+0x10>
    62c0:	90000156 	adrp	x22, 2e000 <_ZN11vector_tile4Tile5POINTE>
    62c4:	912422d6 	add	x22, x22, #0x908
    62c8:	97fffa1a 	bl	4b30 <__cxa_atexit@plt>
    62cc:	f94766b5 	ldr	x21, [x21, #3784]
    62d0:	aa1503e0 	mov	x0, x21
    62d4:	940031bf 	bl	129d0 <_ZN6google8protobuf4util6StatusC1Ev>
    62d8:	f947c294 	ldr	x20, [x20, #3968]
    62dc:	aa1503e1 	mov	x1, x21
    62e0:	90000235 	adrp	x21, 4a000 <_ZTVN11vector_tile10Tile_ValueE+0x10>
    62e4:	aa1303e2 	mov	x2, x19
    62e8:	aa1403e0 	mov	x0, x20
    62ec:	97fffa11 	bl	4b30 <__cxa_atexit@plt>
    62f0:	f946b6b5 	ldr	x21, [x21, #3432]
    62f4:	aa1603e2 	mov	x2, x22
    62f8:	d2800003 	mov	x3, #0x0                   	// #0
    62fc:	52800021 	mov	w1, #0x1                   	// #1
    6300:	aa1503e0 	mov	x0, x21
    6304:	940031bb 	bl	129f0 <_ZN6google8protobuf4util6StatusC1ENS1_5error4CodeENS0_11StringPieceE>
    6308:	aa1503e1 	mov	x1, x21
    630c:	90000235 	adrp	x21, 4a000 <_ZTVN11vector_tile10Tile_ValueE+0x10>
    6310:	aa1303e2 	mov	x2, x19
    6314:	aa1403e0 	mov	x0, x20
    6318:	97fffa06 	bl	4b30 <__cxa_atexit@plt>
    631c:	f9470ab5 	ldr	x21, [x21, #3600]
    6320:	aa1603e2 	mov	x2, x22
    6324:	d2800003 	mov	x3, #0x0                   	// #0
    6328:	52800041 	mov	w1, #0x2                   	// #2
    632c:	aa1503e0 	mov	x0, x21
    6330:	940031b0 	bl	129f0 <_ZN6google8protobuf4util6StatusC1ENS1_5error4CodeENS0_11StringPieceE>
    6334:	aa1303e2 	mov	x2, x19
    6338:	aa1503e1 	mov	x1, x21
    633c:	aa1403e0 	mov	x0, x20
    6340:	a94153f3 	ldp	x19, x20, [sp, #16]
    6344:	a9425bf5 	ldp	x21, x22, [sp, #32]
    6348:	a8c37bfd 	ldp	x29, x30, [sp], #48
    634c:	17fff9f9 	b	4b30 <__cxa_atexit@plt>

0000000000006350 <_GLOBAL__sub_I_arena.cc>:
    6350:	a9be7bfd 	stp	x29, x30, [sp, #-32]!
    6354:	910003fd 	mov	x29, sp
    6358:	f9000bf3 	str	x19, [sp, #16]
    635c:	b0000233 	adrp	x19, 4b000 <__data_start>
    6360:	910c6273 	add	x19, x19, #0x318
    6364:	aa1303e0 	mov	x0, x19
    6368:	97fffa32 	bl	4c30 <_ZNSt8ios_base4InitC1Ev@plt>
    636c:	90000220 	adrp	x0, 4a000 <_ZTVN11vector_tile10Tile_ValueE+0x10>
    6370:	aa1303e1 	mov	x1, x19
    6374:	b0000222 	adrp	x2, 4b000 <__data_start>
    6378:	91002042 	add	x2, x2, #0x8
    637c:	f947f800 	ldr	x0, [x0, #4080]
    6380:	97fff9ec 	bl	4b30 <__cxa_atexit@plt>
    6384:	90000220 	adrp	x0, 4a000 <_ZTVN11vector_tile10Tile_ValueE+0x10>
    6388:	f9400bf3 	ldr	x19, [sp, #16]
    638c:	f947c800 	ldr	x0, [x0, #3984]
    6390:	f900001f 	str	xzr, [x0]
    6394:	a8c27bfd 	ldp	x29, x30, [sp], #32
    6398:	d65f03c0 	ret
    639c:	d503201f 	nop

00000000000063a0 <_GLOBAL__sub_I_extension_set.cc>:
    63a0:	a9be7bfd 	stp	x29, x30, [sp, #-32]!
    63a4:	910003fd 	mov	x29, sp
    63a8:	f9000bf3 	str	x19, [sp, #16]
    63ac:	b0000233 	adrp	x19, 4b000 <__data_start>
    63b0:	910ca273 	add	x19, x19, #0x328
    63b4:	91004273 	add	x19, x19, #0x10
    63b8:	aa1303e0 	mov	x0, x19
    63bc:	97fffa1d 	bl	4c30 <_ZNSt8ios_base4InitC1Ev@plt>
    63c0:	aa1303e1 	mov	x1, x19
    63c4:	90000220 	adrp	x0, 4a000 <_ZTVN11vector_tile10Tile_ValueE+0x10>
    63c8:	f9400bf3 	ldr	x19, [sp, #16]
    63cc:	b0000222 	adrp	x2, 4b000 <__data_start>
    63d0:	a8c27bfd 	ldp	x29, x30, [sp], #32
    63d4:	91002042 	add	x2, x2, #0x8
    63d8:	f947f800 	ldr	x0, [x0, #4080]
    63dc:	17fff9d5 	b	4b30 <__cxa_atexit@plt>

00000000000063e0 <_GLOBAL__sub_I_generated_message_util.cc>:
    63e0:	a9be7bfd 	stp	x29, x30, [sp, #-32]!
    63e4:	910003fd 	mov	x29, sp
    63e8:	f9000bf3 	str	x19, [sp, #16]
    63ec:	b0000233 	adrp	x19, 4b000 <__data_start>
    63f0:	910e8273 	add	x19, x19, #0x3a0
    63f4:	aa1303e0 	mov	x0, x19
    63f8:	97fffa0e 	bl	4c30 <_ZNSt8ios_base4InitC1Ev@plt>
    63fc:	aa1303e1 	mov	x1, x19
    6400:	90000220 	adrp	x0, 4a000 <_ZTVN11vector_tile10Tile_ValueE+0x10>
    6404:	f9400bf3 	ldr	x19, [sp, #16]
    6408:	b0000222 	adrp	x2, 4b000 <__data_start>
    640c:	a8c27bfd 	ldp	x29, x30, [sp], #32
    6410:	91002042 	add	x2, x2, #0x8
    6414:	f947f800 	ldr	x0, [x0, #4080]
    6418:	17fff9c6 	b	4b30 <__cxa_atexit@plt>
    641c:	d503201f 	nop

0000000000006420 <_GLOBAL__sub_I_message_lite.cc>:
    6420:	a9be7bfd 	stp	x29, x30, [sp, #-32]!
    6424:	910003fd 	mov	x29, sp
    6428:	f9000bf3 	str	x19, [sp, #16]
    642c:	b0000233 	adrp	x19, 4b000 <__data_start>
    6430:	910f4273 	add	x19, x19, #0x3d0
    6434:	aa1303e0 	mov	x0, x19
    6438:	97fff9fe 	bl	4c30 <_ZNSt8ios_base4InitC1Ev@plt>
    643c:	aa1303e1 	mov	x1, x19
    6440:	90000220 	adrp	x0, 4a000 <_ZTVN11vector_tile10Tile_ValueE+0x10>
    6444:	f9400bf3 	ldr	x19, [sp, #16]
    6448:	b0000222 	adrp	x2, 4b000 <__data_start>
    644c:	a8c27bfd 	ldp	x29, x30, [sp], #32
    6450:	91002042 	add	x2, x2, #0x8
    6454:	f947f800 	ldr	x0, [x0, #4080]
    6458:	17fff9b6 	b	4b30 <__cxa_atexit@plt>
    645c:	d503201f 	nop

0000000000006460 <_GLOBAL__sub_I_repeated_field.cc>:
    6460:	a9be7bfd 	stp	x29, x30, [sp, #-32]!
    6464:	910003fd 	mov	x29, sp
    6468:	f9000bf3 	str	x19, [sp, #16]
    646c:	b0000233 	adrp	x19, 4b000 <__data_start>
    6470:	910f6273 	add	x19, x19, #0x3d8
    6474:	aa1303e0 	mov	x0, x19
    6478:	97fff9ee 	bl	4c30 <_ZNSt8ios_base4InitC1Ev@plt>
    647c:	aa1303e1 	mov	x1, x19
    6480:	90000220 	adrp	x0, 4a000 <_ZTVN11vector_tile10Tile_ValueE+0x10>
    6484:	f9400bf3 	ldr	x19, [sp, #16]
    6488:	b0000222 	adrp	x2, 4b000 <__data_start>
    648c:	a8c27bfd 	ldp	x29, x30, [sp], #32
    6490:	91002042 	add	x2, x2, #0x8
    6494:	f947f800 	ldr	x0, [x0, #4080]
    6498:	17fff9a6 	b	4b30 <__cxa_atexit@plt>
    649c:	d503201f 	nop

00000000000064a0 <_GLOBAL__sub_I_wire_format_lite.cc>:
    64a0:	a9be7bfd 	stp	x29, x30, [sp, #-32]!
    64a4:	910003fd 	mov	x29, sp
    64a8:	f9000bf3 	str	x19, [sp, #16]
    64ac:	b0000233 	adrp	x19, 4b000 <__data_start>
    64b0:	910f8273 	add	x19, x19, #0x3e0
    64b4:	aa1303e0 	mov	x0, x19
    64b8:	97fff9de 	bl	4c30 <_ZNSt8ios_base4InitC1Ev@plt>
    64bc:	aa1303e1 	mov	x1, x19
    64c0:	90000220 	adrp	x0, 4a000 <_ZTVN11vector_tile10Tile_ValueE+0x10>
    64c4:	f9400bf3 	ldr	x19, [sp, #16]
    64c8:	b0000222 	adrp	x2, 4b000 <__data_start>
    64cc:	a8c27bfd 	ldp	x29, x30, [sp], #32
    64d0:	91002042 	add	x2, x2, #0x8
    64d4:	f947f800 	ldr	x0, [x0, #4080]
    64d8:	17fff996 	b	4b30 <__cxa_atexit@plt>
    64dc:	d503201f 	nop

00000000000064e0 <_GLOBAL__sub_I_coded_stream.cc>:
    64e0:	a9be7bfd 	stp	x29, x30, [sp, #-32]!
    64e4:	910003fd 	mov	x29, sp
    64e8:	f9000bf3 	str	x19, [sp, #16]
    64ec:	b0000233 	adrp	x19, 4b000 <__data_start>
    64f0:	910fa273 	add	x19, x19, #0x3e8
    64f4:	aa1303e0 	mov	x0, x19
    64f8:	97fff9ce 	bl	4c30 <_ZNSt8ios_base4InitC1Ev@plt>
    64fc:	aa1303e1 	mov	x1, x19
    6500:	90000220 	adrp	x0, 4a000 <_ZTVN11vector_tile10Tile_ValueE+0x10>
    6504:	f9400bf3 	ldr	x19, [sp, #16]
    6508:	b0000222 	adrp	x2, 4b000 <__data_start>
    650c:	a8c27bfd 	ldp	x29, x30, [sp], #32
    6510:	91002042 	add	x2, x2, #0x8
    6514:	f947f800 	ldr	x0, [x0, #4080]
    6518:	17fff986 	b	4b30 <__cxa_atexit@plt>
    651c:	d503201f 	nop

0000000000006520 <_GLOBAL__sub_I_zero_copy_stream_impl_lite.cc>:
    6520:	a9be7bfd 	stp	x29, x30, [sp, #-32]!
    6524:	910003fd 	mov	x29, sp
    6528:	f9000bf3 	str	x19, [sp, #16]
    652c:	b0000233 	adrp	x19, 4b000 <__data_start>
    6530:	910fe273 	add	x19, x19, #0x3f8
    6534:	aa1303e0 	mov	x0, x19
    6538:	97fff9be 	bl	4c30 <_ZNSt8ios_base4InitC1Ev@plt>
    653c:	aa1303e1 	mov	x1, x19
    6540:	90000220 	adrp	x0, 4a000 <_ZTVN11vector_tile10Tile_ValueE+0x10>
    6544:	f9400bf3 	ldr	x19, [sp, #16]
    6548:	b0000222 	adrp	x2, 4b000 <__data_start>
    654c:	a8c27bfd 	ldp	x29, x30, [sp], #32
    6550:	91002042 	add	x2, x2, #0x8
    6554:	f947f800 	ldr	x0, [x0, #4080]
    6558:	17fff976 	b	4b30 <__cxa_atexit@plt>
    655c:	d503201f 	nop

0000000000006560 <_GLOBAL__sub_I_stringprintf.cc>:
    6560:	a9be7bfd 	stp	x29, x30, [sp, #-32]!
    6564:	910003fd 	mov	x29, sp
    6568:	f9000bf3 	str	x19, [sp, #16]
    656c:	b0000233 	adrp	x19, 4b000 <__data_start>
    6570:	91100273 	add	x19, x19, #0x400
    6574:	aa1303e0 	mov	x0, x19
    6578:	97fff9ae 	bl	4c30 <_ZNSt8ios_base4InitC1Ev@plt>
    657c:	aa1303e1 	mov	x1, x19
    6580:	90000220 	adrp	x0, 4a000 <_ZTVN11vector_tile10Tile_ValueE+0x10>
    6584:	f9400bf3 	ldr	x19, [sp, #16]
    6588:	b0000222 	adrp	x2, 4b000 <__data_start>
    658c:	a8c27bfd 	ldp	x29, x30, [sp], #32
    6590:	91002042 	add	x2, x2, #0x8
    6594:	f947f800 	ldr	x0, [x0, #4080]
    6598:	17fff966 	b	4b30 <__cxa_atexit@plt>
    659c:	d503201f 	nop

00000000000065a0 <_GLOBAL__sub_I_structurally_valid.cc>:
    65a0:	a9be7bfd 	stp	x29, x30, [sp, #-32]!
    65a4:	910003fd 	mov	x29, sp
    65a8:	a90153f3 	stp	x19, x20, [sp, #16]
    65ac:	b0000234 	adrp	x20, 4b000 <__data_start>
    65b0:	91102293 	add	x19, x20, #0x408
    65b4:	91002273 	add	x19, x19, #0x8
    65b8:	aa1303e0 	mov	x0, x19
    65bc:	97fff99d 	bl	4c30 <_ZNSt8ios_base4InitC1Ev@plt>
    65c0:	90000220 	adrp	x0, 4a000 <_ZTVN11vector_tile10Tile_ValueE+0x10>
    65c4:	aa1303e1 	mov	x1, x19
    65c8:	b0000222 	adrp	x2, 4b000 <__data_start>
    65cc:	91002042 	add	x2, x2, #0x8
    65d0:	f947f800 	ldr	x0, [x0, #4080]
    65d4:	97fff957 	bl	4b30 <__cxa_atexit@plt>
    65d8:	52800020 	mov	w0, #0x1                   	// #1
    65dc:	39102280 	strb	w0, [x20, #1032]
    65e0:	a94153f3 	ldp	x19, x20, [sp, #16]
    65e4:	a8c27bfd 	ldp	x29, x30, [sp], #32
    65e8:	d65f03c0 	ret
    65ec:	d503201f 	nop

00000000000065f0 <_GLOBAL__sub_I_zero_copy_stream.cc>:
    65f0:	a9be7bfd 	stp	x29, x30, [sp, #-32]!
    65f4:	910003fd 	mov	x29, sp
    65f8:	f9000bf3 	str	x19, [sp, #16]
    65fc:	b0000233 	adrp	x19, 4b000 <__data_start>
    6600:	91106273 	add	x19, x19, #0x418
    6604:	aa1303e0 	mov	x0, x19
    6608:	97fff98a 	bl	4c30 <_ZNSt8ios_base4InitC1Ev@plt>
    660c:	aa1303e1 	mov	x1, x19
    6610:	90000220 	adrp	x0, 4a000 <_ZTVN11vector_tile10Tile_ValueE+0x10>
    6614:	f9400bf3 	ldr	x19, [sp, #16]
    6618:	b0000222 	adrp	x2, 4b000 <__data_start>
    661c:	a8c27bfd 	ldp	x29, x30, [sp], #32
    6620:	91002042 	add	x2, x2, #0x8
    6624:	f947f800 	ldr	x0, [x0, #4080]
    6628:	17fff942 	b	4b30 <__cxa_atexit@plt>
    662c:	d503201f 	nop
    6630:	d503201f 	nop
    6634:	d503201f 	nop
    6638:	d503201f 	nop
    663c:	d503201f 	nop

0000000000006640 <_start>:
    6640:	d503201f 	nop
    6644:	d280001d 	mov	x29, #0x0                   	// #0
    6648:	d280001e 	mov	x30, #0x0                   	// #0
    664c:	aa0003e5 	mov	x5, x0
    6650:	f94003e1 	ldr	x1, [sp]
    6654:	910023e2 	add	x2, sp, #0x8
    6658:	910003e6 	mov	x6, sp
    665c:	90000220 	adrp	x0, 4a000 <_ZTVN11vector_tile10Tile_ValueE+0x10>
    6660:	f946c800 	ldr	x0, [x0, #3472]
    6664:	d2800003 	mov	x3, #0x0                   	// #0
    6668:	d2800004 	mov	x4, #0x0                   	// #0
    666c:	97fff901 	bl	4a70 <__libc_start_main@plt>
    6670:	97fff980 	bl	4c70 <abort@plt>
    6674:	d503201f 	nop
    6678:	d503201f 	nop
    667c:	d503201f 	nop

0000000000006680 <__gmon_start__>:
    6680:	b0000222 	adrp	x2, 4b000 <__data_start>
    6684:	b9403040 	ldr	w0, [x2, #48]
    6688:	34000040 	cbz	w0, 6690 <__gmon_start__+0x10>
    668c:	d65f03c0 	ret
    6690:	a9bf7bfd 	stp	x29, x30, [sp, #-16]!
    6694:	90000221 	adrp	x1, 4a000 <_ZTVN11vector_tile10Tile_ValueE+0x10>
    6698:	52800023 	mov	w3, #0x1                   	// #1
    669c:	910003fd 	mov	x29, sp
    66a0:	f9479421 	ldr	x1, [x1, #3880]
    66a4:	b9003043 	str	w3, [x2, #48]
    66a8:	d0ffffc0 	adrp	x0, 0 <_ZN6google8protobuf8internal9ArenaImpl13thread_cache_E>
    66ac:	91000000 	add	x0, x0, #0x0
    66b0:	97fff95c 	bl	4c20 <__monstartup@plt>
    66b4:	a8c17bfd 	ldp	x29, x30, [sp], #16
    66b8:	90000220 	adrp	x0, 4a000 <_ZTVN11vector_tile10Tile_ValueE+0x10>
    66bc:	f946b000 	ldr	x0, [x0, #3424]
    66c0:	14009ccc 	b	2d9f0 <atexit>
    66c4:	d503201f 	nop
    66c8:	d503201f 	nop
    66cc:	d503201f 	nop

00000000000066d0 <_dl_relocate_static_pie>:
    66d0:	d65f03c0 	ret

00000000000066d4 <call_weak_fn>:
    66d4:	90000220 	adrp	x0, 4a000 <_ZTVN11vector_tile10Tile_ValueE+0x10>
    66d8:	f947e000 	ldr	x0, [x0, #4032]
    66dc:	b4000040 	cbz	x0, 66e4 <call_weak_fn+0x10>
    66e0:	17ffffe8 	b	6680 <__gmon_start__>
    66e4:	d65f03c0 	ret
    66e8:	d503201f 	nop
    66ec:	d503201f 	nop

00000000000066f0 <deregister_tm_clones>:
    66f0:	b0000220 	adrp	x0, 4b000 <__data_start>
    66f4:	9100c000 	add	x0, x0, #0x30
    66f8:	b0000221 	adrp	x1, 4b000 <__data_start>
    66fc:	9100c021 	add	x1, x1, #0x30
    6700:	eb00003f 	cmp	x1, x0
    6704:	540000c0 	b.eq	671c <deregister_tm_clones+0x2c>  // b.none
    6708:	90000221 	adrp	x1, 4a000 <_ZTVN11vector_tile10Tile_ValueE+0x10>
    670c:	f947bc21 	ldr	x1, [x1, #3960]
    6710:	b4000061 	cbz	x1, 671c <deregister_tm_clones+0x2c>
    6714:	aa0103f0 	mov	x16, x1
    6718:	d61f0200 	br	x16
    671c:	d65f03c0 	ret

0000000000006720 <register_tm_clones>:
    6720:	b0000220 	adrp	x0, 4b000 <__data_start>
    6724:	9100c000 	add	x0, x0, #0x30
    6728:	b0000221 	adrp	x1, 4b000 <__data_start>
    672c:	9100c021 	add	x1, x1, #0x30
    6730:	cb000021 	sub	x1, x1, x0
    6734:	d37ffc22 	lsr	x2, x1, #63
    6738:	8b810c41 	add	x1, x2, x1, asr #3
    673c:	9341fc21 	asr	x1, x1, #1
    6740:	b40000c1 	cbz	x1, 6758 <register_tm_clones+0x38>
    6744:	90000222 	adrp	x2, 4a000 <_ZTVN11vector_tile10Tile_ValueE+0x10>
    6748:	f947e842 	ldr	x2, [x2, #4048]
    674c:	b4000062 	cbz	x2, 6758 <register_tm_clones+0x38>
    6750:	aa0203f0 	mov	x16, x2
    6754:	d61f0200 	br	x16
    6758:	d65f03c0 	ret
    675c:	d503201f 	nop

0000000000006760 <__do_global_dtors_aux>:
    6760:	a9be7bfd 	stp	x29, x30, [sp, #-32]!
    6764:	910003fd 	mov	x29, sp
    6768:	f9000bf3 	str	x19, [sp, #16]
    676c:	b0000233 	adrp	x19, 4b000 <__data_start>
    6770:	3940d260 	ldrb	w0, [x19, #52]
    6774:	35000140 	cbnz	w0, 679c <__do_global_dtors_aux+0x3c>
    6778:	90000220 	adrp	x0, 4a000 <_ZTVN11vector_tile10Tile_ValueE+0x10>
    677c:	f946f800 	ldr	x0, [x0, #3568]
    6780:	b4000080 	cbz	x0, 6790 <__do_global_dtors_aux+0x30>
    6784:	b0000220 	adrp	x0, 4b000 <__data_start>
    6788:	f9400400 	ldr	x0, [x0, #8]
    678c:	97fff885 	bl	49a0 <__cxa_finalize@plt>
    6790:	97ffffd8 	bl	66f0 <deregister_tm_clones>
    6794:	52800020 	mov	w0, #0x1                   	// #1
    6798:	3900d260 	strb	w0, [x19, #52]
    679c:	f9400bf3 	ldr	x19, [sp, #16]
    67a0:	a8c27bfd 	ldp	x29, x30, [sp], #32
    67a4:	d65f03c0 	ret
    67a8:	d503201f 	nop
    67ac:	d503201f 	nop

00000000000067b0 <frame_dummy>:
    67b0:	17ffffdc 	b	6720 <register_tm_clones>
    67b4:	d503201f 	nop
    67b8:	d503201f 	nop
    67bc:	d503201f 	nop

00000000000067c0 <_ZN6mapnik16vector_tile_impl15zlib_decompressEPKcmRNSt7__cxx1112basic_stringIcSt11char_traitsIcESaIcEEE>:
    67c0:	a9b07bfd 	stp	x29, x30, [sp, #-256]!
    67c4:	910003fd 	mov	x29, sp
    67c8:	a90153f3 	stp	x19, x20, [sp, #16]
    67cc:	a9025bf5 	stp	x21, x22, [sp, #32]
    67d0:	a90363f7 	stp	x23, x24, [sp, #48]
    67d4:	f90023f9 	str	x25, [sp, #64]
    67d8:	d50320ff 	xpaclri
    67dc:	aa0103f8 	mov	x24, x1
    67e0:	aa0003f9 	mov	x25, x0
    67e4:	aa0203f4 	mov	x20, x2
    67e8:	aa1e03e0 	mov	x0, x30
    67ec:	97fff845 	bl	4900 <_mcount@plt>
    67f0:	90000221 	adrp	x1, 4a000 <_ZTVN11vector_tile10Tile_ValueE+0x10>
    67f4:	910183f6 	add	x22, sp, #0x60
    67f8:	aa1603e0 	mov	x0, x22
    67fc:	f0000122 	adrp	x2, 2d000 <_ZN6google8protobuf13SStringPrintfEPNSt7__cxx1112basic_stringIcSt11char_traitsIcESaIcEEEPKcz+0x90>
    6800:	f946b821 	ldr	x1, [x1, #3440]
    6804:	9128a042 	add	x2, x2, #0xa28
    6808:	d37ffb15 	lsl	x21, x24, #1
    680c:	531f7b17 	lsl	w23, w24, #1
    6810:	f9400023 	ldr	x3, [x1]
    6814:	f9007fe3 	str	x3, [sp, #248]
    6818:	d2800003 	mov	x3, #0x0                   	// #0
    681c:	d2800013 	mov	x19, #0x0                   	// #0
    6820:	52800e03 	mov	w3, #0x70                  	// #112
    6824:	528005e1 	mov	w1, #0x2f                  	// #47
    6828:	f90033ff 	str	xzr, [sp, #96]
    682c:	b9006bff 	str	wzr, [sp, #104]
    6830:	a90a7fff 	stp	xzr, xzr, [sp, #160]
    6834:	f9005bff 	str	xzr, [sp, #176]
    6838:	97fff89e 	bl	4ab0 <inflateInit2_@plt>
    683c:	f90033f9 	str	x25, [sp, #96]
    6840:	b9006bf8 	str	w24, [sp, #104]
    6844:	14000005 	b	6858 <_ZN6mapnik16vector_tile_impl15zlib_decompressEPKcmRNSt7__cxx1112basic_stringIcSt11char_traitsIcESaIcEEE+0x98>
    6848:	b94083e1 	ldr	w1, [sp, #128]
    684c:	cb2142a0 	sub	x0, x21, w1, uxtw
    6850:	8b000273 	add	x19, x19, x0
    6854:	350005c1 	cbnz	w1, 690c <_ZN6mapnik16vector_tile_impl15zlib_decompressEPKcmRNSt7__cxx1112basic_stringIcSt11char_traitsIcESaIcEEE+0x14c>
    6858:	8b1302a1 	add	x1, x21, x19
    685c:	aa1403e0 	mov	x0, x20
    6860:	52800002 	mov	w2, #0x0                   	// #0
    6864:	97fff80f 	bl	48a0 <_ZNSt7__cxx1112basic_stringIcSt11char_traitsIcESaIcEE6resizeEmc@plt>
    6868:	f9400283 	ldr	x3, [x20]
    686c:	aa1603e0 	mov	x0, x22
    6870:	52800081 	mov	w1, #0x4                   	// #4
    6874:	b90083f7 	str	w23, [sp, #128]
    6878:	8b130063 	add	x3, x3, x19
    687c:	f9003fe3 	str	x3, [sp, #120]
    6880:	97fff888 	bl	4aa0 <inflate@plt>
    6884:	7100041f 	cmp	w0, #0x1
    6888:	3a458804 	ccmn	w0, #0x5, #0x4, hi  // hi = pmore
    688c:	54fffde0 	b.eq	6848 <_ZN6mapnik16vector_tile_impl15zlib_decompressEPKcmRNSt7__cxx1112basic_stringIcSt11char_traitsIcESaIcEEE+0x88>  // b.none
    6890:	f9404bf4 	ldr	x20, [sp, #144]
    6894:	9103a3f5 	add	x21, sp, #0xe8
    6898:	f9006ff5 	str	x21, [sp, #216]
    689c:	910363f7 	add	x23, sp, #0xd8
    68a0:	b40007d4 	cbz	x20, 6998 <_ZN6mapnik16vector_tile_impl15zlib_decompressEPKcmRNSt7__cxx1112basic_stringIcSt11char_traitsIcESaIcEEE+0x1d8>
    68a4:	aa1403e0 	mov	x0, x20
    68a8:	97fff802 	bl	48b0 <strlen@plt>
    68ac:	f9002fe0 	str	x0, [sp, #88]
    68b0:	aa0003f3 	mov	x19, x0
    68b4:	f1003c1f 	cmp	x0, #0xf
    68b8:	54000568 	b.hi	6964 <_ZN6mapnik16vector_tile_impl15zlib_decompressEPKcmRNSt7__cxx1112basic_stringIcSt11char_traitsIcESaIcEEE+0x1a4>  // b.pmore
    68bc:	f100041f 	cmp	x0, #0x1
    68c0:	540004c1 	b.ne	6958 <_ZN6mapnik16vector_tile_impl15zlib_decompressEPKcmRNSt7__cxx1112basic_stringIcSt11char_traitsIcESaIcEEE+0x198>  // b.any
    68c4:	39400281 	ldrb	w1, [x20]
    68c8:	aa1503e0 	mov	x0, x21
    68cc:	3903a3e1 	strb	w1, [sp, #232]
    68d0:	f90073f3 	str	x19, [sp, #224]
    68d4:	3833681f 	strb	wzr, [x0, x19]
    68d8:	aa1603e0 	mov	x0, x22
    68dc:	97fff891 	bl	4b20 <inflateEnd@plt>
    68e0:	d2800200 	mov	x0, #0x10                  	// #16
    68e4:	97fff813 	bl	4930 <__cxa_allocate_exception@plt>
    68e8:	aa1703e1 	mov	x1, x23
    68ec:	aa0003f4 	mov	x20, x0
    68f0:	97fff8e8 	bl	4c90 <_ZNSt13runtime_errorC1ERKNSt7__cxx1112basic_stringIcSt11char_traitsIcESaIcEEE@plt>
    68f4:	90000222 	adrp	x2, 4a000 <_ZTVN11vector_tile10Tile_ValueE+0x10>
    68f8:	90000221 	adrp	x1, 4a000 <_ZTVN11vector_tile10Tile_ValueE+0x10>
    68fc:	aa1403e0 	mov	x0, x20
    6900:	f9472842 	ldr	x2, [x2, #3664]
    6904:	f947f021 	ldr	x1, [x1, #4064]
    6908:	97fff8f6 	bl	4ce0 <__cxa_throw@plt>
    690c:	aa1603e0 	mov	x0, x22
    6910:	97fff884 	bl	4b20 <inflateEnd@plt>
    6914:	aa1303e1 	mov	x1, x19
    6918:	aa1403e0 	mov	x0, x20
    691c:	52800002 	mov	w2, #0x0                   	// #0
    6920:	97fff7e0 	bl	48a0 <_ZNSt7__cxx1112basic_stringIcSt11char_traitsIcESaIcEE6resizeEmc@plt>
    6924:	90000220 	adrp	x0, 4a000 <_ZTVN11vector_tile10Tile_ValueE+0x10>
    6928:	f946b800 	ldr	x0, [x0, #3440]
    692c:	f9407fe2 	ldr	x2, [sp, #248]
    6930:	f9400001 	ldr	x1, [x0]
    6934:	eb010042 	subs	x2, x2, x1
    6938:	d2800001 	mov	x1, #0x0                   	// #0
    693c:	54000341 	b.ne	69a4 <_ZN6mapnik16vector_tile_impl15zlib_decompressEPKcmRNSt7__cxx1112basic_stringIcSt11char_traitsIcESaIcEEE+0x1e4>  // b.any
    6940:	a94153f3 	ldp	x19, x20, [sp, #16]
    6944:	a9425bf5 	ldp	x21, x22, [sp, #32]
    6948:	a94363f7 	ldp	x23, x24, [sp, #48]
    694c:	f94023f9 	ldr	x25, [sp, #64]
    6950:	a8d07bfd 	ldp	x29, x30, [sp], #256
    6954:	d65f03c0 	ret
    6958:	aa1503e0 	mov	x0, x21
    695c:	b4fffbb3 	cbz	x19, 68d0 <_ZN6mapnik16vector_tile_impl15zlib_decompressEPKcmRNSt7__cxx1112basic_stringIcSt11char_traitsIcESaIcEEE+0x110>
    6960:	14000008 	b	6980 <_ZN6mapnik16vector_tile_impl15zlib_decompressEPKcmRNSt7__cxx1112basic_stringIcSt11char_traitsIcESaIcEEE+0x1c0>
    6964:	910163e1 	add	x1, sp, #0x58
    6968:	aa1703e0 	mov	x0, x23
    696c:	d2800002 	mov	x2, #0x0                   	// #0
    6970:	97fff8e8 	bl	4d10 <_ZNSt7__cxx1112basic_stringIcSt11char_traitsIcESaIcEE9_M_createERmm@plt>
    6974:	f9402fe1 	ldr	x1, [sp, #88]
    6978:	f9006fe0 	str	x0, [sp, #216]
    697c:	f90077e1 	str	x1, [sp, #232]
    6980:	aa1303e2 	mov	x2, x19
    6984:	aa1403e1 	mov	x1, x20
    6988:	97fff7a6 	bl	4820 <memcpy@plt>
    698c:	f9402ff3 	ldr	x19, [sp, #88]
    6990:	f9406fe0 	ldr	x0, [sp, #216]
    6994:	17ffffcf 	b	68d0 <_ZN6mapnik16vector_tile_impl15zlib_decompressEPKcmRNSt7__cxx1112basic_stringIcSt11char_traitsIcESaIcEEE+0x110>
    6998:	f0000120 	adrp	x0, 2d000 <_ZN6google8protobuf13SStringPrintfEPNSt7__cxx1112basic_stringIcSt11char_traitsIcESaIcEEEPKcz+0x90>
    699c:	9128c000 	add	x0, x0, #0xa30
    69a0:	97fff828 	bl	4a40 <_ZSt19__throw_logic_errorPKc@plt>
    69a4:	97fff7d3 	bl	48f0 <__stack_chk_fail@plt>
    69a8:	aa0003f3 	mov	x19, x0
    69ac:	aa1403e0 	mov	x0, x20
    69b0:	97fff82c 	bl	4a60 <__cxa_free_exception@plt>
    69b4:	f9406fe0 	ldr	x0, [sp, #216]
    69b8:	eb15001f 	cmp	x0, x21
    69bc:	54000080 	b.eq	69cc <_ZN6mapnik16vector_tile_impl15zlib_decompressEPKcmRNSt7__cxx1112basic_stringIcSt11char_traitsIcESaIcEEE+0x20c>  // b.none
    69c0:	f94077e1 	ldr	x1, [sp, #232]
    69c4:	91000421 	add	x1, x1, #0x1
    69c8:	97fff84e 	bl	4b00 <_ZdlPvm@plt>
    69cc:	aa1303e0 	mov	x0, x19
    69d0:	97fff8cc 	bl	4d00 <_Unwind_Resume@plt>
    69d4:	aa0003f3 	mov	x19, x0
    69d8:	17fffff7 	b	69b4 <_ZN6mapnik16vector_tile_impl15zlib_decompressEPKcmRNSt7__cxx1112basic_stringIcSt11char_traitsIcESaIcEEE+0x1f4>
    69dc:	d503201f 	nop

00000000000069e0 <_ZNSt6vectorINSt7__cxx1112basic_stringIcSt11char_traitsIcESaIcEEESaIS5_EED2Ev>:
    69e0:	a9bd7bfd 	stp	x29, x30, [sp, #-48]!
    69e4:	910003fd 	mov	x29, sp
    69e8:	a90153f3 	stp	x19, x20, [sp, #16]
    69ec:	f90013f5 	str	x21, [sp, #32]
    69f0:	aa0003f5 	mov	x21, x0
    69f4:	d50320ff 	xpaclri
    69f8:	aa1e03e0 	mov	x0, x30
    69fc:	97fff7c1 	bl	4900 <_mcount@plt>
    6a00:	a94052b3 	ldp	x19, x20, [x21]
    6a04:	eb14027f 	cmp	x19, x20
    6a08:	540001a0 	b.eq	6a3c <_ZNSt6vectorINSt7__cxx1112basic_stringIcSt11char_traitsIcESaIcEEESaIS5_EED2Ev+0x5c>  // b.none
    6a0c:	d503201f 	nop
    6a10:	aa1303e1 	mov	x1, x19
    6a14:	f8410420 	ldr	x0, [x1], #16
    6a18:	eb01001f 	cmp	x0, x1
    6a1c:	54000200 	b.eq	6a5c <_ZNSt6vectorINSt7__cxx1112basic_stringIcSt11char_traitsIcESaIcEEESaIS5_EED2Ev+0x7c>  // b.none
    6a20:	f9400a61 	ldr	x1, [x19, #16]
    6a24:	91008273 	add	x19, x19, #0x20
    6a28:	91000421 	add	x1, x1, #0x1
    6a2c:	97fff835 	bl	4b00 <_ZdlPvm@plt>
    6a30:	eb13029f 	cmp	x20, x19
    6a34:	54fffee1 	b.ne	6a10 <_ZNSt6vectorINSt7__cxx1112basic_stringIcSt11char_traitsIcESaIcEEESaIS5_EED2Ev+0x30>  // b.any
    6a38:	f94002b4 	ldr	x20, [x21]
    6a3c:	b40001b4 	cbz	x20, 6a70 <_ZNSt6vectorINSt7__cxx1112basic_stringIcSt11char_traitsIcESaIcEEESaIS5_EED2Ev+0x90>
    6a40:	f9400aa1 	ldr	x1, [x21, #16]
    6a44:	aa1403e0 	mov	x0, x20
    6a48:	f94013f5 	ldr	x21, [sp, #32]
    6a4c:	cb140021 	sub	x1, x1, x20
    6a50:	a94153f3 	ldp	x19, x20, [sp, #16]
    6a54:	a8c37bfd 	ldp	x29, x30, [sp], #48
    6a58:	17fff82a 	b	4b00 <_ZdlPvm@plt>
    6a5c:	91008273 	add	x19, x19, #0x20
    6a60:	eb13029f 	cmp	x20, x19
    6a64:	54fffd61 	b.ne	6a10 <_ZNSt6vectorINSt7__cxx1112basic_stringIcSt11char_traitsIcESaIcEEESaIS5_EED2Ev+0x30>  // b.any
    6a68:	f94002b4 	ldr	x20, [x21]
    6a6c:	17fffff4 	b	6a3c <_ZNSt6vectorINSt7__cxx1112basic_stringIcSt11char_traitsIcESaIcEEESaIS5_EED2Ev+0x5c>
    6a70:	a94153f3 	ldp	x19, x20, [sp, #16]
    6a74:	f94013f5 	ldr	x21, [sp, #32]
    6a78:	a8c37bfd 	ldp	x29, x30, [sp], #48
    6a7c:	d65f03c0 	ret

0000000000006a80 <_ZNSt6vectorINSt7__cxx1112basic_stringIcSt11char_traitsIcESaIcEEESaIS5_EE17_M_realloc_insertIJS5_EEEvN9__gnu_cxx17__normal_iteratorIPS5_S7_EEDpOT_>:
    6a80:	a9ba7bfd 	stp	x29, x30, [sp, #-96]!
    6a84:	910003fd 	mov	x29, sp
    6a88:	a90157f3 	stp	x19, x21, [sp, #16]
    6a8c:	a9025ff6 	stp	x22, x23, [sp, #32]
    6a90:	a90367f8 	stp	x24, x25, [sp, #48]
    6a94:	a9046ffa 	stp	x26, x27, [sp, #64]
    6a98:	f9002bfc 	str	x28, [sp, #80]
    6a9c:	aa0003f7 	mov	x23, x0
    6aa0:	d50320ff 	xpaclri
    6aa4:	aa0103fb 	mov	x27, x1
    6aa8:	aa0203fa 	mov	x26, x2
    6aac:	aa1e03e0 	mov	x0, x30
    6ab0:	97fff794 	bl	4900 <_mcount@plt>
    6ab4:	a94056f8 	ldp	x24, x21, [x23]
    6ab8:	aa1b03f3 	mov	x19, x27
    6abc:	92ff8001 	mov	x1, #0x3ffffffffffffff     	// #288230376151711743
    6ac0:	cb1802a3 	sub	x3, x21, x24
    6ac4:	9345fc63 	asr	x3, x3, #5
    6ac8:	eb01007f 	cmp	x3, x1
    6acc:	54000e40 	b.eq	6c94 <_ZNSt6vectorINSt7__cxx1112basic_stringIcSt11char_traitsIcESaIcEEESaIS5_EE17_M_realloc_insertIJS5_EEEvN9__gnu_cxx17__normal_iteratorIPS5_S7_EEDpOT_+0x214>  // b.none
    6ad0:	f100007f 	cmp	x3, #0x0
    6ad4:	cb18037c 	sub	x28, x27, x24
    6ad8:	9a9f1460 	csinc	x0, x3, xzr, ne  // ne = any
    6adc:	ab000063 	adds	x3, x3, x0
    6ae0:	54000ae2 	b.cs	6c3c <_ZNSt6vectorINSt7__cxx1112basic_stringIcSt11char_traitsIcESaIcEEESaIS5_EE17_M_realloc_insertIJS5_EEEvN9__gnu_cxx17__normal_iteratorIPS5_S7_EEDpOT_+0x1bc>  // b.hs, b.nlast
    6ae4:	b5000d03 	cbnz	x3, 6c84 <_ZNSt6vectorINSt7__cxx1112basic_stringIcSt11char_traitsIcESaIcEEESaIS5_EE17_M_realloc_insertIJS5_EEEvN9__gnu_cxx17__normal_iteratorIPS5_S7_EEDpOT_+0x204>
    6ae8:	aa1a03e0 	mov	x0, x26
    6aec:	d2800019 	mov	x25, #0x0                   	// #0
    6af0:	8b1c0321 	add	x1, x25, x28
    6af4:	d2800403 	mov	x3, #0x20                  	// #32
    6af8:	91004022 	add	x2, x1, #0x10
    6afc:	f83c6b22 	str	x2, [x25, x28]
    6b00:	f8410402 	ldr	x2, [x0], #16
    6b04:	d2800016 	mov	x22, #0x0                   	// #0
    6b08:	eb00005f 	cmp	x2, x0
    6b0c:	54000b20 	b.eq	6c70 <_ZNSt6vectorINSt7__cxx1112basic_stringIcSt11char_traitsIcESaIcEEESaIS5_EE17_M_realloc_insertIJS5_EEEvN9__gnu_cxx17__normal_iteratorIPS5_S7_EEDpOT_+0x1f0>  // b.none
    6b10:	f83c6b22 	str	x2, [x25, x28]
    6b14:	f9400b42 	ldr	x2, [x26, #16]
    6b18:	f9000822 	str	x2, [x1, #16]
    6b1c:	f9400742 	ldr	x2, [x26, #8]
    6b20:	a9007f40 	stp	x0, xzr, [x26]
    6b24:	f9000422 	str	x2, [x1, #8]
    6b28:	3900435f 	strb	wzr, [x26, #16]
    6b2c:	eb18037f 	cmp	x27, x24
    6b30:	54000240 	b.eq	6b78 <_ZNSt6vectorINSt7__cxx1112basic_stringIcSt11char_traitsIcESaIcEEESaIS5_EE17_M_realloc_insertIJS5_EEEvN9__gnu_cxx17__normal_iteratorIPS5_S7_EEDpOT_+0xf8>  // b.none
    6b34:	8b1c0323 	add	x3, x25, x28
    6b38:	aa1803e4 	mov	x4, x24
    6b3c:	aa1903e2 	mov	x2, x25
    6b40:	aa0403e5 	mov	x5, x4
    6b44:	91004046 	add	x6, x2, #0x10
    6b48:	f9000046 	str	x6, [x2]
    6b4c:	f84104a6 	ldr	x6, [x5], #16
    6b50:	eb0500df 	cmp	x6, x5
    6b54:	54000620 	b.eq	6c18 <_ZNSt6vectorINSt7__cxx1112basic_stringIcSt11char_traitsIcESaIcEEESaIS5_EE17_M_realloc_insertIJS5_EEEvN9__gnu_cxx17__normal_iteratorIPS5_S7_EEDpOT_+0x198>  // b.none
    6b58:	a9408085 	ldp	x5, x0, [x4, #8]
    6b5c:	a9001446 	stp	x6, x5, [x2]
    6b60:	91008042 	add	x2, x2, #0x20
    6b64:	f81f0040 	stur	x0, [x2, #-16]
    6b68:	91008084 	add	x4, x4, #0x20
    6b6c:	eb03005f 	cmp	x2, x3
    6b70:	54fffe81 	b.ne	6b40 <_ZNSt6vectorINSt7__cxx1112basic_stringIcSt11char_traitsIcESaIcEEESaIS5_EE17_M_realloc_insertIJS5_EEEvN9__gnu_cxx17__normal_iteratorIPS5_S7_EEDpOT_+0xc0>  // b.any
    6b74:	91008063 	add	x3, x3, #0x20
    6b78:	eb15037f 	cmp	x27, x21
    6b7c:	54000800 	b.eq	6c7c <_ZNSt6vectorINSt7__cxx1112basic_stringIcSt11char_traitsIcESaIcEEESaIS5_EE17_M_realloc_insertIJS5_EEEvN9__gnu_cxx17__normal_iteratorIPS5_S7_EEDpOT_+0x1fc>  // b.none
    6b80:	cb1b02b5 	sub	x21, x21, x27
    6b84:	8b150075 	add	x21, x3, x21
    6b88:	aa1303e2 	mov	x2, x19
    6b8c:	91004064 	add	x4, x3, #0x10
    6b90:	f9000064 	str	x4, [x3]
    6b94:	f8410444 	ldr	x4, [x2], #16
    6b98:	eb02009f 	cmp	x4, x2
    6b9c:	540002c0 	b.eq	6bf4 <_ZNSt6vectorINSt7__cxx1112basic_stringIcSt11char_traitsIcESaIcEEESaIS5_EE17_M_realloc_insertIJS5_EEEvN9__gnu_cxx17__normal_iteratorIPS5_S7_EEDpOT_+0x174>  // b.none
    6ba0:	a9408261 	ldp	x1, x0, [x19, #8]
    6ba4:	a9000464 	stp	x4, x1, [x3]
    6ba8:	91008063 	add	x3, x3, #0x20
    6bac:	f81f0060 	stur	x0, [x3, #-16]
    6bb0:	91008273 	add	x19, x19, #0x20
    6bb4:	eb0302bf 	cmp	x21, x3
    6bb8:	54fffe81 	b.ne	6b88 <_ZNSt6vectorINSt7__cxx1112basic_stringIcSt11char_traitsIcESaIcEEESaIS5_EE17_M_realloc_insertIJS5_EEEvN9__gnu_cxx17__normal_iteratorIPS5_S7_EEDpOT_+0x108>  // b.any
    6bbc:	b40000b8 	cbz	x24, 6bd0 <_ZNSt6vectorINSt7__cxx1112basic_stringIcSt11char_traitsIcESaIcEEESaIS5_EE17_M_realloc_insertIJS5_EEEvN9__gnu_cxx17__normal_iteratorIPS5_S7_EEDpOT_+0x150>
    6bc0:	f9400ae1 	ldr	x1, [x23, #16]
    6bc4:	aa1803e0 	mov	x0, x24
    6bc8:	cb180021 	sub	x1, x1, x24
    6bcc:	97fff7cd 	bl	4b00 <_ZdlPvm@plt>
    6bd0:	a9446ffa 	ldp	x26, x27, [sp, #64]
    6bd4:	f9402bfc 	ldr	x28, [sp, #80]
    6bd8:	a90056f9 	stp	x25, x21, [x23]
    6bdc:	f9000af6 	str	x22, [x23, #16]
    6be0:	a94157f3 	ldp	x19, x21, [sp, #16]
    6be4:	a9425ff6 	ldp	x22, x23, [sp, #32]
    6be8:	a94367f8 	ldp	x24, x25, [sp, #48]
    6bec:	a8c67bfd 	ldp	x29, x30, [sp], #96
    6bf0:	d65f03c0 	ret
    6bf4:	f9400660 	ldr	x0, [x19, #8]
    6bf8:	91008063 	add	x3, x3, #0x20
    6bfc:	a9411664 	ldp	x4, x5, [x19, #16]
    6c00:	f81e8060 	stur	x0, [x3, #-24]
    6c04:	a93f1464 	stp	x4, x5, [x3, #-16]
    6c08:	91008273 	add	x19, x19, #0x20
    6c0c:	eb15007f 	cmp	x3, x21
    6c10:	54fffbc1 	b.ne	6b88 <_ZNSt6vectorINSt7__cxx1112basic_stringIcSt11char_traitsIcESaIcEEESaIS5_EE17_M_realloc_insertIJS5_EEEvN9__gnu_cxx17__normal_iteratorIPS5_S7_EEDpOT_+0x108>  // b.any
    6c14:	17ffffea 	b	6bbc <_ZNSt6vectorINSt7__cxx1112basic_stringIcSt11char_traitsIcESaIcEEESaIS5_EE17_M_realloc_insertIJS5_EEEvN9__gnu_cxx17__normal_iteratorIPS5_S7_EEDpOT_+0x13c>
    6c18:	f9400480 	ldr	x0, [x4, #8]
    6c1c:	91008042 	add	x2, x2, #0x20
    6c20:	a9411c86 	ldp	x6, x7, [x4, #16]
    6c24:	f81e8040 	stur	x0, [x2, #-24]
    6c28:	a93f1c46 	stp	x6, x7, [x2, #-16]
    6c2c:	91008084 	add	x4, x4, #0x20
    6c30:	eb03005f 	cmp	x2, x3
    6c34:	54fff861 	b.ne	6b40 <_ZNSt6vectorINSt7__cxx1112basic_stringIcSt11char_traitsIcESaIcEEESaIS5_EE17_M_realloc_insertIJS5_EEEvN9__gnu_cxx17__normal_iteratorIPS5_S7_EEDpOT_+0xc0>  // b.any
    6c38:	17ffffcf 	b	6b74 <_ZNSt6vectorINSt7__cxx1112basic_stringIcSt11char_traitsIcESaIcEEESaIS5_EE17_M_realloc_insertIJS5_EEEvN9__gnu_cxx17__normal_iteratorIPS5_S7_EEDpOT_+0xf4>
    6c3c:	b27be7f6 	mov	x22, #0x7fffffffffffffe0    	// #9223372036854775776
    6c40:	aa1603e0 	mov	x0, x22
    6c44:	97fff7ab 	bl	4af0 <_Znwm@plt>
    6c48:	aa0003f9 	mov	x25, x0
    6c4c:	8b160016 	add	x22, x0, x22
    6c50:	91008003 	add	x3, x0, #0x20
    6c54:	aa1a03e0 	mov	x0, x26
    6c58:	8b1c0321 	add	x1, x25, x28
    6c5c:	91004022 	add	x2, x1, #0x10
    6c60:	f83c6b22 	str	x2, [x25, x28]
    6c64:	f8410402 	ldr	x2, [x0], #16
    6c68:	eb00005f 	cmp	x2, x0
    6c6c:	54fff521 	b.ne	6b10 <_ZNSt6vectorINSt7__cxx1112basic_stringIcSt11char_traitsIcESaIcEEESaIS5_EE17_M_realloc_insertIJS5_EEEvN9__gnu_cxx17__normal_iteratorIPS5_S7_EEDpOT_+0x90>  // b.any
    6c70:	a9411744 	ldp	x4, x5, [x26, #16]
    6c74:	a9011424 	stp	x4, x5, [x1, #16]
    6c78:	17ffffa9 	b	6b1c <_ZNSt6vectorINSt7__cxx1112basic_stringIcSt11char_traitsIcESaIcEEESaIS5_EE17_M_realloc_insertIJS5_EEEvN9__gnu_cxx17__normal_iteratorIPS5_S7_EEDpOT_+0x9c>
    6c7c:	aa0303f5 	mov	x21, x3
    6c80:	17ffffcf 	b	6bbc <_ZNSt6vectorINSt7__cxx1112basic_stringIcSt11char_traitsIcESaIcEEESaIS5_EE17_M_realloc_insertIJS5_EEEvN9__gnu_cxx17__normal_iteratorIPS5_S7_EEDpOT_+0x13c>
    6c84:	eb01007f 	cmp	x3, x1
    6c88:	9a819063 	csel	x3, x3, x1, ls  // ls = plast
    6c8c:	d37be876 	lsl	x22, x3, #5
    6c90:	17ffffec 	b	6c40 <_ZNSt6vectorINSt7__cxx1112basic_stringIcSt11char_traitsIcESaIcEEESaIS5_EE17_M_realloc_insertIJS5_EEEvN9__gnu_cxx17__normal_iteratorIPS5_S7_EEDpOT_+0x1c0>
    6c94:	f0000120 	adrp	x0, 2d000 <_ZN6google8protobuf13SStringPrintfEPNSt7__cxx1112basic_stringIcSt11char_traitsIcESaIcEEEPKcz+0x90>
    6c98:	91298000 	add	x0, x0, #0xa60
    6c9c:	97fff72d 	bl	4950 <_ZSt20__throw_length_errorPKc@plt>

0000000000006ca0 <_ZNK11vector_tile12Tile_Feature13IsInitializedEv>:
    6ca0:	a9bf7bfd 	stp	x29, x30, [sp, #-16]!
    6ca4:	910003fd 	mov	x29, sp
    6ca8:	d50320ff 	xpaclri
    6cac:	aa1e03e0 	mov	x0, x30
    6cb0:	97fff714 	bl	4900 <_mcount@plt>
    6cb4:	52800020 	mov	w0, #0x1                   	// #1
    6cb8:	a8c17bfd 	ldp	x29, x30, [sp], #16
    6cbc:	d65f03c0 	ret

0000000000006cc0 <_ZNK11vector_tile10Tile_Value24SerializeWithCachedSizesEPN6google8protobuf2io17CodedOutputStreamE>:
    6cc0:	a9bd7bfd 	stp	x29, x30, [sp, #-48]!
    6cc4:	910003fd 	mov	x29, sp
    6cc8:	a90153f3 	stp	x19, x20, [sp, #16]
    6ccc:	f90013f5 	str	x21, [sp, #32]
    6cd0:	aa0003f3 	mov	x19, x0
    6cd4:	d50320ff 	xpaclri
    6cd8:	aa0103f5 	mov	x21, x1
    6cdc:	aa1e03e0 	mov	x0, x30
    6ce0:	97fff708 	bl	4900 <_mcount@plt>
    6ce4:	b9404a74 	ldr	w20, [x19, #72]
    6ce8:	37000774 	tbnz	w20, #0, 6dd4 <_ZNK11vector_tile10Tile_Value24SerializeWithCachedSizesEPN6google8protobuf2io17CodedOutputStreamE+0x114>
    6cec:	37180694 	tbnz	w20, #3, 6dbc <_ZNK11vector_tile10Tile_Value24SerializeWithCachedSizesEPN6google8protobuf2io17CodedOutputStreamE+0xfc>
    6cf0:	370805b4 	tbnz	w20, #1, 6da4 <_ZNK11vector_tile10Tile_Value24SerializeWithCachedSizesEPN6google8protobuf2io17CodedOutputStreamE+0xe4>
    6cf4:	371004d4 	tbnz	w20, #2, 6d8c <_ZNK11vector_tile10Tile_Value24SerializeWithCachedSizesEPN6google8protobuf2io17CodedOutputStreamE+0xcc>
    6cf8:	372803f4 	tbnz	w20, #5, 6d74 <_ZNK11vector_tile10Tile_Value24SerializeWithCachedSizesEPN6google8protobuf2io17CodedOutputStreamE+0xb4>
    6cfc:	37300294 	tbnz	w20, #6, 6d4c <_ZNK11vector_tile10Tile_Value24SerializeWithCachedSizesEPN6google8protobuf2io17CodedOutputStreamE+0x8c>
    6d00:	37200314 	tbnz	w20, #4, 6d60 <_ZNK11vector_tile10Tile_Value24SerializeWithCachedSizesEPN6google8protobuf2io17CodedOutputStreamE+0xa0>
    6d04:	aa1503e3 	mov	x3, x21
    6d08:	91002260 	add	x0, x19, #0x8
    6d0c:	52a40002 	mov	w2, #0x20000000            	// #536870912
    6d10:	52800101 	mov	w1, #0x8                   	// #8
    6d14:	94004667 	bl	186b0 <_ZNK6google8protobuf8internal12ExtensionSet24SerializeWithCachedSizesEiiPNS0_2io17CodedOutputStreamE>
    6d18:	90000222 	adrp	x2, 4a000 <_ZTVN11vector_tile10Tile_ValueE+0x10>
    6d1c:	aa1503e0 	mov	x0, x21
    6d20:	f9402261 	ldr	x1, [x19, #64]
    6d24:	f946a442 	ldr	x2, [x2, #3400]
    6d28:	927ff823 	and	x3, x1, #0xfffffffffffffffe
    6d2c:	f240003f 	tst	x1, #0x1
    6d30:	9a830042 	csel	x2, x2, x3, eq  // eq = none
    6d34:	a94153f3 	ldp	x19, x20, [sp, #16]
    6d38:	f94013f5 	ldr	x21, [sp, #32]
    6d3c:	a8c37bfd 	ldp	x29, x30, [sp], #48
    6d40:	f9400041 	ldr	x1, [x2]
    6d44:	b9400842 	ldr	w2, [x2, #8]
    6d48:	14009216 	b	2b5a0 <_ZN6google8protobuf2io17CodedOutputStream8WriteRawEPKvi>
    6d4c:	f9403e61 	ldr	x1, [x19, #120]
    6d50:	aa1503e2 	mov	x2, x21
    6d54:	528000c0 	mov	w0, #0x6                   	// #6
    6d58:	940084ce 	bl	28090 <_ZN6google8protobuf8internal14WireFormatLite11WriteSInt64EilPNS0_2io17CodedOutputStreamE>
    6d5c:	3627fd54 	tbz	w20, #4, 6d04 <_ZNK11vector_tile10Tile_Value24SerializeWithCachedSizesEPN6google8protobuf2io17CodedOutputStreamE+0x44>
    6d60:	3941b261 	ldrb	w1, [x19, #108]
    6d64:	aa1503e2 	mov	x2, x21
    6d68:	528000e0 	mov	w0, #0x7                   	// #7
    6d6c:	940085fa 	bl	28554 <_ZN6google8protobuf8internal14WireFormatLite9WriteBoolEibPNS0_2io17CodedOutputStreamE>
    6d70:	17ffffe5 	b	6d04 <_ZNK11vector_tile10Tile_Value24SerializeWithCachedSizesEPN6google8protobuf2io17CodedOutputStreamE+0x44>
    6d74:	f9403a61 	ldr	x1, [x19, #112]
    6d78:	aa1503e2 	mov	x2, x21
    6d7c:	528000a0 	mov	w0, #0x5                   	// #5
    6d80:	94008449 	bl	27ea4 <_ZN6google8protobuf8internal14WireFormatLite11WriteUInt64EimPNS0_2io17CodedOutputStreamE>
    6d84:	3637fbf4 	tbz	w20, #6, 6d00 <_ZNK11vector_tile10Tile_Value24SerializeWithCachedSizesEPN6google8protobuf2io17CodedOutputStreamE+0x40>
    6d88:	17fffff1 	b	6d4c <_ZNK11vector_tile10Tile_Value24SerializeWithCachedSizesEPN6google8protobuf2io17CodedOutputStreamE+0x8c>
    6d8c:	f9403261 	ldr	x1, [x19, #96]
    6d90:	aa1503e2 	mov	x2, x21
    6d94:	52800080 	mov	w0, #0x4                   	// #4
    6d98:	940083c7 	bl	27cb4 <_ZN6google8protobuf8internal14WireFormatLite10WriteInt64EilPNS0_2io17CodedOutputStreamE>
    6d9c:	362ffb14 	tbz	w20, #5, 6cfc <_ZNK11vector_tile10Tile_Value24SerializeWithCachedSizesEPN6google8protobuf2io17CodedOutputStreamE+0x3c>
    6da0:	17fffff5 	b	6d74 <_ZNK11vector_tile10Tile_Value24SerializeWithCachedSizesEPN6google8protobuf2io17CodedOutputStreamE+0xb4>
    6da4:	fd402e60 	ldr	d0, [x19, #88]
    6da8:	aa1503e1 	mov	x1, x21
    6dac:	52800060 	mov	w0, #0x3                   	// #3
    6db0:	940085c1 	bl	284b4 <_ZN6google8protobuf8internal14WireFormatLite11WriteDoubleEidPNS0_2io17CodedOutputStreamE>
    6db4:	3617fa34 	tbz	w20, #2, 6cf8 <_ZNK11vector_tile10Tile_Value24SerializeWithCachedSizesEPN6google8protobuf2io17CodedOutputStreamE+0x38>
    6db8:	17fffff5 	b	6d8c <_ZNK11vector_tile10Tile_Value24SerializeWithCachedSizesEPN6google8protobuf2io17CodedOutputStreamE+0xcc>
    6dbc:	bd406a60 	ldr	s0, [x19, #104]
    6dc0:	aa1503e1 	mov	x1, x21
    6dc4:	52800040 	mov	w0, #0x2                   	// #2
    6dc8:	94008593 	bl	28414 <_ZN6google8protobuf8internal14WireFormatLite10WriteFloatEifPNS0_2io17CodedOutputStreamE>
    6dcc:	360ff954 	tbz	w20, #1, 6cf4 <_ZNK11vector_tile10Tile_Value24SerializeWithCachedSizesEPN6google8protobuf2io17CodedOutputStreamE+0x34>
    6dd0:	17fffff5 	b	6da4 <_ZNK11vector_tile10Tile_Value24SerializeWithCachedSizesEPN6google8protobuf2io17CodedOutputStreamE+0xe4>
    6dd4:	f9402a61 	ldr	x1, [x19, #80]
    6dd8:	aa1503e2 	mov	x2, x21
    6ddc:	52800020 	mov	w0, #0x1                   	// #1
    6de0:	940086b4 	bl	288b0 <_ZN6google8protobuf8internal14WireFormatLite23WriteStringMaybeAliasedEiRKNSt7__cxx1112basic_stringIcSt11char_traitsIcESaIcEEEPNS0_2io17CodedOutputStreamE>
    6de4:	361ff874 	tbz	w20, #3, 6cf0 <_ZNK11vector_tile10Tile_Value24SerializeWithCachedSizesEPN6google8protobuf2io17CodedOutputStreamE+0x30>
    6de8:	17fffff5 	b	6dbc <_ZNK11vector_tile10Tile_Value24SerializeWithCachedSizesEPN6google8protobuf2io17CodedOutputStreamE+0xfc>
    6dec:	d503201f 	nop

0000000000006df0 <_ZNK11vector_tile4Tile12ByteSizeLongEv>:
    6df0:	a9bc7bfd 	stp	x29, x30, [sp, #-64]!
    6df4:	910003fd 	mov	x29, sp
    6df8:	a90153f3 	stp	x19, x20, [sp, #16]
    6dfc:	a9025bf5 	stp	x21, x22, [sp, #32]
    6e00:	f9001bf7 	str	x23, [sp, #48]
    6e04:	aa0003f4 	mov	x20, x0
    6e08:	d50320ff 	xpaclri
    6e0c:	aa1e03e0 	mov	x0, x30
    6e10:	97fff6bc 	bl	4900 <_mcount@plt>
    6e14:	91002280 	add	x0, x20, #0x8
    6e18:	94004a26 	bl	196b0 <_ZNK6google8protobuf8internal12ExtensionSet8ByteSizeEv>
    6e1c:	90000221 	adrp	x1, 4a000 <_ZTVN11vector_tile10Tile_ValueE+0x10>
    6e20:	b9405a93 	ldr	w19, [x20, #88]
    6e24:	f9402282 	ldr	x2, [x20, #64]
    6e28:	91014297 	add	x23, x20, #0x50
    6e2c:	f946a421 	ldr	x1, [x1, #3400]
    6e30:	927ff843 	and	x3, x2, #0xfffffffffffffffe
    6e34:	f240005f 	tst	x2, #0x1
    6e38:	8b334016 	add	x22, x0, w19, uxtw
    6e3c:	9a830021 	csel	x1, x1, x3, eq  // eq = none
    6e40:	f9400420 	ldr	x0, [x1, #8]
    6e44:	8b0002d6 	add	x22, x22, x0
    6e48:	34000273 	cbz	w19, 6e94 <_ZNK11vector_tile4Tile12ByteSizeLongEv+0xa4>
    6e4c:	52800015 	mov	w21, #0x0                   	// #0
    6e50:	f9400ae0 	ldr	x0, [x23, #16]
    6e54:	8b35cc00 	add	x0, x0, w21, sxtw #3
    6e58:	110006b5 	add	w21, w21, #0x1
    6e5c:	f9400400 	ldr	x0, [x0, #8]
    6e60:	f9400001 	ldr	x1, [x0]
    6e64:	f9403021 	ldr	x1, [x1, #96]
    6e68:	d63f0020 	blr	x1
    6e6c:	32000001 	orr	w1, w0, #0x1
    6e70:	5ac01021 	clz	w1, w1
    6e74:	52001021 	eor	w1, w1, #0x1f
    6e78:	0b010c21 	add	w1, w1, w1, lsl #3
    6e7c:	11012421 	add	w1, w1, #0x49
    6e80:	d3462821 	ubfx	x1, x1, #6, #5
    6e84:	8b000020 	add	x0, x1, x0
    6e88:	8b0002d6 	add	x22, x22, x0
    6e8c:	6b15027f 	cmp	w19, w21
    6e90:	54fffe01 	b.ne	6e50 <_ZNK11vector_tile4Tile12ByteSizeLongEv+0x60>  // b.any
    6e94:	f9401bf7 	ldr	x23, [sp, #48]
    6e98:	b9004e96 	str	w22, [x20, #76]
    6e9c:	aa1603e0 	mov	x0, x22
    6ea0:	a94153f3 	ldp	x19, x20, [sp, #16]
    6ea4:	a9425bf5 	ldp	x21, x22, [sp, #32]
    6ea8:	a8c47bfd 	ldp	x29, x30, [sp], #64
    6eac:	d65f03c0 	ret

0000000000006eb0 <_ZNK11vector_tile10Tile_Value12ByteSizeLongEv>:
    6eb0:	a9be7bfd 	stp	x29, x30, [sp, #-32]!
    6eb4:	910003fd 	mov	x29, sp
    6eb8:	f9000bf3 	str	x19, [sp, #16]
    6ebc:	aa0003f3 	mov	x19, x0
    6ec0:	d50320ff 	xpaclri
    6ec4:	aa1e03e0 	mov	x0, x30
    6ec8:	97fff68e 	bl	4900 <_mcount@plt>
    6ecc:	91002260 	add	x0, x19, #0x8
    6ed0:	940049f8 	bl	196b0 <_ZNK6google8protobuf8internal12ExtensionSet8ByteSizeEv>
    6ed4:	90000221 	adrp	x1, 4a000 <_ZTVN11vector_tile10Tile_ValueE+0x10>
    6ed8:	f9402262 	ldr	x2, [x19, #64]
    6edc:	f946a421 	ldr	x1, [x1, #3400]
    6ee0:	927ff843 	and	x3, x2, #0xfffffffffffffffe
    6ee4:	f240005f 	tst	x2, #0x1
    6ee8:	b9404a62 	ldr	w2, [x19, #72]
    6eec:	9a830021 	csel	x1, x1, x3, eq  // eq = none
    6ef0:	f9400421 	ldr	x1, [x1, #8]
    6ef4:	8b010000 	add	x0, x0, x1
    6ef8:	f240185f 	tst	x2, #0x7f
    6efc:	540006c0 	b.eq	6fd4 <_ZNK11vector_tile10Tile_Value12ByteSizeLongEv+0x124>  // b.none
    6f00:	36000182 	tbz	w2, #0, 6f30 <_ZNK11vector_tile10Tile_Value12ByteSizeLongEv+0x80>
    6f04:	f9402a61 	ldr	x1, [x19, #80]
    6f08:	f9400423 	ldr	x3, [x1, #8]
    6f0c:	32000061 	orr	w1, w3, #0x1
    6f10:	91000463 	add	x3, x3, #0x1
    6f14:	5ac01021 	clz	w1, w1
    6f18:	52001021 	eor	w1, w1, #0x1f
    6f1c:	0b010c21 	add	w1, w1, w1, lsl #3
    6f20:	11012421 	add	w1, w1, #0x49
    6f24:	d3462821 	ubfx	x1, x1, #6, #5
    6f28:	8b000021 	add	x1, x1, x0
    6f2c:	8b010060 	add	x0, x3, x1
    6f30:	f27f005f 	tst	x2, #0x2
    6f34:	91002401 	add	x1, x0, #0x9
    6f38:	9a801020 	csel	x0, x1, x0, ne  // ne = any
    6f3c:	36100142 	tbz	w2, #2, 6f64 <_ZNK11vector_tile10Tile_Value12ByteSizeLongEv+0xb4>
    6f40:	f9403261 	ldr	x1, [x19, #96]
    6f44:	b2400021 	orr	x1, x1, #0x1
    6f48:	dac01021 	clz	x1, x1
    6f4c:	52001421 	eor	w1, w1, #0x3f
    6f50:	0b010c21 	add	w1, w1, w1, lsl #3
    6f54:	11012421 	add	w1, w1, #0x49
    6f58:	53067c21 	lsr	w1, w1, #6
    6f5c:	11000421 	add	w1, w1, #0x1
    6f60:	8b010000 	add	x0, x0, x1
    6f64:	f27d005f 	tst	x2, #0x8
    6f68:	91001401 	add	x1, x0, #0x5
    6f6c:	9a801020 	csel	x0, x1, x0, ne  // ne = any
    6f70:	f27c005f 	tst	x2, #0x10
    6f74:	91000801 	add	x1, x0, #0x2
    6f78:	9a801020 	csel	x0, x1, x0, ne  // ne = any
    6f7c:	36280142 	tbz	w2, #5, 6fa4 <_ZNK11vector_tile10Tile_Value12ByteSizeLongEv+0xf4>
    6f80:	f9403a61 	ldr	x1, [x19, #112]
    6f84:	b2400021 	orr	x1, x1, #0x1
    6f88:	dac01021 	clz	x1, x1
    6f8c:	52001421 	eor	w1, w1, #0x3f
    6f90:	0b010c21 	add	w1, w1, w1, lsl #3
    6f94:	11012421 	add	w1, w1, #0x49
    6f98:	53067c21 	lsr	w1, w1, #6
    6f9c:	11000421 	add	w1, w1, #0x1
    6fa0:	8b010000 	add	x0, x0, x1
    6fa4:	36300182 	tbz	w2, #6, 6fd4 <_ZNK11vector_tile10Tile_Value12ByteSizeLongEv+0x124>
    6fa8:	f9403e61 	ldr	x1, [x19, #120]
    6fac:	937ffc22 	asr	x2, x1, #63
    6fb0:	ca010441 	eor	x1, x2, x1, lsl #1
    6fb4:	b2400021 	orr	x1, x1, #0x1
    6fb8:	dac01021 	clz	x1, x1
    6fbc:	52001421 	eor	w1, w1, #0x3f
    6fc0:	0b010c21 	add	w1, w1, w1, lsl #3
    6fc4:	11012421 	add	w1, w1, #0x49
    6fc8:	53067c21 	lsr	w1, w1, #6
    6fcc:	11000421 	add	w1, w1, #0x1
    6fd0:	8b010000 	add	x0, x0, x1
    6fd4:	b9004e60 	str	w0, [x19, #76]
    6fd8:	f9400bf3 	ldr	x19, [sp, #16]
    6fdc:	a8c27bfd 	ldp	x29, x30, [sp], #32
    6fe0:	d65f03c0 	ret

0000000000006fe4 <_ZNK11vector_tile10Tile_Value13IsInitializedEv>:
    6fe4:	a9be7bfd 	stp	x29, x30, [sp, #-32]!
    6fe8:	910003fd 	mov	x29, sp
    6fec:	f9000bf3 	str	x19, [sp, #16]
    6ff0:	d50320ff 	xpaclri
    6ff4:	aa0003f3 	mov	x19, x0
    6ff8:	aa1e03e0 	mov	x0, x30
    6ffc:	97fff641 	bl	4900 <_mcount@plt>
    7000:	91002260 	add	x0, x19, #0x8
    7004:	f9400bf3 	ldr	x19, [sp, #16]
    7008:	a8c27bfd 	ldp	x29, x30, [sp], #32
    700c:	14003fc1 	b	16f10 <_ZNK6google8protobuf8internal12ExtensionSet13IsInitializedEv>

0000000000007010 <_ZNK11vector_tile12Tile_Feature12ByteSizeLongEv>:
    7010:	a9be7bfd 	stp	x29, x30, [sp, #-32]!
    7014:	910003fd 	mov	x29, sp
    7018:	a90153f3 	stp	x19, x20, [sp, #16]
    701c:	aa0003f4 	mov	x20, x0
    7020:	d50320ff 	xpaclri
    7024:	aa1e03e0 	mov	x0, x30
    7028:	97fff636 	bl	4900 <_mcount@plt>
    702c:	f0000201 	adrp	x1, 4a000 <_ZTVN11vector_tile10Tile_ValueE+0x10>
    7030:	91006280 	add	x0, x20, #0x18
    7034:	f9400682 	ldr	x2, [x20, #8]
    7038:	f946a421 	ldr	x1, [x1, #3400]
    703c:	927ff843 	and	x3, x2, #0xfffffffffffffffe
    7040:	f240005f 	tst	x2, #0x1
    7044:	9a830021 	csel	x1, x1, x3, eq  // eq = none
    7048:	f9400433 	ldr	x19, [x1, #8]
    704c:	94008a29 	bl	298f0 <_ZN6google8protobuf8internal14WireFormatLite10UInt32SizeERKNS0_13RepeatedFieldIjEE>
    7050:	52800002 	mov	w2, #0x0                   	// #0
    7054:	b4000160 	cbz	x0, 7080 <_ZNK11vector_tile12Tile_Feature12ByteSizeLongEv+0x70>
    7058:	2a0003e2 	mov	w2, w0
    705c:	37f808a0 	tbnz	w0, #31, 7170 <_ZNK11vector_tile12Tile_Feature12ByteSizeLongEv+0x160>
    7060:	32000001 	orr	w1, w0, #0x1
    7064:	5ac01021 	clz	w1, w1
    7068:	52001021 	eor	w1, w1, #0x1f
    706c:	0b010c21 	add	w1, w1, w1, lsl #3
    7070:	11012421 	add	w1, w1, #0x49
    7074:	d3462821 	ubfx	x1, x1, #6, #5
    7078:	91000673 	add	x19, x19, #0x1
    707c:	8b010273 	add	x19, x19, x1
    7080:	b9002a82 	str	w2, [x20, #40]
    7084:	8b000273 	add	x19, x19, x0
    7088:	9100c280 	add	x0, x20, #0x30
    708c:	94008a19 	bl	298f0 <_ZN6google8protobuf8internal14WireFormatLite10UInt32SizeERKNS0_13RepeatedFieldIjEE>
    7090:	52800003 	mov	w3, #0x0                   	// #0
    7094:	b4000160 	cbz	x0, 70c0 <_ZNK11vector_tile12Tile_Feature12ByteSizeLongEv+0xb0>
    7098:	2a0003e3 	mov	w3, w0
    709c:	37f80660 	tbnz	w0, #31, 7168 <_ZNK11vector_tile12Tile_Feature12ByteSizeLongEv+0x158>
    70a0:	32000001 	orr	w1, w0, #0x1
    70a4:	5ac01021 	clz	w1, w1
    70a8:	52001021 	eor	w1, w1, #0x1f
    70ac:	0b010c21 	add	w1, w1, w1, lsl #3
    70b0:	11012421 	add	w1, w1, #0x49
    70b4:	d3462821 	ubfx	x1, x1, #6, #5
    70b8:	91000673 	add	x19, x19, #0x1
    70bc:	8b130033 	add	x19, x1, x19
    70c0:	b9401282 	ldr	w2, [x20, #16]
    70c4:	8b000260 	add	x0, x19, x0
    70c8:	b9004283 	str	w3, [x20, #64]
    70cc:	f240085f 	tst	x2, #0x7
    70d0:	54000440 	b.eq	7158 <_ZNK11vector_tile12Tile_Feature12ByteSizeLongEv+0x148>  // b.none
    70d4:	36000182 	tbz	w2, #0, 7104 <_ZNK11vector_tile12Tile_Feature12ByteSizeLongEv+0xf4>
    70d8:	f9402681 	ldr	x1, [x20, #72]
    70dc:	f9400423 	ldr	x3, [x1, #8]
    70e0:	32000061 	orr	w1, w3, #0x1
    70e4:	91000463 	add	x3, x3, #0x1
    70e8:	5ac01021 	clz	w1, w1
    70ec:	52001021 	eor	w1, w1, #0x1f
    70f0:	0b010c21 	add	w1, w1, w1, lsl #3
    70f4:	11012421 	add	w1, w1, #0x49
    70f8:	d3462821 	ubfx	x1, x1, #6, #5
    70fc:	8b000021 	add	x1, x1, x0
    7100:	8b010060 	add	x0, x3, x1
    7104:	36080142 	tbz	w2, #1, 712c <_ZNK11vector_tile12Tile_Feature12ByteSizeLongEv+0x11c>
    7108:	f9402a81 	ldr	x1, [x20, #80]
    710c:	b2400021 	orr	x1, x1, #0x1
    7110:	dac01021 	clz	x1, x1
    7114:	52001421 	eor	w1, w1, #0x3f
    7118:	0b010c21 	add	w1, w1, w1, lsl #3
    711c:	11012421 	add	w1, w1, #0x49
    7120:	53067c21 	lsr	w1, w1, #6
    7124:	11000421 	add	w1, w1, #0x1
    7128:	8b010000 	add	x0, x0, x1
    712c:	36100162 	tbz	w2, #2, 7158 <_ZNK11vector_tile12Tile_Feature12ByteSizeLongEv+0x148>
    7130:	b9405a81 	ldr	w1, [x20, #88]
    7134:	37f80221 	tbnz	w1, #31, 7178 <_ZNK11vector_tile12Tile_Feature12ByteSizeLongEv+0x168>
    7138:	32000021 	orr	w1, w1, #0x1
    713c:	5ac01021 	clz	w1, w1
    7140:	52001021 	eor	w1, w1, #0x1f
    7144:	0b010c21 	add	w1, w1, w1, lsl #3
    7148:	11012422 	add	w2, w1, #0x49
    714c:	d3462842 	ubfx	x2, x2, #6, #5
    7150:	91000401 	add	x1, x0, #0x1
    7154:	8b020020 	add	x0, x1, x2
    7158:	b9001680 	str	w0, [x20, #20]
    715c:	a94153f3 	ldp	x19, x20, [sp, #16]
    7160:	a8c27bfd 	ldp	x29, x30, [sp], #32
    7164:	d65f03c0 	ret
    7168:	d2800141 	mov	x1, #0xa                   	// #10
    716c:	17ffffd3 	b	70b8 <_ZNK11vector_tile12Tile_Feature12ByteSizeLongEv+0xa8>
    7170:	d2800141 	mov	x1, #0xa                   	// #10
    7174:	17ffffc1 	b	7078 <_ZNK11vector_tile12Tile_Feature12ByteSizeLongEv+0x68>
    7178:	d2800142 	mov	x2, #0xa                   	// #10
    717c:	17fffff5 	b	7150 <_ZNK11vector_tile12Tile_Feature12ByteSizeLongEv+0x140>

0000000000007180 <_ZNK11vector_tile4Tile24SerializeWithCachedSizesEPN6google8protobuf2io17CodedOutputStreamE>:
    7180:	a9bc7bfd 	stp	x29, x30, [sp, #-64]!
    7184:	910003fd 	mov	x29, sp
    7188:	a90153f3 	stp	x19, x20, [sp, #16]
    718c:	a9025bf5 	stp	x21, x22, [sp, #32]
    7190:	f9001bf7 	str	x23, [sp, #48]
    7194:	91014016 	add	x22, x0, #0x50
    7198:	d50320ff 	xpaclri
    719c:	aa0003f7 	mov	x23, x0
    71a0:	aa0103f4 	mov	x20, x1
    71a4:	aa1e03e0 	mov	x0, x30
    71a8:	97fff5d6 	bl	4900 <_mcount@plt>
    71ac:	b9400ad5 	ldr	w21, [x22, #8]
    71b0:	34000175 	cbz	w21, 71dc <_ZNK11vector_tile4Tile24SerializeWithCachedSizesEPN6google8protobuf2io17CodedOutputStreamE+0x5c>
    71b4:	52800013 	mov	w19, #0x0                   	// #0
    71b8:	f9400ac3 	ldr	x3, [x22, #16]
    71bc:	aa1403e2 	mov	x2, x20
    71c0:	52800060 	mov	w0, #0x3                   	// #3
    71c4:	8b33cc63 	add	x3, x3, w19, sxtw #3
    71c8:	11000673 	add	w19, w19, #0x1
    71cc:	f9400461 	ldr	x1, [x3, #8]
    71d0:	9400874c 	bl	28f00 <_ZN6google8protobuf8internal14WireFormatLite12WriteMessageEiRKNS0_11MessageLiteEPNS0_2io17CodedOutputStreamE>
    71d4:	6b1302bf 	cmp	w21, w19
    71d8:	54ffff01 	b.ne	71b8 <_ZNK11vector_tile4Tile24SerializeWithCachedSizesEPN6google8protobuf2io17CodedOutputStreamE+0x38>  // b.any
    71dc:	aa1403e3 	mov	x3, x20
    71e0:	910022e0 	add	x0, x23, #0x8
    71e4:	52840002 	mov	w2, #0x2000                	// #8192
    71e8:	52800201 	mov	w1, #0x10                  	// #16
    71ec:	94004531 	bl	186b0 <_ZNK6google8protobuf8internal12ExtensionSet24SerializeWithCachedSizesEiiPNS0_2io17CodedOutputStreamE>
    71f0:	f0000202 	adrp	x2, 4a000 <_ZTVN11vector_tile10Tile_ValueE+0x10>
    71f4:	aa1403e0 	mov	x0, x20
    71f8:	f94022e1 	ldr	x1, [x23, #64]
    71fc:	f946a442 	ldr	x2, [x2, #3400]
    7200:	927ff823 	and	x3, x1, #0xfffffffffffffffe
    7204:	f240003f 	tst	x1, #0x1
    7208:	9a830042 	csel	x2, x2, x3, eq  // eq = none
    720c:	a94153f3 	ldp	x19, x20, [sp, #16]
    7210:	a9425bf5 	ldp	x21, x22, [sp, #32]
    7214:	f9401bf7 	ldr	x23, [sp, #48]
    7218:	a8c47bfd 	ldp	x29, x30, [sp], #64
    721c:	f9400041 	ldr	x1, [x2]
    7220:	b9400842 	ldr	w2, [x2, #8]
    7224:	140090df 	b	2b5a0 <_ZN6google8protobuf2io17CodedOutputStream8WriteRawEPKvi>
    7228:	d503201f 	nop
    722c:	d503201f 	nop

0000000000007230 <_ZNK11vector_tile10Tile_Layer24SerializeWithCachedSizesEPN6google8protobuf2io17CodedOutputStreamE>:
    7230:	a9bc7bfd 	stp	x29, x30, [sp, #-64]!
    7234:	910003fd 	mov	x29, sp
    7238:	a90153f3 	stp	x19, x20, [sp, #16]
    723c:	a9025bf5 	stp	x21, x22, [sp, #32]
    7240:	a90363f7 	stp	x23, x24, [sp, #48]
    7244:	aa0003f5 	mov	x21, x0
    7248:	d50320ff 	xpaclri
    724c:	aa0103f4 	mov	x20, x1
    7250:	aa1e03e0 	mov	x0, x30
    7254:	97fff5ab 	bl	4900 <_mcount@plt>
    7258:	b9404ab6 	ldr	w22, [x21, #72]
    725c:	37000936 	tbnz	w22, #0, 7380 <_ZNK11vector_tile10Tile_Layer24SerializeWithCachedSizesEPN6google8protobuf2io17CodedOutputStreamE+0x150>
    7260:	b9405ab7 	ldr	w23, [x21, #88]
    7264:	910142b8 	add	x24, x21, #0x50
    7268:	34000177 	cbz	w23, 7294 <_ZNK11vector_tile10Tile_Layer24SerializeWithCachedSizesEPN6google8protobuf2io17CodedOutputStreamE+0x64>
    726c:	52800013 	mov	w19, #0x0                   	// #0
    7270:	f9400b01 	ldr	x1, [x24, #16]
    7274:	aa1403e2 	mov	x2, x20
    7278:	52800040 	mov	w0, #0x2                   	// #2
    727c:	8b33cc21 	add	x1, x1, w19, sxtw #3
    7280:	11000673 	add	w19, w19, #0x1
    7284:	f9400421 	ldr	x1, [x1, #8]
    7288:	9400871e 	bl	28f00 <_ZN6google8protobuf8internal14WireFormatLite12WriteMessageEiRKNS0_11MessageLiteEPNS0_2io17CodedOutputStreamE>
    728c:	6b1302ff 	cmp	w23, w19
    7290:	54ffff01 	b.ne	7270 <_ZNK11vector_tile10Tile_Layer24SerializeWithCachedSizesEPN6google8protobuf2io17CodedOutputStreamE+0x40>  // b.any
    7294:	b94072b7 	ldr	w23, [x21, #112]
    7298:	9101a2b8 	add	x24, x21, #0x68
    729c:	710002ff 	cmp	w23, #0x0
    72a0:	5400016d 	b.le	72cc <_ZNK11vector_tile10Tile_Layer24SerializeWithCachedSizesEPN6google8protobuf2io17CodedOutputStreamE+0x9c>
    72a4:	52800013 	mov	w19, #0x0                   	// #0
    72a8:	f9400b03 	ldr	x3, [x24, #16]
    72ac:	aa1403e2 	mov	x2, x20
    72b0:	52800060 	mov	w0, #0x3                   	// #3
    72b4:	8b33cc63 	add	x3, x3, w19, sxtw #3
    72b8:	11000673 	add	w19, w19, #0x1
    72bc:	f9400461 	ldr	x1, [x3, #8]
    72c0:	94008515 	bl	28714 <_ZN6google8protobuf8internal14WireFormatLite11WriteStringEiRKNSt7__cxx1112basic_stringIcSt11char_traitsIcESaIcEEEPNS0_2io17CodedOutputStreamE>
    72c4:	6b17027f 	cmp	w19, w23
    72c8:	54ffff01 	b.ne	72a8 <_ZNK11vector_tile10Tile_Layer24SerializeWithCachedSizesEPN6google8protobuf2io17CodedOutputStreamE+0x78>  // b.any
    72cc:	b9408ab7 	ldr	w23, [x21, #136]
    72d0:	910202b8 	add	x24, x21, #0x80
    72d4:	34000197 	cbz	w23, 7304 <_ZNK11vector_tile10Tile_Layer24SerializeWithCachedSizesEPN6google8protobuf2io17CodedOutputStreamE+0xd4>
    72d8:	52800013 	mov	w19, #0x0                   	// #0
    72dc:	d503201f 	nop
    72e0:	f9400b03 	ldr	x3, [x24, #16]
    72e4:	aa1403e2 	mov	x2, x20
    72e8:	52800080 	mov	w0, #0x4                   	// #4
    72ec:	8b33cc63 	add	x3, x3, w19, sxtw #3
    72f0:	11000673 	add	w19, w19, #0x1
    72f4:	f9400461 	ldr	x1, [x3, #8]
    72f8:	94008702 	bl	28f00 <_ZN6google8protobuf8internal14WireFormatLite12WriteMessageEiRKNS0_11MessageLiteEPNS0_2io17CodedOutputStreamE>
    72fc:	6b1302ff 	cmp	w23, w19
    7300:	54ffff01 	b.ne	72e0 <_ZNK11vector_tile10Tile_Layer24SerializeWithCachedSizesEPN6google8protobuf2io17CodedOutputStreamE+0xb0>  // b.any
    7304:	370802b6 	tbnz	w22, #1, 7358 <_ZNK11vector_tile10Tile_Layer24SerializeWithCachedSizesEPN6google8protobuf2io17CodedOutputStreamE+0x128>
    7308:	37100336 	tbnz	w22, #2, 736c <_ZNK11vector_tile10Tile_Layer24SerializeWithCachedSizesEPN6google8protobuf2io17CodedOutputStreamE+0x13c>
    730c:	aa1403e3 	mov	x3, x20
    7310:	910022a0 	add	x0, x21, #0x8
    7314:	52a40002 	mov	w2, #0x20000000            	// #536870912
    7318:	52800201 	mov	w1, #0x10                  	// #16
    731c:	940044e5 	bl	186b0 <_ZNK6google8protobuf8internal12ExtensionSet24SerializeWithCachedSizesEiiPNS0_2io17CodedOutputStreamE>
    7320:	f0000202 	adrp	x2, 4a000 <_ZTVN11vector_tile10Tile_ValueE+0x10>
    7324:	aa1403e0 	mov	x0, x20
    7328:	f94022a1 	ldr	x1, [x21, #64]
    732c:	f946a442 	ldr	x2, [x2, #3400]
    7330:	927ff823 	and	x3, x1, #0xfffffffffffffffe
    7334:	f240003f 	tst	x1, #0x1
    7338:	9a830042 	csel	x2, x2, x3, eq  // eq = none
    733c:	a94153f3 	ldp	x19, x20, [sp, #16]
    7340:	a9425bf5 	ldp	x21, x22, [sp, #32]
    7344:	a94363f7 	ldp	x23, x24, [sp, #48]
    7348:	a8c47bfd 	ldp	x29, x30, [sp], #64
    734c:	f9400041 	ldr	x1, [x2]
    7350:	b9400842 	ldr	w2, [x2, #8]
    7354:	14009093 	b	2b5a0 <_ZN6google8protobuf2io17CodedOutputStream8WriteRawEPKvi>
    7358:	b940a2a1 	ldr	w1, [x21, #160]
    735c:	aa1403e2 	mov	x2, x20
    7360:	528000a0 	mov	w0, #0x5                   	// #5
    7364:	94008293 	bl	27db0 <_ZN6google8protobuf8internal14WireFormatLite11WriteUInt32EijPNS0_2io17CodedOutputStreamE>
    7368:	3617fd36 	tbz	w22, #2, 730c <_ZNK11vector_tile10Tile_Layer24SerializeWithCachedSizesEPN6google8protobuf2io17CodedOutputStreamE+0xdc>
    736c:	b940a6a1 	ldr	w1, [x21, #164]
    7370:	aa1403e2 	mov	x2, x20
    7374:	528001e0 	mov	w0, #0xf                   	// #15
    7378:	9400828e 	bl	27db0 <_ZN6google8protobuf8internal14WireFormatLite11WriteUInt32EijPNS0_2io17CodedOutputStreamE>
    737c:	17ffffe4 	b	730c <_ZNK11vector_tile10Tile_Layer24SerializeWithCachedSizesEPN6google8protobuf2io17CodedOutputStreamE+0xdc>
    7380:	f9404ea1 	ldr	x1, [x21, #152]
    7384:	aa1403e2 	mov	x2, x20
    7388:	52800020 	mov	w0, #0x1                   	// #1
    738c:	94008549 	bl	288b0 <_ZN6google8protobuf8internal14WireFormatLite23WriteStringMaybeAliasedEiRKNSt7__cxx1112basic_stringIcSt11char_traitsIcESaIcEEEPNS0_2io17CodedOutputStreamE>
    7390:	17ffffb4 	b	7260 <_ZNK11vector_tile10Tile_Layer24SerializeWithCachedSizesEPN6google8protobuf2io17CodedOutputStreamE+0x30>

0000000000007394 <_ZNK11vector_tile10Tile_Layer13IsInitializedEv>:
    7394:	a9bd7bfd 	stp	x29, x30, [sp, #-48]!
    7398:	910003fd 	mov	x29, sp
    739c:	a90153f3 	stp	x19, x20, [sp, #16]
    73a0:	d50320ff 	xpaclri
    73a4:	aa0003f4 	mov	x20, x0
    73a8:	aa1e03e0 	mov	x0, x30
    73ac:	97fff555 	bl	4900 <_mcount@plt>
    73b0:	91002280 	add	x0, x20, #0x8
    73b4:	94003ed7 	bl	16f10 <_ZNK6google8protobuf8internal12ExtensionSet13IsInitializedEv>
    73b8:	72001c13 	ands	w19, w0, #0xff
    73bc:	540000c0 	b.eq	73d4 <_ZNK11vector_tile10Tile_Layer13IsInitializedEv+0x40>  // b.none
    73c0:	b9404a80 	ldr	w0, [x20, #72]
    73c4:	528000a1 	mov	w1, #0x5                   	// #5
    73c8:	0a010000 	and	w0, w0, w1
    73cc:	6b01001f 	cmp	w0, w1
    73d0:	540000c0 	b.eq	73e8 <_ZNK11vector_tile10Tile_Layer13IsInitializedEv+0x54>  // b.none
    73d4:	52800013 	mov	w19, #0x0                   	// #0
    73d8:	2a1303e0 	mov	w0, w19
    73dc:	a94153f3 	ldp	x19, x20, [sp, #16]
    73e0:	a8c37bfd 	ldp	x29, x30, [sp], #48
    73e4:	d65f03c0 	ret
    73e8:	91020294 	add	x20, x20, #0x80
    73ec:	f90013f5 	str	x21, [sp, #32]
    73f0:	b9400a95 	ldr	w21, [x20, #8]
    73f4:	710006b5 	subs	w21, w21, #0x1
    73f8:	54000144 	b.mi	7420 <_ZNK11vector_tile10Tile_Layer13IsInitializedEv+0x8c>  // b.first
    73fc:	f9400a80 	ldr	x0, [x20, #16]
    7400:	8b35cc00 	add	x0, x0, w21, sxtw #3
    7404:	f9400400 	ldr	x0, [x0, #8]
    7408:	91002000 	add	x0, x0, #0x8
    740c:	94003ec1 	bl	16f10 <_ZNK6google8protobuf8internal12ExtensionSet13IsInitializedEv>
    7410:	72001c1f 	tst	w0, #0xff
    7414:	54ffff01 	b.ne	73f4 <_ZNK11vector_tile10Tile_Layer13IsInitializedEv+0x60>  // b.any
    7418:	f94013f5 	ldr	x21, [sp, #32]
    741c:	17ffffee 	b	73d4 <_ZNK11vector_tile10Tile_Layer13IsInitializedEv+0x40>
    7420:	f94013f5 	ldr	x21, [sp, #32]
    7424:	17ffffed 	b	73d8 <_ZNK11vector_tile10Tile_Layer13IsInitializedEv+0x44>
    7428:	d503201f 	nop
    742c:	d503201f 	nop

0000000000007430 <_ZNK11vector_tile12Tile_Feature11GetTypeNameB5cxx11Ev>:
    7430:	a9bd7bfd 	stp	x29, x30, [sp, #-48]!
    7434:	910003fd 	mov	x29, sp
    7438:	f9000bf3 	str	x19, [sp, #16]
    743c:	d50320ff 	xpaclri
    7440:	aa0803f3 	mov	x19, x8
    7444:	aa1e03e0 	mov	x0, x30
    7448:	97fff52e 	bl	4900 <_mcount@plt>
    744c:	f0000203 	adrp	x3, 4a000 <_ZTVN11vector_tile10Tile_ValueE+0x10>
    7450:	91004265 	add	x5, x19, #0x10
    7454:	d2800304 	mov	x4, #0x18                  	// #24
    7458:	910083e1 	add	x1, sp, #0x20
    745c:	f946b863 	ldr	x3, [x3, #3440]
    7460:	d2800002 	mov	x2, #0x0                   	// #0
    7464:	aa1303e0 	mov	x0, x19
    7468:	f9400066 	ldr	x6, [x3]
    746c:	f90017e6 	str	x6, [sp, #40]
    7470:	d2800006 	mov	x6, #0x0                   	// #0
    7474:	f9000265 	str	x5, [x19]
    7478:	f90013e4 	str	x4, [sp, #32]
    747c:	97fff625 	bl	4d10 <_ZNSt7__cxx1112basic_stringIcSt11char_traitsIcESaIcEE9_M_createERmm@plt>
    7480:	f9000260 	str	x0, [x19]
    7484:	d0000121 	adrp	x1, 2d000 <_ZN6google8protobuf13SStringPrintfEPNSt7__cxx1112basic_stringIcSt11char_traitsIcESaIcEEEPKcz+0x90>
    7488:	9136e021 	add	x1, x1, #0xdb8
    748c:	f94013e2 	ldr	x2, [sp, #32]
    7490:	f9000a62 	str	x2, [x19, #16]
    7494:	a9400c22 	ldp	x2, x3, [x1]
    7498:	a9000c02 	stp	x2, x3, [x0]
    749c:	f9400821 	ldr	x1, [x1, #16]
    74a0:	f9000801 	str	x1, [x0, #16]
    74a4:	f94013e1 	ldr	x1, [sp, #32]
    74a8:	f0000202 	adrp	x2, 4a000 <_ZTVN11vector_tile10Tile_ValueE+0x10>
    74ac:	f9400263 	ldr	x3, [x19]
    74b0:	f9000661 	str	x1, [x19, #8]
    74b4:	f946b840 	ldr	x0, [x2, #3440]
    74b8:	3821687f 	strb	wzr, [x3, x1]
    74bc:	f94017e2 	ldr	x2, [sp, #40]
    74c0:	f9400001 	ldr	x1, [x0]
    74c4:	eb010042 	subs	x2, x2, x1
    74c8:	d2800001 	mov	x1, #0x0                   	// #0
    74cc:	540000a1 	b.ne	74e0 <_ZNK11vector_tile12Tile_Feature11GetTypeNameB5cxx11Ev+0xb0>  // b.any
    74d0:	aa1303e0 	mov	x0, x19
    74d4:	f9400bf3 	ldr	x19, [sp, #16]
    74d8:	a8c37bfd 	ldp	x29, x30, [sp], #48
    74dc:	d65f03c0 	ret
    74e0:	97fff504 	bl	48f0 <__stack_chk_fail@plt>

00000000000074e4 <_ZNK11vector_tile10Tile_Value11GetTypeNameB5cxx11Ev>:
    74e4:	a9bd7bfd 	stp	x29, x30, [sp, #-48]!
    74e8:	910003fd 	mov	x29, sp
    74ec:	f9000bf3 	str	x19, [sp, #16]
    74f0:	d50320ff 	xpaclri
    74f4:	aa0803f3 	mov	x19, x8
    74f8:	aa1e03e0 	mov	x0, x30
    74fc:	97fff501 	bl	4900 <_mcount@plt>
    7500:	f0000203 	adrp	x3, 4a000 <_ZTVN11vector_tile10Tile_ValueE+0x10>
    7504:	91004265 	add	x5, x19, #0x10
    7508:	d28002c4 	mov	x4, #0x16                  	// #22
    750c:	910083e1 	add	x1, sp, #0x20
    7510:	f946b863 	ldr	x3, [x3, #3440]
    7514:	d2800002 	mov	x2, #0x0                   	// #0
    7518:	aa1303e0 	mov	x0, x19
    751c:	f9400066 	ldr	x6, [x3]
    7520:	f90017e6 	str	x6, [sp, #40]
    7524:	d2800006 	mov	x6, #0x0                   	// #0
    7528:	f9000265 	str	x5, [x19]
    752c:	f90013e4 	str	x4, [sp, #32]
    7530:	97fff5f8 	bl	4d10 <_ZNSt7__cxx1112basic_stringIcSt11char_traitsIcESaIcEE9_M_createERmm@plt>
    7534:	f9000260 	str	x0, [x19]
    7538:	d0000121 	adrp	x1, 2d000 <_ZN6google8protobuf13SStringPrintfEPNSt7__cxx1112basic_stringIcSt11char_traitsIcESaIcEEEPKcz+0x90>
    753c:	91376021 	add	x1, x1, #0xdd8
    7540:	f94013e2 	ldr	x2, [sp, #32]
    7544:	f9000a62 	str	x2, [x19, #16]
    7548:	a9400c22 	ldp	x2, x3, [x1]
    754c:	a9000c02 	stp	x2, x3, [x0]
    7550:	f840e021 	ldur	x1, [x1, #14]
    7554:	f800e001 	stur	x1, [x0, #14]
    7558:	f94013e1 	ldr	x1, [sp, #32]
    755c:	f0000202 	adrp	x2, 4a000 <_ZTVN11vector_tile10Tile_ValueE+0x10>
    7560:	f9400263 	ldr	x3, [x19]
    7564:	f9000661 	str	x1, [x19, #8]
    7568:	f946b840 	ldr	x0, [x2, #3440]
    756c:	3821687f 	strb	wzr, [x3, x1]
    7570:	f94017e2 	ldr	x2, [sp, #40]
    7574:	f9400001 	ldr	x1, [x0]
    7578:	eb010042 	subs	x2, x2, x1
    757c:	d2800001 	mov	x1, #0x0                   	// #0
    7580:	540000a1 	b.ne	7594 <_ZNK11vector_tile10Tile_Value11GetTypeNameB5cxx11Ev+0xb0>  // b.any
    7584:	aa1303e0 	mov	x0, x19
    7588:	f9400bf3 	ldr	x19, [sp, #16]
    758c:	a8c37bfd 	ldp	x29, x30, [sp], #48
    7590:	d65f03c0 	ret
    7594:	97fff4d7 	bl	48f0 <__stack_chk_fail@plt>
    7598:	d503201f 	nop
    759c:	d503201f 	nop

00000000000075a0 <_ZNK11vector_tile10Tile_Layer11GetTypeNameB5cxx11Ev>:
    75a0:	a9bd7bfd 	stp	x29, x30, [sp, #-48]!
    75a4:	910003fd 	mov	x29, sp
    75a8:	f9000bf3 	str	x19, [sp, #16]
    75ac:	d50320ff 	xpaclri
    75b0:	aa0803f3 	mov	x19, x8
    75b4:	aa1e03e0 	mov	x0, x30
    75b8:	97fff4d2 	bl	4900 <_mcount@plt>
    75bc:	f0000203 	adrp	x3, 4a000 <_ZTVN11vector_tile10Tile_ValueE+0x10>
    75c0:	91004265 	add	x5, x19, #0x10
    75c4:	d28002c4 	mov	x4, #0x16                  	// #22
    75c8:	910083e1 	add	x1, sp, #0x20
    75cc:	f946b863 	ldr	x3, [x3, #3440]
    75d0:	d2800002 	mov	x2, #0x0                   	// #0
    75d4:	aa1303e0 	mov	x0, x19
    75d8:	f9400066 	ldr	x6, [x3]
    75dc:	f90017e6 	str	x6, [sp, #40]
    75e0:	d2800006 	mov	x6, #0x0                   	// #0
    75e4:	f9000265 	str	x5, [x19]
    75e8:	f90013e4 	str	x4, [sp, #32]
    75ec:	97fff5c9 	bl	4d10 <_ZNSt7__cxx1112basic_stringIcSt11char_traitsIcESaIcEE9_M_createERmm@plt>
    75f0:	f9000260 	str	x0, [x19]
    75f4:	d0000121 	adrp	x1, 2d000 <_ZN6google8protobuf13SStringPrintfEPNSt7__cxx1112basic_stringIcSt11char_traitsIcESaIcEEEPKcz+0x90>
    75f8:	9137c021 	add	x1, x1, #0xdf0
    75fc:	f94013e2 	ldr	x2, [sp, #32]
    7600:	f9000a62 	str	x2, [x19, #16]
    7604:	a9400c22 	ldp	x2, x3, [x1]
    7608:	a9000c02 	stp	x2, x3, [x0]
    760c:	f840e021 	ldur	x1, [x1, #14]
    7610:	f800e001 	stur	x1, [x0, #14]
    7614:	f94013e1 	ldr	x1, [sp, #32]
    7618:	f0000202 	adrp	x2, 4a000 <_ZTVN11vector_tile10Tile_ValueE+0x10>
    761c:	f9400263 	ldr	x3, [x19]
    7620:	f9000661 	str	x1, [x19, #8]
    7624:	f946b840 	ldr	x0, [x2, #3440]
    7628:	3821687f 	strb	wzr, [x3, x1]
    762c:	f94017e2 	ldr	x2, [sp, #40]
    7630:	f9400001 	ldr	x1, [x0]
    7634:	eb010042 	subs	x2, x2, x1
    7638:	d2800001 	mov	x1, #0x0                   	// #0
    763c:	540000a1 	b.ne	7650 <_ZNK11vector_tile10Tile_Layer11GetTypeNameB5cxx11Ev+0xb0>  // b.any
    7640:	aa1303e0 	mov	x0, x19
    7644:	f9400bf3 	ldr	x19, [sp, #16]
    7648:	a8c37bfd 	ldp	x29, x30, [sp], #48
    764c:	d65f03c0 	ret
    7650:	97fff4a8 	bl	48f0 <__stack_chk_fail@plt>

0000000000007654 <_ZNK11vector_tile4Tile11GetTypeNameB5cxx11Ev>:
    7654:	a9bd7bfd 	stp	x29, x30, [sp, #-48]!
    7658:	910003fd 	mov	x29, sp
    765c:	f9000bf3 	str	x19, [sp, #16]
    7660:	d50320ff 	xpaclri
    7664:	aa0803f3 	mov	x19, x8
    7668:	aa1e03e0 	mov	x0, x30
    766c:	97fff4a5 	bl	4900 <_mcount@plt>
    7670:	f0000203 	adrp	x3, 4a000 <_ZTVN11vector_tile10Tile_ValueE+0x10>
    7674:	91004265 	add	x5, x19, #0x10
    7678:	d2800204 	mov	x4, #0x10                  	// #16
    767c:	910083e1 	add	x1, sp, #0x20
    7680:	f946b863 	ldr	x3, [x3, #3440]
    7684:	d2800002 	mov	x2, #0x0                   	// #0
    7688:	aa1303e0 	mov	x0, x19
    768c:	f9400066 	ldr	x6, [x3]
    7690:	f90017e6 	str	x6, [sp, #40]
    7694:	d2800006 	mov	x6, #0x0                   	// #0
    7698:	f9000265 	str	x5, [x19]
    769c:	f90013e4 	str	x4, [sp, #32]
    76a0:	97fff59c 	bl	4d10 <_ZNSt7__cxx1112basic_stringIcSt11char_traitsIcESaIcEE9_M_createERmm@plt>
    76a4:	f9000260 	str	x0, [x19]
    76a8:	d0000121 	adrp	x1, 2d000 <_ZN6google8protobuf13SStringPrintfEPNSt7__cxx1112basic_stringIcSt11char_traitsIcESaIcEEEPKcz+0x90>
    76ac:	91382021 	add	x1, x1, #0xe08
    76b0:	f94013e2 	ldr	x2, [sp, #32]
    76b4:	f9000a62 	str	x2, [x19, #16]
    76b8:	a9400c22 	ldp	x2, x3, [x1]
    76bc:	a9000c02 	stp	x2, x3, [x0]
    76c0:	f0000200 	adrp	x0, 4a000 <_ZTVN11vector_tile10Tile_ValueE+0x10>
    76c4:	f9400262 	ldr	x2, [x19]
    76c8:	f94013e1 	ldr	x1, [sp, #32]
    76cc:	f9000661 	str	x1, [x19, #8]
    76d0:	f946b800 	ldr	x0, [x0, #3440]
    76d4:	3821685f 	strb	wzr, [x2, x1]
    76d8:	f94017e2 	ldr	x2, [sp, #40]
    76dc:	f9400001 	ldr	x1, [x0]
    76e0:	eb010042 	subs	x2, x2, x1
    76e4:	d2800001 	mov	x1, #0x0                   	// #0
    76e8:	540000a1 	b.ne	76fc <_ZNK11vector_tile4Tile11GetTypeNameB5cxx11Ev+0xa8>  // b.any
    76ec:	aa1303e0 	mov	x0, x19
    76f0:	f9400bf3 	ldr	x19, [sp, #16]
    76f4:	a8c37bfd 	ldp	x29, x30, [sp], #48
    76f8:	d65f03c0 	ret
    76fc:	97fff47d 	bl	48f0 <__stack_chk_fail@plt>

0000000000007700 <_ZNK11vector_tile4Tile13IsInitializedEv>:
    7700:	a9bc7bfd 	stp	x29, x30, [sp, #-64]!
    7704:	910003fd 	mov	x29, sp
    7708:	a9025bf5 	stp	x21, x22, [sp, #32]
    770c:	d50320ff 	xpaclri
    7710:	aa0003f5 	mov	x21, x0
    7714:	aa1e03e0 	mov	x0, x30
    7718:	97fff47a 	bl	4900 <_mcount@plt>
    771c:	910022a0 	add	x0, x21, #0x8
    7720:	94003dfc 	bl	16f10 <_ZNK6google8protobuf8internal12ExtensionSet13IsInitializedEv>
    7724:	72001c16 	ands	w22, w0, #0xff
    7728:	540000c1 	b.ne	7740 <_ZNK11vector_tile4Tile13IsInitializedEv+0x40>  // b.any
    772c:	52800016 	mov	w22, #0x0                   	// #0
    7730:	2a1603e0 	mov	w0, w22
    7734:	a9425bf5 	ldp	x21, x22, [sp, #32]
    7738:	a8c47bfd 	ldp	x29, x30, [sp], #64
    773c:	d65f03c0 	ret
    7740:	910142b5 	add	x21, x21, #0x50
    7744:	a90153f3 	stp	x19, x20, [sp, #16]
    7748:	a90363f7 	stp	x23, x24, [sp, #48]
    774c:	528000b7 	mov	w23, #0x5                   	// #5
    7750:	b9400ab3 	ldr	w19, [x21, #8]
    7754:	71000673 	subs	w19, w19, #0x1
    7758:	54000404 	b.mi	77d8 <_ZNK11vector_tile4Tile13IsInitializedEv+0xd8>  // b.first
    775c:	d503201f 	nop
    7760:	f9400aa1 	ldr	x1, [x21, #16]
    7764:	8b33cc21 	add	x1, x1, w19, sxtw #3
    7768:	f9400434 	ldr	x20, [x1, #8]
    776c:	91002280 	add	x0, x20, #0x8
    7770:	94003de8 	bl	16f10 <_ZNK6google8protobuf8internal12ExtensionSet13IsInitializedEv>
    7774:	72001c1f 	tst	w0, #0xff
    7778:	540000a0 	b.eq	778c <_ZNK11vector_tile4Tile13IsInitializedEv+0x8c>  // b.none
    777c:	b9404a81 	ldr	w1, [x20, #72]
    7780:	0a170021 	and	w1, w1, w23
    7784:	7100143f 	cmp	w1, #0x5
    7788:	54000080 	b.eq	7798 <_ZNK11vector_tile4Tile13IsInitializedEv+0x98>  // b.none
    778c:	a94153f3 	ldp	x19, x20, [sp, #16]
    7790:	a94363f7 	ldp	x23, x24, [sp, #48]
    7794:	17ffffe6 	b	772c <_ZNK11vector_tile4Tile13IsInitializedEv+0x2c>
    7798:	b9408a98 	ldr	w24, [x20, #136]
    779c:	91020294 	add	x20, x20, #0x80
    77a0:	71000718 	subs	w24, w24, #0x1
    77a4:	54000144 	b.mi	77cc <_ZNK11vector_tile4Tile13IsInitializedEv+0xcc>  // b.first
    77a8:	f9400a80 	ldr	x0, [x20, #16]
    77ac:	8b38cc00 	add	x0, x0, w24, sxtw #3
    77b0:	f9400400 	ldr	x0, [x0, #8]
    77b4:	91002000 	add	x0, x0, #0x8
    77b8:	94003dd6 	bl	16f10 <_ZNK6google8protobuf8internal12ExtensionSet13IsInitializedEv>
    77bc:	72001c1f 	tst	w0, #0xff
    77c0:	54fffe60 	b.eq	778c <_ZNK11vector_tile4Tile13IsInitializedEv+0x8c>  // b.none
    77c4:	71000718 	subs	w24, w24, #0x1
    77c8:	54ffff05 	b.pl	77a8 <_ZNK11vector_tile4Tile13IsInitializedEv+0xa8>  // b.nfrst
    77cc:	51000673 	sub	w19, w19, #0x1
    77d0:	3100067f 	cmn	w19, #0x1
    77d4:	54fffc61 	b.ne	7760 <_ZNK11vector_tile4Tile13IsInitializedEv+0x60>  // b.any
    77d8:	2a1603e0 	mov	w0, w22
    77dc:	a94153f3 	ldp	x19, x20, [sp, #16]
    77e0:	a9425bf5 	ldp	x21, x22, [sp, #32]
    77e4:	a94363f7 	ldp	x23, x24, [sp, #48]
    77e8:	a8c47bfd 	ldp	x29, x30, [sp], #64
    77ec:	d65f03c0 	ret

00000000000077f0 <_ZNK11vector_tile12Tile_Feature24SerializeWithCachedSizesEPN6google8protobuf2io17CodedOutputStreamE>:
    77f0:	a9bc7bfd 	stp	x29, x30, [sp, #-64]!
    77f4:	910003fd 	mov	x29, sp
    77f8:	a90153f3 	stp	x19, x20, [sp, #16]
    77fc:	a9025bf5 	stp	x21, x22, [sp, #32]
    7800:	aa0003f3 	mov	x19, x0
    7804:	d50320ff 	xpaclri
    7808:	aa0103f5 	mov	x21, x1
    780c:	aa1e03e0 	mov	x0, x30
    7810:	97fff43c 	bl	4900 <_mcount@plt>
    7814:	b9401274 	ldr	w20, [x19, #16]
    7818:	37081574 	tbnz	w20, #1, 7ac4 <_ZNK11vector_tile12Tile_Feature24SerializeWithCachedSizesEPN6google8protobuf2io17CodedOutputStreamE+0x2d4>
    781c:	b9401a60 	ldr	w0, [x19, #24]
    7820:	7100001f 	cmp	w0, #0x0
    7824:	54000b4c 	b.gt	798c <_ZNK11vector_tile12Tile_Feature24SerializeWithCachedSizesEPN6google8protobuf2io17CodedOutputStreamE+0x19c>
    7828:	37101394 	tbnz	w20, #2, 7a98 <_ZNK11vector_tile12Tile_Feature24SerializeWithCachedSizesEPN6google8protobuf2io17CodedOutputStreamE+0x2a8>
    782c:	b9403260 	ldr	w0, [x19, #48]
    7830:	7100001f 	cmp	w0, #0x0
    7834:	540001ec 	b.gt	7870 <_ZNK11vector_tile12Tile_Feature24SerializeWithCachedSizesEPN6google8protobuf2io17CodedOutputStreamE+0x80>
    7838:	37000a14 	tbnz	w20, #0, 7978 <_ZNK11vector_tile12Tile_Feature24SerializeWithCachedSizesEPN6google8protobuf2io17CodedOutputStreamE+0x188>
    783c:	f0000201 	adrp	x1, 4a000 <_ZTVN11vector_tile10Tile_ValueE+0x10>
    7840:	aa1503e0 	mov	x0, x21
    7844:	f9400662 	ldr	x2, [x19, #8]
    7848:	f946a421 	ldr	x1, [x1, #3400]
    784c:	927ff843 	and	x3, x2, #0xfffffffffffffffe
    7850:	f240005f 	tst	x2, #0x1
    7854:	9a830022 	csel	x2, x1, x3, eq  // eq = none
    7858:	a94153f3 	ldp	x19, x20, [sp, #16]
    785c:	a9425bf5 	ldp	x21, x22, [sp, #32]
    7860:	a8c47bfd 	ldp	x29, x30, [sp], #64
    7864:	f9400041 	ldr	x1, [x2]
    7868:	b9400842 	ldr	w2, [x2, #8]
    786c:	14008f4d 	b	2b5a0 <_ZN6google8protobuf2io17CodedOutputStream8WriteRawEPKvi>
    7870:	b94012a0 	ldr	w0, [x21, #16]
    7874:	a90363f7 	stp	x23, x24, [sp, #48]
    7878:	7100101f 	cmp	w0, #0x4
    787c:	540012ed 	b.le	7ad8 <_ZNK11vector_tile12Tile_Feature24SerializeWithCachedSizesEPN6google8protobuf2io17CodedOutputStreamE+0x2e8>
    7880:	f94006a0 	ldr	x0, [x21, #8]
    7884:	52800441 	mov	w1, #0x22                  	// #34
    7888:	39000001 	strb	w1, [x0]
    788c:	f94006a1 	ldr	x1, [x21, #8]
    7890:	b94012a0 	ldr	w0, [x21, #16]
    7894:	91000421 	add	x1, x1, #0x1
    7898:	f90006a1 	str	x1, [x21, #8]
    789c:	51000400 	sub	w0, w0, #0x1
    78a0:	b90012a0 	str	w0, [x21, #16]
    78a4:	b9404261 	ldr	w1, [x19, #64]
    78a8:	7100101f 	cmp	w0, #0x4
    78ac:	5400124d 	b.le	7af4 <_ZNK11vector_tile12Tile_Feature24SerializeWithCachedSizesEPN6google8protobuf2io17CodedOutputStreamE+0x304>
    78b0:	f94006a3 	ldr	x3, [x21, #8]
    78b4:	aa0303e0 	mov	x0, x3
    78b8:	7101fc3f 	cmp	w1, #0x7f
    78bc:	540000c9 	b.ls	78d4 <_ZNK11vector_tile12Tile_Feature24SerializeWithCachedSizesEPN6google8protobuf2io17CodedOutputStreamE+0xe4>  // b.plast
    78c0:	32196022 	orr	w2, w1, #0xffffff80
    78c4:	53077c21 	lsr	w1, w1, #7
    78c8:	38001402 	strb	w2, [x0], #1
    78cc:	7101fc3f 	cmp	w1, #0x7f
    78d0:	54ffff88 	b.hi	78c0 <_ZNK11vector_tile12Tile_Feature24SerializeWithCachedSizesEPN6google8protobuf2io17CodedOutputStreamE+0xd0>  // b.pmore
    78d4:	38001401 	strb	w1, [x0], #1
    78d8:	f94006a2 	ldr	x2, [x21, #8]
    78dc:	cb030000 	sub	x0, x0, x3
    78e0:	b94012a1 	ldr	w1, [x21, #16]
    78e4:	8b20c042 	add	x2, x2, w0, sxtw
    78e8:	4b000020 	sub	w0, w1, w0
    78ec:	f90006a2 	str	x2, [x21, #8]
    78f0:	b90012a0 	str	w0, [x21, #16]
    78f4:	b9403277 	ldr	w23, [x19, #48]
    78f8:	710002ff 	cmp	w23, #0x0
    78fc:	540003ad 	b.le	7970 <_ZNK11vector_tile12Tile_Feature24SerializeWithCachedSizesEPN6google8protobuf2io17CodedOutputStreamE+0x180>
    7900:	9100c278 	add	x24, x19, #0x30
    7904:	52800016 	mov	w22, #0x0                   	// #0
    7908:	f9400700 	ldr	x0, [x24, #8]
    790c:	b94012a2 	ldr	w2, [x21, #16]
    7910:	8b36c800 	add	x0, x0, w22, sxtw #2
    7914:	b9400801 	ldr	w1, [x0, #8]
    7918:	7100105f 	cmp	w2, #0x4
    791c:	54000c8d 	b.le	7aac <_ZNK11vector_tile12Tile_Feature24SerializeWithCachedSizesEPN6google8protobuf2io17CodedOutputStreamE+0x2bc>
    7920:	f94006a2 	ldr	x2, [x21, #8]
    7924:	aa0203e3 	mov	x3, x2
    7928:	7101fc3f 	cmp	w1, #0x7f
    792c:	540000c9 	b.ls	7944 <_ZNK11vector_tile12Tile_Feature24SerializeWithCachedSizesEPN6google8protobuf2io17CodedOutputStreamE+0x154>  // b.plast
    7930:	32196020 	orr	w0, w1, #0xffffff80
    7934:	53077c21 	lsr	w1, w1, #7
    7938:	38001460 	strb	w0, [x3], #1
    793c:	7101fc3f 	cmp	w1, #0x7f
    7940:	54ffff88 	b.hi	7930 <_ZNK11vector_tile12Tile_Feature24SerializeWithCachedSizesEPN6google8protobuf2io17CodedOutputStreamE+0x140>  // b.pmore
    7944:	38001461 	strb	w1, [x3], #1
    7948:	f94006a1 	ldr	x1, [x21, #8]
    794c:	cb020063 	sub	x3, x3, x2
    7950:	b94012a0 	ldr	w0, [x21, #16]
    7954:	8b23c021 	add	x1, x1, w3, sxtw
    7958:	4b030000 	sub	w0, w0, w3
    795c:	f90006a1 	str	x1, [x21, #8]
    7960:	b90012a0 	str	w0, [x21, #16]
    7964:	110006d6 	add	w22, w22, #0x1
    7968:	6b1702df 	cmp	w22, w23
    796c:	54fffce1 	b.ne	7908 <_ZNK11vector_tile12Tile_Feature24SerializeWithCachedSizesEPN6google8protobuf2io17CodedOutputStreamE+0x118>  // b.any
    7970:	a94363f7 	ldp	x23, x24, [sp, #48]
    7974:	3607f654 	tbz	w20, #0, 783c <_ZNK11vector_tile12Tile_Feature24SerializeWithCachedSizesEPN6google8protobuf2io17CodedOutputStreamE+0x4c>
    7978:	f9402661 	ldr	x1, [x19, #72]
    797c:	aa1503e2 	mov	x2, x21
    7980:	528000a0 	mov	w0, #0x5                   	// #5
    7984:	940084a7 	bl	28c20 <_ZN6google8protobuf8internal14WireFormatLite22WriteBytesMaybeAliasedEiRKNSt7__cxx1112basic_stringIcSt11char_traitsIcESaIcEEEPNS0_2io17CodedOutputStreamE>
    7988:	17ffffad 	b	783c <_ZNK11vector_tile12Tile_Feature24SerializeWithCachedSizesEPN6google8protobuf2io17CodedOutputStreamE+0x4c>
    798c:	b94012a0 	ldr	w0, [x21, #16]
    7990:	a90363f7 	stp	x23, x24, [sp, #48]
    7994:	7100101f 	cmp	w0, #0x4
    7998:	54000bad 	b.le	7b0c <_ZNK11vector_tile12Tile_Feature24SerializeWithCachedSizesEPN6google8protobuf2io17CodedOutputStreamE+0x31c>
    799c:	f94006a0 	ldr	x0, [x21, #8]
    79a0:	52800241 	mov	w1, #0x12                  	// #18
    79a4:	39000001 	strb	w1, [x0]
    79a8:	f94006a1 	ldr	x1, [x21, #8]
    79ac:	b94012a0 	ldr	w0, [x21, #16]
    79b0:	91000421 	add	x1, x1, #0x1
    79b4:	f90006a1 	str	x1, [x21, #8]
    79b8:	51000400 	sub	w0, w0, #0x1
    79bc:	b90012a0 	str	w0, [x21, #16]
    79c0:	b9402a61 	ldr	w1, [x19, #40]
    79c4:	7100101f 	cmp	w0, #0x4
    79c8:	540009cd 	b.le	7b00 <_ZNK11vector_tile12Tile_Feature24SerializeWithCachedSizesEPN6google8protobuf2io17CodedOutputStreamE+0x310>
    79cc:	f94006a3 	ldr	x3, [x21, #8]
    79d0:	aa0303e0 	mov	x0, x3
    79d4:	7101fc3f 	cmp	w1, #0x7f
    79d8:	540000e9 	b.ls	79f4 <_ZNK11vector_tile12Tile_Feature24SerializeWithCachedSizesEPN6google8protobuf2io17CodedOutputStreamE+0x204>  // b.plast
    79dc:	d503201f 	nop
    79e0:	32196022 	orr	w2, w1, #0xffffff80
    79e4:	53077c21 	lsr	w1, w1, #7
    79e8:	38001402 	strb	w2, [x0], #1
    79ec:	7101fc3f 	cmp	w1, #0x7f
    79f0:	54ffff88 	b.hi	79e0 <_ZNK11vector_tile12Tile_Feature24SerializeWithCachedSizesEPN6google8protobuf2io17CodedOutputStreamE+0x1f0>  // b.pmore
    79f4:	38001401 	strb	w1, [x0], #1
    79f8:	f94006a2 	ldr	x2, [x21, #8]
    79fc:	cb030000 	sub	x0, x0, x3
    7a00:	b94012a1 	ldr	w1, [x21, #16]
    7a04:	8b20c042 	add	x2, x2, w0, sxtw
    7a08:	4b000020 	sub	w0, w1, w0
    7a0c:	f90006a2 	str	x2, [x21, #8]
    7a10:	b90012a0 	str	w0, [x21, #16]
    7a14:	b9401a77 	ldr	w23, [x19, #24]
    7a18:	710002ff 	cmp	w23, #0x0
    7a1c:	540003ad 	b.le	7a90 <_ZNK11vector_tile12Tile_Feature24SerializeWithCachedSizesEPN6google8protobuf2io17CodedOutputStreamE+0x2a0>
    7a20:	91006278 	add	x24, x19, #0x18
    7a24:	52800016 	mov	w22, #0x0                   	// #0
    7a28:	f9400700 	ldr	x0, [x24, #8]
    7a2c:	b94012a2 	ldr	w2, [x21, #16]
    7a30:	8b36c800 	add	x0, x0, w22, sxtw #2
    7a34:	b9400801 	ldr	w1, [x0, #8]
    7a38:	7100105f 	cmp	w2, #0x4
    7a3c:	540003ed 	b.le	7ab8 <_ZNK11vector_tile12Tile_Feature24SerializeWithCachedSizesEPN6google8protobuf2io17CodedOutputStreamE+0x2c8>
    7a40:	f94006a2 	ldr	x2, [x21, #8]
    7a44:	aa0203e3 	mov	x3, x2
    7a48:	7101fc3f 	cmp	w1, #0x7f
    7a4c:	540000c9 	b.ls	7a64 <_ZNK11vector_tile12Tile_Feature24SerializeWithCachedSizesEPN6google8protobuf2io17CodedOutputStreamE+0x274>  // b.plast
    7a50:	32196020 	orr	w0, w1, #0xffffff80
    7a54:	53077c21 	lsr	w1, w1, #7
    7a58:	38001460 	strb	w0, [x3], #1
    7a5c:	7101fc3f 	cmp	w1, #0x7f
    7a60:	54ffff88 	b.hi	7a50 <_ZNK11vector_tile12Tile_Feature24SerializeWithCachedSizesEPN6google8protobuf2io17CodedOutputStreamE+0x260>  // b.pmore
    7a64:	38001461 	strb	w1, [x3], #1
    7a68:	f94006a1 	ldr	x1, [x21, #8]
    7a6c:	cb020063 	sub	x3, x3, x2
    7a70:	b94012a0 	ldr	w0, [x21, #16]
    7a74:	8b23c021 	add	x1, x1, w3, sxtw
    7a78:	4b030000 	sub	w0, w0, w3
    7a7c:	f90006a1 	str	x1, [x21, #8]
    7a80:	b90012a0 	str	w0, [x21, #16]
    7a84:	110006d6 	add	w22, w22, #0x1
    7a88:	6b1702df 	cmp	w22, w23
    7a8c:	54fffce1 	b.ne	7a28 <_ZNK11vector_tile12Tile_Feature24SerializeWithCachedSizesEPN6google8protobuf2io17CodedOutputStreamE+0x238>  // b.any
    7a90:	a94363f7 	ldp	x23, x24, [sp, #48]
    7a94:	3617ecd4 	tbz	w20, #2, 782c <_ZNK11vector_tile12Tile_Feature24SerializeWithCachedSizesEPN6google8protobuf2io17CodedOutputStreamE+0x3c>
    7a98:	b9405a61 	ldr	w1, [x19, #88]
    7a9c:	aa1503e2 	mov	x2, x21
    7aa0:	52800060 	mov	w0, #0x3                   	// #3
    7aa4:	940082df 	bl	28620 <_ZN6google8protobuf8internal14WireFormatLite9WriteEnumEiiPNS0_2io17CodedOutputStreamE>
    7aa8:	17ffff61 	b	782c <_ZNK11vector_tile12Tile_Feature24SerializeWithCachedSizesEPN6google8protobuf2io17CodedOutputStreamE+0x3c>
    7aac:	aa1503e0 	mov	x0, x21
    7ab0:	94008f48 	bl	2b7d0 <_ZN6google8protobuf2io17CodedOutputStream21WriteVarint32SlowPathEj>
    7ab4:	17ffffac 	b	7964 <_ZNK11vector_tile12Tile_Feature24SerializeWithCachedSizesEPN6google8protobuf2io17CodedOutputStreamE+0x174>
    7ab8:	aa1503e0 	mov	x0, x21
    7abc:	94008f45 	bl	2b7d0 <_ZN6google8protobuf2io17CodedOutputStream21WriteVarint32SlowPathEj>
    7ac0:	17fffff1 	b	7a84 <_ZNK11vector_tile12Tile_Feature24SerializeWithCachedSizesEPN6google8protobuf2io17CodedOutputStreamE+0x294>
    7ac4:	f9402a61 	ldr	x1, [x19, #80]
    7ac8:	aa1503e2 	mov	x2, x21
    7acc:	52800020 	mov	w0, #0x1                   	// #1
    7ad0:	940080f5 	bl	27ea4 <_ZN6google8protobuf8internal14WireFormatLite11WriteUInt64EimPNS0_2io17CodedOutputStreamE>
    7ad4:	17ffff52 	b	781c <_ZNK11vector_tile12Tile_Feature24SerializeWithCachedSizesEPN6google8protobuf2io17CodedOutputStreamE+0x2c>
    7ad8:	aa1503e0 	mov	x0, x21
    7adc:	52800441 	mov	w1, #0x22                  	// #34
    7ae0:	94008f3c 	bl	2b7d0 <_ZN6google8protobuf2io17CodedOutputStream21WriteVarint32SlowPathEj>
    7ae4:	b94012a0 	ldr	w0, [x21, #16]
    7ae8:	b9404261 	ldr	w1, [x19, #64]
    7aec:	7100101f 	cmp	w0, #0x4
    7af0:	54ffee0c 	b.gt	78b0 <_ZNK11vector_tile12Tile_Feature24SerializeWithCachedSizesEPN6google8protobuf2io17CodedOutputStreamE+0xc0>
    7af4:	aa1503e0 	mov	x0, x21
    7af8:	94008f36 	bl	2b7d0 <_ZN6google8protobuf2io17CodedOutputStream21WriteVarint32SlowPathEj>
    7afc:	17ffff7e 	b	78f4 <_ZNK11vector_tile12Tile_Feature24SerializeWithCachedSizesEPN6google8protobuf2io17CodedOutputStreamE+0x104>
    7b00:	aa1503e0 	mov	x0, x21
    7b04:	94008f33 	bl	2b7d0 <_ZN6google8protobuf2io17CodedOutputStream21WriteVarint32SlowPathEj>
    7b08:	17ffffc3 	b	7a14 <_ZNK11vector_tile12Tile_Feature24SerializeWithCachedSizesEPN6google8protobuf2io17CodedOutputStreamE+0x224>
    7b0c:	aa1503e0 	mov	x0, x21
    7b10:	52800241 	mov	w1, #0x12                  	// #18
    7b14:	94008f2f 	bl	2b7d0 <_ZN6google8protobuf2io17CodedOutputStream21WriteVarint32SlowPathEj>
    7b18:	b94012a0 	ldr	w0, [x21, #16]
    7b1c:	17ffffa9 	b	79c0 <_ZNK11vector_tile12Tile_Feature24SerializeWithCachedSizesEPN6google8protobuf2io17CodedOutputStreamE+0x1d0>

0000000000007b20 <_ZNK11vector_tile10Tile_Layer12ByteSizeLongEv>:
    7b20:	a9bc7bfd 	stp	x29, x30, [sp, #-64]!
    7b24:	910003fd 	mov	x29, sp
    7b28:	a90153f3 	stp	x19, x20, [sp, #16]
    7b2c:	a9025bf5 	stp	x21, x22, [sp, #32]
    7b30:	f9001bf7 	str	x23, [sp, #48]
    7b34:	aa0003f3 	mov	x19, x0
    7b38:	d50320ff 	xpaclri
    7b3c:	aa1e03e0 	mov	x0, x30
    7b40:	97fff370 	bl	4900 <_mcount@plt>
    7b44:	91002260 	add	x0, x19, #0x8
    7b48:	940046da 	bl	196b0 <_ZNK6google8protobuf8internal12ExtensionSet8ByteSizeEv>
    7b4c:	f0000201 	adrp	x1, 4a000 <_ZTVN11vector_tile10Tile_ValueE+0x10>
    7b50:	528000a3 	mov	w3, #0x5                   	// #5
    7b54:	f9402262 	ldr	x2, [x19, #64]
    7b58:	f946a421 	ldr	x1, [x1, #3400]
    7b5c:	927ff844 	and	x4, x2, #0xfffffffffffffffe
    7b60:	f240005f 	tst	x2, #0x1
    7b64:	b9404a62 	ldr	w2, [x19, #72]
    7b68:	9a840021 	csel	x1, x1, x4, eq  // eq = none
    7b6c:	f9400421 	ldr	x1, [x1, #8]
    7b70:	8b010014 	add	x20, x0, x1
    7b74:	6a22007f 	bics	wzr, w3, w2
    7b78:	54000d21 	b.ne	7d1c <_ZNK11vector_tile10Tile_Layer12ByteSizeLongEv+0x1fc>  // b.any
    7b7c:	f9404e61 	ldr	x1, [x19, #152]
    7b80:	b940a660 	ldr	w0, [x19, #164]
    7b84:	f9400422 	ldr	x2, [x1, #8]
    7b88:	32000000 	orr	w0, w0, #0x1
    7b8c:	5ac01000 	clz	w0, w0
    7b90:	32000041 	orr	w1, w2, #0x1
    7b94:	52001000 	eor	w0, w0, #0x1f
    7b98:	5ac01021 	clz	w1, w1
    7b9c:	91000442 	add	x2, x2, #0x1
    7ba0:	52001021 	eor	w1, w1, #0x1f
    7ba4:	0b000c00 	add	w0, w0, w0, lsl #3
    7ba8:	11012400 	add	w0, w0, #0x49
    7bac:	0b010c21 	add	w1, w1, w1, lsl #3
    7bb0:	11012421 	add	w1, w1, #0x49
    7bb4:	53067c00 	lsr	w0, w0, #6
    7bb8:	11000400 	add	w0, w0, #0x1
    7bbc:	d3462821 	ubfx	x1, x1, #6, #5
    7bc0:	8b140021 	add	x1, x1, x20
    7bc4:	8b020021 	add	x1, x1, x2
    7bc8:	8b010014 	add	x20, x0, x1
    7bcc:	b9405a75 	ldr	w21, [x19, #88]
    7bd0:	91014277 	add	x23, x19, #0x50
    7bd4:	8b354294 	add	x20, x20, w21, uxtw
    7bd8:	34000275 	cbz	w21, 7c24 <_ZNK11vector_tile10Tile_Layer12ByteSizeLongEv+0x104>
    7bdc:	52800016 	mov	w22, #0x0                   	// #0
    7be0:	f9400ae0 	ldr	x0, [x23, #16]
    7be4:	8b36cc00 	add	x0, x0, w22, sxtw #3
    7be8:	110006d6 	add	w22, w22, #0x1
    7bec:	f9400400 	ldr	x0, [x0, #8]
    7bf0:	f9400001 	ldr	x1, [x0]
    7bf4:	f9403021 	ldr	x1, [x1, #96]
    7bf8:	d63f0020 	blr	x1
    7bfc:	32000001 	orr	w1, w0, #0x1
    7c00:	5ac01021 	clz	w1, w1
    7c04:	52001021 	eor	w1, w1, #0x1f
    7c08:	0b010c21 	add	w1, w1, w1, lsl #3
    7c0c:	11012421 	add	w1, w1, #0x49
    7c10:	d3462821 	ubfx	x1, x1, #6, #5
    7c14:	8b000020 	add	x0, x1, x0
    7c18:	8b000294 	add	x20, x20, x0
    7c1c:	6b1602bf 	cmp	w21, w22
    7c20:	54fffe01 	b.ne	7be0 <_ZNK11vector_tile10Tile_Layer12ByteSizeLongEv+0xc0>  // b.any
    7c24:	b9407263 	ldr	w3, [x19, #112]
    7c28:	8b234294 	add	x20, x20, w3, uxtw
    7c2c:	7100007f 	cmp	w3, #0x0
    7c30:	5400024d 	b.le	7c78 <_ZNK11vector_tile10Tile_Layer12ByteSizeLongEv+0x158>
    7c34:	f9403e60 	ldr	x0, [x19, #120]
    7c38:	51000463 	sub	w3, w3, #0x1
    7c3c:	91004001 	add	x1, x0, #0x10
    7c40:	91002000 	add	x0, x0, #0x8
    7c44:	8b234c23 	add	x3, x1, w3, uxtw #3
    7c48:	f8408401 	ldr	x1, [x0], #8
    7c4c:	f9400422 	ldr	x2, [x1, #8]
    7c50:	32000041 	orr	w1, w2, #0x1
    7c54:	5ac01021 	clz	w1, w1
    7c58:	52001021 	eor	w1, w1, #0x1f
    7c5c:	0b010c21 	add	w1, w1, w1, lsl #3
    7c60:	11012421 	add	w1, w1, #0x49
    7c64:	d3462821 	ubfx	x1, x1, #6, #5
    7c68:	8b020021 	add	x1, x1, x2
    7c6c:	8b010294 	add	x20, x20, x1
    7c70:	eb00007f 	cmp	x3, x0
    7c74:	54fffea1 	b.ne	7c48 <_ZNK11vector_tile10Tile_Layer12ByteSizeLongEv+0x128>  // b.any
    7c78:	b9408a75 	ldr	w21, [x19, #136]
    7c7c:	91020277 	add	x23, x19, #0x80
    7c80:	8b354294 	add	x20, x20, w21, uxtw
    7c84:	34000295 	cbz	w21, 7cd4 <_ZNK11vector_tile10Tile_Layer12ByteSizeLongEv+0x1b4>
    7c88:	52800016 	mov	w22, #0x0                   	// #0
    7c8c:	d503201f 	nop
    7c90:	f9400ae0 	ldr	x0, [x23, #16]
    7c94:	8b36cc00 	add	x0, x0, w22, sxtw #3
    7c98:	110006d6 	add	w22, w22, #0x1
    7c9c:	f9400400 	ldr	x0, [x0, #8]
    7ca0:	f9400001 	ldr	x1, [x0]
    7ca4:	f9403021 	ldr	x1, [x1, #96]
    7ca8:	d63f0020 	blr	x1
    7cac:	32000001 	orr	w1, w0, #0x1
    7cb0:	5ac01021 	clz	w1, w1
    7cb4:	52001021 	eor	w1, w1, #0x1f
    7cb8:	0b010c21 	add	w1, w1, w1, lsl #3
    7cbc:	11012421 	add	w1, w1, #0x49
    7cc0:	d3462821 	ubfx	x1, x1, #6, #5
    7cc4:	8b000020 	add	x0, x1, x0
    7cc8:	8b000294 	add	x20, x20, x0
    7ccc:	6b1602bf 	cmp	w21, w22
    7cd0:	54fffe01 	b.ne	7c90 <_ZNK11vector_tile10Tile_Layer12ByteSizeLongEv+0x170>  // b.any
    7cd4:	b9404a60 	ldr	w0, [x19, #72]
    7cd8:	36080140 	tbz	w0, #1, 7d00 <_ZNK11vector_tile10Tile_Layer12ByteSizeLongEv+0x1e0>
    7cdc:	b940a260 	ldr	w0, [x19, #160]
    7ce0:	32000000 	orr	w0, w0, #0x1
    7ce4:	5ac01000 	clz	w0, w0
    7ce8:	52001000 	eor	w0, w0, #0x1f
    7cec:	0b000c00 	add	w0, w0, w0, lsl #3
    7cf0:	11012400 	add	w0, w0, #0x49
    7cf4:	53067c00 	lsr	w0, w0, #6
    7cf8:	11000400 	add	w0, w0, #0x1
    7cfc:	8b000294 	add	x20, x20, x0
    7d00:	a9425bf5 	ldp	x21, x22, [sp, #32]
    7d04:	aa1403e0 	mov	x0, x20
    7d08:	f9401bf7 	ldr	x23, [sp, #48]
    7d0c:	b9004e74 	str	w20, [x19, #76]
    7d10:	a94153f3 	ldp	x19, x20, [sp, #16]
    7d14:	a8c47bfd 	ldp	x29, x30, [sp], #64
    7d18:	d65f03c0 	ret
    7d1c:	d2800000 	mov	x0, #0x0                   	// #0
    7d20:	36000162 	tbz	w2, #0, 7d4c <_ZNK11vector_tile10Tile_Layer12ByteSizeLongEv+0x22c>
    7d24:	f9404e60 	ldr	x0, [x19, #152]
    7d28:	f9400401 	ldr	x1, [x0, #8]
    7d2c:	32000020 	orr	w0, w1, #0x1
    7d30:	91000421 	add	x1, x1, #0x1
    7d34:	5ac01000 	clz	w0, w0
    7d38:	52001000 	eor	w0, w0, #0x1f
    7d3c:	0b000c00 	add	w0, w0, w0, lsl #3
    7d40:	11012400 	add	w0, w0, #0x49
    7d44:	d3462800 	ubfx	x0, x0, #6, #5
    7d48:	8b010000 	add	x0, x0, x1
    7d4c:	36100142 	tbz	w2, #2, 7d74 <_ZNK11vector_tile10Tile_Layer12ByteSizeLongEv+0x254>
    7d50:	b940a661 	ldr	w1, [x19, #164]
    7d54:	32000021 	orr	w1, w1, #0x1
    7d58:	5ac01021 	clz	w1, w1
    7d5c:	52001021 	eor	w1, w1, #0x1f
    7d60:	0b010c21 	add	w1, w1, w1, lsl #3
    7d64:	11012421 	add	w1, w1, #0x49
    7d68:	53067c21 	lsr	w1, w1, #6
    7d6c:	11000421 	add	w1, w1, #0x1
    7d70:	8b010000 	add	x0, x0, x1
    7d74:	8b000294 	add	x20, x20, x0
    7d78:	17ffff95 	b	7bcc <_ZNK11vector_tile10Tile_Layer12ByteSizeLongEv+0xac>
    7d7c:	d503201f 	nop

0000000000007d80 <_ZN11vector_tile10Tile_ValueD1Ev>:
    7d80:	a9be7bfd 	stp	x29, x30, [sp, #-32]!
    7d84:	910003fd 	mov	x29, sp
    7d88:	a90153f3 	stp	x19, x20, [sp, #16]
    7d8c:	aa0003f3 	mov	x19, x0
    7d90:	d50320ff 	xpaclri
    7d94:	aa1e03e0 	mov	x0, x30
    7d98:	97fff2da 	bl	4900 <_mcount@plt>
    7d9c:	f0000200 	adrp	x0, 4a000 <_ZTVN11vector_tile10Tile_ValueE+0x10>
    7da0:	f0000201 	adrp	x1, 4a000 <_ZTVN11vector_tile10Tile_ValueE+0x10>
    7da4:	f9402a74 	ldr	x20, [x19, #80]
    7da8:	91000021 	add	x1, x1, #0x0
    7dac:	f946a400 	ldr	x0, [x0, #3400]
    7db0:	f9000261 	str	x1, [x19]
    7db4:	f100029f 	cmp	x20, #0x0
    7db8:	fa401284 	ccmp	x20, x0, #0x4, ne  // ne = any
    7dbc:	54000161 	b.ne	7de8 <_ZN11vector_tile10Tile_ValueD1Ev+0x68>  // b.any
    7dc0:	f9402260 	ldr	x0, [x19, #64]
    7dc4:	360000a0 	tbz	w0, #0, 7dd8 <_ZN11vector_tile10Tile_ValueD1Ev+0x58>
    7dc8:	927ff814 	and	x20, x0, #0xfffffffffffffffe
    7dcc:	aa1403e1 	mov	x1, x20
    7dd0:	370003a0 	tbnz	w0, #0, 7e44 <_ZN11vector_tile10Tile_ValueD1Ev+0xc4>
    7dd4:	b4000201 	cbz	x1, 7e14 <_ZN11vector_tile10Tile_ValueD1Ev+0x94>
    7dd8:	91002260 	add	x0, x19, #0x8
    7ddc:	a94153f3 	ldp	x19, x20, [sp, #16]
    7de0:	a8c27bfd 	ldp	x29, x30, [sp], #32
    7de4:	1400472f 	b	19aa0 <_ZN6google8protobuf8internal12ExtensionSetD1Ev>
    7de8:	aa1403e1 	mov	x1, x20
    7dec:	f8410420 	ldr	x0, [x1], #16
    7df0:	eb01001f 	cmp	x0, x1
    7df4:	54000080 	b.eq	7e04 <_ZN11vector_tile10Tile_ValueD1Ev+0x84>  // b.none
    7df8:	f9400a81 	ldr	x1, [x20, #16]
    7dfc:	91000421 	add	x1, x1, #0x1
    7e00:	97fff340 	bl	4b00 <_ZdlPvm@plt>
    7e04:	aa1403e0 	mov	x0, x20
    7e08:	d2800401 	mov	x1, #0x20                  	// #32
    7e0c:	97fff33d 	bl	4b00 <_ZdlPvm@plt>
    7e10:	17ffffec 	b	7dc0 <_ZN11vector_tile10Tile_ValueD1Ev+0x40>
    7e14:	b4fffe34 	cbz	x20, 7dd8 <_ZN11vector_tile10Tile_ValueD1Ev+0x58>
    7e18:	aa1403e1 	mov	x1, x20
    7e1c:	f8410420 	ldr	x0, [x1], #16
    7e20:	eb01001f 	cmp	x0, x1
    7e24:	54000080 	b.eq	7e34 <_ZN11vector_tile10Tile_ValueD1Ev+0xb4>  // b.none
    7e28:	f9400a81 	ldr	x1, [x20, #16]
    7e2c:	91000421 	add	x1, x1, #0x1
    7e30:	97fff334 	bl	4b00 <_ZdlPvm@plt>
    7e34:	aa1403e0 	mov	x0, x20
    7e38:	d2800501 	mov	x1, #0x28                  	// #40
    7e3c:	97fff331 	bl	4b00 <_ZdlPvm@plt>
    7e40:	17ffffe6 	b	7dd8 <_ZN11vector_tile10Tile_ValueD1Ev+0x58>
    7e44:	f9401281 	ldr	x1, [x20, #32]
    7e48:	b5fffc81 	cbnz	x1, 7dd8 <_ZN11vector_tile10Tile_ValueD1Ev+0x58>
    7e4c:	17fffff2 	b	7e14 <_ZN11vector_tile10Tile_ValueD1Ev+0x94>

0000000000007e50 <_ZN11vector_tile10Tile_ValueD0Ev>:
    7e50:	a9be7bfd 	stp	x29, x30, [sp, #-32]!
    7e54:	910003fd 	mov	x29, sp
    7e58:	a90153f3 	stp	x19, x20, [sp, #16]
    7e5c:	aa0003f3 	mov	x19, x0
    7e60:	d50320ff 	xpaclri
    7e64:	aa1e03e0 	mov	x0, x30
    7e68:	97fff2a6 	bl	4900 <_mcount@plt>
    7e6c:	f0000200 	adrp	x0, 4a000 <_ZTVN11vector_tile10Tile_ValueE+0x10>
    7e70:	f0000201 	adrp	x1, 4a000 <_ZTVN11vector_tile10Tile_ValueE+0x10>
    7e74:	f9402a74 	ldr	x20, [x19, #80]
    7e78:	91000021 	add	x1, x1, #0x0
    7e7c:	f946a400 	ldr	x0, [x0, #3400]
    7e80:	f9000261 	str	x1, [x19]
    7e84:	f100029f 	cmp	x20, #0x0
    7e88:	fa401284 	ccmp	x20, x0, #0x4, ne  // ne = any
    7e8c:	540001c1 	b.ne	7ec4 <_ZN11vector_tile10Tile_ValueD0Ev+0x74>  // b.any
    7e90:	f9402260 	ldr	x0, [x19, #64]
    7e94:	360000a0 	tbz	w0, #0, 7ea8 <_ZN11vector_tile10Tile_ValueD0Ev+0x58>
    7e98:	927ff814 	and	x20, x0, #0xfffffffffffffffe
    7e9c:	aa1403e1 	mov	x1, x20
    7ea0:	37000400 	tbnz	w0, #0, 7f20 <_ZN11vector_tile10Tile_ValueD0Ev+0xd0>
    7ea4:	b4000261 	cbz	x1, 7ef0 <_ZN11vector_tile10Tile_ValueD0Ev+0xa0>
    7ea8:	91002260 	add	x0, x19, #0x8
    7eac:	940046fd 	bl	19aa0 <_ZN6google8protobuf8internal12ExtensionSetD1Ev>
    7eb0:	aa1303e0 	mov	x0, x19
    7eb4:	d2801001 	mov	x1, #0x80                  	// #128
    7eb8:	a94153f3 	ldp	x19, x20, [sp, #16]
    7ebc:	a8c27bfd 	ldp	x29, x30, [sp], #32
    7ec0:	17fff310 	b	4b00 <_ZdlPvm@plt>
    7ec4:	aa1403e1 	mov	x1, x20
    7ec8:	f8410420 	ldr	x0, [x1], #16
    7ecc:	eb01001f 	cmp	x0, x1
    7ed0:	54000080 	b.eq	7ee0 <_ZN11vector_tile10Tile_ValueD0Ev+0x90>  // b.none
    7ed4:	f9400a81 	ldr	x1, [x20, #16]
    7ed8:	91000421 	add	x1, x1, #0x1
    7edc:	97fff309 	bl	4b00 <_ZdlPvm@plt>
    7ee0:	aa1403e0 	mov	x0, x20
    7ee4:	d2800401 	mov	x1, #0x20                  	// #32
    7ee8:	97fff306 	bl	4b00 <_ZdlPvm@plt>
    7eec:	17ffffe9 	b	7e90 <_ZN11vector_tile10Tile_ValueD0Ev+0x40>
    7ef0:	b4fffdd4 	cbz	x20, 7ea8 <_ZN11vector_tile10Tile_ValueD0Ev+0x58>
    7ef4:	aa1403e1 	mov	x1, x20
    7ef8:	f8410420 	ldr	x0, [x1], #16
    7efc:	eb01001f 	cmp	x0, x1
    7f00:	54000080 	b.eq	7f10 <_ZN11vector_tile10Tile_ValueD0Ev+0xc0>  // b.none
    7f04:	f9400a81 	ldr	x1, [x20, #16]
    7f08:	91000421 	add	x1, x1, #0x1
    7f0c:	97fff2fd 	bl	4b00 <_ZdlPvm@plt>
    7f10:	aa1403e0 	mov	x0, x20
    7f14:	d2800501 	mov	x1, #0x28                  	// #40
    7f18:	97fff2fa 	bl	4b00 <_ZdlPvm@plt>
    7f1c:	17ffffe3 	b	7ea8 <_ZN11vector_tile10Tile_ValueD0Ev+0x58>
    7f20:	f9401281 	ldr	x1, [x20, #32]
    7f24:	b5fffc21 	cbnz	x1, 7ea8 <_ZN11vector_tile10Tile_ValueD0Ev+0x58>
    7f28:	17fffff2 	b	7ef0 <_ZN11vector_tile10Tile_ValueD0Ev+0xa0>
    7f2c:	d503201f 	nop

0000000000007f30 <_ZN11vector_tile12Tile_FeatureD1Ev>:
    7f30:	a9be7bfd 	stp	x29, x30, [sp, #-32]!
    7f34:	910003fd 	mov	x29, sp
    7f38:	a90153f3 	stp	x19, x20, [sp, #16]
    7f3c:	aa0003f3 	mov	x19, x0
    7f40:	d50320ff 	xpaclri
    7f44:	aa1e03e0 	mov	x0, x30
    7f48:	97fff26e 	bl	4900 <_mcount@plt>
    7f4c:	f0000200 	adrp	x0, 4a000 <_ZTVN11vector_tile10Tile_ValueE+0x10>
    7f50:	f0000201 	adrp	x1, 4a000 <_ZTVN11vector_tile10Tile_ValueE+0x10>
    7f54:	f9402674 	ldr	x20, [x19, #72]
    7f58:	91028021 	add	x1, x1, #0xa0
    7f5c:	f946a400 	ldr	x0, [x0, #3400]
    7f60:	f9000261 	str	x1, [x19]
    7f64:	f100029f 	cmp	x20, #0x0
    7f68:	fa401284 	ccmp	x20, x0, #0x4, ne  // ne = any
    7f6c:	54000241 	b.ne	7fb4 <_ZN11vector_tile12Tile_FeatureD1Ev+0x84>  // b.any
    7f70:	f9401e60 	ldr	x0, [x19, #56]
    7f74:	b4000060 	cbz	x0, 7f80 <_ZN11vector_tile12Tile_FeatureD1Ev+0x50>
    7f78:	f9400002 	ldr	x2, [x0]
    7f7c:	b4000522 	cbz	x2, 8020 <_ZN11vector_tile12Tile_FeatureD1Ev+0xf0>
    7f80:	f9401260 	ldr	x0, [x19, #32]
    7f84:	b4000060 	cbz	x0, 7f90 <_ZN11vector_tile12Tile_FeatureD1Ev+0x60>
    7f88:	f9400002 	ldr	x2, [x0]
    7f8c:	b4000542 	cbz	x2, 8034 <_ZN11vector_tile12Tile_FeatureD1Ev+0x104>
    7f90:	f9400660 	ldr	x0, [x19, #8]
    7f94:	360000a0 	tbz	w0, #0, 7fa8 <_ZN11vector_tile12Tile_FeatureD1Ev+0x78>
    7f98:	927ff813 	and	x19, x0, #0xfffffffffffffffe
    7f9c:	aa1303e1 	mov	x1, x19
    7fa0:	370003a0 	tbnz	w0, #0, 8014 <_ZN11vector_tile12Tile_FeatureD1Ev+0xe4>
    7fa4:	b40001e1 	cbz	x1, 7fe0 <_ZN11vector_tile12Tile_FeatureD1Ev+0xb0>
    7fa8:	a94153f3 	ldp	x19, x20, [sp, #16]
    7fac:	a8c27bfd 	ldp	x29, x30, [sp], #32
    7fb0:	d65f03c0 	ret
    7fb4:	aa1403e1 	mov	x1, x20
    7fb8:	f8410420 	ldr	x0, [x1], #16
    7fbc:	eb01001f 	cmp	x0, x1
    7fc0:	54000080 	b.eq	7fd0 <_ZN11vector_tile12Tile_FeatureD1Ev+0xa0>  // b.none
    7fc4:	f9400a81 	ldr	x1, [x20, #16]
    7fc8:	91000421 	add	x1, x1, #0x1
    7fcc:	97fff2cd 	bl	4b00 <_ZdlPvm@plt>
    7fd0:	aa1403e0 	mov	x0, x20
    7fd4:	d2800401 	mov	x1, #0x20                  	// #32
    7fd8:	97fff2ca 	bl	4b00 <_ZdlPvm@plt>
    7fdc:	17ffffe5 	b	7f70 <_ZN11vector_tile12Tile_FeatureD1Ev+0x40>
    7fe0:	b4fffe53 	cbz	x19, 7fa8 <_ZN11vector_tile12Tile_FeatureD1Ev+0x78>
    7fe4:	aa1303e1 	mov	x1, x19
    7fe8:	f8410420 	ldr	x0, [x1], #16
    7fec:	eb01001f 	cmp	x0, x1
    7ff0:	54000080 	b.eq	8000 <_ZN11vector_tile12Tile_FeatureD1Ev+0xd0>  // b.none
    7ff4:	f9400a61 	ldr	x1, [x19, #16]
    7ff8:	91000421 	add	x1, x1, #0x1
    7ffc:	97fff2c1 	bl	4b00 <_ZdlPvm@plt>
    8000:	aa1303e0 	mov	x0, x19
    8004:	d2800501 	mov	x1, #0x28                  	// #40
    8008:	a94153f3 	ldp	x19, x20, [sp, #16]
    800c:	a8c27bfd 	ldp	x29, x30, [sp], #32
    8010:	17fff2bc 	b	4b00 <_ZdlPvm@plt>
    8014:	f9401261 	ldr	x1, [x19, #32]
    8018:	b5fffc81 	cbnz	x1, 7fa8 <_ZN11vector_tile12Tile_FeatureD1Ev+0x78>
    801c:	17fffff1 	b	7fe0 <_ZN11vector_tile12Tile_FeatureD1Ev+0xb0>
    8020:	b9803661 	ldrsw	x1, [x19, #52]
    8024:	91000821 	add	x1, x1, #0x2
    8028:	d37ef421 	lsl	x1, x1, #2
    802c:	97fff2b5 	bl	4b00 <_ZdlPvm@plt>
    8030:	17ffffd4 	b	7f80 <_ZN11vector_tile12Tile_FeatureD1Ev+0x50>
    8034:	b9801e61 	ldrsw	x1, [x19, #28]
    8038:	91000821 	add	x1, x1, #0x2
    803c:	d37ef421 	lsl	x1, x1, #2
    8040:	97fff2b0 	bl	4b00 <_ZdlPvm@plt>
    8044:	17ffffd3 	b	7f90 <_ZN11vector_tile12Tile_FeatureD1Ev+0x60>
    8048:	d503201f 	nop
    804c:	d503201f 	nop

0000000000008050 <_ZN11vector_tile12Tile_FeatureD0Ev>:
    8050:	a9be7bfd 	stp	x29, x30, [sp, #-32]!
    8054:	910003fd 	mov	x29, sp
    8058:	a90153f3 	stp	x19, x20, [sp, #16]
    805c:	aa0003f3 	mov	x19, x0
    8060:	d50320ff 	xpaclri
    8064:	aa1e03e0 	mov	x0, x30
    8068:	97fff226 	bl	4900 <_mcount@plt>
    806c:	d0000200 	adrp	x0, 4a000 <_ZTVN11vector_tile10Tile_ValueE+0x10>
    8070:	d0000201 	adrp	x1, 4a000 <_ZTVN11vector_tile10Tile_ValueE+0x10>
    8074:	f9402674 	ldr	x20, [x19, #72]
    8078:	91028021 	add	x1, x1, #0xa0
    807c:	f946a400 	ldr	x0, [x0, #3400]
    8080:	f9000261 	str	x1, [x19]
    8084:	f100029f 	cmp	x20, #0x0
    8088:	fa401284 	ccmp	x20, x0, #0x4, ne  // ne = any
    808c:	54000281 	b.ne	80dc <_ZN11vector_tile12Tile_FeatureD0Ev+0x8c>  // b.any
    8090:	f9401e60 	ldr	x0, [x19, #56]
    8094:	b4000060 	cbz	x0, 80a0 <_ZN11vector_tile12Tile_FeatureD0Ev+0x50>
    8098:	f9400002 	ldr	x2, [x0]
    809c:	b4000542 	cbz	x2, 8144 <_ZN11vector_tile12Tile_FeatureD0Ev+0xf4>
    80a0:	f9401260 	ldr	x0, [x19, #32]
    80a4:	b4000060 	cbz	x0, 80b0 <_ZN11vector_tile12Tile_FeatureD0Ev+0x60>
    80a8:	f9400002 	ldr	x2, [x0]
    80ac:	b4000562 	cbz	x2, 8158 <_ZN11vector_tile12Tile_FeatureD0Ev+0x108>
    80b0:	f9400660 	ldr	x0, [x19, #8]
    80b4:	360000a0 	tbz	w0, #0, 80c8 <_ZN11vector_tile12Tile_FeatureD0Ev+0x78>
    80b8:	927ff814 	and	x20, x0, #0xfffffffffffffffe
    80bc:	aa1403e1 	mov	x1, x20
    80c0:	370003c0 	tbnz	w0, #0, 8138 <_ZN11vector_tile12Tile_FeatureD0Ev+0xe8>
    80c4:	b4000221 	cbz	x1, 8108 <_ZN11vector_tile12Tile_FeatureD0Ev+0xb8>
    80c8:	aa1303e0 	mov	x0, x19
    80cc:	d2800c01 	mov	x1, #0x60                  	// #96
    80d0:	a94153f3 	ldp	x19, x20, [sp, #16]
    80d4:	a8c27bfd 	ldp	x29, x30, [sp], #32
    80d8:	17fff28a 	b	4b00 <_ZdlPvm@plt>
    80dc:	aa1403e1 	mov	x1, x20
    80e0:	f8410420 	ldr	x0, [x1], #16
    80e4:	eb01001f 	cmp	x0, x1
    80e8:	54000080 	b.eq	80f8 <_ZN11vector_tile12Tile_FeatureD0Ev+0xa8>  // b.none
    80ec:	f9400a81 	ldr	x1, [x20, #16]
    80f0:	91000421 	add	x1, x1, #0x1
    80f4:	97fff283 	bl	4b00 <_ZdlPvm@plt>
    80f8:	aa1403e0 	mov	x0, x20
    80fc:	d2800401 	mov	x1, #0x20                  	// #32
    8100:	97fff280 	bl	4b00 <_ZdlPvm@plt>
    8104:	17ffffe3 	b	8090 <_ZN11vector_tile12Tile_FeatureD0Ev+0x40>
    8108:	b4fffe14 	cbz	x20, 80c8 <_ZN11vector_tile12Tile_FeatureD0Ev+0x78>
    810c:	aa1403e1 	mov	x1, x20
    8110:	f8410420 	ldr	x0, [x1], #16
    8114:	eb01001f 	cmp	x0, x1
    8118:	54000080 	b.eq	8128 <_ZN11vector_tile12Tile_FeatureD0Ev+0xd8>  // b.none
    811c:	f9400a81 	ldr	x1, [x20, #16]
    8120:	91000421 	add	x1, x1, #0x1
    8124:	97fff277 	bl	4b00 <_ZdlPvm@plt>
    8128:	aa1403e0 	mov	x0, x20
    812c:	d2800501 	mov	x1, #0x28                  	// #40
    8130:	97fff274 	bl	4b00 <_ZdlPvm@plt>
    8134:	17ffffe5 	b	80c8 <_ZN11vector_tile12Tile_FeatureD0Ev+0x78>
    8138:	f9401281 	ldr	x1, [x20, #32]
    813c:	b5fffc61 	cbnz	x1, 80c8 <_ZN11vector_tile12Tile_FeatureD0Ev+0x78>
    8140:	17fffff2 	b	8108 <_ZN11vector_tile12Tile_FeatureD0Ev+0xb8>
    8144:	b9803661 	ldrsw	x1, [x19, #52]
    8148:	91000821 	add	x1, x1, #0x2
    814c:	d37ef421 	lsl	x1, x1, #2
    8150:	97fff26c 	bl	4b00 <_ZdlPvm@plt>
    8154:	17ffffd3 	b	80a0 <_ZN11vector_tile12Tile_FeatureD0Ev+0x50>
    8158:	b9801e61 	ldrsw	x1, [x19, #28]
    815c:	91000821 	add	x1, x1, #0x2
    8160:	d37ef421 	lsl	x1, x1, #2
    8164:	97fff267 	bl	4b00 <_ZdlPvm@plt>
    8168:	17ffffd2 	b	80b0 <_ZN11vector_tile12Tile_FeatureD0Ev+0x60>
    816c:	d503201f 	nop

0000000000008170 <_ZN30protobuf_vector_5ftile_2eproto22InitDefaultsTile_ValueEv>:
    8170:	a9bc7bfd 	stp	x29, x30, [sp, #-64]!
    8174:	910003fd 	mov	x29, sp
    8178:	d50320ff 	xpaclri
    817c:	aa1e03e0 	mov	x0, x30
    8180:	97fff1e0 	bl	4900 <_mcount@plt>
    8184:	d0000201 	adrp	x1, 4a000 <_ZTVN11vector_tile10Tile_ValueE+0x10>
    8188:	f0000202 	adrp	x2, 4b000 <__data_start>
    818c:	91010040 	add	x0, x2, #0x40
    8190:	f946b821 	ldr	x1, [x1, #3440]
    8194:	f9400023 	ldr	x3, [x1]
    8198:	f9001fe3 	str	x3, [sp, #56]
    819c:	d2800003 	mov	x3, #0x0                   	// #0
    81a0:	c8dffc01 	ldar	x1, [x0]
    81a4:	f100083f 	cmp	x1, #0x2
    81a8:	54000141 	b.ne	81d0 <_ZN30protobuf_vector_5ftile_2eproto22InitDefaultsTile_ValueEv+0x60>  // b.any
    81ac:	d0000200 	adrp	x0, 4a000 <_ZTVN11vector_tile10Tile_ValueE+0x10>
    81b0:	f946b800 	ldr	x0, [x0, #3440]
    81b4:	f9401fe2 	ldr	x2, [sp, #56]
    81b8:	f9400001 	ldr	x1, [x0]
    81bc:	eb010042 	subs	x2, x2, x1
    81c0:	d2800001 	mov	x1, #0x0                   	// #0
    81c4:	54000241 	b.ne	820c <_ZN30protobuf_vector_5ftile_2eproto22InitDefaultsTile_ValueEv+0x9c>  // b.any
    81c8:	a8c47bfd 	ldp	x29, x30, [sp], #64
    81cc:	d65f03c0 	ret
    81d0:	d0000202 	adrp	x2, 4a000 <_ZTVN11vector_tile10Tile_ValueE+0x10>
    81d4:	90000003 	adrp	x3, 8000 <_ZN11vector_tile12Tile_FeatureD1Ev+0xd0>
    81d8:	91341063 	add	x3, x3, #0xd04
    81dc:	f9000bf3 	str	x19, [sp, #16]
    81e0:	f9471442 	ldr	x2, [x2, #3624]
    81e4:	910083f3 	add	x19, sp, #0x20
    81e8:	aa1303e1 	mov	x1, x19
    81ec:	3900c3ff 	strb	wzr, [sp, #48]
    81f0:	91004042 	add	x2, x2, #0x10
    81f4:	a9020fe2 	stp	x2, x3, [sp, #32]
    81f8:	940029c2 	bl	12900 <_ZN6google8protobuf18GoogleOnceInitImplEPlPNS0_7ClosureE>
    81fc:	aa1303e0 	mov	x0, x19
    8200:	94002175 	bl	107d4 <_ZN6google8protobuf8internal16FunctionClosure0D1Ev>
    8204:	f9400bf3 	ldr	x19, [sp, #16]
    8208:	17ffffe9 	b	81ac <_ZN30protobuf_vector_5ftile_2eproto22InitDefaultsTile_ValueEv+0x3c>
    820c:	f9000bf3 	str	x19, [sp, #16]
    8210:	97fff1b8 	bl	48f0 <__stack_chk_fail@plt>
    8214:	aa0003e1 	mov	x1, x0
    8218:	aa1303e0 	mov	x0, x19
    821c:	aa0103f3 	mov	x19, x1
    8220:	9400216d 	bl	107d4 <_ZN6google8protobuf8internal16FunctionClosure0D1Ev>
    8224:	aa1303e0 	mov	x0, x19
    8228:	97fff2b6 	bl	4d00 <_Unwind_Resume@plt>
    822c:	d503201f 	nop

0000000000008230 <_ZN30protobuf_vector_5ftile_2eproto24InitDefaultsTile_FeatureEv>:
    8230:	a9bc7bfd 	stp	x29, x30, [sp, #-64]!
    8234:	910003fd 	mov	x29, sp
    8238:	d50320ff 	xpaclri
    823c:	aa1e03e0 	mov	x0, x30
    8240:	97fff1b0 	bl	4900 <_mcount@plt>
    8244:	d0000201 	adrp	x1, 4a000 <_ZTVN11vector_tile10Tile_ValueE+0x10>
    8248:	f0000200 	adrp	x0, 4b000 <__data_start>
    824c:	91010000 	add	x0, x0, #0x40
    8250:	f946b821 	ldr	x1, [x1, #3440]
    8254:	f9400022 	ldr	x2, [x1]
    8258:	f9001fe2 	str	x2, [sp, #56]
    825c:	d2800002 	mov	x2, #0x0                   	// #0
    8260:	91002001 	add	x1, x0, #0x8
    8264:	c8dffc21 	ldar	x1, [x1]
    8268:	f100083f 	cmp	x1, #0x2
    826c:	54000141 	b.ne	8294 <_ZN30protobuf_vector_5ftile_2eproto24InitDefaultsTile_FeatureEv+0x64>  // b.any
    8270:	d0000200 	adrp	x0, 4a000 <_ZTVN11vector_tile10Tile_ValueE+0x10>
    8274:	f946b800 	ldr	x0, [x0, #3440]
    8278:	f9401fe2 	ldr	x2, [sp, #56]
    827c:	f9400001 	ldr	x1, [x0]
    8280:	eb010042 	subs	x2, x2, x1
    8284:	d2800001 	mov	x1, #0x0                   	// #0
    8288:	54000261 	b.ne	82d4 <_ZN30protobuf_vector_5ftile_2eproto24InitDefaultsTile_FeatureEv+0xa4>  // b.any
    828c:	a8c47bfd 	ldp	x29, x30, [sp], #64
    8290:	d65f03c0 	ret
    8294:	d0000202 	adrp	x2, 4a000 <_ZTVN11vector_tile10Tile_ValueE+0x10>
    8298:	b0000003 	adrp	x3, 9000 <_ZN30protobuf_vector_5ftile_2eproto28InitDefaultsTile_FeatureImplEv>
    829c:	91000063 	add	x3, x3, #0x0
    82a0:	f9000bf3 	str	x19, [sp, #16]
    82a4:	f9471442 	ldr	x2, [x2, #3624]
    82a8:	910083f3 	add	x19, sp, #0x20
    82ac:	91002000 	add	x0, x0, #0x8
    82b0:	aa1303e1 	mov	x1, x19
    82b4:	91004042 	add	x2, x2, #0x10
    82b8:	a9020fe2 	stp	x2, x3, [sp, #32]
    82bc:	3900c3ff 	strb	wzr, [sp, #48]
    82c0:	94002990 	bl	12900 <_ZN6google8protobuf18GoogleOnceInitImplEPlPNS0_7ClosureE>
    82c4:	aa1303e0 	mov	x0, x19
    82c8:	94002143 	bl	107d4 <_ZN6google8protobuf8internal16FunctionClosure0D1Ev>
    82cc:	f9400bf3 	ldr	x19, [sp, #16]
    82d0:	17ffffe8 	b	8270 <_ZN30protobuf_vector_5ftile_2eproto24InitDefaultsTile_FeatureEv+0x40>
    82d4:	f9000bf3 	str	x19, [sp, #16]
    82d8:	97fff186 	bl	48f0 <__stack_chk_fail@plt>
    82dc:	aa0003e1 	mov	x1, x0
    82e0:	aa1303e0 	mov	x0, x19
    82e4:	aa0103f3 	mov	x19, x1
    82e8:	9400213b 	bl	107d4 <_ZN6google8protobuf8internal16FunctionClosure0D1Ev>
    82ec:	aa1303e0 	mov	x0, x19
    82f0:	97fff284 	bl	4d00 <_Unwind_Resume@plt>

00000000000082f4 <_ZN30protobuf_vector_5ftile_2eproto22InitDefaultsTile_LayerEv>:
    82f4:	a9bc7bfd 	stp	x29, x30, [sp, #-64]!
    82f8:	910003fd 	mov	x29, sp
    82fc:	d50320ff 	xpaclri
    8300:	aa1e03e0 	mov	x0, x30
    8304:	97fff17f 	bl	4900 <_mcount@plt>
    8308:	d0000201 	adrp	x1, 4a000 <_ZTVN11vector_tile10Tile_ValueE+0x10>
    830c:	f0000200 	adrp	x0, 4b000 <__data_start>
    8310:	91010000 	add	x0, x0, #0x40
    8314:	f946b821 	ldr	x1, [x1, #3440]
    8318:	f9400022 	ldr	x2, [x1]
    831c:	f9001fe2 	str	x2, [sp, #56]
    8320:	d2800002 	mov	x2, #0x0                   	// #0
    8324:	91004001 	add	x1, x0, #0x10
    8328:	c8dffc21 	ldar	x1, [x1]
    832c:	f100083f 	cmp	x1, #0x2
    8330:	54000141 	b.ne	8358 <_ZN30protobuf_vector_5ftile_2eproto22InitDefaultsTile_LayerEv+0x64>  // b.any
    8334:	d0000200 	adrp	x0, 4a000 <_ZTVN11vector_tile10Tile_ValueE+0x10>
    8338:	f946b800 	ldr	x0, [x0, #3440]
    833c:	f9401fe2 	ldr	x2, [sp, #56]
    8340:	f9400001 	ldr	x1, [x0]
    8344:	eb010042 	subs	x2, x2, x1
    8348:	d2800001 	mov	x1, #0x0                   	// #0
    834c:	54000261 	b.ne	8398 <_ZN30protobuf_vector_5ftile_2eproto22InitDefaultsTile_LayerEv+0xa4>  // b.any
    8350:	a8c47bfd 	ldp	x29, x30, [sp], #64
    8354:	d65f03c0 	ret
    8358:	d0000202 	adrp	x2, 4a000 <_ZTVN11vector_tile10Tile_ValueE+0x10>
    835c:	90000023 	adrp	x3, c000 <_ZN11vector_tile10Tile_LayerC2Ev+0x8c>
    8360:	912e5063 	add	x3, x3, #0xb94
    8364:	f9000bf3 	str	x19, [sp, #16]
    8368:	f9471442 	ldr	x2, [x2, #3624]
    836c:	910083f3 	add	x19, sp, #0x20
    8370:	91004000 	add	x0, x0, #0x10
    8374:	aa1303e1 	mov	x1, x19
    8378:	91004042 	add	x2, x2, #0x10
    837c:	a9020fe2 	stp	x2, x3, [sp, #32]
    8380:	3900c3ff 	strb	wzr, [sp, #48]
    8384:	9400295f 	bl	12900 <_ZN6google8protobuf18GoogleOnceInitImplEPlPNS0_7ClosureE>
    8388:	aa1303e0 	mov	x0, x19
    838c:	94002112 	bl	107d4 <_ZN6google8protobuf8internal16FunctionClosure0D1Ev>
    8390:	f9400bf3 	ldr	x19, [sp, #16]
    8394:	17ffffe8 	b	8334 <_ZN30protobuf_vector_5ftile_2eproto22InitDefaultsTile_LayerEv+0x40>
    8398:	f9000bf3 	str	x19, [sp, #16]
    839c:	97fff155 	bl	48f0 <__stack_chk_fail@plt>
    83a0:	aa0003e1 	mov	x1, x0
    83a4:	aa1303e0 	mov	x0, x19
    83a8:	aa0103f3 	mov	x19, x1
    83ac:	9400210a 	bl	107d4 <_ZN6google8protobuf8internal16FunctionClosure0D1Ev>
    83b0:	aa1303e0 	mov	x0, x19
    83b4:	97fff253 	bl	4d00 <_Unwind_Resume@plt>
    83b8:	d503201f 	nop
    83bc:	d503201f 	nop

00000000000083c0 <_ZN30protobuf_vector_5ftile_2eproto16InitDefaultsTileEv>:
    83c0:	a9bc7bfd 	stp	x29, x30, [sp, #-64]!
    83c4:	910003fd 	mov	x29, sp
    83c8:	d50320ff 	xpaclri
    83cc:	aa1e03e0 	mov	x0, x30
    83d0:	97fff14c 	bl	4900 <_mcount@plt>
    83d4:	d0000201 	adrp	x1, 4a000 <_ZTVN11vector_tile10Tile_ValueE+0x10>
    83d8:	f0000200 	adrp	x0, 4b000 <__data_start>
    83dc:	91010000 	add	x0, x0, #0x40
    83e0:	f946b821 	ldr	x1, [x1, #3440]
    83e4:	f9400022 	ldr	x2, [x1]
    83e8:	f9001fe2 	str	x2, [sp, #56]
    83ec:	d2800002 	mov	x2, #0x0                   	// #0
    83f0:	91006001 	add	x1, x0, #0x18
    83f4:	c8dffc21 	ldar	x1, [x1]
    83f8:	f100083f 	cmp	x1, #0x2
    83fc:	54000141 	b.ne	8424 <_ZN30protobuf_vector_5ftile_2eproto16InitDefaultsTileEv+0x64>  // b.any
    8400:	d0000200 	adrp	x0, 4a000 <_ZTVN11vector_tile10Tile_ValueE+0x10>
    8404:	f946b800 	ldr	x0, [x0, #3440]
    8408:	f9401fe2 	ldr	x2, [sp, #56]
    840c:	f9400001 	ldr	x1, [x0]
    8410:	eb010042 	subs	x2, x2, x1
    8414:	d2800001 	mov	x1, #0x0                   	// #0
    8418:	54000261 	b.ne	8464 <_ZN30protobuf_vector_5ftile_2eproto16InitDefaultsTileEv+0xa4>  // b.any
    841c:	a8c47bfd 	ldp	x29, x30, [sp], #64
    8420:	d65f03c0 	ret
    8424:	d0000202 	adrp	x2, 4a000 <_ZTVN11vector_tile10Tile_ValueE+0x10>
    8428:	b0000023 	adrp	x3, d000 <_ZN11vector_tile4TileD2Ev+0x60>
    842c:	91035063 	add	x3, x3, #0xd4
    8430:	f9000bf3 	str	x19, [sp, #16]
    8434:	f9471442 	ldr	x2, [x2, #3624]
    8438:	910083f3 	add	x19, sp, #0x20
    843c:	91006000 	add	x0, x0, #0x18
    8440:	aa1303e1 	mov	x1, x19
    8444:	91004042 	add	x2, x2, #0x10
    8448:	a9020fe2 	stp	x2, x3, [sp, #32]
    844c:	3900c3ff 	strb	wzr, [sp, #48]
    8450:	9400292c 	bl	12900 <_ZN6google8protobuf18GoogleOnceInitImplEPlPNS0_7ClosureE>
    8454:	aa1303e0 	mov	x0, x19
    8458:	940020df 	bl	107d4 <_ZN6google8protobuf8internal16FunctionClosure0D1Ev>
    845c:	f9400bf3 	ldr	x19, [sp, #16]
    8460:	17ffffe8 	b	8400 <_ZN30protobuf_vector_5ftile_2eproto16InitDefaultsTileEv+0x40>
    8464:	f9000bf3 	str	x19, [sp, #16]
    8468:	97fff122 	bl	48f0 <__stack_chk_fail@plt>
    846c:	aa0003e1 	mov	x1, x0
    8470:	aa1303e0 	mov	x0, x19
    8474:	aa0103f3 	mov	x19, x1
    8478:	940020d7 	bl	107d4 <_ZN6google8protobuf8internal16FunctionClosure0D1Ev>
    847c:	aa1303e0 	mov	x0, x19
    8480:	97fff220 	bl	4d00 <_Unwind_Resume@plt>

0000000000008484 <_ZN11vector_tile21Tile_GeomType_IsValidEi>:
    8484:	a9be7bfd 	stp	x29, x30, [sp, #-32]!
    8488:	910003fd 	mov	x29, sp
    848c:	f9000bf3 	str	x19, [sp, #16]
    8490:	d50320ff 	xpaclri
    8494:	2a0003f3 	mov	w19, w0
    8498:	aa1e03e0 	mov	x0, x30
    849c:	97fff119 	bl	4900 <_mcount@plt>
    84a0:	71000e7f 	cmp	w19, #0x3
    84a4:	1a9f87e0 	cset	w0, ls  // ls = plast
    84a8:	f9400bf3 	ldr	x19, [sp, #16]
    84ac:	a8c27bfd 	ldp	x29, x30, [sp], #32
    84b0:	d65f03c0 	ret

00000000000084b4 <_ZN11vector_tile10Tile_Value21InitAsDefaultInstanceEv>:
    84b4:	a9bf7bfd 	stp	x29, x30, [sp, #-16]!
    84b8:	910003fd 	mov	x29, sp
    84bc:	d50320ff 	xpaclri
    84c0:	aa1e03e0 	mov	x0, x30
    84c4:	97fff10f 	bl	4900 <_mcount@plt>
    84c8:	a8c17bfd 	ldp	x29, x30, [sp], #16
    84cc:	d65f03c0 	ret

00000000000084d0 <_ZN11vector_tile10Tile_Value10SharedCtorEv>:
    84d0:	a9be7bfd 	stp	x29, x30, [sp, #-32]!
    84d4:	910003fd 	mov	x29, sp
    84d8:	f9000bf3 	str	x19, [sp, #16]
    84dc:	d50320ff 	xpaclri
    84e0:	aa0003f3 	mov	x19, x0
    84e4:	aa1e03e0 	mov	x0, x30
    84e8:	97fff106 	bl	4900 <_mcount@plt>
    84ec:	d0000200 	adrp	x0, 4a000 <_ZTVN11vector_tile10Tile_ValueE+0x10>
    84f0:	b9004e7f 	str	wzr, [x19, #76]
    84f4:	f946a400 	ldr	x0, [x0, #3400]
    84f8:	f9002a60 	str	x0, [x19, #80]
    84fc:	a905fe7f 	stp	xzr, xzr, [x19, #88]
    8500:	a906fe7f 	stp	xzr, xzr, [x19, #104]
    8504:	f9003e7f 	str	xzr, [x19, #120]
    8508:	f9400bf3 	ldr	x19, [sp, #16]
    850c:	a8c27bfd 	ldp	x29, x30, [sp], #32
    8510:	d65f03c0 	ret

0000000000008514 <_ZN11vector_tile10Tile_Value10SharedDtorEv>:
    8514:	a9be7bfd 	stp	x29, x30, [sp, #-32]!
    8518:	910003fd 	mov	x29, sp
    851c:	f9000bf3 	str	x19, [sp, #16]
    8520:	aa0003f3 	mov	x19, x0
    8524:	d50320ff 	xpaclri
    8528:	aa1e03e0 	mov	x0, x30
    852c:	97fff0f5 	bl	4900 <_mcount@plt>
    8530:	d0000201 	adrp	x1, 4a000 <_ZTVN11vector_tile10Tile_ValueE+0x10>
    8534:	f9402a73 	ldr	x19, [x19, #80]
    8538:	f946a420 	ldr	x0, [x1, #3400]
    853c:	f100027f 	cmp	x19, #0x0
    8540:	fa401264 	ccmp	x19, x0, #0x4, ne  // ne = any
    8544:	54000081 	b.ne	8554 <_ZN11vector_tile10Tile_Value10SharedDtorEv+0x40>  // b.any
    8548:	f9400bf3 	ldr	x19, [sp, #16]
    854c:	a8c27bfd 	ldp	x29, x30, [sp], #32
    8550:	d65f03c0 	ret
    8554:	aa1303e1 	mov	x1, x19
    8558:	f8410420 	ldr	x0, [x1], #16
    855c:	eb01001f 	cmp	x0, x1
    8560:	54000080 	b.eq	8570 <_ZN11vector_tile10Tile_Value10SharedDtorEv+0x5c>  // b.none
    8564:	f9400a61 	ldr	x1, [x19, #16]
    8568:	91000421 	add	x1, x1, #0x1
    856c:	97fff165 	bl	4b00 <_ZdlPvm@plt>
    8570:	aa1303e0 	mov	x0, x19
    8574:	d2800401 	mov	x1, #0x20                  	// #32
    8578:	f9400bf3 	ldr	x19, [sp, #16]
    857c:	a8c27bfd 	ldp	x29, x30, [sp], #32
    8580:	17fff160 	b	4b00 <_ZdlPvm@plt>

0000000000008584 <_ZNK11vector_tile10Tile_Value13SetCachedSizeEi>:
    8584:	a9be7bfd 	stp	x29, x30, [sp, #-32]!
    8588:	910003fd 	mov	x29, sp
    858c:	a90153f3 	stp	x19, x20, [sp, #16]
    8590:	aa0003f3 	mov	x19, x0
    8594:	d50320ff 	xpaclri
    8598:	2a0103f4 	mov	w20, w1
    859c:	aa1e03e0 	mov	x0, x30
    85a0:	97fff0d8 	bl	4900 <_mcount@plt>
    85a4:	b9004e74 	str	w20, [x19, #76]
    85a8:	a94153f3 	ldp	x19, x20, [sp, #16]
    85ac:	a8c27bfd 	ldp	x29, x30, [sp], #32
    85b0:	d65f03c0 	ret

00000000000085b4 <_ZN11vector_tile10Tile_Value16default_instanceEv>:
    85b4:	a9bc7bfd 	stp	x29, x30, [sp, #-64]!
    85b8:	910003fd 	mov	x29, sp
    85bc:	a90153f3 	stp	x19, x20, [sp, #16]
    85c0:	d50320ff 	xpaclri
    85c4:	aa1e03e0 	mov	x0, x30
    85c8:	97fff0ce 	bl	4900 <_mcount@plt>
    85cc:	f0000213 	adrp	x19, 4b000 <__data_start>
    85d0:	d0000201 	adrp	x1, 4a000 <_ZTVN11vector_tile10Tile_ValueE+0x10>
    85d4:	91010260 	add	x0, x19, #0x40
    85d8:	f946b821 	ldr	x1, [x1, #3440]
    85dc:	f9400022 	ldr	x2, [x1]
    85e0:	f9001fe2 	str	x2, [sp, #56]
    85e4:	d2800002 	mov	x2, #0x0                   	// #0
    85e8:	c8dffc01 	ldar	x1, [x0]
    85ec:	f100083f 	cmp	x1, #0x2
    85f0:	540001a1 	b.ne	8624 <_ZN11vector_tile10Tile_Value16default_instanceEv+0x70>  // b.any
    85f4:	d0000201 	adrp	x1, 4a000 <_ZTVN11vector_tile10Tile_ValueE+0x10>
    85f8:	91010273 	add	x19, x19, #0x40
    85fc:	91008260 	add	x0, x19, #0x20
    8600:	f946b821 	ldr	x1, [x1, #3440]
    8604:	f9401fe3 	ldr	x3, [sp, #56]
    8608:	f9400022 	ldr	x2, [x1]
    860c:	eb020063 	subs	x3, x3, x2
    8610:	d2800002 	mov	x2, #0x0                   	// #0
    8614:	54000221 	b.ne	8658 <_ZN11vector_tile10Tile_Value16default_instanceEv+0xa4>  // b.any
    8618:	a94153f3 	ldp	x19, x20, [sp, #16]
    861c:	a8c47bfd 	ldp	x29, x30, [sp], #64
    8620:	d65f03c0 	ret
    8624:	d0000202 	adrp	x2, 4a000 <_ZTVN11vector_tile10Tile_ValueE+0x10>
    8628:	90000003 	adrp	x3, 8000 <_ZN11vector_tile12Tile_FeatureD1Ev+0xd0>
    862c:	91341063 	add	x3, x3, #0xd04
    8630:	910083f4 	add	x20, sp, #0x20
    8634:	f9471442 	ldr	x2, [x2, #3624]
    8638:	aa1403e1 	mov	x1, x20
    863c:	3900c3ff 	strb	wzr, [sp, #48]
    8640:	91004042 	add	x2, x2, #0x10
    8644:	a9020fe2 	stp	x2, x3, [sp, #32]
    8648:	940028ae 	bl	12900 <_ZN6google8protobuf18GoogleOnceInitImplEPlPNS0_7ClosureE>
    864c:	aa1403e0 	mov	x0, x20
    8650:	94002061 	bl	107d4 <_ZN6google8protobuf8internal16FunctionClosure0D1Ev>
    8654:	17ffffe8 	b	85f4 <_ZN11vector_tile10Tile_Value16default_instanceEv+0x40>
    8658:	97fff0a6 	bl	48f0 <__stack_chk_fail@plt>
    865c:	aa0003f3 	mov	x19, x0
    8660:	aa1403e0 	mov	x0, x20
    8664:	9400205c 	bl	107d4 <_ZN6google8protobuf8internal16FunctionClosure0D1Ev>
    8668:	aa1303e0 	mov	x0, x19
    866c:	97fff1a5 	bl	4d00 <_Unwind_Resume@plt>

0000000000008670 <_ZN11vector_tile12Tile_Feature21InitAsDefaultInstanceEv>:
    8670:	a9bf7bfd 	stp	x29, x30, [sp, #-16]!
    8674:	910003fd 	mov	x29, sp
    8678:	d50320ff 	xpaclri
    867c:	aa1e03e0 	mov	x0, x30
    8680:	97fff0a0 	bl	4900 <_mcount@plt>
    8684:	a8c17bfd 	ldp	x29, x30, [sp], #16
    8688:	d65f03c0 	ret
    868c:	d503201f 	nop

0000000000008690 <_ZN11vector_tile12Tile_Feature10SharedCtorEv>:
    8690:	a9be7bfd 	stp	x29, x30, [sp, #-32]!
    8694:	910003fd 	mov	x29, sp
    8698:	f9000bf3 	str	x19, [sp, #16]
    869c:	d50320ff 	xpaclri
    86a0:	aa0003f3 	mov	x19, x0
    86a4:	aa1e03e0 	mov	x0, x30
    86a8:	97fff096 	bl	4900 <_mcount@plt>
    86ac:	d0000200 	adrp	x0, 4a000 <_ZTVN11vector_tile10Tile_ValueE+0x10>
    86b0:	b900167f 	str	wzr, [x19, #20]
    86b4:	f946a400 	ldr	x0, [x0, #3400]
    86b8:	a904fe60 	stp	x0, xzr, [x19, #72]
    86bc:	b9005a7f 	str	wzr, [x19, #88]
    86c0:	f9400bf3 	ldr	x19, [sp, #16]
    86c4:	a8c27bfd 	ldp	x29, x30, [sp], #32
    86c8:	d65f03c0 	ret
    86cc:	d503201f 	nop

00000000000086d0 <_ZN11vector_tile12Tile_Feature10SharedDtorEv>:
    86d0:	a9be7bfd 	stp	x29, x30, [sp, #-32]!
    86d4:	910003fd 	mov	x29, sp
    86d8:	f9000bf3 	str	x19, [sp, #16]
    86dc:	aa0003f3 	mov	x19, x0
    86e0:	d50320ff 	xpaclri
    86e4:	aa1e03e0 	mov	x0, x30
    86e8:	97fff086 	bl	4900 <_mcount@plt>
    86ec:	d0000201 	adrp	x1, 4a000 <_ZTVN11vector_tile10Tile_ValueE+0x10>
    86f0:	f9402673 	ldr	x19, [x19, #72]
    86f4:	f946a420 	ldr	x0, [x1, #3400]
    86f8:	f100027f 	cmp	x19, #0x0
    86fc:	fa401264 	ccmp	x19, x0, #0x4, ne  // ne = any
    8700:	54000081 	b.ne	8710 <_ZN11vector_tile12Tile_Feature10SharedDtorEv+0x40>  // b.any
    8704:	f9400bf3 	ldr	x19, [sp, #16]
    8708:	a8c27bfd 	ldp	x29, x30, [sp], #32
    870c:	d65f03c0 	ret
    8710:	aa1303e1 	mov	x1, x19
    8714:	f8410420 	ldr	x0, [x1], #16
    8718:	eb01001f 	cmp	x0, x1
    871c:	54000080 	b.eq	872c <_ZN11vector_tile12Tile_Feature10SharedDtorEv+0x5c>  // b.none
    8720:	f9400a61 	ldr	x1, [x19, #16]
    8724:	91000421 	add	x1, x1, #0x1
    8728:	97fff0f6 	bl	4b00 <_ZdlPvm@plt>
    872c:	aa1303e0 	mov	x0, x19
    8730:	d2800401 	mov	x1, #0x20                  	// #32
    8734:	f9400bf3 	ldr	x19, [sp, #16]
    8738:	a8c27bfd 	ldp	x29, x30, [sp], #32
    873c:	17fff0f1 	b	4b00 <_ZdlPvm@plt>

0000000000008740 <_ZNK11vector_tile12Tile_Feature13SetCachedSizeEi>:
    8740:	a9be7bfd 	stp	x29, x30, [sp, #-32]!
    8744:	910003fd 	mov	x29, sp
    8748:	a90153f3 	stp	x19, x20, [sp, #16]
    874c:	aa0003f3 	mov	x19, x0
    8750:	d50320ff 	xpaclri
    8754:	2a0103f4 	mov	w20, w1
    8758:	aa1e03e0 	mov	x0, x30
    875c:	97fff069 	bl	4900 <_mcount@plt>
    8760:	b9001674 	str	w20, [x19, #20]
    8764:	a94153f3 	ldp	x19, x20, [sp, #16]
    8768:	a8c27bfd 	ldp	x29, x30, [sp], #32
    876c:	d65f03c0 	ret

0000000000008770 <_ZN11vector_tile12Tile_Feature16default_instanceEv>:
    8770:	a9bc7bfd 	stp	x29, x30, [sp, #-64]!
    8774:	910003fd 	mov	x29, sp
    8778:	a90153f3 	stp	x19, x20, [sp, #16]
    877c:	d50320ff 	xpaclri
    8780:	aa1e03e0 	mov	x0, x30
    8784:	97fff05f 	bl	4900 <_mcount@plt>
    8788:	f0000213 	adrp	x19, 4b000 <__data_start>
    878c:	d0000201 	adrp	x1, 4a000 <_ZTVN11vector_tile10Tile_ValueE+0x10>
    8790:	91010260 	add	x0, x19, #0x40
    8794:	f946b821 	ldr	x1, [x1, #3440]
    8798:	f9400022 	ldr	x2, [x1]
    879c:	f9001fe2 	str	x2, [sp, #56]
    87a0:	d2800002 	mov	x2, #0x0                   	// #0
    87a4:	91002001 	add	x1, x0, #0x8
    87a8:	c8dffc21 	ldar	x1, [x1]
    87ac:	f100083f 	cmp	x1, #0x2
    87b0:	540001a1 	b.ne	87e4 <_ZN11vector_tile12Tile_Feature16default_instanceEv+0x74>  // b.any
    87b4:	d0000201 	adrp	x1, 4a000 <_ZTVN11vector_tile10Tile_ValueE+0x10>
    87b8:	91010273 	add	x19, x19, #0x40
    87bc:	91028260 	add	x0, x19, #0xa0
    87c0:	f946b821 	ldr	x1, [x1, #3440]
    87c4:	f9401fe3 	ldr	x3, [sp, #56]
    87c8:	f9400022 	ldr	x2, [x1]
    87cc:	eb020063 	subs	x3, x3, x2
    87d0:	d2800002 	mov	x2, #0x0                   	// #0
    87d4:	54000241 	b.ne	881c <_ZN11vector_tile12Tile_Feature16default_instanceEv+0xac>  // b.any
    87d8:	a94153f3 	ldp	x19, x20, [sp, #16]
    87dc:	a8c47bfd 	ldp	x29, x30, [sp], #64
    87e0:	d65f03c0 	ret
    87e4:	d0000202 	adrp	x2, 4a000 <_ZTVN11vector_tile10Tile_ValueE+0x10>
    87e8:	b0000003 	adrp	x3, 9000 <_ZN30protobuf_vector_5ftile_2eproto28InitDefaultsTile_FeatureImplEv>
    87ec:	91000063 	add	x3, x3, #0x0
    87f0:	910083f4 	add	x20, sp, #0x20
    87f4:	f9471442 	ldr	x2, [x2, #3624]
    87f8:	91002000 	add	x0, x0, #0x8
    87fc:	aa1403e1 	mov	x1, x20
    8800:	3900c3ff 	strb	wzr, [sp, #48]
    8804:	91004042 	add	x2, x2, #0x10
    8808:	a9020fe2 	stp	x2, x3, [sp, #32]
    880c:	9400283d 	bl	12900 <_ZN6google8protobuf18GoogleOnceInitImplEPlPNS0_7ClosureE>
    8810:	aa1403e0 	mov	x0, x20
    8814:	94001ff0 	bl	107d4 <_ZN6google8protobuf8internal16FunctionClosure0D1Ev>
    8818:	17ffffe7 	b	87b4 <_ZN11vector_tile12Tile_Feature16default_instanceEv+0x44>
    881c:	97fff035 	bl	48f0 <__stack_chk_fail@plt>
    8820:	aa0003f3 	mov	x19, x0
    8824:	aa1403e0 	mov	x0, x20
    8828:	94001feb 	bl	107d4 <_ZN6google8protobuf8internal16FunctionClosure0D1Ev>
    882c:	aa1303e0 	mov	x0, x19
    8830:	97fff134 	bl	4d00 <_Unwind_Resume@plt>

0000000000008834 <_ZN11vector_tile10Tile_Layer21InitAsDefaultInstanceEv>:
    8834:	a9bf7bfd 	stp	x29, x30, [sp, #-16]!
    8838:	910003fd 	mov	x29, sp
    883c:	d50320ff 	xpaclri
    8840:	aa1e03e0 	mov	x0, x30
    8844:	97fff02f 	bl	4900 <_mcount@plt>
    8848:	a8c17bfd 	ldp	x29, x30, [sp], #16
    884c:	d65f03c0 	ret

0000000000008850 <_ZN11vector_tile10Tile_Layer10SharedCtorEv>:
    8850:	a9be7bfd 	stp	x29, x30, [sp, #-32]!
    8854:	910003fd 	mov	x29, sp
    8858:	f9000bf3 	str	x19, [sp, #16]
    885c:	d50320ff 	xpaclri
    8860:	aa0003f3 	mov	x19, x0
    8864:	aa1e03e0 	mov	x0, x30
    8868:	97fff026 	bl	4900 <_mcount@plt>
    886c:	b0000121 	adrp	x1, 2d000 <_ZN6google8protobuf13SStringPrintfEPNSt7__cxx1112basic_stringIcSt11char_traitsIcESaIcEEEPKcz+0x90>
    8870:	d0000200 	adrp	x0, 4a000 <_ZTVN11vector_tile10Tile_ValueE+0x10>
    8874:	b9004e7f 	str	wzr, [x19, #76]
    8878:	f946a400 	ldr	x0, [x0, #3400]
    887c:	f9004e60 	str	x0, [x19, #152]
    8880:	fd47cc20 	ldr	d0, [x1, #3992]
    8884:	fd005260 	str	d0, [x19, #160]
    8888:	f9400bf3 	ldr	x19, [sp, #16]
    888c:	a8c27bfd 	ldp	x29, x30, [sp], #32
    8890:	d65f03c0 	ret

0000000000008894 <_ZN11vector_tile10Tile_Layer10SharedDtorEv>:
    8894:	a9be7bfd 	stp	x29, x30, [sp, #-32]!
    8898:	910003fd 	mov	x29, sp
    889c:	f9000bf3 	str	x19, [sp, #16]
    88a0:	aa0003f3 	mov	x19, x0
    88a4:	d50320ff 	xpaclri
    88a8:	aa1e03e0 	mov	x0, x30
    88ac:	97fff015 	bl	4900 <_mcount@plt>
    88b0:	d0000201 	adrp	x1, 4a000 <_ZTVN11vector_tile10Tile_ValueE+0x10>
    88b4:	f9404e73 	ldr	x19, [x19, #152]
    88b8:	f946a420 	ldr	x0, [x1, #3400]
    88bc:	f100027f 	cmp	x19, #0x0
    88c0:	fa401264 	ccmp	x19, x0, #0x4, ne  // ne = any
    88c4:	54000081 	b.ne	88d4 <_ZN11vector_tile10Tile_Layer10SharedDtorEv+0x40>  // b.any
    88c8:	f9400bf3 	ldr	x19, [sp, #16]
    88cc:	a8c27bfd 	ldp	x29, x30, [sp], #32
    88d0:	d65f03c0 	ret
    88d4:	aa1303e1 	mov	x1, x19
    88d8:	f8410420 	ldr	x0, [x1], #16
    88dc:	eb01001f 	cmp	x0, x1
    88e0:	54000080 	b.eq	88f0 <_ZN11vector_tile10Tile_Layer10SharedDtorEv+0x5c>  // b.none
    88e4:	f9400a61 	ldr	x1, [x19, #16]
    88e8:	91000421 	add	x1, x1, #0x1
    88ec:	97fff085 	bl	4b00 <_ZdlPvm@plt>
    88f0:	aa1303e0 	mov	x0, x19
    88f4:	d2800401 	mov	x1, #0x20                  	// #32
    88f8:	f9400bf3 	ldr	x19, [sp, #16]
    88fc:	a8c27bfd 	ldp	x29, x30, [sp], #32
    8900:	17fff080 	b	4b00 <_ZdlPvm@plt>

0000000000008904 <_ZNK11vector_tile10Tile_Layer13SetCachedSizeEi>:
    8904:	a9be7bfd 	stp	x29, x30, [sp, #-32]!
    8908:	910003fd 	mov	x29, sp
    890c:	a90153f3 	stp	x19, x20, [sp, #16]
    8910:	aa0003f3 	mov	x19, x0
    8914:	d50320ff 	xpaclri
    8918:	2a0103f4 	mov	w20, w1
    891c:	aa1e03e0 	mov	x0, x30
    8920:	97ffeff8 	bl	4900 <_mcount@plt>
    8924:	b9004e74 	str	w20, [x19, #76]
    8928:	a94153f3 	ldp	x19, x20, [sp, #16]
    892c:	a8c27bfd 	ldp	x29, x30, [sp], #32
    8930:	d65f03c0 	ret

0000000000008934 <_ZN11vector_tile10Tile_Layer16default_instanceEv>:
    8934:	a9bc7bfd 	stp	x29, x30, [sp, #-64]!
    8938:	910003fd 	mov	x29, sp
    893c:	a90153f3 	stp	x19, x20, [sp, #16]
    8940:	d50320ff 	xpaclri
    8944:	aa1e03e0 	mov	x0, x30
    8948:	97ffefee 	bl	4900 <_mcount@plt>
    894c:	f0000213 	adrp	x19, 4b000 <__data_start>
    8950:	d0000201 	adrp	x1, 4a000 <_ZTVN11vector_tile10Tile_ValueE+0x10>
    8954:	91010260 	add	x0, x19, #0x40
    8958:	f946b821 	ldr	x1, [x1, #3440]
    895c:	f9400022 	ldr	x2, [x1]
    8960:	f9001fe2 	str	x2, [sp, #56]
    8964:	d2800002 	mov	x2, #0x0                   	// #0
    8968:	91004001 	add	x1, x0, #0x10
    896c:	c8dffc21 	ldar	x1, [x1]
    8970:	f100083f 	cmp	x1, #0x2
    8974:	540001a1 	b.ne	89a8 <_ZN11vector_tile10Tile_Layer16default_instanceEv+0x74>  // b.any
    8978:	d0000201 	adrp	x1, 4a000 <_ZTVN11vector_tile10Tile_ValueE+0x10>
    897c:	91010273 	add	x19, x19, #0x40
    8980:	91040260 	add	x0, x19, #0x100
    8984:	f946b821 	ldr	x1, [x1, #3440]
    8988:	f9401fe3 	ldr	x3, [sp, #56]
    898c:	f9400022 	ldr	x2, [x1]
    8990:	eb020063 	subs	x3, x3, x2
    8994:	d2800002 	mov	x2, #0x0                   	// #0
    8998:	54000241 	b.ne	89e0 <_ZN11vector_tile10Tile_Layer16default_instanceEv+0xac>  // b.any
    899c:	a94153f3 	ldp	x19, x20, [sp, #16]
    89a0:	a8c47bfd 	ldp	x29, x30, [sp], #64
    89a4:	d65f03c0 	ret
    89a8:	d0000202 	adrp	x2, 4a000 <_ZTVN11vector_tile10Tile_ValueE+0x10>
    89ac:	90000023 	adrp	x3, c000 <_ZN11vector_tile10Tile_LayerC2Ev+0x8c>
    89b0:	912e5063 	add	x3, x3, #0xb94
    89b4:	910083f4 	add	x20, sp, #0x20
    89b8:	f9471442 	ldr	x2, [x2, #3624]
    89bc:	91004000 	add	x0, x0, #0x10
    89c0:	aa1403e1 	mov	x1, x20
    89c4:	3900c3ff 	strb	wzr, [sp, #48]
    89c8:	91004042 	add	x2, x2, #0x10
    89cc:	a9020fe2 	stp	x2, x3, [sp, #32]
    89d0:	940027cc 	bl	12900 <_ZN6google8protobuf18GoogleOnceInitImplEPlPNS0_7ClosureE>
    89d4:	aa1403e0 	mov	x0, x20
    89d8:	94001f7f 	bl	107d4 <_ZN6google8protobuf8internal16FunctionClosure0D1Ev>
    89dc:	17ffffe7 	b	8978 <_ZN11vector_tile10Tile_Layer16default_instanceEv+0x44>
    89e0:	97ffefc4 	bl	48f0 <__stack_chk_fail@plt>
    89e4:	aa0003f3 	mov	x19, x0
    89e8:	aa1403e0 	mov	x0, x20
    89ec:	94001f7a 	bl	107d4 <_ZN6google8protobuf8internal16FunctionClosure0D1Ev>
    89f0:	aa1303e0 	mov	x0, x19
    89f4:	97fff0c3 	bl	4d00 <_Unwind_Resume@plt>
    89f8:	d503201f 	nop
    89fc:	d503201f 	nop

0000000000008a00 <_ZNK11vector_tile10Tile_Layer30RequiredFieldsByteSizeFallbackEv>:
    8a00:	a9be7bfd 	stp	x29, x30, [sp, #-32]!
    8a04:	910003fd 	mov	x29, sp
    8a08:	f9000bf3 	str	x19, [sp, #16]
    8a0c:	aa0003f3 	mov	x19, x0
    8a10:	d50320ff 	xpaclri
    8a14:	aa1e03e0 	mov	x0, x30
    8a18:	97ffefba 	bl	4900 <_mcount@plt>
    8a1c:	d2800000 	mov	x0, #0x0                   	// #0
    8a20:	b9404a62 	ldr	w2, [x19, #72]
    8a24:	36000162 	tbz	w2, #0, 8a50 <_ZNK11vector_tile10Tile_Layer30RequiredFieldsByteSizeFallbackEv+0x50>
    8a28:	f9404e60 	ldr	x0, [x19, #152]
    8a2c:	f9400400 	ldr	x0, [x0, #8]
    8a30:	32000001 	orr	w1, w0, #0x1
    8a34:	91000400 	add	x0, x0, #0x1
    8a38:	5ac01021 	clz	w1, w1
    8a3c:	52001021 	eor	w1, w1, #0x1f
    8a40:	0b010c21 	add	w1, w1, w1, lsl #3
    8a44:	11012421 	add	w1, w1, #0x49
    8a48:	d3462821 	ubfx	x1, x1, #6, #5
    8a4c:	8b000020 	add	x0, x1, x0
    8a50:	36100142 	tbz	w2, #2, 8a78 <_ZNK11vector_tile10Tile_Layer30RequiredFieldsByteSizeFallbackEv+0x78>
    8a54:	b940a661 	ldr	w1, [x19, #164]
    8a58:	32000021 	orr	w1, w1, #0x1
    8a5c:	5ac01021 	clz	w1, w1
    8a60:	52001021 	eor	w1, w1, #0x1f
    8a64:	0b010c21 	add	w1, w1, w1, lsl #3
    8a68:	11012421 	add	w1, w1, #0x49
    8a6c:	53067c21 	lsr	w1, w1, #6
    8a70:	11000421 	add	w1, w1, #0x1
    8a74:	8b010000 	add	x0, x0, x1
    8a78:	f9400bf3 	ldr	x19, [sp, #16]
    8a7c:	a8c27bfd 	ldp	x29, x30, [sp], #32
    8a80:	d65f03c0 	ret

0000000000008a84 <_ZN11vector_tile4Tile21InitAsDefaultInstanceEv>:
    8a84:	a9bf7bfd 	stp	x29, x30, [sp, #-16]!
    8a88:	910003fd 	mov	x29, sp
    8a8c:	d50320ff 	xpaclri
    8a90:	aa1e03e0 	mov	x0, x30
    8a94:	97ffef9b 	bl	4900 <_mcount@plt>
    8a98:	a8c17bfd 	ldp	x29, x30, [sp], #16
    8a9c:	d65f03c0 	ret

0000000000008aa0 <_ZN11vector_tile4Tile10SharedCtorEv>:
    8aa0:	a9be7bfd 	stp	x29, x30, [sp, #-32]!
    8aa4:	910003fd 	mov	x29, sp
    8aa8:	f9000bf3 	str	x19, [sp, #16]
    8aac:	aa0003f3 	mov	x19, x0
    8ab0:	d50320ff 	xpaclri
    8ab4:	aa1e03e0 	mov	x0, x30
    8ab8:	97ffef92 	bl	4900 <_mcount@plt>
    8abc:	b9004e7f 	str	wzr, [x19, #76]
    8ac0:	f9400bf3 	ldr	x19, [sp, #16]
    8ac4:	a8c27bfd 	ldp	x29, x30, [sp], #32
    8ac8:	d65f03c0 	ret
    8acc:	d503201f 	nop

0000000000008ad0 <_ZN11vector_tile4Tile10SharedDtorEv>:
    8ad0:	a9bf7bfd 	stp	x29, x30, [sp, #-16]!
    8ad4:	910003fd 	mov	x29, sp
    8ad8:	d50320ff 	xpaclri
    8adc:	aa1e03e0 	mov	x0, x30
    8ae0:	97ffef88 	bl	4900 <_mcount@plt>
    8ae4:	a8c17bfd 	ldp	x29, x30, [sp], #16
    8ae8:	d65f03c0 	ret
    8aec:	d503201f 	nop

0000000000008af0 <_ZNK11vector_tile4Tile13SetCachedSizeEi>:
    8af0:	a9be7bfd 	stp	x29, x30, [sp, #-32]!
    8af4:	910003fd 	mov	x29, sp
    8af8:	a90153f3 	stp	x19, x20, [sp, #16]
    8afc:	aa0003f3 	mov	x19, x0
    8b00:	d50320ff 	xpaclri
    8b04:	2a0103f4 	mov	w20, w1
    8b08:	aa1e03e0 	mov	x0, x30
    8b0c:	97ffef7d 	bl	4900 <_mcount@plt>
    8b10:	b9004e74 	str	w20, [x19, #76]
    8b14:	a94153f3 	ldp	x19, x20, [sp, #16]
    8b18:	a8c27bfd 	ldp	x29, x30, [sp], #32
    8b1c:	d65f03c0 	ret

0000000000008b20 <_ZN11vector_tile4Tile16default_instanceEv>:
    8b20:	a9bc7bfd 	stp	x29, x30, [sp, #-64]!
    8b24:	910003fd 	mov	x29, sp
    8b28:	a90153f3 	stp	x19, x20, [sp, #16]
    8b2c:	d50320ff 	xpaclri
    8b30:	aa1e03e0 	mov	x0, x30
    8b34:	97ffef73 	bl	4900 <_mcount@plt>
    8b38:	f0000213 	adrp	x19, 4b000 <__data_start>
    8b3c:	d0000201 	adrp	x1, 4a000 <_ZTVN11vector_tile10Tile_ValueE+0x10>
    8b40:	91010260 	add	x0, x19, #0x40
    8b44:	f946b821 	ldr	x1, [x1, #3440]
    8b48:	f9400022 	ldr	x2, [x1]
    8b4c:	f9001fe2 	str	x2, [sp, #56]
    8b50:	d2800002 	mov	x2, #0x0                   	// #0
    8b54:	91006001 	add	x1, x0, #0x18
    8b58:	c8dffc21 	ldar	x1, [x1]
    8b5c:	f100083f 	cmp	x1, #0x2
    8b60:	540001a1 	b.ne	8b94 <_ZN11vector_tile4Tile16default_instanceEv+0x74>  // b.any
    8b64:	d0000201 	adrp	x1, 4a000 <_ZTVN11vector_tile10Tile_ValueE+0x10>
    8b68:	91010273 	add	x19, x19, #0x40
    8b6c:	9106a260 	add	x0, x19, #0x1a8
    8b70:	f946b821 	ldr	x1, [x1, #3440]
    8b74:	f9401fe3 	ldr	x3, [sp, #56]
    8b78:	f9400022 	ldr	x2, [x1]
    8b7c:	eb020063 	subs	x3, x3, x2
    8b80:	d2800002 	mov	x2, #0x0                   	// #0
    8b84:	54000241 	b.ne	8bcc <_ZN11vector_tile4Tile16default_instanceEv+0xac>  // b.any
    8b88:	a94153f3 	ldp	x19, x20, [sp, #16]
    8b8c:	a8c47bfd 	ldp	x29, x30, [sp], #64
    8b90:	d65f03c0 	ret
    8b94:	d0000202 	adrp	x2, 4a000 <_ZTVN11vector_tile10Tile_ValueE+0x10>
    8b98:	b0000023 	adrp	x3, d000 <_ZN11vector_tile4TileD2Ev+0x60>
    8b9c:	91035063 	add	x3, x3, #0xd4
    8ba0:	910083f4 	add	x20, sp, #0x20
    8ba4:	f9471442 	ldr	x2, [x2, #3624]
    8ba8:	91006000 	add	x0, x0, #0x18
    8bac:	aa1403e1 	mov	x1, x20
    8bb0:	3900c3ff 	strb	wzr, [sp, #48]
    8bb4:	91004042 	add	x2, x2, #0x10
    8bb8:	a9020fe2 	stp	x2, x3, [sp, #32]
    8bbc:	94002751 	bl	12900 <_ZN6google8protobuf18GoogleOnceInitImplEPlPNS0_7ClosureE>
    8bc0:	aa1403e0 	mov	x0, x20
    8bc4:	94001f04 	bl	107d4 <_ZN6google8protobuf8internal16FunctionClosure0D1Ev>
    8bc8:	17ffffe7 	b	8b64 <_ZN11vector_tile4Tile16default_instanceEv+0x44>
    8bcc:	97ffef49 	bl	48f0 <__stack_chk_fail@plt>
    8bd0:	aa0003f3 	mov	x19, x0
    8bd4:	aa1403e0 	mov	x0, x20
    8bd8:	94001eff 	bl	107d4 <_ZN6google8protobuf8internal16FunctionClosure0D1Ev>
    8bdc:	aa1303e0 	mov	x0, x19
    8be0:	97fff048 	bl	4d00 <_Unwind_Resume@plt>

0000000000008be4 <_ZN11vector_tile10Tile_ValueC2Ev>:
    8be4:	a9bb7bfd 	stp	x29, x30, [sp, #-80]!
    8be8:	910003fd 	mov	x29, sp
    8bec:	a90153f3 	stp	x19, x20, [sp, #16]
    8bf0:	d50320ff 	xpaclri
    8bf4:	aa0003f3 	mov	x19, x0
    8bf8:	aa1e03e0 	mov	x0, x30
    8bfc:	97ffef41 	bl	4900 <_mcount@plt>
    8c00:	d0000201 	adrp	x1, 4a000 <_ZTVN11vector_tile10Tile_ValueE+0x10>
    8c04:	aa1303f4 	mov	x20, x19
    8c08:	d0000200 	adrp	x0, 4a000 <_ZTVN11vector_tile10Tile_ValueE+0x10>
    8c0c:	91000000 	add	x0, x0, #0x0
    8c10:	f946b821 	ldr	x1, [x1, #3440]
    8c14:	f9400022 	ldr	x2, [x1]
    8c18:	f90027e2 	str	x2, [sp, #72]
    8c1c:	d2800002 	mov	x2, #0x0                   	// #0
    8c20:	f8008680 	str	x0, [x20], #8
    8c24:	aa1403e0 	mov	x0, x20
    8c28:	94002eba 	bl	14710 <_ZN6google8protobuf8internal12ExtensionSetC1Ev>
    8c2c:	f900227f 	str	xzr, [x19, #64]
    8c30:	f0000201 	adrp	x1, 4b000 <__data_start>
    8c34:	91010020 	add	x0, x1, #0x40
    8c38:	91008002 	add	x2, x0, #0x20
    8c3c:	b9004a7f 	str	wzr, [x19, #72]
    8c40:	eb02027f 	cmp	x19, x2
    8c44:	54000080 	b.eq	8c54 <_ZN11vector_tile10Tile_ValueC2Ev+0x70>  // b.none
    8c48:	c8dffc01 	ldar	x1, [x0]
    8c4c:	f100083f 	cmp	x1, #0x2
    8c50:	54000241 	b.ne	8c98 <_ZN11vector_tile10Tile_ValueC2Ev+0xb4>  // b.any
    8c54:	d0000201 	adrp	x1, 4a000 <_ZTVN11vector_tile10Tile_ValueE+0x10>
    8c58:	d0000200 	adrp	x0, 4a000 <_ZTVN11vector_tile10Tile_ValueE+0x10>
    8c5c:	b9004e7f 	str	wzr, [x19, #76]
    8c60:	f946a421 	ldr	x1, [x1, #3400]
    8c64:	f9002a61 	str	x1, [x19, #80]
    8c68:	f946b800 	ldr	x0, [x0, #3440]
    8c6c:	a905fe7f 	stp	xzr, xzr, [x19, #88]
    8c70:	a906fe7f 	stp	xzr, xzr, [x19, #104]
    8c74:	f9003e7f 	str	xzr, [x19, #120]
    8c78:	f94027e2 	ldr	x2, [sp, #72]
    8c7c:	f9400001 	ldr	x1, [x0]
    8c80:	eb010042 	subs	x2, x2, x1
    8c84:	d2800001 	mov	x1, #0x0                   	// #0
    8c88:	54000261 	b.ne	8cd4 <_ZN11vector_tile10Tile_ValueC2Ev+0xf0>  // b.any
    8c8c:	a94153f3 	ldp	x19, x20, [sp, #16]
    8c90:	a8c57bfd 	ldp	x29, x30, [sp], #80
    8c94:	d65f03c0 	ret
    8c98:	d0000202 	adrp	x2, 4a000 <_ZTVN11vector_tile10Tile_ValueE+0x10>
    8c9c:	90000003 	adrp	x3, 8000 <_ZN11vector_tile12Tile_FeatureD1Ev+0xd0>
    8ca0:	91341063 	add	x3, x3, #0xd04
    8ca4:	f90013f5 	str	x21, [sp, #32]
    8ca8:	f9471442 	ldr	x2, [x2, #3624]
    8cac:	9100c3f5 	add	x21, sp, #0x30
    8cb0:	aa1503e1 	mov	x1, x21
    8cb4:	390103ff 	strb	wzr, [sp, #64]
    8cb8:	91004042 	add	x2, x2, #0x10
    8cbc:	a9030fe2 	stp	x2, x3, [sp, #48]
    8cc0:	94002710 	bl	12900 <_ZN6google8protobuf18GoogleOnceInitImplEPlPNS0_7ClosureE>
    8cc4:	aa1503e0 	mov	x0, x21
    8cc8:	94001ec3 	bl	107d4 <_ZN6google8protobuf8internal16FunctionClosure0D1Ev>
    8ccc:	f94013f5 	ldr	x21, [sp, #32]
    8cd0:	17ffffe1 	b	8c54 <_ZN11vector_tile10Tile_ValueC2Ev+0x70>
    8cd4:	f90013f5 	str	x21, [sp, #32]
    8cd8:	97ffef06 	bl	48f0 <__stack_chk_fail@plt>
    8cdc:	aa0003e1 	mov	x1, x0
    8ce0:	aa1503e0 	mov	x0, x21
    8ce4:	aa0103f5 	mov	x21, x1
    8ce8:	94001ebb 	bl	107d4 <_ZN6google8protobuf8internal16FunctionClosure0D1Ev>
    8cec:	91010260 	add	x0, x19, #0x40
    8cf0:	940013fc 	bl	dce0 <_ZN6google8protobuf8internal29InternalMetadataWithArenaBaseINSt7__cxx1112basic_stringIcSt11char_traitsIcESaIcEEENS1_29InternalMetadataWithArenaLiteEED1Ev>
    8cf4:	aa1403e0 	mov	x0, x20
    8cf8:	9400436a 	bl	19aa0 <_ZN6google8protobuf8internal12ExtensionSetD1Ev>
    8cfc:	aa1503e0 	mov	x0, x21
    8d00:	97fff000 	bl	4d00 <_Unwind_Resume@plt>

0000000000008d04 <_ZN30protobuf_vector_5ftile_2eproto26InitDefaultsTile_ValueImplEv>:
    8d04:	a9be7bfd 	stp	x29, x30, [sp, #-32]!
    8d08:	910003fd 	mov	x29, sp
    8d0c:	a90153f3 	stp	x19, x20, [sp, #16]
    8d10:	d50320ff 	xpaclri
    8d14:	aa1e03e0 	mov	x0, x30
    8d18:	97ffeefa 	bl	4900 <_mcount@plt>
    8d1c:	f0000213 	adrp	x19, 4b000 <__data_start>
    8d20:	b0000122 	adrp	x2, 2d000 <_ZN6google8protobuf13SStringPrintfEPNSt7__cxx1112basic_stringIcSt11char_traitsIcESaIcEEEPKcz+0x90>
    8d24:	529b4901 	mov	w1, #0xda48                	// #55880
    8d28:	91388042 	add	x2, x2, #0xe20
    8d2c:	529b4920 	mov	w0, #0xda49                	// #55881
    8d30:	72a005a1 	movk	w1, #0x2d, lsl #16
    8d34:	72a005a0 	movk	w0, #0x2d, lsl #16
    8d38:	9400201b 	bl	10da4 <_ZN6google8protobuf8internal13VerifyVersionEiiPKc>
    8d3c:	91010273 	add	x19, x19, #0x40
    8d40:	940059c8 	bl	1f460 <_ZN6google8protobuf8internal20InitProtobufDefaultsEv>
    8d44:	91008274 	add	x20, x19, #0x20
    8d48:	d0000201 	adrp	x1, 4a000 <_ZTVN11vector_tile10Tile_ValueE+0x10>
    8d4c:	91000021 	add	x1, x1, #0x0
    8d50:	9100a260 	add	x0, x19, #0x28
    8d54:	f9001261 	str	x1, [x19, #32]
    8d58:	94002e6e 	bl	14710 <_ZN6google8protobuf8internal12ExtensionSetC1Ev>
    8d5c:	a9067e7f 	stp	xzr, xzr, [x19, #96]
    8d60:	d0000201 	adrp	x1, 4a000 <_ZTVN11vector_tile10Tile_ValueE+0x10>
    8d64:	aa1403e0 	mov	x0, x20
    8d68:	a907fe7f 	stp	xzr, xzr, [x19, #120]
    8d6c:	f946a421 	ldr	x1, [x1, #3400]
    8d70:	f9003a61 	str	x1, [x19, #112]
    8d74:	a908fe7f 	stp	xzr, xzr, [x19, #136]
    8d78:	f9004e7f 	str	xzr, [x19, #152]
    8d7c:	a94153f3 	ldp	x19, x20, [sp, #16]
    8d80:	a8c27bfd 	ldp	x29, x30, [sp], #32
    8d84:	1400229b 	b	117f0 <_ZN6google8protobuf8internal24OnShutdownDestroyMessageEPKv>
    8d88:	d503201f 	nop
    8d8c:	d503201f 	nop

0000000000008d90 <_ZNK11vector_tile10Tile_Value3NewEPN6google8protobuf5ArenaE>:
    8d90:	a9bb7bfd 	stp	x29, x30, [sp, #-80]!
    8d94:	910003fd 	mov	x29, sp
    8d98:	a90153f3 	stp	x19, x20, [sp, #16]
    8d9c:	a9025bf5 	stp	x21, x22, [sp, #32]
    8da0:	d50320ff 	xpaclri
    8da4:	aa0103f4 	mov	x20, x1
    8da8:	aa1e03e0 	mov	x0, x30
    8dac:	97ffeed5 	bl	4900 <_mcount@plt>
    8db0:	d0000201 	adrp	x1, 4a000 <_ZTVN11vector_tile10Tile_ValueE+0x10>
    8db4:	d2801000 	mov	x0, #0x80                  	// #128
    8db8:	f946b821 	ldr	x1, [x1, #3440]
    8dbc:	f9400022 	ldr	x2, [x1]
    8dc0:	f90027e2 	str	x2, [sp, #72]
    8dc4:	d2800002 	mov	x2, #0x0                   	// #0
    8dc8:	97ffef4a 	bl	4af0 <_Znwm@plt>
    8dcc:	aa0003f5 	mov	x21, x0
    8dd0:	d0000201 	adrp	x1, 4a000 <_ZTVN11vector_tile10Tile_ValueE+0x10>
    8dd4:	91000021 	add	x1, x1, #0x0
    8dd8:	aa0003f3 	mov	x19, x0
    8ddc:	f80086a1 	str	x1, [x21], #8
    8de0:	aa1503e0 	mov	x0, x21
    8de4:	94002e4b 	bl	14710 <_ZN6google8protobuf8internal12ExtensionSetC1Ev>
    8de8:	f0000201 	adrp	x1, 4b000 <__data_start>
    8dec:	91010020 	add	x0, x1, #0x40
    8df0:	f900227f 	str	xzr, [x19, #64]
    8df4:	b9004a7f 	str	wzr, [x19, #72]
    8df8:	c8dffc01 	ldar	x1, [x0]
    8dfc:	f100083f 	cmp	x1, #0x2
    8e00:	54000301 	b.ne	8e60 <_ZNK11vector_tile10Tile_Value3NewEPN6google8protobuf5ArenaE+0xd0>  // b.any
    8e04:	d0000200 	adrp	x0, 4a000 <_ZTVN11vector_tile10Tile_ValueE+0x10>
    8e08:	b9004e7f 	str	wzr, [x19, #76]
    8e0c:	a905fe7f 	stp	xzr, xzr, [x19, #88]
    8e10:	f946a400 	ldr	x0, [x0, #3400]
    8e14:	f9002a60 	str	x0, [x19, #80]
    8e18:	a906fe7f 	stp	xzr, xzr, [x19, #104]
    8e1c:	f9003e7f 	str	xzr, [x19, #120]
    8e20:	b4000094 	cbz	x20, 8e30 <_ZNK11vector_tile10Tile_Value3NewEPN6google8protobuf5ArenaE+0xa0>
    8e24:	aa1403e0 	mov	x0, x20
    8e28:	aa1303e1 	mov	x1, x19
    8e2c:	9400141d 	bl	dea0 <_ZN6google8protobuf5Arena3OwnIN11vector_tile10Tile_ValueEEEvPT_>
    8e30:	d0000200 	adrp	x0, 4a000 <_ZTVN11vector_tile10Tile_ValueE+0x10>
    8e34:	f946b800 	ldr	x0, [x0, #3440]
    8e38:	f94027e2 	ldr	x2, [sp, #72]
    8e3c:	f9400001 	ldr	x1, [x0]
    8e40:	eb010042 	subs	x2, x2, x1
    8e44:	d2800001 	mov	x1, #0x0                   	// #0
    8e48:	54000261 	b.ne	8e94 <_ZNK11vector_tile10Tile_Value3NewEPN6google8protobuf5ArenaE+0x104>  // b.any
    8e4c:	aa1303e0 	mov	x0, x19
    8e50:	a94153f3 	ldp	x19, x20, [sp, #16]
    8e54:	a9425bf5 	ldp	x21, x22, [sp, #32]
    8e58:	a8c57bfd 	ldp	x29, x30, [sp], #80
    8e5c:	d65f03c0 	ret
    8e60:	d0000202 	adrp	x2, 4a000 <_ZTVN11vector_tile10Tile_ValueE+0x10>
    8e64:	90000003 	adrp	x3, 8000 <_ZN11vector_tile12Tile_FeatureD1Ev+0xd0>
    8e68:	91341063 	add	x3, x3, #0xd04
    8e6c:	9100c3f6 	add	x22, sp, #0x30
    8e70:	f9471442 	ldr	x2, [x2, #3624]
    8e74:	aa1603e1 	mov	x1, x22
    8e78:	390103ff 	strb	wzr, [sp, #64]
    8e7c:	91004042 	add	x2, x2, #0x10
    8e80:	a9030fe2 	stp	x2, x3, [sp, #48]
    8e84:	9400269f 	bl	12900 <_ZN6google8protobuf18GoogleOnceInitImplEPlPNS0_7ClosureE>
    8e88:	aa1603e0 	mov	x0, x22
    8e8c:	94001e52 	bl	107d4 <_ZN6google8protobuf8internal16FunctionClosure0D1Ev>
    8e90:	17ffffdd 	b	8e04 <_ZNK11vector_tile10Tile_Value3NewEPN6google8protobuf5ArenaE+0x74>
    8e94:	97ffee97 	bl	48f0 <__stack_chk_fail@plt>
    8e98:	aa0003f4 	mov	x20, x0
    8e9c:	14000008 	b	8ebc <_ZNK11vector_tile10Tile_Value3NewEPN6google8protobuf5ArenaE+0x12c>
    8ea0:	aa0003f4 	mov	x20, x0
    8ea4:	aa1603e0 	mov	x0, x22
    8ea8:	94001e4b 	bl	107d4 <_ZN6google8protobuf8internal16FunctionClosure0D1Ev>
    8eac:	91010260 	add	x0, x19, #0x40
    8eb0:	9400138c 	bl	dce0 <_ZN6google8protobuf8internal29InternalMetadataWithArenaBaseINSt7__cxx1112basic_stringIcSt11char_traitsIcESaIcEEENS1_29InternalMetadataWithArenaLiteEED1Ev>
    8eb4:	aa1503e0 	mov	x0, x21
    8eb8:	940042fa 	bl	19aa0 <_ZN6google8protobuf8internal12ExtensionSetD1Ev>
    8ebc:	d2801001 	mov	x1, #0x80                  	// #128
    8ec0:	aa1303e0 	mov	x0, x19
    8ec4:	97ffef0f 	bl	4b00 <_ZdlPvm@plt>
    8ec8:	aa1403e0 	mov	x0, x20
    8ecc:	97ffef8d 	bl	4d00 <_Unwind_Resume@plt>

0000000000008ed0 <_ZN11vector_tile12Tile_FeatureC2Ev>:
    8ed0:	a9bb7bfd 	stp	x29, x30, [sp, #-80]!
    8ed4:	910003fd 	mov	x29, sp
    8ed8:	a90153f3 	stp	x19, x20, [sp, #16]
    8edc:	a9025bf5 	stp	x21, x22, [sp, #32]
    8ee0:	d50320ff 	xpaclri
    8ee4:	aa0003f3 	mov	x19, x0
    8ee8:	aa1e03e0 	mov	x0, x30
    8eec:	97ffee85 	bl	4900 <_mcount@plt>
    8ef0:	d0000202 	adrp	x2, 4a000 <_ZTVN11vector_tile10Tile_ValueE+0x10>
    8ef4:	91006274 	add	x20, x19, #0x18
    8ef8:	9100c275 	add	x21, x19, #0x30
    8efc:	d0000201 	adrp	x1, 4a000 <_ZTVN11vector_tile10Tile_ValueE+0x10>
    8f00:	f946b842 	ldr	x2, [x2, #3440]
    8f04:	91028021 	add	x1, x1, #0xa0
    8f08:	f0000200 	adrp	x0, 4b000 <__data_start>
    8f0c:	91010000 	add	x0, x0, #0x40
    8f10:	f9400043 	ldr	x3, [x2]
    8f14:	f90027e3 	str	x3, [sp, #72]
    8f18:	d2800003 	mov	x3, #0x0                   	// #0
    8f1c:	a9007e61 	stp	x1, xzr, [x19]
    8f20:	91028001 	add	x1, x0, #0xa0
    8f24:	b900127f 	str	wzr, [x19, #16]
    8f28:	f9000e7f 	str	xzr, [x19, #24]
    8f2c:	f900069f 	str	xzr, [x20, #8]
    8f30:	f9001a7f 	str	xzr, [x19, #48]
    8f34:	f90006bf 	str	xzr, [x21, #8]
    8f38:	eb01027f 	cmp	x19, x1
    8f3c:	540000a0 	b.eq	8f50 <_ZN11vector_tile12Tile_FeatureC2Ev+0x80>  // b.none
    8f40:	91002001 	add	x1, x0, #0x8
    8f44:	c8dffc21 	ldar	x1, [x1]
    8f48:	f100083f 	cmp	x1, #0x2
    8f4c:	54000221 	b.ne	8f90 <_ZN11vector_tile12Tile_FeatureC2Ev+0xc0>  // b.any
    8f50:	d0000201 	adrp	x1, 4a000 <_ZTVN11vector_tile10Tile_ValueE+0x10>
    8f54:	d0000200 	adrp	x0, 4a000 <_ZTVN11vector_tile10Tile_ValueE+0x10>
    8f58:	b900167f 	str	wzr, [x19, #20]
    8f5c:	f946a421 	ldr	x1, [x1, #3400]
    8f60:	a904fe61 	stp	x1, xzr, [x19, #72]
    8f64:	f946b800 	ldr	x0, [x0, #3440]
    8f68:	b9005a7f 	str	wzr, [x19, #88]
    8f6c:	f94027e2 	ldr	x2, [sp, #72]
    8f70:	f9400001 	ldr	x1, [x0]
    8f74:	eb010042 	subs	x2, x2, x1
    8f78:	d2800001 	mov	x1, #0x0                   	// #0
    8f7c:	54000261 	b.ne	8fc8 <_ZN11vector_tile12Tile_FeatureC2Ev+0xf8>  // b.any
    8f80:	a94153f3 	ldp	x19, x20, [sp, #16]
    8f84:	a9425bf5 	ldp	x21, x22, [sp, #32]
    8f88:	a8c57bfd 	ldp	x29, x30, [sp], #80
    8f8c:	d65f03c0 	ret
    8f90:	d0000202 	adrp	x2, 4a000 <_ZTVN11vector_tile10Tile_ValueE+0x10>
    8f94:	b0000003 	adrp	x3, 9000 <_ZN30protobuf_vector_5ftile_2eproto28InitDefaultsTile_FeatureImplEv>
    8f98:	91000063 	add	x3, x3, #0x0
    8f9c:	9100c3f6 	add	x22, sp, #0x30
    8fa0:	f9471442 	ldr	x2, [x2, #3624]
    8fa4:	91002000 	add	x0, x0, #0x8
    8fa8:	aa1603e1 	mov	x1, x22
    8fac:	390103ff 	strb	wzr, [sp, #64]
    8fb0:	91004042 	add	x2, x2, #0x10
    8fb4:	a9030fe2 	stp	x2, x3, [sp, #48]
    8fb8:	94002652 	bl	12900 <_ZN6google8protobuf18GoogleOnceInitImplEPlPNS0_7ClosureE>
    8fbc:	aa1603e0 	mov	x0, x22
    8fc0:	94001e05 	bl	107d4 <_ZN6google8protobuf8internal16FunctionClosure0D1Ev>
    8fc4:	17ffffe3 	b	8f50 <_ZN11vector_tile12Tile_FeatureC2Ev+0x80>
    8fc8:	97ffee4a 	bl	48f0 <__stack_chk_fail@plt>
    8fcc:	aa0003e1 	mov	x1, x0
    8fd0:	aa1603e0 	mov	x0, x22
    8fd4:	aa0103f6 	mov	x22, x1
    8fd8:	94001dff 	bl	107d4 <_ZN6google8protobuf8internal16FunctionClosure0D1Ev>
    8fdc:	aa1503e0 	mov	x0, x21
    8fe0:	940013c4 	bl	def0 <_ZN6google8protobuf13RepeatedFieldIjED2Ev>
    8fe4:	aa1403e0 	mov	x0, x20
    8fe8:	940013c2 	bl	def0 <_ZN6google8protobuf13RepeatedFieldIjED2Ev>
    8fec:	91002260 	add	x0, x19, #0x8
    8ff0:	9400133c 	bl	dce0 <_ZN6google8protobuf8internal29InternalMetadataWithArenaBaseINSt7__cxx1112basic_stringIcSt11char_traitsIcESaIcEEENS1_29InternalMetadataWithArenaLiteEED1Ev>
    8ff4:	aa1603e0 	mov	x0, x22
    8ff8:	97ffef42 	bl	4d00 <_Unwind_Resume@plt>
    8ffc:	d503201f 	nop

0000000000009000 <_ZN30protobuf_vector_5ftile_2eproto28InitDefaultsTile_FeatureImplEv>:
    9000:	a9bf7bfd 	stp	x29, x30, [sp, #-16]!
    9004:	910003fd 	mov	x29, sp
    9008:	d50320ff 	xpaclri
    900c:	aa1e03e0 	mov	x0, x30
    9010:	97ffee3c 	bl	4900 <_mcount@plt>
    9014:	90000122 	adrp	x2, 2d000 <_ZN6google8protobuf13SStringPrintfEPNSt7__cxx1112basic_stringIcSt11char_traitsIcESaIcEEEPKcz+0x90>
    9018:	529b4901 	mov	w1, #0xda48                	// #55880
    901c:	91388042 	add	x2, x2, #0xe20
    9020:	529b4920 	mov	w0, #0xda49                	// #55881
    9024:	72a005a0 	movk	w0, #0x2d, lsl #16
    9028:	72a005a1 	movk	w1, #0x2d, lsl #16
    902c:	94001f5e 	bl	10da4 <_ZN6google8protobuf8internal13VerifyVersionEiiPKc>
    9030:	9400590c 	bl	1f460 <_ZN6google8protobuf8internal20InitProtobufDefaultsEv>
    9034:	d0000201 	adrp	x1, 4b000 <__data_start>
    9038:	91010021 	add	x1, x1, #0x40
    903c:	91028020 	add	x0, x1, #0xa0
    9040:	b0000202 	adrp	x2, 4a000 <_ZTVN11vector_tile10Tile_ValueE+0x10>
    9044:	b0000203 	adrp	x3, 4a000 <_ZTVN11vector_tile10Tile_ValueE+0x10>
    9048:	91028063 	add	x3, x3, #0xa0
    904c:	f946a442 	ldr	x2, [x2, #3400]
    9050:	a900fc1f 	stp	xzr, xzr, [x0, #8]
    9054:	a901fc1f 	stp	xzr, xzr, [x0, #24]
    9058:	f900181f 	str	xzr, [x0, #48]
    905c:	f9001c1f 	str	xzr, [x0, #56]
    9060:	f9002402 	str	x2, [x0, #72]
    9064:	f9005023 	str	x3, [x1, #160]
    9068:	f900783f 	str	xzr, [x1, #240]
    906c:	b900f83f 	str	wzr, [x1, #248]
    9070:	a8c17bfd 	ldp	x29, x30, [sp], #16
    9074:	140021df 	b	117f0 <_ZN6google8protobuf8internal24OnShutdownDestroyMessageEPKv>
    9078:	d503201f 	nop
    907c:	d503201f 	nop

0000000000009080 <_ZNK11vector_tile12Tile_Feature3NewEPN6google8protobuf5ArenaE>:
    9080:	a9ba7bfd 	stp	x29, x30, [sp, #-96]!
    9084:	910003fd 	mov	x29, sp
    9088:	a90153f3 	stp	x19, x20, [sp, #16]
    908c:	a9025bf5 	stp	x21, x22, [sp, #32]
    9090:	d50320ff 	xpaclri
    9094:	aa0103f4 	mov	x20, x1
    9098:	aa1e03e0 	mov	x0, x30
    909c:	97ffee19 	bl	4900 <_mcount@plt>
    90a0:	b0000201 	adrp	x1, 4a000 <_ZTVN11vector_tile10Tile_ValueE+0x10>
    90a4:	d2800c00 	mov	x0, #0x60                  	// #96
    90a8:	f946b821 	ldr	x1, [x1, #3440]
    90ac:	f9400022 	ldr	x2, [x1]
    90b0:	f9002fe2 	str	x2, [sp, #88]
    90b4:	d2800002 	mov	x2, #0x0                   	// #0
    90b8:	97ffee8e 	bl	4af0 <_Znwm@plt>
    90bc:	aa0003f3 	mov	x19, x0
    90c0:	91006015 	add	x21, x0, #0x18
    90c4:	9100c016 	add	x22, x0, #0x30
    90c8:	b0000201 	adrp	x1, 4a000 <_ZTVN11vector_tile10Tile_ValueE+0x10>
    90cc:	91028021 	add	x1, x1, #0xa0
    90d0:	a9007e61 	stp	x1, xzr, [x19]
    90d4:	d0000200 	adrp	x0, 4b000 <__data_start>
    90d8:	91010000 	add	x0, x0, #0x40
    90dc:	b900127f 	str	wzr, [x19, #16]
    90e0:	91002001 	add	x1, x0, #0x8
    90e4:	f9000e7f 	str	xzr, [x19, #24]
    90e8:	f90006bf 	str	xzr, [x21, #8]
    90ec:	f9001a7f 	str	xzr, [x19, #48]
    90f0:	f90006df 	str	xzr, [x22, #8]
    90f4:	c8dffc21 	ldar	x1, [x1]
    90f8:	f100083f 	cmp	x1, #0x2
    90fc:	540002c1 	b.ne	9154 <_ZNK11vector_tile12Tile_Feature3NewEPN6google8protobuf5ArenaE+0xd4>  // b.any
    9100:	b0000200 	adrp	x0, 4a000 <_ZTVN11vector_tile10Tile_ValueE+0x10>
    9104:	b900167f 	str	wzr, [x19, #20]
    9108:	b9005a7f 	str	wzr, [x19, #88]
    910c:	f946a400 	ldr	x0, [x0, #3400]
    9110:	a904fe60 	stp	x0, xzr, [x19, #72]
    9114:	b4000094 	cbz	x20, 9124 <_ZNK11vector_tile12Tile_Feature3NewEPN6google8protobuf5ArenaE+0xa4>
    9118:	aa1403e0 	mov	x0, x20
    911c:	aa1303e1 	mov	x1, x19
    9120:	940013d8 	bl	e080 <_ZN6google8protobuf5Arena3OwnIN11vector_tile12Tile_FeatureEEEvPT_>
    9124:	b0000200 	adrp	x0, 4a000 <_ZTVN11vector_tile10Tile_ValueE+0x10>
    9128:	f946b800 	ldr	x0, [x0, #3440]
    912c:	f9402fe2 	ldr	x2, [sp, #88]
    9130:	f9400001 	ldr	x1, [x0]
    9134:	eb010042 	subs	x2, x2, x1
    9138:	d2800001 	mov	x1, #0x0                   	// #0
    913c:	540002c1 	b.ne	9194 <_ZNK11vector_tile12Tile_Feature3NewEPN6google8protobuf5ArenaE+0x114>  // b.any
    9140:	aa1303e0 	mov	x0, x19
    9144:	a94153f3 	ldp	x19, x20, [sp, #16]
    9148:	a9425bf5 	ldp	x21, x22, [sp, #32]
    914c:	a8c67bfd 	ldp	x29, x30, [sp], #96
    9150:	d65f03c0 	ret
    9154:	b0000202 	adrp	x2, 4a000 <_ZTVN11vector_tile10Tile_ValueE+0x10>
    9158:	90000003 	adrp	x3, 9000 <_ZN30protobuf_vector_5ftile_2eproto28InitDefaultsTile_FeatureImplEv>
    915c:	91000063 	add	x3, x3, #0x0
    9160:	f9001bf7 	str	x23, [sp, #48]
    9164:	f9471442 	ldr	x2, [x2, #3624]
    9168:	910103f7 	add	x23, sp, #0x40
    916c:	91002000 	add	x0, x0, #0x8
    9170:	aa1703e1 	mov	x1, x23
    9174:	91004042 	add	x2, x2, #0x10
    9178:	a9040fe2 	stp	x2, x3, [sp, #64]
    917c:	390143ff 	strb	wzr, [sp, #80]
    9180:	940025e0 	bl	12900 <_ZN6google8protobuf18GoogleOnceInitImplEPlPNS0_7ClosureE>
    9184:	aa1703e0 	mov	x0, x23
    9188:	94001d93 	bl	107d4 <_ZN6google8protobuf8internal16FunctionClosure0D1Ev>
    918c:	f9401bf7 	ldr	x23, [sp, #48]
    9190:	17ffffdc 	b	9100 <_ZNK11vector_tile12Tile_Feature3NewEPN6google8protobuf5ArenaE+0x80>
    9194:	f9001bf7 	str	x23, [sp, #48]
    9198:	97ffedd6 	bl	48f0 <__stack_chk_fail@plt>
    919c:	aa0003f4 	mov	x20, x0
    91a0:	aa1703e0 	mov	x0, x23
    91a4:	94001d8c 	bl	107d4 <_ZN6google8protobuf8internal16FunctionClosure0D1Ev>
    91a8:	aa1603e0 	mov	x0, x22
    91ac:	94001351 	bl	def0 <_ZN6google8protobuf13RepeatedFieldIjED2Ev>
    91b0:	aa1503e0 	mov	x0, x21
    91b4:	9400134f 	bl	def0 <_ZN6google8protobuf13RepeatedFieldIjED2Ev>
    91b8:	91002260 	add	x0, x19, #0x8
    91bc:	940012c9 	bl	dce0 <_ZN6google8protobuf8internal29InternalMetadataWithArenaBaseINSt7__cxx1112basic_stringIcSt11char_traitsIcESaIcEEENS1_29InternalMetadataWithArenaLiteEED1Ev>
    91c0:	d2800c01 	mov	x1, #0x60                  	// #96
    91c4:	aa1303e0 	mov	x0, x19
    91c8:	97ffee4e 	bl	4b00 <_ZdlPvm@plt>
    91cc:	aa1403e0 	mov	x0, x20
    91d0:	97ffeecc 	bl	4d00 <_Unwind_Resume@plt>

00000000000091d4 <_ZN11vector_tile10Tile_Layer12InternalSwapEPS0_>:
    91d4:	a9bd7bfd 	stp	x29, x30, [sp, #-48]!
    91d8:	910003fd 	mov	x29, sp
    91dc:	a90153f3 	stp	x19, x20, [sp, #16]
    91e0:	aa0103f4 	mov	x20, x1
    91e4:	d50320ff 	xpaclri
    91e8:	aa0003f3 	mov	x19, x0
    91ec:	aa1e03e0 	mov	x0, x30
    91f0:	97ffedc4 	bl	4900 <_mcount@plt>
    91f4:	f9403281 	ldr	x1, [x20, #96]
    91f8:	f9403260 	ldr	x0, [x19, #96]
    91fc:	f9003261 	str	x1, [x19, #96]
    9200:	b9405a81 	ldr	w1, [x20, #88]
    9204:	f9003280 	str	x0, [x20, #96]
    9208:	b9405a60 	ldr	w0, [x19, #88]
    920c:	b9005a61 	str	w1, [x19, #88]
    9210:	b9005a80 	str	w0, [x20, #88]
    9214:	b9405e81 	ldr	w1, [x20, #92]
    9218:	b9405e60 	ldr	w0, [x19, #92]
    921c:	b9005e61 	str	w1, [x19, #92]
    9220:	b9005e80 	str	w0, [x20, #92]
    9224:	f9403e81 	ldr	x1, [x20, #120]
    9228:	f9403e60 	ldr	x0, [x19, #120]
    922c:	f9003e61 	str	x1, [x19, #120]
    9230:	b9407281 	ldr	w1, [x20, #112]
    9234:	f9003e80 	str	x0, [x20, #120]
    9238:	b9407260 	ldr	w0, [x19, #112]
    923c:	b9007261 	str	w1, [x19, #112]
    9240:	b9007280 	str	w0, [x20, #112]
    9244:	b9407681 	ldr	w1, [x20, #116]
    9248:	b9407660 	ldr	w0, [x19, #116]
    924c:	b9007661 	str	w1, [x19, #116]
    9250:	b9007680 	str	w0, [x20, #116]
    9254:	f9404a81 	ldr	x1, [x20, #144]
    9258:	f9404a60 	ldr	x0, [x19, #144]
    925c:	f9004a61 	str	x1, [x19, #144]
    9260:	b9408a81 	ldr	w1, [x20, #136]
    9264:	f9004a80 	str	x0, [x20, #144]
    9268:	b9408a60 	ldr	w0, [x19, #136]
    926c:	b9008a61 	str	w1, [x19, #136]
    9270:	b9008a80 	str	w0, [x20, #136]
    9274:	b9408e60 	ldr	w0, [x19, #140]
    9278:	b9408e81 	ldr	w1, [x20, #140]
    927c:	b9008e61 	str	w1, [x19, #140]
    9280:	b9008e80 	str	w0, [x20, #140]
    9284:	f9404e81 	ldr	x1, [x20, #152]
    9288:	f9404e60 	ldr	x0, [x19, #152]
    928c:	f9004e61 	str	x1, [x19, #152]
    9290:	b940a281 	ldr	w1, [x20, #160]
    9294:	f9004e80 	str	x0, [x20, #152]
    9298:	b940a260 	ldr	w0, [x19, #160]
    929c:	b900a261 	str	w1, [x19, #160]
    92a0:	f9402262 	ldr	x2, [x19, #64]
    92a4:	b900a280 	str	w0, [x20, #160]
    92a8:	b940a681 	ldr	w1, [x20, #164]
    92ac:	b940a660 	ldr	w0, [x19, #164]
    92b0:	b900a661 	str	w1, [x19, #164]
    92b4:	b900a680 	str	w0, [x20, #164]
    92b8:	b9404a81 	ldr	w1, [x20, #72]
    92bc:	b9404a60 	ldr	w0, [x19, #72]
    92c0:	b9004a61 	str	w1, [x19, #72]
    92c4:	b9004a80 	str	w0, [x20, #72]
    92c8:	f9402281 	ldr	x1, [x20, #64]
    92cc:	360001e2 	tbz	w2, #0, 9308 <_ZN11vector_tile10Tile_Layer12InternalSwapEPS0_+0x134>
    92d0:	36000221 	tbz	w1, #0, 9314 <_ZN11vector_tile10Tile_Layer12InternalSwapEPS0_+0x140>
    92d4:	927ff821 	and	x1, x1, #0xfffffffffffffffe
    92d8:	36000282 	tbz	w2, #0, 9328 <_ZN11vector_tile10Tile_Layer12InternalSwapEPS0_+0x154>
    92dc:	927ff840 	and	x0, x2, #0xfffffffffffffffe
    92e0:	97ffeddc 	bl	4a50 <_ZNSt7__cxx1112basic_stringIcSt11char_traitsIcESaIcEE4swapERS4_@plt>
    92e4:	b9404e83 	ldr	w3, [x20, #76]
    92e8:	91002281 	add	x1, x20, #0x8
    92ec:	b9404e62 	ldr	w2, [x19, #76]
    92f0:	91002260 	add	x0, x19, #0x8
    92f4:	b9004e63 	str	w3, [x19, #76]
    92f8:	b9004e82 	str	w2, [x20, #76]
    92fc:	a94153f3 	ldp	x19, x20, [sp, #16]
    9300:	a8c37bfd 	ldp	x29, x30, [sp], #48
    9304:	14004ca3 	b	1c590 <_ZN6google8protobuf8internal12ExtensionSet4SwapEPS2_>
    9308:	3607fee1 	tbz	w1, #0, 92e4 <_ZN11vector_tile10Tile_Layer12InternalSwapEPS0_+0x110>
    930c:	927ff821 	and	x1, x1, #0xfffffffffffffffe
    9310:	17fffff2 	b	92d8 <_ZN11vector_tile10Tile_Layer12InternalSwapEPS0_+0x104>
    9314:	91010280 	add	x0, x20, #0x40
    9318:	94001396 	bl	e170 <_ZN6google8protobuf8internal29InternalMetadataWithArenaBaseINSt7__cxx1112basic_stringIcSt11char_traitsIcESaIcEEENS1_29InternalMetadataWithArenaLiteEE27mutable_unknown_fields_slowEv>
    931c:	aa0003e1 	mov	x1, x0
    9320:	f9402262 	ldr	x2, [x19, #64]
    9324:	17ffffed 	b	92d8 <_ZN11vector_tile10Tile_Layer12InternalSwapEPS0_+0x104>
    9328:	91010260 	add	x0, x19, #0x40
    932c:	f90017e1 	str	x1, [sp, #40]
    9330:	94001390 	bl	e170 <_ZN6google8protobuf8internal29InternalMetadataWithArenaBaseINSt7__cxx1112basic_stringIcSt11char_traitsIcESaIcEEENS1_29InternalMetadataWithArenaLiteEE27mutable_unknown_fields_slowEv>
    9334:	f94017e1 	ldr	x1, [sp, #40]
    9338:	17ffffea 	b	92e0 <_ZN11vector_tile10Tile_Layer12InternalSwapEPS0_+0x10c>
    933c:	d503201f 	nop

0000000000009340 <_ZN11vector_tile4Tile12InternalSwapEPS0_>:
    9340:	a9bd7bfd 	stp	x29, x30, [sp, #-48]!
    9344:	910003fd 	mov	x29, sp
    9348:	a90153f3 	stp	x19, x20, [sp, #16]
    934c:	aa0103f4 	mov	x20, x1
    9350:	d50320ff 	xpaclri
    9354:	aa0003f3 	mov	x19, x0
    9358:	aa1e03e0 	mov	x0, x30
    935c:	97ffed69 	bl	4900 <_mcount@plt>
    9360:	f9403281 	ldr	x1, [x20, #96]
    9364:	f9403260 	ldr	x0, [x19, #96]
    9368:	f9003261 	str	x1, [x19, #96]
    936c:	b9405a81 	ldr	w1, [x20, #88]
    9370:	f9003280 	str	x0, [x20, #96]
    9374:	b9405a60 	ldr	w0, [x19, #88]
    9378:	b9005a61 	str	w1, [x19, #88]
    937c:	f9402262 	ldr	x2, [x19, #64]
    9380:	b9005a80 	str	w0, [x20, #88]
    9384:	b9405e81 	ldr	w1, [x20, #92]
    9388:	b9405e60 	ldr	w0, [x19, #92]
    938c:	b9005e61 	str	w1, [x19, #92]
    9390:	b9005e80 	str	w0, [x20, #92]
    9394:	b9404a81 	ldr	w1, [x20, #72]
    9398:	b9404a60 	ldr	w0, [x19, #72]
    939c:	b9004a61 	str	w1, [x19, #72]
    93a0:	b9004a80 	str	w0, [x20, #72]
    93a4:	f9402281 	ldr	x1, [x20, #64]
    93a8:	360001e2 	tbz	w2, #0, 93e4 <_ZN11vector_tile4Tile12InternalSwapEPS0_+0xa4>
    93ac:	36000221 	tbz	w1, #0, 93f0 <_ZN11vector_tile4Tile12InternalSwapEPS0_+0xb0>
    93b0:	927ff821 	and	x1, x1, #0xfffffffffffffffe
    93b4:	36000282 	tbz	w2, #0, 9404 <_ZN11vector_tile4Tile12InternalSwapEPS0_+0xc4>
    93b8:	927ff840 	and	x0, x2, #0xfffffffffffffffe
    93bc:	97ffeda5 	bl	4a50 <_ZNSt7__cxx1112basic_stringIcSt11char_traitsIcESaIcEE4swapERS4_@plt>
    93c0:	b9404e83 	ldr	w3, [x20, #76]
    93c4:	91002281 	add	x1, x20, #0x8
    93c8:	b9404e62 	ldr	w2, [x19, #76]
    93cc:	91002260 	add	x0, x19, #0x8
    93d0:	b9004e63 	str	w3, [x19, #76]
    93d4:	b9004e82 	str	w2, [x20, #76]
    93d8:	a94153f3 	ldp	x19, x20, [sp, #16]
    93dc:	a8c37bfd 	ldp	x29, x30, [sp], #48
    93e0:	14004c6c 	b	1c590 <_ZN6google8protobuf8internal12ExtensionSet4SwapEPS2_>
    93e4:	3607fee1 	tbz	w1, #0, 93c0 <_ZN11vector_tile4Tile12InternalSwapEPS0_+0x80>
    93e8:	927ff821 	and	x1, x1, #0xfffffffffffffffe
    93ec:	17fffff2 	b	93b4 <_ZN11vector_tile4Tile12InternalSwapEPS0_+0x74>
    93f0:	91010280 	add	x0, x20, #0x40
    93f4:	9400135f 	bl	e170 <_ZN6google8protobuf8internal29InternalMetadataWithArenaBaseINSt7__cxx1112basic_stringIcSt11char_traitsIcESaIcEEENS1_29InternalMetadataWithArenaLiteEE27mutable_unknown_fields_slowEv>
    93f8:	aa0003e1 	mov	x1, x0
    93fc:	f9402262 	ldr	x2, [x19, #64]
    9400:	17ffffed 	b	93b4 <_ZN11vector_tile4Tile12InternalSwapEPS0_+0x74>
    9404:	91010260 	add	x0, x19, #0x40
    9408:	f90017e1 	str	x1, [sp, #40]
