
vtile-edit:     file format elf64-littleaarch64


Disassembly of section .init:

0000000000004800 <_init>:
    4800:	d503201f 	nop
    4804:	a9bf7bfd 	stp	x29, x30, [sp, #-16]!
    4808:	910003fd 	mov	x29, sp
    480c:	94000632 	bl	60d4 <call_weak_fn>
    4810:	a8c17bfd 	ldp	x29, x30, [sp], #16
    4814:	d65f03c0 	ret

Disassembly of section .plt:

0000000000004820 <.plt>:
    4820:	a9bf7bf0 	stp	x16, x30, [sp, #-16]!
    4824:	d0000230 	adrp	x16, 4a000 <_ZTVN11vector_tile10Tile_ValueE+0x30>
    4828:	f9451a11 	ldr	x17, [x16, #2608]
    482c:	9128c210 	add	x16, x16, #0xa30
    4830:	d61f0220 	br	x17
    4834:	d503201f 	nop
    4838:	d503201f 	nop
    483c:	d503201f 	nop

0000000000004840 <_Znam@plt>:
    4840:	d0000230 	adrp	x16, 4a000 <_ZTVN11vector_tile10Tile_ValueE+0x30>
    4844:	f9451e11 	ldr	x17, [x16, #2616]
    4848:	9128e210 	add	x16, x16, #0xa38
    484c:	d61f0220 	br	x17

0000000000004850 <_ZNSo3putEc@plt>:
    4850:	d0000230 	adrp	x16, 4a000 <_ZTVN11vector_tile10Tile_ValueE+0x30>
    4854:	f9452211 	ldr	x17, [x16, #2624]
    4858:	91290210 	add	x16, x16, #0xa40
    485c:	d61f0220 	br	x17

0000000000004860 <memcpy@plt>:
    4860:	d0000230 	adrp	x16, 4a000 <_ZTVN11vector_tile10Tile_ValueE+0x30>
    4864:	f9452611 	ldr	x17, [x16, #2632]
    4868:	91292210 	add	x16, x16, #0xa48
    486c:	d61f0220 	br	x17

0000000000004870 <deflateInit2_@plt>:
    4870:	d0000230 	adrp	x16, 4a000 <_ZTVN11vector_tile10Tile_ValueE+0x30>
    4874:	f9452a11 	ldr	x17, [x16, #2640]
    4878:	91294210 	add	x16, x16, #0xa50
    487c:	d61f0220 	br	x17

0000000000004880 <fread@plt>:
    4880:	d0000230 	adrp	x16, 4a000 <_ZTVN11vector_tile10Tile_ValueE+0x30>
    4884:	f9452e11 	ldr	x17, [x16, #2648]
    4888:	91296210 	add	x16, x16, #0xa58
    488c:	d61f0220 	br	x17

0000000000004890 <_ZSt29_Rb_tree_insert_and_rebalancebPSt18_Rb_tree_node_baseS0_RS_@plt>:
    4890:	d0000230 	adrp	x16, 4a000 <_ZTVN11vector_tile10Tile_ValueE+0x30>
    4894:	f9453211 	ldr	x17, [x16, #2656]
    4898:	91298210 	add	x16, x16, #0xa60
    489c:	d61f0220 	br	x17

00000000000048a0 <_ZNSt7__cxx1119basic_ostringstreamIcSt11char_traitsIcESaIcEED1Ev@plt>:
    48a0:	d0000230 	adrp	x16, 4a000 <_ZTVN11vector_tile10Tile_ValueE+0x30>
    48a4:	f9453611 	ldr	x17, [x16, #2664]
    48a8:	9129a210 	add	x16, x16, #0xa68
    48ac:	d61f0220 	br	x17

00000000000048b0 <_ZNKSt7__cxx1112basic_stringIcSt11char_traitsIcESaIcEE7compareEPKc@plt>:
    48b0:	d0000230 	adrp	x16, 4a000 <_ZTVN11vector_tile10Tile_ValueE+0x30>
    48b4:	f9453a11 	ldr	x17, [x16, #2672]
    48b8:	9129c210 	add	x16, x16, #0xa70
    48bc:	d61f0220 	br	x17

00000000000048c0 <_ZNSt8ios_baseC2Ev@plt>:
    48c0:	d0000230 	adrp	x16, 4a000 <_ZTVN11vector_tile10Tile_ValueE+0x30>
    48c4:	f9453e11 	ldr	x17, [x16, #2680]
    48c8:	9129e210 	add	x16, x16, #0xa78
    48cc:	d61f0220 	br	x17

00000000000048d0 <pthread_mutex_lock@plt>:
    48d0:	d0000230 	adrp	x16, 4a000 <_ZTVN11vector_tile10Tile_ValueE+0x30>
    48d4:	f9454211 	ldr	x17, [x16, #2688]
    48d8:	912a0210 	add	x16, x16, #0xa80
    48dc:	d61f0220 	br	x17

00000000000048e0 <_ZNSt7__cxx1112basic_stringIcSt11char_traitsIcESaIcEE6resizeEmc@plt>:
    48e0:	d0000230 	adrp	x16, 4a000 <_ZTVN11vector_tile10Tile_ValueE+0x30>
    48e4:	f9454611 	ldr	x17, [x16, #2696]
    48e8:	912a2210 	add	x16, x16, #0xa88
    48ec:	d61f0220 	br	x17

00000000000048f0 <strlen@plt>:
    48f0:	d0000230 	adrp	x16, 4a000 <_ZTVN11vector_tile10Tile_ValueE+0x30>
    48f4:	f9454a11 	ldr	x17, [x16, #2704]
    48f8:	912a4210 	add	x16, x16, #0xa90
    48fc:	d61f0220 	br	x17

0000000000004900 <_ZNSt7__cxx1112basic_stringIcSt11char_traitsIcESaIcEE9_M_appendEPKcm@plt>:
    4900:	d0000230 	adrp	x16, 4a000 <_ZTVN11vector_tile10Tile_ValueE+0x30>
    4904:	f9454e11 	ldr	x17, [x16, #2712]
    4908:	912a6210 	add	x16, x16, #0xa98
    490c:	d61f0220 	br	x17

0000000000004910 <_ZNSt8ios_baseD2Ev@plt>:
    4910:	d0000230 	adrp	x16, 4a000 <_ZTVN11vector_tile10Tile_ValueE+0x30>
    4914:	f9455211 	ldr	x17, [x16, #2720]
    4918:	912a8210 	add	x16, x16, #0xaa0
    491c:	d61f0220 	br	x17

0000000000004920 <__stack_chk_fail@plt>:
    4920:	d0000230 	adrp	x16, 4a000 <_ZTVN11vector_tile10Tile_ValueE+0x30>
    4924:	f9455611 	ldr	x17, [x16, #2728]
    4928:	912aa210 	add	x16, x16, #0xaa8
    492c:	d61f0220 	br	x17

0000000000004930 <ftell@plt>:
    4930:	d0000230 	adrp	x16, 4a000 <_ZTVN11vector_tile10Tile_ValueE+0x30>
    4934:	f9455a11 	ldr	x17, [x16, #2736]
    4938:	912ac210 	add	x16, x16, #0xab0
    493c:	d61f0220 	br	x17

0000000000004940 <_mcount@plt>:
    4940:	d0000230 	adrp	x16, 4a000 <_ZTVN11vector_tile10Tile_ValueE+0x30>
    4944:	f9455e11 	ldr	x17, [x16, #2744]
    4948:	912ae210 	add	x16, x16, #0xab8
    494c:	d61f0220 	br	x17

0000000000004950 <_ZSt17__throw_bad_allocv@plt>:
    4950:	d0000230 	adrp	x16, 4a000 <_ZTVN11vector_tile10Tile_ValueE+0x30>
    4954:	f9456211 	ldr	x17, [x16, #2752]
    4958:	912b0210 	add	x16, x16, #0xac0
    495c:	d61f0220 	br	x17

0000000000004960 <_ZNSt13runtime_errorC1EPKc@plt>:
    4960:	d0000230 	adrp	x16, 4a000 <_ZTVN11vector_tile10Tile_ValueE+0x30>
    4964:	f9456611 	ldr	x17, [x16, #2760]
    4968:	912b2210 	add	x16, x16, #0xac8
    496c:	d61f0220 	br	x17

0000000000004970 <__cxa_begin_catch@plt>:
    4970:	d0000230 	adrp	x16, 4a000 <_ZTVN11vector_tile10Tile_ValueE+0x30>
    4974:	f9456a11 	ldr	x17, [x16, #2768]
    4978:	912b4210 	add	x16, x16, #0xad0
    497c:	d61f0220 	br	x17

0000000000004980 <deflate@plt>:
    4980:	d0000230 	adrp	x16, 4a000 <_ZTVN11vector_tile10Tile_ValueE+0x30>
    4984:	f9456e11 	ldr	x17, [x16, #2776]
    4988:	912b6210 	add	x16, x16, #0xad8
    498c:	d61f0220 	br	x17

0000000000004990 <__cxa_allocate_exception@plt>:
    4990:	d0000230 	adrp	x16, 4a000 <_ZTVN11vector_tile10Tile_ValueE+0x30>
    4994:	f9457211 	ldr	x17, [x16, #2784]
    4998:	912b8210 	add	x16, x16, #0xae0
    499c:	d61f0220 	br	x17

00000000000049a0 <memcmp@plt>:
    49a0:	d0000230 	adrp	x16, 4a000 <_ZTVN11vector_tile10Tile_ValueE+0x30>
    49a4:	f9457611 	ldr	x17, [x16, #2792]
    49a8:	912ba210 	add	x16, x16, #0xae8
    49ac:	d61f0220 	br	x17

00000000000049b0 <strtol@plt>:
    49b0:	d0000230 	adrp	x16, 4a000 <_ZTVN11vector_tile10Tile_ValueE+0x30>
    49b4:	f9457a11 	ldr	x17, [x16, #2800]
    49b8:	912bc210 	add	x16, x16, #0xaf0
    49bc:	d61f0220 	br	x17

00000000000049c0 <_ZSt20__throw_length_errorPKc@plt>:
    49c0:	d0000230 	adrp	x16, 4a000 <_ZTVN11vector_tile10Tile_ValueE+0x30>
    49c4:	f9457e11 	ldr	x17, [x16, #2808]
    49c8:	912be210 	add	x16, x16, #0xaf8
    49cc:	d61f0220 	br	x17

00000000000049d0 <_ZNSt7__cxx1112basic_stringIcSt11char_traitsIcESaIcEE9_M_assignERKS4_@plt>:
    49d0:	d0000230 	adrp	x16, 4a000 <_ZTVN11vector_tile10Tile_ValueE+0x30>
    49d4:	f9458211 	ldr	x17, [x16, #2816]
    49d8:	912c0210 	add	x16, x16, #0xb00
    49dc:	d61f0220 	br	x17

00000000000049e0 <memset@plt>:
    49e0:	d0000230 	adrp	x16, 4a000 <_ZTVN11vector_tile10Tile_ValueE+0x30>
    49e4:	f9458611 	ldr	x17, [x16, #2824]
    49e8:	912c2210 	add	x16, x16, #0xb08
    49ec:	d61f0220 	br	x17

00000000000049f0 <pthread_mutex_unlock@plt>:
    49f0:	d0000230 	adrp	x16, 4a000 <_ZTVN11vector_tile10Tile_ValueE+0x30>
    49f4:	f9458a11 	ldr	x17, [x16, #2832]
    49f8:	912c4210 	add	x16, x16, #0xb10
    49fc:	d61f0220 	br	x17

0000000000004a00 <__fprintf_chk@plt>:
    4a00:	d0000230 	adrp	x16, 4a000 <_ZTVN11vector_tile10Tile_ValueE+0x30>
    4a04:	f9458e11 	ldr	x17, [x16, #2840]
    4a08:	912c6210 	add	x16, x16, #0xb18
    4a0c:	d61f0220 	br	x17

0000000000004a10 <__cxa_finalize@plt>:
    4a10:	d0000230 	adrp	x16, 4a000 <_ZTVN11vector_tile10Tile_ValueE+0x30>
    4a14:	f9459211 	ldr	x17, [x16, #2848]
    4a18:	912c8210 	add	x16, x16, #0xb20
    4a1c:	d61f0220 	br	x17

0000000000004a20 <deflateEnd@plt>:
    4a20:	d0000230 	adrp	x16, 4a000 <_ZTVN11vector_tile10Tile_ValueE+0x30>
    4a24:	f9459611 	ldr	x17, [x16, #2856]
    4a28:	912ca210 	add	x16, x16, #0xb28
    4a2c:	d61f0220 	br	x17

0000000000004a30 <__snprintf_chk@plt>:
    4a30:	d0000230 	adrp	x16, 4a000 <_ZTVN11vector_tile10Tile_ValueE+0x30>
    4a34:	f9459a11 	ldr	x17, [x16, #2864]
    4a38:	912cc210 	add	x16, x16, #0xb30
    4a3c:	d61f0220 	br	x17

0000000000004a40 <_ZSt28_Rb_tree_rebalance_for_erasePSt18_Rb_tree_node_baseRS_@plt>:
    4a40:	d0000230 	adrp	x16, 4a000 <_ZTVN11vector_tile10Tile_ValueE+0x30>
    4a44:	f9459e11 	ldr	x17, [x16, #2872]
    4a48:	912ce210 	add	x16, x16, #0xb38
    4a4c:	d61f0220 	br	x17

0000000000004a50 <_ZSt24__throw_invalid_argumentPKc@plt>:
    4a50:	d0000230 	adrp	x16, 4a000 <_ZTVN11vector_tile10Tile_ValueE+0x30>
    4a54:	f945a211 	ldr	x17, [x16, #2880]
    4a58:	912d0210 	add	x16, x16, #0xb40
    4a5c:	d61f0220 	br	x17

0000000000004a60 <_ZNSt7__cxx1112basic_stringIcSt11char_traitsIcESaIcEED1Ev@plt>:
    4a60:	d0000230 	adrp	x16, 4a000 <_ZTVN11vector_tile10Tile_ValueE+0x30>
    4a64:	f945a611 	ldr	x17, [x16, #2888]
    4a68:	912d2210 	add	x16, x16, #0xb48
    4a6c:	d61f0220 	br	x17

0000000000004a70 <pthread_mutex_init@plt>:
    4a70:	d0000230 	adrp	x16, 4a000 <_ZTVN11vector_tile10Tile_ValueE+0x30>
    4a74:	f945aa11 	ldr	x17, [x16, #2896]
    4a78:	912d4210 	add	x16, x16, #0xb50
    4a7c:	d61f0220 	br	x17

0000000000004a80 <_ZNSo9_M_insertImEERSoT_@plt>:
    4a80:	d0000230 	adrp	x16, 4a000 <_ZTVN11vector_tile10Tile_ValueE+0x30>
    4a84:	f945ae11 	ldr	x17, [x16, #2904]
    4a88:	912d6210 	add	x16, x16, #0xb58
    4a8c:	d61f0220 	br	x17

0000000000004a90 <_ZNSo5flushEv@plt>:
    4a90:	d0000230 	adrp	x16, 4a000 <_ZTVN11vector_tile10Tile_ValueE+0x30>
    4a94:	f945b211 	ldr	x17, [x16, #2912]
    4a98:	912d8210 	add	x16, x16, #0xb60
    4a9c:	d61f0220 	br	x17

0000000000004aa0 <_ZSt18_Rb_tree_incrementPSt18_Rb_tree_node_base@plt>:
    4aa0:	d0000230 	adrp	x16, 4a000 <_ZTVN11vector_tile10Tile_ValueE+0x30>
    4aa4:	f945b611 	ldr	x17, [x16, #2920]
    4aa8:	912da210 	add	x16, x16, #0xb68
    4aac:	d61f0220 	br	x17

0000000000004ab0 <strerror@plt>:
    4ab0:	d0000230 	adrp	x16, 4a000 <_ZTVN11vector_tile10Tile_ValueE+0x30>
    4ab4:	f945ba11 	ldr	x17, [x16, #2928]
    4ab8:	912dc210 	add	x16, x16, #0xb70
    4abc:	d61f0220 	br	x17

0000000000004ac0 <_ZNKSt8__detail20_Prime_rehash_policy11_M_next_bktEm@plt>:
    4ac0:	d0000230 	adrp	x16, 4a000 <_ZTVN11vector_tile10Tile_ValueE+0x30>
    4ac4:	f945be11 	ldr	x17, [x16, #2936]
    4ac8:	912de210 	add	x16, x16, #0xb78
    4acc:	d61f0220 	br	x17

0000000000004ad0 <_ZSt19__throw_logic_errorPKc@plt>:
    4ad0:	d0000230 	adrp	x16, 4a000 <_ZTVN11vector_tile10Tile_ValueE+0x30>
    4ad4:	f945c211 	ldr	x17, [x16, #2944]
    4ad8:	912e0210 	add	x16, x16, #0xb80
    4adc:	d61f0220 	br	x17

0000000000004ae0 <_ZNSt7__cxx1112basic_stringIcSt11char_traitsIcESaIcEE4swapERS4_@plt>:
    4ae0:	d0000230 	adrp	x16, 4a000 <_ZTVN11vector_tile10Tile_ValueE+0x30>
    4ae4:	f945c611 	ldr	x17, [x16, #2952]
    4ae8:	912e2210 	add	x16, x16, #0xb88
    4aec:	d61f0220 	br	x17

0000000000004af0 <__cxa_free_exception@plt>:
    4af0:	d0000230 	adrp	x16, 4a000 <_ZTVN11vector_tile10Tile_ValueE+0x30>
    4af4:	f945ca11 	ldr	x17, [x16, #2960]
    4af8:	912e4210 	add	x16, x16, #0xb90
    4afc:	d61f0220 	br	x17

0000000000004b00 <__libc_start_main@plt>:
    4b00:	d0000230 	adrp	x16, 4a000 <_ZTVN11vector_tile10Tile_ValueE+0x30>
    4b04:	f945ce11 	ldr	x17, [x16, #2968]
    4b08:	912e6210 	add	x16, x16, #0xb98
    4b0c:	d61f0220 	br	x17

0000000000004b10 <_ZSt28__throw_bad_array_new_lengthv@plt>:
    4b10:	d0000230 	adrp	x16, 4a000 <_ZTVN11vector_tile10Tile_ValueE+0x30>
    4b14:	f945d211 	ldr	x17, [x16, #2976]
    4b18:	912e8210 	add	x16, x16, #0xba0
    4b1c:	d61f0220 	br	x17

0000000000004b20 <inflate@plt>:
    4b20:	d0000230 	adrp	x16, 4a000 <_ZTVN11vector_tile10Tile_ValueE+0x30>
    4b24:	f945d611 	ldr	x17, [x16, #2984]
    4b28:	912ea210 	add	x16, x16, #0xba8
    4b2c:	d61f0220 	br	x17

0000000000004b30 <inflateInit2_@plt>:
    4b30:	d0000230 	adrp	x16, 4a000 <_ZTVN11vector_tile10Tile_ValueE+0x30>
    4b34:	f945da11 	ldr	x17, [x16, #2992]
    4b38:	912ec210 	add	x16, x16, #0xbb0
    4b3c:	d61f0220 	br	x17

0000000000004b40 <_ZdlPv@plt>:
    4b40:	d0000230 	adrp	x16, 4a000 <_ZTVN11vector_tile10Tile_ValueE+0x30>
    4b44:	f945de11 	ldr	x17, [x16, #3000]
    4b48:	912ee210 	add	x16, x16, #0xbb8
    4b4c:	d61f0220 	br	x17

0000000000004b50 <_ZStlsISt11char_traitsIcEERSt13basic_ostreamIcT_ES5_PKc@plt>:
    4b50:	d0000230 	adrp	x16, 4a000 <_ZTVN11vector_tile10Tile_ValueE+0x30>
    4b54:	f945e211 	ldr	x17, [x16, #3008]
    4b58:	912f0210 	add	x16, x16, #0xbc0
    4b5c:	d61f0220 	br	x17

0000000000004b60 <_Znwm@plt>:
    4b60:	d0000230 	adrp	x16, 4a000 <_ZTVN11vector_tile10Tile_ValueE+0x30>
    4b64:	f945e611 	ldr	x17, [x16, #3016]
    4b68:	912f2210 	add	x16, x16, #0xbc8
    4b6c:	d61f0220 	br	x17

0000000000004b70 <_ZdlPvm@plt>:
    4b70:	d0000230 	adrp	x16, 4a000 <_ZTVN11vector_tile10Tile_ValueE+0x30>
    4b74:	f945ea11 	ldr	x17, [x16, #3024]
    4b78:	912f4210 	add	x16, x16, #0xbd0
    4b7c:	d61f0220 	br	x17

0000000000004b80 <_ZSt18_Rb_tree_decrementPSt18_Rb_tree_node_base@plt>:
    4b80:	d0000230 	adrp	x16, 4a000 <_ZTVN11vector_tile10Tile_ValueE+0x30>
    4b84:	f945ee11 	ldr	x17, [x16, #3032]
    4b88:	912f6210 	add	x16, x16, #0xbd8
    4b8c:	d61f0220 	br	x17

0000000000004b90 <inflateEnd@plt>:
    4b90:	d0000230 	adrp	x16, 4a000 <_ZTVN11vector_tile10Tile_ValueE+0x30>
    4b94:	f945f211 	ldr	x17, [x16, #3040]
    4b98:	912f8210 	add	x16, x16, #0xbe0
    4b9c:	d61f0220 	br	x17

0000000000004ba0 <__cxa_atexit@plt>:
    4ba0:	d0000230 	adrp	x16, 4a000 <_ZTVN11vector_tile10Tile_ValueE+0x30>
    4ba4:	f945f611 	ldr	x17, [x16, #3048]
    4ba8:	912fa210 	add	x16, x16, #0xbe8
    4bac:	d61f0220 	br	x17

0000000000004bb0 <_ZSt16__ostream_insertIcSt11char_traitsIcEERSt13basic_ostreamIT_T0_ES6_PKS3_l@plt>:
    4bb0:	d0000230 	adrp	x16, 4a000 <_ZTVN11vector_tile10Tile_ValueE+0x30>
    4bb4:	f945fa11 	ldr	x17, [x16, #3056]
    4bb8:	912fc210 	add	x16, x16, #0xbf0
    4bbc:	d61f0220 	br	x17

0000000000004bc0 <_ZNKSt5ctypeIcE13_M_widen_initEv@plt>:
    4bc0:	d0000230 	adrp	x16, 4a000 <_ZTVN11vector_tile10Tile_ValueE+0x30>
    4bc4:	f945fe11 	ldr	x17, [x16, #3064]
    4bc8:	912fe210 	add	x16, x16, #0xbf8
    4bcc:	d61f0220 	br	x17

0000000000004bd0 <_ZSt18_Rb_tree_incrementPKSt18_Rb_tree_node_base@plt>:
    4bd0:	d0000230 	adrp	x16, 4a000 <_ZTVN11vector_tile10Tile_ValueE+0x30>
    4bd4:	f9460211 	ldr	x17, [x16, #3072]
    4bd8:	91300210 	add	x16, x16, #0xc00
    4bdc:	d61f0220 	br	x17

0000000000004be0 <__vsnprintf_chk@plt>:
    4be0:	d0000230 	adrp	x16, 4a000 <_ZTVN11vector_tile10Tile_ValueE+0x30>
    4be4:	f9460611 	ldr	x17, [x16, #3080]
    4be8:	91302210 	add	x16, x16, #0xc08
    4bec:	d61f0220 	br	x17

0000000000004bf0 <fflush@plt>:
    4bf0:	d0000230 	adrp	x16, 4a000 <_ZTVN11vector_tile10Tile_ValueE+0x30>
    4bf4:	f9460a11 	ldr	x17, [x16, #3088]
    4bf8:	91304210 	add	x16, x16, #0xc10
    4bfc:	d61f0220 	br	x17

0000000000004c00 <memmove@plt>:
    4c00:	d0000230 	adrp	x16, 4a000 <_ZTVN11vector_tile10Tile_ValueE+0x30>
    4c04:	f9460e11 	ldr	x17, [x16, #3096]
    4c08:	91306210 	add	x16, x16, #0xc18
    4c0c:	d61f0220 	br	x17

0000000000004c10 <_ZSt16__throw_bad_castv@plt>:
    4c10:	d0000230 	adrp	x16, 4a000 <_ZTVN11vector_tile10Tile_ValueE+0x30>
    4c14:	f9461211 	ldr	x17, [x16, #3104]
    4c18:	91308210 	add	x16, x16, #0xc20
    4c1c:	d61f0220 	br	x17

0000000000004c20 <_ZdaPv@plt>:
    4c20:	d0000230 	adrp	x16, 4a000 <_ZTVN11vector_tile10Tile_ValueE+0x30>
    4c24:	f9461611 	ldr	x17, [x16, #3112]
    4c28:	9130a210 	add	x16, x16, #0xc28
    4c2c:	d61f0220 	br	x17

0000000000004c30 <__errno_location@plt>:
    4c30:	d0000230 	adrp	x16, 4a000 <_ZTVN11vector_tile10Tile_ValueE+0x30>
    4c34:	f9461a11 	ldr	x17, [x16, #3120]
    4c38:	9130c210 	add	x16, x16, #0xc30
    4c3c:	d61f0220 	br	x17

0000000000004c40 <sched_yield@plt>:
    4c40:	d0000230 	adrp	x16, 4a000 <_ZTVN11vector_tile10Tile_ValueE+0x30>
    4c44:	f9461e11 	ldr	x17, [x16, #3128]
    4c48:	9130e210 	add	x16, x16, #0xc38
    4c4c:	d61f0220 	br	x17

0000000000004c50 <_ZNKSt8__detail20_Prime_rehash_policy14_M_need_rehashEmmm@plt>:
    4c50:	d0000230 	adrp	x16, 4a000 <_ZTVN11vector_tile10Tile_ValueE+0x30>
    4c54:	f9462211 	ldr	x17, [x16, #3136]
    4c58:	91310210 	add	x16, x16, #0xc40
    4c5c:	d61f0220 	br	x17

0000000000004c60 <_ZNSt9basic_iosIcSt11char_traitsIcEE4initEPSt15basic_streambufIcS1_E@plt>:
    4c60:	d0000230 	adrp	x16, 4a000 <_ZTVN11vector_tile10Tile_ValueE+0x30>
    4c64:	f9462611 	ldr	x17, [x16, #3144]
    4c68:	91312210 	add	x16, x16, #0xc48
    4c6c:	d61f0220 	br	x17

0000000000004c70 <_ZNSt6localeD1Ev@plt>:
    4c70:	d0000230 	adrp	x16, 4a000 <_ZTVN11vector_tile10Tile_ValueE+0x30>
    4c74:	f9462a11 	ldr	x17, [x16, #3152]
    4c78:	91314210 	add	x16, x16, #0xc50
    4c7c:	d61f0220 	br	x17

0000000000004c80 <fopen@plt>:
    4c80:	d0000230 	adrp	x16, 4a000 <_ZTVN11vector_tile10Tile_ValueE+0x30>
    4c84:	f9462e11 	ldr	x17, [x16, #3160]
    4c88:	91316210 	add	x16, x16, #0xc58
    4c8c:	d61f0220 	br	x17

0000000000004c90 <_ZSt20__throw_out_of_rangePKc@plt>:
    4c90:	d0000230 	adrp	x16, 4a000 <_ZTVN11vector_tile10Tile_ValueE+0x30>
    4c94:	f9463211 	ldr	x17, [x16, #3168]
    4c98:	91318210 	add	x16, x16, #0xc60
    4c9c:	d61f0220 	br	x17

0000000000004ca0 <__cxa_rethrow@plt>:
    4ca0:	d0000230 	adrp	x16, 4a000 <_ZTVN11vector_tile10Tile_ValueE+0x30>
    4ca4:	f9463611 	ldr	x17, [x16, #3176]
    4ca8:	9131a210 	add	x16, x16, #0xc68
    4cac:	d61f0220 	br	x17

0000000000004cb0 <_ZNSt14basic_ofstreamIcSt11char_traitsIcEED1Ev@plt>:
    4cb0:	d0000230 	adrp	x16, 4a000 <_ZTVN11vector_tile10Tile_ValueE+0x30>
    4cb4:	f9463a11 	ldr	x17, [x16, #3184]
    4cb8:	9131c210 	add	x16, x16, #0xc70
    4cbc:	d61f0220 	br	x17

0000000000004cc0 <__monstartup@plt>:
    4cc0:	d0000230 	adrp	x16, 4a000 <_ZTVN11vector_tile10Tile_ValueE+0x30>
    4cc4:	f9463e11 	ldr	x17, [x16, #3192]
    4cc8:	9131e210 	add	x16, x16, #0xc78
    4ccc:	d61f0220 	br	x17

0000000000004cd0 <_ZNSt8ios_base4InitC1Ev@plt>:
    4cd0:	d0000230 	adrp	x16, 4a000 <_ZTVN11vector_tile10Tile_ValueE+0x30>
    4cd4:	f9464211 	ldr	x17, [x16, #3200]
    4cd8:	91320210 	add	x16, x16, #0xc80
    4cdc:	d61f0220 	br	x17

0000000000004ce0 <_ZNSt7__cxx1112basic_stringIcSt11char_traitsIcESaIcEE10_M_replaceEmmPKcm@plt>:
    4ce0:	d0000230 	adrp	x16, 4a000 <_ZTVN11vector_tile10Tile_ValueE+0x30>
    4ce4:	f9464611 	ldr	x17, [x16, #3208]
    4ce8:	91322210 	add	x16, x16, #0xc88
    4cec:	d61f0220 	br	x17

0000000000004cf0 <_ZNSt7__cxx1112basic_stringIcSt11char_traitsIcESaIcEE7reserveEm@plt>:
    4cf0:	d0000230 	adrp	x16, 4a000 <_ZTVN11vector_tile10Tile_ValueE+0x30>
    4cf4:	f9464a11 	ldr	x17, [x16, #3216]
    4cf8:	91324210 	add	x16, x16, #0xc90
    4cfc:	d61f0220 	br	x17

0000000000004d00 <abort@plt>:
    4d00:	d0000230 	adrp	x16, 4a000 <_ZTVN11vector_tile10Tile_ValueE+0x30>
    4d04:	f9464e11 	ldr	x17, [x16, #3224]
    4d08:	91326210 	add	x16, x16, #0xc98
    4d0c:	d61f0220 	br	x17

0000000000004d10 <_ZNSt13runtime_errorC1ERKNSt7__cxx1112basic_stringIcSt11char_traitsIcESaIcEEE@plt>:
    4d10:	d0000230 	adrp	x16, 4a000 <_ZTVN11vector_tile10Tile_ValueE+0x30>
    4d14:	f9465211 	ldr	x17, [x16, #3232]
    4d18:	91328210 	add	x16, x16, #0xca0
    4d1c:	d61f0220 	br	x17

0000000000004d20 <__cxa_end_catch@plt>:
    4d20:	d0000230 	adrp	x16, 4a000 <_ZTVN11vector_tile10Tile_ValueE+0x30>
    4d24:	f9465611 	ldr	x17, [x16, #3240]
    4d28:	9132a210 	add	x16, x16, #0xca8
    4d2c:	d61f0220 	br	x17

0000000000004d30 <pthread_mutex_destroy@plt>:
    4d30:	d0000230 	adrp	x16, 4a000 <_ZTVN11vector_tile10Tile_ValueE+0x30>
    4d34:	f9465a11 	ldr	x17, [x16, #3248]
    4d38:	9132c210 	add	x16, x16, #0xcb0
    4d3c:	d61f0220 	br	x17

0000000000004d40 <__gxx_personality_v0@plt>:
    4d40:	d0000230 	adrp	x16, 4a000 <_ZTVN11vector_tile10Tile_ValueE+0x30>
    4d44:	f9465e11 	ldr	x17, [x16, #3256]
    4d48:	9132e210 	add	x16, x16, #0xcb8
    4d4c:	d61f0220 	br	x17

0000000000004d50 <__cxa_throw@plt>:
    4d50:	d0000230 	adrp	x16, 4a000 <_ZTVN11vector_tile10Tile_ValueE+0x30>
    4d54:	f9466211 	ldr	x17, [x16, #3264]
    4d58:	91330210 	add	x16, x16, #0xcc0
    4d5c:	d61f0220 	br	x17

0000000000004d60 <_Unwind_Resume@plt>:
    4d60:	d0000230 	adrp	x16, 4a000 <_ZTVN11vector_tile10Tile_ValueE+0x30>
    4d64:	f9466611 	ldr	x17, [x16, #3272]
    4d68:	91332210 	add	x16, x16, #0xcc8
    4d6c:	d61f0220 	br	x17

0000000000004d70 <_ZNSt7__cxx1112basic_stringIcSt11char_traitsIcESaIcEE9_M_createERmm@plt>:
    4d70:	d0000230 	adrp	x16, 4a000 <_ZTVN11vector_tile10Tile_ValueE+0x30>
    4d74:	f9466a11 	ldr	x17, [x16, #3280]
    4d78:	91334210 	add	x16, x16, #0xcd0
    4d7c:	d61f0220 	br	x17

0000000000004d80 <_ZNSt9exceptionD2Ev@plt>:
    4d80:	d0000230 	adrp	x16, 4a000 <_ZTVN11vector_tile10Tile_ValueE+0x30>
    4d84:	f9466e11 	ldr	x17, [x16, #3288]
    4d88:	91336210 	add	x16, x16, #0xcd8
    4d8c:	d61f0220 	br	x17

0000000000004d90 <_ZNSt7__cxx1112basic_stringIcSt11char_traitsIcESaIcEE14_M_replace_auxEmmmc@plt>:
    4d90:	d0000230 	adrp	x16, 4a000 <_ZTVN11vector_tile10Tile_ValueE+0x30>
    4d94:	f9467211 	ldr	x17, [x16, #3296]
    4d98:	91338210 	add	x16, x16, #0xce0
    4d9c:	d61f0220 	br	x17

0000000000004da0 <__cxa_pure_virtual@plt>:
    4da0:	d0000230 	adrp	x16, 4a000 <_ZTVN11vector_tile10Tile_ValueE+0x30>
    4da4:	f9467611 	ldr	x17, [x16, #3304]
    4da8:	9133a210 	add	x16, x16, #0xce8
    4dac:	d61f0220 	br	x17

0000000000004db0 <_ZNSt14basic_ofstreamIcSt11char_traitsIcEEC1ERKNSt7__cxx1112basic_stringIcS1_SaIcEEESt13_Ios_Openmode@plt>:
    4db0:	d0000230 	adrp	x16, 4a000 <_ZTVN11vector_tile10Tile_ValueE+0x30>
    4db4:	f9467a11 	ldr	x17, [x16, #3312]
    4db8:	9133c210 	add	x16, x16, #0xcf0
    4dbc:	d61f0220 	br	x17

0000000000004dc0 <fseek@plt>:
    4dc0:	d0000230 	adrp	x16, 4a000 <_ZTVN11vector_tile10Tile_ValueE+0x30>
    4dc4:	f9467e11 	ldr	x17, [x16, #3320]
    4dc8:	9133e210 	add	x16, x16, #0xcf8
    4dcc:	d61f0220 	br	x17

0000000000004dd0 <_ZNSt6localeC1Ev@plt>:
    4dd0:	d0000230 	adrp	x16, 4a000 <_ZTVN11vector_tile10Tile_ValueE+0x30>
    4dd4:	f9468211 	ldr	x17, [x16, #3328]
    4dd8:	91340210 	add	x16, x16, #0xd00
    4ddc:	d61f0220 	br	x17

Disassembly of section .text:

0000000000004e00 <_GLOBAL__sub_I_vtile_edit.cpp>:
    4e00:	a9be7bfd 	stp	x29, x30, [sp, #-32]!
    4e04:	910003fd 	mov	x29, sp
    4e08:	f9000bf3 	str	x19, [sp, #16]
    4e0c:	d50320ff 	xpaclri
    4e10:	f0000233 	adrp	x19, 4b000 <__data_start>
    4e14:	aa1e03e0 	mov	x0, x30
    4e18:	9100e273 	add	x19, x19, #0x38
    4e1c:	97fffec9 	bl	4940 <_mcount@plt>
    4e20:	aa1303e0 	mov	x0, x19
    4e24:	97ffffab 	bl	4cd0 <_ZNSt8ios_base4InitC1Ev@plt>
    4e28:	aa1303e1 	mov	x1, x19
    4e2c:	d0000220 	adrp	x0, 4a000 <_ZTVN11vector_tile10Tile_ValueE+0x30>
    4e30:	f9400bf3 	ldr	x19, [sp, #16]
    4e34:	f0000222 	adrp	x2, 4b000 <__data_start>
    4e38:	a8c27bfd 	ldp	x29, x30, [sp], #32
    4e3c:	91002042 	add	x2, x2, #0x8
    4e40:	f947fc00 	ldr	x0, [x0, #4088]
    4e44:	17ffff57 	b	4ba0 <__cxa_atexit@plt>
    4e48:	d503201f 	nop
    4e4c:	d503201f 	nop

0000000000004e50 <main>:
    4e50:	d10e43ff 	sub	sp, sp, #0x390
    4e54:	a9007bfd 	stp	x29, x30, [sp]
    4e58:	910003fd 	mov	x29, sp
    4e5c:	a90153f3 	stp	x19, x20, [sp, #16]
    4e60:	a9025bf5 	stp	x21, x22, [sp, #32]
    4e64:	a90363f7 	stp	x23, x24, [sp, #48]
    4e68:	a9046bf9 	stp	x25, x26, [sp, #64]
    4e6c:	a90573fb 	stp	x27, x28, [sp, #80]
    4e70:	d50320ff 	xpaclri
    4e74:	2a0003f3 	mov	w19, w0
    4e78:	aa1e03e0 	mov	x0, x30
    4e7c:	f90033e1 	str	x1, [sp, #96]
    4e80:	b90073f3 	str	w19, [sp, #112]
    4e84:	97fffeaf 	bl	4940 <_mcount@plt>
    4e88:	d0000220 	adrp	x0, 4a000 <_ZTVN11vector_tile10Tile_ValueE+0x30>
    4e8c:	f946b800 	ldr	x0, [x0, #3440]
    4e90:	f9400001 	ldr	x1, [x0]
    4e94:	f901c7e1 	str	x1, [sp, #904]
    4e98:	d2800001 	mov	x1, #0x0                   	// #0
    4e9c:	7100067f 	cmp	w19, #0x1
    4ea0:	540047ad 	b.le	5794 <main+0x944>
    4ea4:	f94033e0 	ldr	x0, [sp, #96]
    4ea8:	f9400401 	ldr	x1, [x0, #8]
    4eac:	9102e3e0 	add	x0, sp, #0xb8
    4eb0:	f90043e0 	str	x0, [sp, #128]
    4eb4:	940004e7 	bl	6250 <_ZNSt7__cxx1112basic_stringIcSt11char_traitsIcESaIcEEC2EPKcRKS3_.constprop.0>
    4eb8:	f9405fe0 	ldr	x0, [sp, #184]
    4ebc:	d0000141 	adrp	x1, 2e000 <_ZN6google8protobuf8internal15UTF8GenericScanEPKNS1_19UTF8StateMachineObjEPKciPi>
    4ec0:	9119c021 	add	x1, x1, #0x670
    4ec4:	97ffff6f 	bl	4c80 <fopen@plt>
    4ec8:	d0000222 	adrp	x2, 4a000 <_ZTVN11vector_tile10Tile_ValueE+0x30>
    4ecc:	f9005bff 	str	xzr, [sp, #176]
    4ed0:	f946c442 	ldr	x2, [x2, #3464]
    4ed4:	a90a03e2 	stp	x2, x0, [sp, #160]
    4ed8:	b40047a0 	cbz	x0, 57cc <main+0x97c>
    4edc:	52800042 	mov	w2, #0x2                   	// #2
    4ee0:	d2800001 	mov	x1, #0x0                   	// #0
    4ee4:	97ffffb7 	bl	4dc0 <fseek@plt>
    4ee8:	f94057e0 	ldr	x0, [sp, #168]
    4eec:	97fffe91 	bl	4930 <ftell@plt>
    4ef0:	aa0003e3 	mov	x3, x0
    4ef4:	52800002 	mov	w2, #0x0                   	// #0
    4ef8:	f94057e0 	ldr	x0, [sp, #168]
    4efc:	d2800001 	mov	x1, #0x0                   	// #0
    4f00:	f9005be3 	str	x3, [sp, #176]
    4f04:	97ffffaf 	bl	4dc0 <fseek@plt>
    4f08:	f94057e0 	ldr	x0, [sp, #168]
    4f0c:	b4004600 	cbz	x0, 57cc <main+0x97c>
    4f10:	b94073e0 	ldr	w0, [sp, #112]
    4f14:	7100081f 	cmp	w0, #0x2
    4f18:	54004120 	b.eq	573c <main+0x8ec>  // b.none
    4f1c:	d000015b 	adrp	x27, 2e000 <_ZN6google8protobuf8internal15UTF8GenericScanEPKNS1_19UTF8StateMachineObjEPKciPi>
    4f20:	d000015c 	adrp	x28, 2e000 <_ZN6google8protobuf8internal15UTF8GenericScanEPKNS1_19UTF8StateMachineObjEPKciPi>
    4f24:	911a237b 	add	x27, x27, #0x688
    4f28:	911a839c 	add	x28, x28, #0x6a0
    4f2c:	910463f6 	add	x22, sp, #0x118
    4f30:	9104a3f7 	add	x23, sp, #0x128
    4f34:	910263e0 	add	x0, sp, #0x98
    4f38:	d2800053 	mov	x19, #0x2                   	// #2
    4f3c:	52800015 	mov	w21, #0x0                   	// #0
    4f40:	52800014 	mov	w20, #0x0                   	// #0
    4f44:	f90037e0 	str	x0, [sp, #104]
    4f48:	f94033e0 	ldr	x0, [sp, #96]
    4f4c:	f9008ff7 	str	x23, [sp, #280]
    4f50:	f8737819 	ldr	x25, [x0, x19, lsl #3]
    4f54:	b4002339 	cbz	x25, 53b8 <main+0x568>
    4f58:	aa1903e0 	mov	x0, x25
    4f5c:	97fffe65 	bl	48f0 <strlen@plt>
    4f60:	f9004fe0 	str	x0, [sp, #152]
    4f64:	aa0003f8 	mov	x24, x0
    4f68:	f1003c1f 	cmp	x0, #0xf
    4f6c:	54002328 	b.hi	53d0 <main+0x580>  // b.pmore
    4f70:	f100041f 	cmp	x0, #0x1
    4f74:	54002281 	b.ne	53c4 <main+0x574>  // b.any
    4f78:	39400321 	ldrb	w1, [x25]
    4f7c:	aa1703e0 	mov	x0, x23
    4f80:	3904a3e1 	strb	w1, [sp, #296]
    4f84:	f90093f8 	str	x24, [sp, #288]
    4f88:	aa1b03e1 	mov	x1, x27
    4f8c:	3838681f 	strb	wzr, [x0, x24]
    4f90:	aa1603e0 	mov	x0, x22
    4f94:	97fffe47 	bl	48b0 <_ZNKSt7__cxx1112basic_stringIcSt11char_traitsIcESaIcEE7compareEPKc@plt>
    4f98:	35000680 	cbnz	w0, 5068 <main+0x218>
    4f9c:	f94033e0 	ldr	x0, [sp, #96]
    4fa0:	910643f8 	add	x24, sp, #0x190
    4fa4:	f900c3f8 	str	x24, [sp, #384]
    4fa8:	910603fa 	add	x26, sp, #0x180
    4fac:	91002000 	add	x0, x0, #0x8
    4fb0:	f8737819 	ldr	x25, [x0, x19, lsl #3]
    4fb4:	b4004919 	cbz	x25, 58d4 <main+0xa84>
    4fb8:	aa1903e0 	mov	x0, x25
    4fbc:	97fffe4d 	bl	48f0 <strlen@plt>
    4fc0:	f9004fe0 	str	x0, [sp, #152]
    4fc4:	aa0003f4 	mov	x20, x0
    4fc8:	f1003c1f 	cmp	x0, #0xf
    4fcc:	54002228 	b.hi	5410 <main+0x5c0>  // b.pmore
    4fd0:	f100041f 	cmp	x0, #0x1
    4fd4:	54002181 	b.ne	5404 <main+0x5b4>  // b.any
    4fd8:	39400321 	ldrb	w1, [x25]
    4fdc:	aa1803e0 	mov	x0, x24
    4fe0:	390643e1 	strb	w1, [sp, #400]
    4fe4:	f900c7f4 	str	x20, [sp, #392]
    4fe8:	3834681f 	strb	wzr, [x0, x20]
    4fec:	97ffff11 	bl	4c30 <__errno_location@plt>
    4ff0:	aa0003f9 	mov	x25, x0
    4ff4:	f94037e1 	ldr	x1, [sp, #104]
    4ff8:	52800142 	mov	w2, #0xa                   	// #10
    4ffc:	f940c3fa 	ldr	x26, [sp, #384]
    5000:	b9400000 	ldr	w0, [x0]
    5004:	b900033f 	str	wzr, [x25]
    5008:	b90077e0 	str	w0, [sp, #116]
    500c:	aa1a03e0 	mov	x0, x26
    5010:	97fffe68 	bl	49b0 <strtol@plt>
    5014:	aa0003f4 	mov	x20, x0
    5018:	f9404fe1 	ldr	x1, [sp, #152]
    501c:	eb01035f 	cmp	x26, x1
    5020:	54004480 	b.eq	58b0 <main+0xa60>  // b.none
    5024:	b9400321 	ldr	w1, [x25]
    5028:	7100883f 	cmp	w1, #0x22
    502c:	54003ca0 	b.eq	57c0 <main+0x970>  // b.none
    5030:	d2b00000 	mov	x0, #0x80000000            	// #2147483648
    5034:	8b000280 	add	x0, x20, x0
    5038:	b2407fe2 	mov	x2, #0xffffffff            	// #4294967295
    503c:	eb02001f 	cmp	x0, x2
    5040:	54003c08 	b.hi	57c0 <main+0x970>  // b.pmore
    5044:	35000061 	cbnz	w1, 5050 <main+0x200>
    5048:	b94077e0 	ldr	w0, [sp, #116]
    504c:	b9000320 	str	w0, [x25]
    5050:	f940c3e0 	ldr	x0, [sp, #384]
    5054:	eb18001f 	cmp	x0, x24
    5058:	54000080 	b.eq	5068 <main+0x218>  // b.none
    505c:	f940cbe1 	ldr	x1, [sp, #400]
    5060:	91000421 	add	x1, x1, #0x1
    5064:	97fffec3 	bl	4b70 <_ZdlPvm@plt>
    5068:	aa1c03e1 	mov	x1, x28
    506c:	aa1603e0 	mov	x0, x22
    5070:	97fffe10 	bl	48b0 <_ZNKSt7__cxx1112basic_stringIcSt11char_traitsIcESaIcEE7compareEPKc@plt>
    5074:	7100001f 	cmp	w0, #0x0
    5078:	f9408fe2 	ldr	x2, [sp, #280]
    507c:	1a9f16b5 	csinc	w21, w21, wzr, ne  // ne = any
    5080:	eb17005f 	cmp	x2, x23
    5084:	540018a0 	b.eq	5398 <main+0x548>  // b.none
    5088:	f94097e1 	ldr	x1, [sp, #296]
    508c:	aa0203e0 	mov	x0, x2
    5090:	91000673 	add	x19, x19, #0x1
    5094:	91000421 	add	x1, x1, #0x1
    5098:	97fffeb6 	bl	4b70 <_ZdlPvm@plt>
    509c:	b94073e0 	ldr	w0, [sp, #112]
    50a0:	6b13001f 	cmp	w0, w19
    50a4:	54fff52c 	b.gt	4f48 <main+0xf8>
    50a8:	910243e8 	add	x8, sp, #0x90
    50ac:	910283e0 	add	x0, sp, #0xa0
    50b0:	940004b4 	bl	6380 <_ZNK6mapnik4util4file4dataEv>
    50b4:	f9404bf7 	ldr	x23, [sp, #144]
    50b8:	9103a3e0 	add	x0, sp, #0xe8
    50bc:	f9405bf6 	ldr	x22, [sp, #176]
    50c0:	f9003fe0 	str	x0, [sp, #120]
    50c4:	f9006fe0 	str	x0, [sp, #216]
    50c8:	910363f3 	add	x19, sp, #0xd8
    50cc:	ab1602ff 	cmn	x23, x22
    50d0:	1a9f07e1 	cset	w1, ne  // ne = any
    50d4:	f10002ff 	cmp	x23, #0x0
    50d8:	1a9f17e0 	cset	w0, eq  // eq = none
    50dc:	6a000020 	ands	w0, w1, w0
    50e0:	b90077e0 	str	w0, [sp, #116]
    50e4:	54003fe1 	b.ne	58e0 <main+0xa90>  // b.any
    50e8:	f9004ff6 	str	x22, [sp, #152]
    50ec:	f1003edf 	cmp	x22, #0xf
    50f0:	54002b88 	b.hi	5660 <main+0x810>  // b.pmore
    50f4:	f10006df 	cmp	x22, #0x1
    50f8:	54001a61 	b.ne	5444 <main+0x5f4>  // b.any
    50fc:	394002e0 	ldrb	w0, [x23]
    5100:	3903a3e0 	strb	w0, [sp, #232]
    5104:	f9404fe0 	ldr	x0, [sp, #152]
    5108:	f90073e0 	str	x0, [sp, #224]
    510c:	f9406fe1 	ldr	x1, [sp, #216]
    5110:	3820683f 	strb	wzr, [x1, x0]
    5114:	f9404be0 	ldr	x0, [sp, #144]
    5118:	b4000040 	cbz	x0, 5120 <main+0x2d0>
    511c:	97fffec1 	bl	4c20 <_ZdaPv@plt>
    5120:	f94073e0 	ldr	x0, [sp, #224]
    5124:	f100081f 	cmp	x0, #0x2
    5128:	54000149 	b.ls	5150 <main+0x300>  // b.plast
    512c:	f9406fe0 	ldr	x0, [sp, #216]
    5130:	39400001 	ldrb	w1, [x0]
    5134:	7101e03f 	cmp	w1, #0x78
    5138:	54002aa0 	b.eq	568c <main+0x83c>  // b.none
    513c:	71007c3f 	cmp	w1, #0x1f
    5140:	54000081 	b.ne	5150 <main+0x300>  // b.any
    5144:	39400400 	ldrb	w0, [x0, #1]
    5148:	71022c1f 	cmp	w0, #0x8b
    514c:	54002fe0 	b.eq	5748 <main+0x8f8>  // b.none
    5150:	b90073ff 	str	wzr, [sp, #112]
    5154:	29117fff 	stp	wzr, wzr, [sp, #136]
    5158:	910463f6 	add	x22, sp, #0x118
    515c:	aa1603e0 	mov	x0, x22
    5160:	94001de8 	bl	c900 <_ZN11vector_tile4TileC2Ev>
    5164:	aa1303e1 	mov	x1, x19
    5168:	aa1603e0 	mov	x0, x22
    516c:	940086f5 	bl	26d40 <_ZN6google8protobuf11MessageLite15ParseFromStringERKNSt7__cxx1112basic_stringIcSt11char_traitsIcESaIcEEE>
    5170:	b94173e0 	ldr	w0, [sp, #368]
    5174:	52800018 	mov	w24, #0x0                   	// #0
    5178:	b000023b 	adrp	x27, 4a000 <_ZTVN11vector_tile10Tile_ValueE+0x30>
    517c:	b000015a 	adrp	x26, 2e000 <_ZN6google8protobuf8internal15UTF8GenericScanEPKNS1_19UTF8StateMachineObjEPKciPi>
    5180:	7100001f 	cmp	w0, #0x0
    5184:	540004ad 	b.le	5218 <main+0x3c8>
    5188:	911bc35a 	add	x26, x26, #0x6f0
    518c:	b0000001 	adrp	x1, 6000 <_GLOBAL__sub_I_zero_copy_stream.cc+0x30>
    5190:	b0000140 	adrp	x0, 2e000 <_ZN6google8protobuf8internal15UTF8GenericScanEPKNS1_19UTF8StateMachineObjEPKciPi>
    5194:	910d4021 	add	x1, x1, #0x350
    5198:	911be000 	add	x0, x0, #0x6f8
    519c:	a90603e1 	stp	x1, x0, [sp, #96]
    51a0:	93407f1c 	sxtw	x28, w24
    51a4:	f940bfe3 	ldr	x3, [sp, #376]
    51a8:	aa1a03e1 	mov	x1, x26
    51ac:	f946af60 	ldr	x0, [x27, #3416]
    51b0:	d28000e2 	mov	x2, #0x7                   	// #7
    51b4:	8b38cc63 	add	x3, x3, w24, sxtw #3
    51b8:	f9400477 	ldr	x23, [x3, #8]
    51bc:	97fffe7d 	bl	4bb0 <_ZSt16__ostream_insertIcSt11char_traitsIcEERSt13basic_ostreamIT_T0_ES6_PKS3_l@plt>
    51c0:	f9404ee2 	ldr	x2, [x23, #152]
    51c4:	f946af60 	ldr	x0, [x27, #3416]
    51c8:	a9400841 	ldp	x1, x2, [x2]
    51cc:	97fffe79 	bl	4bb0 <_ZSt16__ostream_insertIcSt11char_traitsIcEERSt13basic_ostreamIT_T0_ES6_PKS3_l@plt>
    51d0:	aa0003f3 	mov	x19, x0
    51d4:	f9400000 	ldr	x0, [x0]
    51d8:	f85e8000 	ldur	x0, [x0, #-24]
    51dc:	8b000260 	add	x0, x19, x0
    51e0:	f9407819 	ldr	x25, [x0, #240]
    51e4:	b4002ed9 	cbz	x25, 57bc <main+0x96c>
    51e8:	3940e320 	ldrb	w0, [x25, #56]
    51ec:	34001da0 	cbz	w0, 55a0 <main+0x750>
    51f0:	39410f21 	ldrb	w1, [x25, #67]
    51f4:	aa1303e0 	mov	x0, x19
    51f8:	97fffd96 	bl	4850 <_ZNSo3putEc@plt>
    51fc:	97fffe25 	bl	4a90 <_ZNSo5flushEv@plt>
    5200:	35001294 	cbnz	w20, 5450 <main+0x600>
    5204:	35001855 	cbnz	w21, 550c <main+0x6bc>
    5208:	b94173e0 	ldr	w0, [sp, #368]
    520c:	11000718 	add	w24, w24, #0x1
    5210:	6b00031f 	cmp	w24, w0
    5214:	54fffc6b 	b.lt	51a0 <main+0x350>  // b.tstop
    5218:	9103e3f4 	add	x20, sp, #0xf8
    521c:	910423f3 	add	x19, sp, #0x108
    5220:	aa1403e1 	mov	x1, x20
    5224:	aa1603e0 	mov	x0, x22
    5228:	a90ffff3 	stp	x19, xzr, [sp, #248]
    522c:	390423ff 	strb	wzr, [sp, #264]
    5230:	94008940 	bl	27730 <_ZNK6google8protobuf11MessageLite17SerializeToStringEPNSt7__cxx1112basic_stringIcSt11char_traitsIcESaIcEEE>
    5234:	b94073e0 	ldr	w0, [sp, #112]
    5238:	910603fa 	add	x26, sp, #0x180
    523c:	34000340 	cbz	w0, 52a4 <main+0x454>
    5240:	b9408be0 	ldr	w0, [sp, #136]
    5244:	35002700 	cbnz	w0, 5724 <main+0x8d4>
    5248:	b9408fe0 	ldr	w0, [sp, #140]
    524c:	35002900 	cbnz	w0, 576c <main+0x91c>
    5250:	b94073e0 	ldr	w0, [sp, #112]
    5254:	b90077e0 	str	w0, [sp, #116]
    5258:	3941d3e2 	ldrb	w2, [sp, #116]
    525c:	910603fa 	add	x26, sp, #0x180
    5260:	910643f8 	add	x24, sp, #0x190
    5264:	aa1a03e1 	mov	x1, x26
    5268:	aa1403e0 	mov	x0, x20
    526c:	52800004 	mov	w4, #0x0                   	// #0
    5270:	12800003 	mov	w3, #0xffffffff            	// #-1
    5274:	a9187ff8 	stp	x24, xzr, [sp, #384]
    5278:	390643ff 	strb	wzr, [sp, #400]
    527c:	94000569 	bl	6820 <_ZN6mapnik16vector_tile_impl13zlib_compressERKNSt7__cxx1112basic_stringIcSt11char_traitsIcESaIcEEERS6_bii>
    5280:	aa1a03e1 	mov	x1, x26
    5284:	aa1403e0 	mov	x0, x20
    5288:	97fffdd2 	bl	49d0 <_ZNSt7__cxx1112basic_stringIcSt11char_traitsIcESaIcEE9_M_assignERKS4_@plt>
    528c:	f940c3e0 	ldr	x0, [sp, #384]
    5290:	eb18001f 	cmp	x0, x24
    5294:	54000080 	b.eq	52a4 <main+0x454>  // b.none
    5298:	f940cbe1 	ldr	x1, [sp, #400]
    529c:	91000421 	add	x1, x1, #0x1
    52a0:	97fffe34 	bl	4b70 <_ZdlPvm@plt>
    52a4:	f94043e1 	ldr	x1, [sp, #128]
    52a8:	aa1a03e0 	mov	x0, x26
    52ac:	52800202 	mov	w2, #0x10                  	// #16
    52b0:	97fffec0 	bl	4db0 <_ZNSt14basic_ofstreamIcSt11char_traitsIcEEC1ERKNSt7__cxx1112basic_stringIcS1_SaIcEEESt13_Ios_Openmode@plt>
    52b4:	a94f8be1 	ldp	x1, x2, [sp, #248]
    52b8:	aa1a03e0 	mov	x0, x26
    52bc:	97fffe3d 	bl	4bb0 <_ZSt16__ostream_insertIcSt11char_traitsIcEERSt13basic_ostreamIT_T0_ES6_PKS3_l@plt>
    52c0:	b000023b 	adrp	x27, 4a000 <_ZTVN11vector_tile10Tile_ValueE+0x30>
    52c4:	b0000141 	adrp	x1, 2e000 <_ZN6google8protobuf8internal15UTF8GenericScanEPKNS1_19UTF8StateMachineObjEPKciPi>
    52c8:	d2800142 	mov	x2, #0xa                   	// #10
    52cc:	911dc021 	add	x1, x1, #0x770
    52d0:	f946af60 	ldr	x0, [x27, #3416]
    52d4:	97fffe37 	bl	4bb0 <_ZSt16__ostream_insertIcSt11char_traitsIcEERSt13basic_ostreamIT_T0_ES6_PKS3_l@plt>
    52d8:	a94b8be1 	ldp	x1, x2, [sp, #184]
    52dc:	f946af60 	ldr	x0, [x27, #3416]
    52e0:	97fffe34 	bl	4bb0 <_ZSt16__ostream_insertIcSt11char_traitsIcEERSt13basic_ostreamIT_T0_ES6_PKS3_l@plt>
    52e4:	940003b7 	bl	61c0 <_ZSt4endlIcSt11char_traitsIcEERSt13basic_ostreamIT_T0_ES6_.isra.0>
    52e8:	aa1a03e0 	mov	x0, x26
    52ec:	97fffe71 	bl	4cb0 <_ZNSt14basic_ofstreamIcSt11char_traitsIcEED1Ev@plt>
    52f0:	f9407fe0 	ldr	x0, [sp, #248]
    52f4:	eb13001f 	cmp	x0, x19
    52f8:	54000080 	b.eq	5308 <main+0x4b8>  // b.none
    52fc:	f94087e1 	ldr	x1, [sp, #264]
    5300:	91000421 	add	x1, x1, #0x1
    5304:	97fffe1b 	bl	4b70 <_ZdlPvm@plt>
    5308:	aa1603e0 	mov	x0, x22
    530c:	94001e1d 	bl	cb80 <_ZN11vector_tile4TileD2Ev>
    5310:	f9403fe1 	ldr	x1, [sp, #120]
    5314:	f9406fe0 	ldr	x0, [sp, #216]
    5318:	eb01001f 	cmp	x0, x1
    531c:	54000080 	b.eq	532c <main+0x4dc>  // b.none
    5320:	f94077e1 	ldr	x1, [sp, #232]
    5324:	91000421 	add	x1, x1, #0x1
    5328:	97fffe12 	bl	4b70 <_ZdlPvm@plt>
    532c:	f94057e0 	ldr	x0, [sp, #168]
    5330:	b4000060 	cbz	x0, 533c <main+0x4ec>
    5334:	f94053e1 	ldr	x1, [sp, #160]
    5338:	d63f0020 	blr	x1
    533c:	f9405fe0 	ldr	x0, [sp, #184]
    5340:	910323e1 	add	x1, sp, #0xc8
    5344:	eb01001f 	cmp	x0, x1
    5348:	54000080 	b.eq	5358 <main+0x508>  // b.none
    534c:	f94067e1 	ldr	x1, [sp, #200]
    5350:	91000421 	add	x1, x1, #0x1
    5354:	97fffe07 	bl	4b70 <_ZdlPvm@plt>
    5358:	52800000 	mov	w0, #0x0                   	// #0
    535c:	b0000221 	adrp	x1, 4a000 <_ZTVN11vector_tile10Tile_ValueE+0x30>
    5360:	f946b821 	ldr	x1, [x1, #3440]
    5364:	f941c7e3 	ldr	x3, [sp, #904]
    5368:	f9400022 	ldr	x2, [x1]
    536c:	eb020063 	subs	x3, x3, x2
    5370:	d2800002 	mov	x2, #0x0                   	// #0
    5374:	54002ae1 	b.ne	58d0 <main+0xa80>  // b.any
    5378:	a9407bfd 	ldp	x29, x30, [sp]
    537c:	a94153f3 	ldp	x19, x20, [sp, #16]
    5380:	a9425bf5 	ldp	x21, x22, [sp, #32]
    5384:	a94363f7 	ldp	x23, x24, [sp, #48]
    5388:	a9446bf9 	ldp	x25, x26, [sp, #64]
    538c:	a94573fb 	ldp	x27, x28, [sp, #80]
    5390:	910e43ff 	add	sp, sp, #0x390
    5394:	d65f03c0 	ret
    5398:	b94073e0 	ldr	w0, [sp, #112]
    539c:	91000673 	add	x19, x19, #0x1
    53a0:	6b13001f 	cmp	w0, w19
    53a4:	54ffe82d 	b.le	50a8 <main+0x258>
    53a8:	f94033e0 	ldr	x0, [sp, #96]
    53ac:	f9008ff7 	str	x23, [sp, #280]
    53b0:	f8737819 	ldr	x25, [x0, x19, lsl #3]
    53b4:	b5ffdd39 	cbnz	x25, 4f58 <main+0x108>
    53b8:	b0000140 	adrp	x0, 2e000 <_ZN6google8protobuf8internal15UTF8GenericScanEPKNS1_19UTF8StateMachineObjEPKciPi>
    53bc:	9117e000 	add	x0, x0, #0x5f8
    53c0:	97fffdc4 	bl	4ad0 <_ZSt19__throw_logic_errorPKc@plt>
    53c4:	aa1703e0 	mov	x0, x23
    53c8:	b4ffddf8 	cbz	x24, 4f84 <main+0x134>
    53cc:	14000008 	b	53ec <main+0x59c>
    53d0:	f94037e1 	ldr	x1, [sp, #104]
    53d4:	aa1603e0 	mov	x0, x22
    53d8:	d2800002 	mov	x2, #0x0                   	// #0
    53dc:	97fffe65 	bl	4d70 <_ZNSt7__cxx1112basic_stringIcSt11char_traitsIcESaIcEE9_M_createERmm@plt>
    53e0:	f9404fe1 	ldr	x1, [sp, #152]
    53e4:	f9008fe0 	str	x0, [sp, #280]
    53e8:	f90097e1 	str	x1, [sp, #296]
    53ec:	aa1803e2 	mov	x2, x24
    53f0:	aa1903e1 	mov	x1, x25
    53f4:	97fffd1b 	bl	4860 <memcpy@plt>
    53f8:	f9404ff8 	ldr	x24, [sp, #152]
    53fc:	f9408fe0 	ldr	x0, [sp, #280]
    5400:	17fffee1 	b	4f84 <main+0x134>
    5404:	aa1803e0 	mov	x0, x24
    5408:	b4ffdef4 	cbz	x20, 4fe4 <main+0x194>
    540c:	14000008 	b	542c <main+0x5dc>
    5410:	f94037e1 	ldr	x1, [sp, #104]
    5414:	aa1a03e0 	mov	x0, x26
    5418:	d2800002 	mov	x2, #0x0                   	// #0
    541c:	97fffe55 	bl	4d70 <_ZNSt7__cxx1112basic_stringIcSt11char_traitsIcESaIcEE9_M_createERmm@plt>
    5420:	f9404fe1 	ldr	x1, [sp, #152]
    5424:	f900c3e0 	str	x0, [sp, #384]
    5428:	f900cbe1 	str	x1, [sp, #400]
    542c:	aa1403e2 	mov	x2, x20
    5430:	aa1903e1 	mov	x1, x25
    5434:	97fffd0b 	bl	4860 <memcpy@plt>
    5438:	f9404ff4 	ldr	x20, [sp, #152]
    543c:	f940c3e0 	ldr	x0, [sp, #384]
    5440:	17fffee9 	b	4fe4 <main+0x194>
    5444:	b4ffe616 	cbz	x22, 5104 <main+0x2b4>
    5448:	f9403fe0 	ldr	x0, [sp, #120]
    544c:	1400008c 	b	567c <main+0x82c>
    5450:	f946af60 	ldr	x0, [x27, #3416]
    5454:	d28001a2 	mov	x2, #0xd                   	// #13
    5458:	f94037e1 	ldr	x1, [sp, #104]
    545c:	97fffdd5 	bl	4bb0 <_ZSt16__ostream_insertIcSt11char_traitsIcEERSt13basic_ostreamIT_T0_ES6_PKS3_l@plt>
    5460:	f946af60 	ldr	x0, [x27, #3416]
    5464:	b940a6e1 	ldr	w1, [x23, #164]
    5468:	97fffd86 	bl	4a80 <_ZNSo9_M_insertImEERSoT_@plt>
    546c:	aa0003f3 	mov	x19, x0
    5470:	f9400000 	ldr	x0, [x0]
    5474:	f85e8000 	ldur	x0, [x0, #-24]
    5478:	8b000260 	add	x0, x19, x0
    547c:	f9407819 	ldr	x25, [x0, #240]
    5480:	b4002159 	cbz	x25, 58a8 <main+0xa58>
    5484:	3940e320 	ldrb	w0, [x25, #56]
    5488:	34000a40 	cbz	w0, 55d0 <main+0x780>
    548c:	39410f21 	ldrb	w1, [x25, #67]
    5490:	aa1303e0 	mov	x0, x19
    5494:	97fffcef 	bl	4850 <_ZNSo3putEc@plt>
    5498:	97fffd7e 	bl	4a90 <_ZNSo5flushEv@plt>
    549c:	b940a6e0 	ldr	w0, [x23, #164]
    54a0:	6b00029f 	cmp	w20, w0
    54a4:	540000a0 	b.eq	54b8 <main+0x668>  // b.none
    54a8:	b9404ae0 	ldr	w0, [x23, #72]
    54ac:	b900a6f4 	str	w20, [x23, #164]
    54b0:	321e0000 	orr	w0, w0, #0x4
    54b4:	b9004ae0 	str	w0, [x23, #72]
    54b8:	f946af60 	ldr	x0, [x27, #3416]
    54bc:	b0000141 	adrp	x1, 2e000 <_ZN6google8protobuf8internal15UTF8GenericScanEPKNS1_19UTF8StateMachineObjEPKciPi>
    54c0:	d28001a2 	mov	x2, #0xd                   	// #13
    54c4:	911c2021 	add	x1, x1, #0x708
    54c8:	97fffdba 	bl	4bb0 <_ZSt16__ostream_insertIcSt11char_traitsIcEERSt13basic_ostreamIT_T0_ES6_PKS3_l@plt>
    54cc:	f946af60 	ldr	x0, [x27, #3416]
    54d0:	b940a6e1 	ldr	w1, [x23, #164]
    54d4:	97fffd6b 	bl	4a80 <_ZNSo9_M_insertImEERSoT_@plt>
    54d8:	aa0003f3 	mov	x19, x0
    54dc:	f9400000 	ldr	x0, [x0]
    54e0:	f85e8000 	ldur	x0, [x0, #-24]
    54e4:	8b000260 	add	x0, x19, x0
    54e8:	f9407819 	ldr	x25, [x0, #240]
    54ec:	b4001e19 	cbz	x25, 58ac <main+0xa5c>
    54f0:	3940e320 	ldrb	w0, [x25, #56]
    54f4:	34000860 	cbz	w0, 5600 <main+0x7b0>
    54f8:	39410f21 	ldrb	w1, [x25, #67]
    54fc:	aa1303e0 	mov	x0, x19
    5500:	97fffcd4 	bl	4850 <_ZNSo3putEc@plt>
    5504:	97fffd63 	bl	4a90 <_ZNSo5flushEv@plt>
    5508:	34ffe815 	cbz	w21, 5208 <main+0x3b8>
    550c:	f946af60 	ldr	x0, [x27, #3416]
    5510:	b0000141 	adrp	x1, 2e000 <_ZN6google8protobuf8internal15UTF8GenericScanEPKNS1_19UTF8StateMachineObjEPKciPi>
    5514:	d28002e2 	mov	x2, #0x17                  	// #23
    5518:	911c6021 	add	x1, x1, #0x718
    551c:	97fffda5 	bl	4bb0 <_ZSt16__ostream_insertIcSt11char_traitsIcEERSt13basic_ostreamIT_T0_ES6_PKS3_l@plt>
    5520:	f946af60 	ldr	x0, [x27, #3416]
    5524:	94000327 	bl	61c0 <_ZSt4endlIcSt11char_traitsIcEERSt13basic_ostreamIT_T0_ES6_.isra.0>
    5528:	b9405ae2 	ldr	w2, [x23, #88]
    552c:	910142f7 	add	x23, x23, #0x50
    5530:	7100005f 	cmp	w2, #0x0
    5534:	540001ad 	b.le	5568 <main+0x718>
    5538:	52800013 	mov	w19, #0x0                   	// #0
    553c:	d503201f 	nop
    5540:	f9400ae0 	ldr	x0, [x23, #16]
    5544:	8b33cc00 	add	x0, x0, w19, sxtw #3
    5548:	f9400400 	ldr	x0, [x0, #8]
    554c:	b9403001 	ldr	w1, [x0, #48]
    5550:	35000061 	cbnz	w1, 555c <main+0x70c>
    5554:	b9401001 	ldr	w1, [x0, #16]
    5558:	360006c1 	tbz	w1, #0, 5630 <main+0x7e0>
    555c:	11000673 	add	w19, w19, #0x1
    5560:	6b02027f 	cmp	w19, w2
    5564:	54fffeeb 	b.lt	5540 <main+0x6f0>  // b.tstop
    5568:	35ffe502 	cbnz	w2, 5208 <main+0x3b8>
    556c:	f940bfe1 	ldr	x1, [sp, #376]
    5570:	f940b7e0 	ldr	x0, [sp, #360]
    5574:	8b1c0c3c 	add	x28, x1, x28, lsl #3
    5578:	f100001f 	cmp	x0, #0x0
    557c:	f9400780 	ldr	x0, [x28, #8]
    5580:	fa400804 	ccmp	x0, #0x0, #0x4, eq  // eq = none
    5584:	54001001 	b.ne	5784 <main+0x934>  // b.any
    5588:	2a1803e1 	mov	w1, w24
    558c:	9105a3e0 	add	x0, sp, #0x168
    5590:	52800022 	mov	w2, #0x1                   	// #1
    5594:	94008973 	bl	27b60 <_ZN6google8protobuf8internal20RepeatedPtrFieldBase8CloseGapEii>
    5598:	51000718 	sub	w24, w24, #0x1
    559c:	17ffff1b 	b	5208 <main+0x3b8>
    55a0:	aa1903e0 	mov	x0, x25
    55a4:	97fffd87 	bl	4bc0 <_ZNKSt5ctypeIcE13_M_widen_initEv@plt>
    55a8:	f9400320 	ldr	x0, [x25]
    55ac:	52800141 	mov	w1, #0xa                   	// #10
    55b0:	f9401802 	ldr	x2, [x0, #48]
    55b4:	f94033e0 	ldr	x0, [sp, #96]
    55b8:	eb00005f 	cmp	x2, x0
    55bc:	54ffe1c0 	b.eq	51f4 <main+0x3a4>  // b.none
    55c0:	aa1903e0 	mov	x0, x25
    55c4:	d63f0040 	blr	x2
    55c8:	12001c01 	and	w1, w0, #0xff
    55cc:	17ffff0a 	b	51f4 <main+0x3a4>
    55d0:	aa1903e0 	mov	x0, x25
    55d4:	97fffd7b 	bl	4bc0 <_ZNKSt5ctypeIcE13_M_widen_initEv@plt>
    55d8:	f9400320 	ldr	x0, [x25]
    55dc:	52800141 	mov	w1, #0xa                   	// #10
    55e0:	f9401802 	ldr	x2, [x0, #48]
    55e4:	f94033e0 	ldr	x0, [sp, #96]
    55e8:	eb00005f 	cmp	x2, x0
    55ec:	54fff520 	b.eq	5490 <main+0x640>  // b.none
    55f0:	aa1903e0 	mov	x0, x25
    55f4:	d63f0040 	blr	x2
    55f8:	12001c01 	and	w1, w0, #0xff
    55fc:	17ffffa5 	b	5490 <main+0x640>
    5600:	aa1903e0 	mov	x0, x25
    5604:	97fffd6f 	bl	4bc0 <_ZNKSt5ctypeIcE13_M_widen_initEv@plt>
    5608:	f9400320 	ldr	x0, [x25]
    560c:	52800141 	mov	w1, #0xa                   	// #10
    5610:	f9401802 	ldr	x2, [x0, #48]
    5614:	f94033e0 	ldr	x0, [sp, #96]
    5618:	eb00005f 	cmp	x2, x0
    561c:	54fff700 	b.eq	54fc <main+0x6ac>  // b.none
    5620:	aa1903e0 	mov	x0, x25
    5624:	d63f0040 	blr	x2
    5628:	12001c01 	and	w1, w0, #0xff
    562c:	17ffffb4 	b	54fc <main+0x6ac>
    5630:	f94002e1 	ldr	x1, [x23]
    5634:	b40000e1 	cbz	x1, 5650 <main+0x800>
    5638:	2a1303e1 	mov	w1, w19
    563c:	aa1703e0 	mov	x0, x23
    5640:	52800022 	mov	w2, #0x1                   	// #1
    5644:	94008947 	bl	27b60 <_ZN6google8protobuf8internal20RepeatedPtrFieldBase8CloseGapEii>
    5648:	b9400ae2 	ldr	w2, [x23, #8]
    564c:	17ffffc5 	b	5560 <main+0x710>
    5650:	f9400001 	ldr	x1, [x0]
    5654:	f9400421 	ldr	x1, [x1, #8]
    5658:	d63f0020 	blr	x1
    565c:	17fffff7 	b	5638 <main+0x7e8>
    5660:	910263e1 	add	x1, sp, #0x98
    5664:	aa1303e0 	mov	x0, x19
    5668:	d2800002 	mov	x2, #0x0                   	// #0
    566c:	97fffdc1 	bl	4d70 <_ZNSt7__cxx1112basic_stringIcSt11char_traitsIcESaIcEE9_M_createERmm@plt>
    5670:	f9404fe1 	ldr	x1, [sp, #152]
    5674:	f9006fe0 	str	x0, [sp, #216]
    5678:	f90077e1 	str	x1, [sp, #232]
    567c:	aa1603e2 	mov	x2, x22
    5680:	aa1703e1 	mov	x1, x23
    5684:	97fffc77 	bl	4860 <memcpy@plt>
    5688:	17fffe9f 	b	5104 <main+0x2b4>
    568c:	39400400 	ldrb	w0, [x0, #1]
    5690:	52801b41 	mov	w1, #0xda                  	// #218
    5694:	7101781f 	cmp	w0, #0x5e
    5698:	7a411004 	ccmp	w0, w1, #0x4, ne  // ne = any
    569c:	1a9f17e1 	cset	w1, eq  // eq = none
    56a0:	7102701f 	cmp	w0, #0x9c
    56a4:	7a411804 	ccmp	w0, #0x1, #0x4, ne  // ne = any
    56a8:	1a9f17e0 	cset	w0, eq  // eq = none
    56ac:	2a000020 	orr	w0, w1, w0
    56b0:	b90073e0 	str	w0, [sp, #112]
    56b4:	340010a0 	cbz	w0, 58c8 <main+0xa78>
    56b8:	b0000220 	adrp	x0, 4a000 <_ZTVN11vector_tile10Tile_ValueE+0x30>
    56bc:	b0000141 	adrp	x1, 2e000 <_ZN6google8protobuf8internal15UTF8GenericScanEPKNS1_19UTF8StateMachineObjEPKciPi>
    56c0:	911ac021 	add	x1, x1, #0x6b0
    56c4:	f9476400 	ldr	x0, [x0, #3784]
    56c8:	97fffd22 	bl	4b50 <_ZStlsISt11char_traitsIcEERSt13basic_ostreamIcT_ES5_PKc@plt>
    56cc:	b9008fff 	str	wzr, [sp, #140]
    56d0:	910603fa 	add	x26, sp, #0x180
    56d4:	910643f8 	add	x24, sp, #0x190
    56d8:	aa1a03e1 	mov	x1, x26
    56dc:	aa1303e0 	mov	x0, x19
    56e0:	a9187ff8 	stp	x24, xzr, [sp, #384]
    56e4:	390643ff 	strb	wzr, [sp, #400]
    56e8:	940003de 	bl	6660 <_ZN6mapnik16vector_tile_impl15zlib_decompressERKNSt7__cxx1112basic_stringIcSt11char_traitsIcESaIcEEERS6_>
    56ec:	aa1a03e1 	mov	x1, x26
    56f0:	aa1303e0 	mov	x0, x19
    56f4:	97fffcb7 	bl	49d0 <_ZNSt7__cxx1112basic_stringIcSt11char_traitsIcESaIcEE9_M_assignERKS4_@plt>
    56f8:	f940c3e0 	ldr	x0, [sp, #384]
    56fc:	eb18001f 	cmp	x0, x24
    5700:	54000080 	b.eq	5710 <main+0x8c0>  // b.none
    5704:	f940cbe1 	ldr	x1, [sp, #400]
    5708:	91000421 	add	x1, x1, #0x1
    570c:	97fffd19 	bl	4b70 <_ZdlPvm@plt>
    5710:	b94073e0 	ldr	w0, [sp, #112]
    5714:	b9008be0 	str	w0, [sp, #136]
    5718:	52800020 	mov	w0, #0x1                   	// #1
    571c:	b90073e0 	str	w0, [sp, #112]
    5720:	17fffe8e 	b	5158 <main+0x308>
    5724:	b0000220 	adrp	x0, 4a000 <_ZTVN11vector_tile10Tile_ValueE+0x30>
    5728:	b0000141 	adrp	x1, 2e000 <_ZN6google8protobuf8internal15UTF8GenericScanEPKNS1_19UTF8StateMachineObjEPKciPi>
    572c:	911cc021 	add	x1, x1, #0x730
    5730:	f9476400 	ldr	x0, [x0, #3784]
    5734:	97fffd07 	bl	4b50 <_ZStlsISt11char_traitsIcEERSt13basic_ostreamIcT_ES5_PKc@plt>
    5738:	17fffec8 	b	5258 <main+0x408>
    573c:	52800015 	mov	w21, #0x0                   	// #0
    5740:	52800014 	mov	w20, #0x0                   	// #0
    5744:	17fffe59 	b	50a8 <main+0x258>
    5748:	b0000220 	adrp	x0, 4a000 <_ZTVN11vector_tile10Tile_ValueE+0x30>
    574c:	b0000141 	adrp	x1, 2e000 <_ZN6google8protobuf8internal15UTF8GenericScanEPKNS1_19UTF8StateMachineObjEPKciPi>
    5750:	911b4021 	add	x1, x1, #0x6d0
    5754:	f9476400 	ldr	x0, [x0, #3784]
    5758:	97fffcfe 	bl	4b50 <_ZStlsISt11char_traitsIcEERSt13basic_ostreamIcT_ES5_PKc@plt>
    575c:	52800020 	mov	w0, #0x1                   	// #1
    5760:	b90073ff 	str	wzr, [sp, #112]
    5764:	b9008fe0 	str	w0, [sp, #140]
    5768:	17ffffda 	b	56d0 <main+0x880>
    576c:	b0000220 	adrp	x0, 4a000 <_ZTVN11vector_tile10Tile_ValueE+0x30>
    5770:	b0000141 	adrp	x1, 2e000 <_ZN6google8protobuf8internal15UTF8GenericScanEPKNS1_19UTF8StateMachineObjEPKciPi>
    5774:	911d4021 	add	x1, x1, #0x750
    5778:	f9476400 	ldr	x0, [x0, #3784]
    577c:	97fffcf5 	bl	4b50 <_ZStlsISt11char_traitsIcEERSt13basic_ostreamIcT_ES5_PKc@plt>
    5780:	17fffeb4 	b	5250 <main+0x400>
    5784:	f9400001 	ldr	x1, [x0]
    5788:	f9400421 	ldr	x1, [x1, #8]
    578c:	d63f0020 	blr	x1
    5790:	17ffff7e 	b	5588 <main+0x738>
    5794:	b000023b 	adrp	x27, 4a000 <_ZTVN11vector_tile10Tile_ValueE+0x30>
    5798:	b0000141 	adrp	x1, 2e000 <_ZN6google8protobuf8internal15UTF8GenericScanEPKNS1_19UTF8StateMachineObjEPKciPi>
    579c:	d2800842 	mov	x2, #0x42                  	// #66
    57a0:	9118a021 	add	x1, x1, #0x628
    57a4:	f946af60 	ldr	x0, [x27, #3416]
    57a8:	97fffd02 	bl	4bb0 <_ZSt16__ostream_insertIcSt11char_traitsIcEERSt13basic_ostreamIT_T0_ES6_PKS3_l@plt>
    57ac:	f946af60 	ldr	x0, [x27, #3416]
    57b0:	94000284 	bl	61c0 <_ZSt4endlIcSt11char_traitsIcEERSt13basic_ostreamIT_T0_ES6_.isra.0>
    57b4:	12800000 	mov	w0, #0xffffffff            	// #-1
    57b8:	17fffee9 	b	535c <main+0x50c>
    57bc:	97fffd15 	bl	4c10 <_ZSt16__throw_bad_castv@plt>
    57c0:	b0000140 	adrp	x0, 2e000 <_ZN6google8protobuf8internal15UTF8GenericScanEPKNS1_19UTF8StateMachineObjEPKciPi>
    57c4:	911a6000 	add	x0, x0, #0x698
    57c8:	97fffd32 	bl	4c90 <_ZSt20__throw_out_of_rangePKc@plt>
    57cc:	910463f6 	add	x22, sp, #0x118
    57d0:	b0000141 	adrp	x1, 2e000 <_ZN6google8protobuf8internal15UTF8GenericScanEPKNS1_19UTF8StateMachineObjEPKciPi>
    57d4:	aa1603e0 	mov	x0, x22
    57d8:	9119e021 	add	x1, x1, #0x678
    57dc:	9400029d 	bl	6250 <_ZNSt7__cxx1112basic_stringIcSt11char_traitsIcESaIcEEC2EPKcRKS3_.constprop.0>
    57e0:	a94b8be1 	ldp	x1, x2, [sp, #184]
    57e4:	aa1603e0 	mov	x0, x22
    57e8:	97fffc46 	bl	4900 <_ZNSt7__cxx1112basic_stringIcSt11char_traitsIcESaIcEE9_M_appendEPKcm@plt>
    57ec:	aa0003e2 	mov	x2, x0
    57f0:	910643f8 	add	x24, sp, #0x190
    57f4:	f900c3f8 	str	x24, [sp, #384]
    57f8:	aa0003e1 	mov	x1, x0
    57fc:	f8410440 	ldr	x0, [x2], #16
    5800:	eb02001f 	cmp	x0, x2
    5804:	540005c0 	b.eq	58bc <main+0xa6c>  // b.none
    5808:	f900c3e0 	str	x0, [sp, #384]
    580c:	f9400820 	ldr	x0, [x1, #16]
    5810:	f900cbe0 	str	x0, [sp, #400]
    5814:	f9400420 	ldr	x0, [x1, #8]
    5818:	f900c7e0 	str	x0, [sp, #392]
    581c:	a9007c22 	stp	x2, xzr, [x1]
    5820:	b0000220 	adrp	x0, 4a000 <_ZTVN11vector_tile10Tile_ValueE+0x30>
    5824:	3900403f 	strb	wzr, [x1, #16]
    5828:	f946ac00 	ldr	x0, [x0, #3416]
    582c:	a9580be1 	ldp	x1, x2, [sp, #384]
    5830:	97fffce0 	bl	4bb0 <_ZSt16__ostream_insertIcSt11char_traitsIcEERSt13basic_ostreamIT_T0_ES6_PKS3_l@plt>
    5834:	b0000141 	adrp	x1, 2e000 <_ZN6google8protobuf8internal15UTF8GenericScanEPKNS1_19UTF8StateMachineObjEPKciPi>
    5838:	911b2021 	add	x1, x1, #0x6c8
    583c:	97fffcc5 	bl	4b50 <_ZStlsISt11char_traitsIcEERSt13basic_ostreamIcT_ES5_PKc@plt>
    5840:	f940c3e0 	ldr	x0, [sp, #384]
    5844:	eb18001f 	cmp	x0, x24
    5848:	54000080 	b.eq	5858 <main+0xa08>  // b.none
    584c:	f940cbe1 	ldr	x1, [sp, #400]
    5850:	91000421 	add	x1, x1, #0x1
    5854:	97fffcc7 	bl	4b70 <_ZdlPvm@plt>
    5858:	f9408fe0 	ldr	x0, [sp, #280]
    585c:	9104a3e1 	add	x1, sp, #0x128
    5860:	eb01001f 	cmp	x0, x1
    5864:	54000080 	b.eq	5874 <main+0xa24>  // b.none
    5868:	f94097e1 	ldr	x1, [sp, #296]
    586c:	91000421 	add	x1, x1, #0x1
    5870:	97fffcc0 	bl	4b70 <_ZdlPvm@plt>
    5874:	f94057e0 	ldr	x0, [sp, #168]
    5878:	b4000060 	cbz	x0, 5884 <main+0xa34>
    587c:	f94053e1 	ldr	x1, [sp, #160]
    5880:	d63f0020 	blr	x1
    5884:	f9405fe0 	ldr	x0, [sp, #184]
    5888:	910323e1 	add	x1, sp, #0xc8
    588c:	eb01001f 	cmp	x0, x1
    5890:	54fff920 	b.eq	57b4 <main+0x964>  // b.none
    5894:	f94067e1 	ldr	x1, [sp, #200]
    5898:	91000421 	add	x1, x1, #0x1
    589c:	97fffcb5 	bl	4b70 <_ZdlPvm@plt>
    58a0:	12800000 	mov	w0, #0xffffffff            	// #-1
    58a4:	17fffeae 	b	535c <main+0x50c>
    58a8:	97fffcda 	bl	4c10 <_ZSt16__throw_bad_castv@plt>
    58ac:	97fffcd9 	bl	4c10 <_ZSt16__throw_bad_castv@plt>
    58b0:	b0000140 	adrp	x0, 2e000 <_ZN6google8protobuf8internal15UTF8GenericScanEPKNS1_19UTF8StateMachineObjEPKciPi>
    58b4:	911a6000 	add	x0, x0, #0x698
    58b8:	97fffc66 	bl	4a50 <_ZSt24__throw_invalid_argumentPKc@plt>
    58bc:	a9411424 	ldp	x4, x5, [x1, #16]
    58c0:	a91917e4 	stp	x4, x5, [sp, #400]
    58c4:	17ffffd4 	b	5814 <main+0x9c4>
    58c8:	29117fff 	stp	wzr, wzr, [sp, #136]
    58cc:	17fffe23 	b	5158 <main+0x308>
    58d0:	97fffc14 	bl	4920 <__stack_chk_fail@plt>
    58d4:	b0000140 	adrp	x0, 2e000 <_ZN6google8protobuf8internal15UTF8GenericScanEPKNS1_19UTF8StateMachineObjEPKciPi>
    58d8:	9117e000 	add	x0, x0, #0x5f8
    58dc:	97fffc7d 	bl	4ad0 <_ZSt19__throw_logic_errorPKc@plt>
    58e0:	b0000140 	adrp	x0, 2e000 <_ZN6google8protobuf8internal15UTF8GenericScanEPKNS1_19UTF8StateMachineObjEPKciPi>
    58e4:	9117e000 	add	x0, x0, #0x5f8
    58e8:	97fffc7a 	bl	4ad0 <_ZSt19__throw_logic_errorPKc@plt>
    58ec:	f940c3e2 	ldr	x2, [sp, #384]
    58f0:	aa0003f3 	mov	x19, x0
    58f4:	aa0103f4 	mov	x20, x1
    58f8:	eb18005f 	cmp	x2, x24
    58fc:	540000a0 	b.eq	5910 <main+0xac0>  // b.none
    5900:	f940cbe1 	ldr	x1, [sp, #400]
    5904:	aa0203e0 	mov	x0, x2
    5908:	91000421 	add	x1, x1, #0x1
    590c:	97fffc99 	bl	4b70 <_ZdlPvm@plt>
    5910:	f9408fe0 	ldr	x0, [sp, #280]
    5914:	9104a3e1 	add	x1, sp, #0x128
    5918:	eb01001f 	cmp	x0, x1
    591c:	54000080 	b.eq	592c <main+0xadc>  // b.none
    5920:	f94097e1 	ldr	x1, [sp, #296]
    5924:	91000421 	add	x1, x1, #0x1
    5928:	97fffc92 	bl	4b70 <_ZdlPvm@plt>
    592c:	f94057e0 	ldr	x0, [sp, #168]
    5930:	b4000060 	cbz	x0, 593c <main+0xaec>
    5934:	f94053e1 	ldr	x1, [sp, #160]
    5938:	d63f0020 	blr	x1
    593c:	f9405fe0 	ldr	x0, [sp, #184]
    5940:	910323e1 	add	x1, sp, #0xc8
    5944:	eb01001f 	cmp	x0, x1
    5948:	54000080 	b.eq	5958 <main+0xb08>  // b.none
    594c:	f94067e1 	ldr	x1, [sp, #200]
    5950:	91000421 	add	x1, x1, #0x1
    5954:	97fffc87 	bl	4b70 <_ZdlPvm@plt>
    5958:	aa1303e0 	mov	x0, x19
    595c:	f100069f 	cmp	x20, #0x1
    5960:	54000581 	b.ne	5a10 <main+0xbc0>  // b.any
    5964:	b000023b 	adrp	x27, 4a000 <_ZTVN11vector_tile10Tile_ValueE+0x30>
    5968:	97fffc02 	bl	4970 <__cxa_begin_catch@plt>
    596c:	aa0003f3 	mov	x19, x0
    5970:	b0000141 	adrp	x1, 2e000 <_ZN6google8protobuf8internal15UTF8GenericScanEPKNS1_19UTF8StateMachineObjEPKciPi>
    5974:	f946af60 	ldr	x0, [x27, #3416]
    5978:	911e0021 	add	x1, x1, #0x780
    597c:	d28000e2 	mov	x2, #0x7                   	// #7
    5980:	97fffc8c 	bl	4bb0 <_ZSt16__ostream_insertIcSt11char_traitsIcEERSt13basic_ostreamIT_T0_ES6_PKS3_l@plt>
    5984:	f9400261 	ldr	x1, [x19]
    5988:	aa1303e0 	mov	x0, x19
    598c:	f9400821 	ldr	x1, [x1, #16]
    5990:	d63f0020 	blr	x1
    5994:	aa0003e1 	mov	x1, x0
    5998:	f946af60 	ldr	x0, [x27, #3416]
    599c:	97fffc6d 	bl	4b50 <_ZStlsISt11char_traitsIcEERSt13basic_ostreamIcT_ES5_PKc@plt>
    59a0:	b0000141 	adrp	x1, 2e000 <_ZN6google8protobuf8internal15UTF8GenericScanEPKNS1_19UTF8StateMachineObjEPKciPi>
    59a4:	911b2021 	add	x1, x1, #0x6c8
    59a8:	97fffc6a 	bl	4b50 <_ZStlsISt11char_traitsIcEERSt13basic_ostreamIcT_ES5_PKc@plt>
    59ac:	97fffcdd 	bl	4d20 <__cxa_end_catch@plt>
    59b0:	12800000 	mov	w0, #0xffffffff            	// #-1
    59b4:	17fffe6a 	b	535c <main+0x50c>
    59b8:	aa0003f3 	mov	x19, x0
    59bc:	aa0103f4 	mov	x20, x1
    59c0:	17ffffd4 	b	5910 <main+0xac0>
    59c4:	b9400322 	ldr	w2, [x25]
    59c8:	aa0003f3 	mov	x19, x0
    59cc:	aa0103f4 	mov	x20, x1
    59d0:	35000062 	cbnz	w2, 59dc <main+0xb8c>
    59d4:	b94077e0 	ldr	w0, [sp, #116]
    59d8:	b9000320 	str	w0, [x25]
    59dc:	f940c3e0 	ldr	x0, [sp, #384]
    59e0:	eb18001f 	cmp	x0, x24
    59e4:	54000080 	b.eq	59f4 <main+0xba4>  // b.none
    59e8:	f940cbe1 	ldr	x1, [sp, #400]
    59ec:	91000421 	add	x1, x1, #0x1
    59f0:	97fffc60 	bl	4b70 <_ZdlPvm@plt>
    59f4:	f9408fe0 	ldr	x0, [sp, #280]
    59f8:	eb17001f 	cmp	x0, x23
    59fc:	54fff921 	b.ne	5920 <main+0xad0>  // b.any
    5a00:	17ffffcb 	b	592c <main+0xadc>
    5a04:	aa0003f3 	mov	x19, x0
    5a08:	97fffcc6 	bl	4d20 <__cxa_end_catch@plt>
    5a0c:	aa1303e0 	mov	x0, x19
    5a10:	97fffcd4 	bl	4d60 <_Unwind_Resume@plt>
    5a14:	aa0003f4 	mov	x20, x0
    5a18:	aa0103f5 	mov	x21, x1
    5a1c:	f9407fe0 	ldr	x0, [sp, #248]
    5a20:	eb13001f 	cmp	x0, x19
    5a24:	54000080 	b.eq	5a34 <main+0xbe4>  // b.none
    5a28:	f94087e1 	ldr	x1, [sp, #264]
    5a2c:	91000421 	add	x1, x1, #0x1
    5a30:	97fffc50 	bl	4b70 <_ZdlPvm@plt>
    5a34:	aa1403f3 	mov	x19, x20
    5a38:	aa1503f4 	mov	x20, x21
    5a3c:	aa1603e0 	mov	x0, x22
    5a40:	94001c50 	bl	cb80 <_ZN11vector_tile4TileD2Ev>
    5a44:	f9403fe1 	ldr	x1, [sp, #120]
    5a48:	f9406fe0 	ldr	x0, [sp, #216]
    5a4c:	eb01001f 	cmp	x0, x1
    5a50:	54fff6e0 	b.eq	592c <main+0xadc>  // b.none
    5a54:	f94077e1 	ldr	x1, [sp, #232]
    5a58:	91000421 	add	x1, x1, #0x1
    5a5c:	97fffc45 	bl	4b70 <_ZdlPvm@plt>
    5a60:	17ffffb3 	b	592c <main+0xadc>
    5a64:	aa0003f3 	mov	x19, x0
    5a68:	aa0103f4 	mov	x20, x1
    5a6c:	17fffff6 	b	5a44 <main+0xbf4>
    5a70:	aa0103f4 	mov	x20, x1
    5a74:	17ffffba 	b	595c <main+0xb0c>
    5a78:	aa0003f3 	mov	x19, x0
    5a7c:	aa0103f4 	mov	x20, x1
    5a80:	17ffffef 	b	5a3c <main+0xbec>
    5a84:	f940c3e2 	ldr	x2, [sp, #384]
    5a88:	aa0003f4 	mov	x20, x0
    5a8c:	aa0103f5 	mov	x21, x1
    5a90:	eb18005f 	cmp	x2, x24
    5a94:	54fffc40 	b.eq	5a1c <main+0xbcc>  // b.none
    5a98:	f940cbe1 	ldr	x1, [sp, #400]
    5a9c:	aa0203e0 	mov	x0, x2
    5aa0:	91000421 	add	x1, x1, #0x1
    5aa4:	97fffc33 	bl	4b70 <_ZdlPvm@plt>
    5aa8:	17ffffdd 	b	5a1c <main+0xbcc>
    5aac:	aa0003f4 	mov	x20, x0
    5ab0:	aa0103f5 	mov	x21, x1
    5ab4:	aa1a03e0 	mov	x0, x26
    5ab8:	97fffc7e 	bl	4cb0 <_ZNSt14basic_ofstreamIcSt11char_traitsIcEED1Ev@plt>
    5abc:	17ffffd8 	b	5a1c <main+0xbcc>
    5ac0:	f94057e2 	ldr	x2, [sp, #168]
    5ac4:	aa0003f3 	mov	x19, x0
    5ac8:	aa0103f4 	mov	x20, x1
    5acc:	b4fff382 	cbz	x2, 593c <main+0xaec>
    5ad0:	f94053e1 	ldr	x1, [sp, #160]
    5ad4:	aa0203e0 	mov	x0, x2
    5ad8:	d63f0020 	blr	x1
    5adc:	17ffff98 	b	593c <main+0xaec>
    5ae0:	aa0003f3 	mov	x19, x0
    5ae4:	aa0103f4 	mov	x20, x1
    5ae8:	17ffff95 	b	593c <main+0xaec>
    5aec:	aa0003f3 	mov	x19, x0
    5af0:	aa0103f4 	mov	x20, x1
    5af4:	17ffff8e 	b	592c <main+0xadc>
    5af8:	aa0003f3 	mov	x19, x0
    5afc:	aa0103f4 	mov	x20, x1
    5b00:	17ffffbd 	b	59f4 <main+0xba4>
    5b04:	f9404be2 	ldr	x2, [sp, #144]
    5b08:	aa0003f3 	mov	x19, x0
    5b0c:	aa0103f4 	mov	x20, x1
    5b10:	b4fff0e2 	cbz	x2, 592c <main+0xadc>
    5b14:	aa0203e0 	mov	x0, x2
    5b18:	97fffc42 	bl	4c20 <_ZdaPv@plt>
    5b1c:	17ffff84 	b	592c <main+0xadc>
    5b20:	f940c3e2 	ldr	x2, [sp, #384]
    5b24:	aa0003f3 	mov	x19, x0
    5b28:	aa0103f4 	mov	x20, x1
    5b2c:	eb18005f 	cmp	x2, x24
    5b30:	54fff8a0 	b.eq	5a44 <main+0xbf4>  // b.none
    5b34:	f940cbe1 	ldr	x1, [sp, #400]
    5b38:	aa0203e0 	mov	x0, x2
    5b3c:	91000421 	add	x1, x1, #0x1
    5b40:	97fffc0c 	bl	4b70 <_ZdlPvm@plt>
    5b44:	17ffffc0 	b	5a44 <main+0xbf4>
    5b48:	d503201f 	nop
    5b4c:	d503201f 	nop

0000000000005b50 <_GLOBAL__sub_I_vector_tile.pb.cc>:
    5b50:	a9be7bfd 	stp	x29, x30, [sp, #-32]!
    5b54:	910003fd 	mov	x29, sp
    5b58:	f9000bf3 	str	x19, [sp, #16]
    5b5c:	d0000233 	adrp	x19, 4b000 <__data_start>
    5b60:	d50320ff 	xpaclri
    5b64:	91010273 	add	x19, x19, #0x40
    5b68:	aa1e03e0 	mov	x0, x30
    5b6c:	91084273 	add	x19, x19, #0x210
    5b70:	97fffb74 	bl	4940 <_mcount@plt>
    5b74:	aa1303e0 	mov	x0, x19
    5b78:	97fffc56 	bl	4cd0 <_ZNSt8ios_base4InitC1Ev@plt>
    5b7c:	aa1303e1 	mov	x1, x19
    5b80:	b0000220 	adrp	x0, 4a000 <_ZTVN11vector_tile10Tile_ValueE+0x30>
    5b84:	f9400bf3 	ldr	x19, [sp, #16]
    5b88:	d0000222 	adrp	x2, 4b000 <__data_start>
    5b8c:	a8c27bfd 	ldp	x29, x30, [sp], #32
    5b90:	91002042 	add	x2, x2, #0x8
    5b94:	f947fc00 	ldr	x0, [x0, #4088]
    5b98:	17fffc02 	b	4ba0 <__cxa_atexit@plt>
    5b9c:	d503201f 	nop

0000000000005ba0 <_GLOBAL__sub_I_common.cc>:
    5ba0:	a9be7bfd 	stp	x29, x30, [sp, #-32]!
    5ba4:	910003fd 	mov	x29, sp
    5ba8:	f9000bf3 	str	x19, [sp, #16]
    5bac:	d0000233 	adrp	x19, 4b000 <__data_start>
    5bb0:	91096273 	add	x19, x19, #0x258
    5bb4:	91004273 	add	x19, x19, #0x10
    5bb8:	aa1303e0 	mov	x0, x19
    5bbc:	97fffc45 	bl	4cd0 <_ZNSt8ios_base4InitC1Ev@plt>
    5bc0:	aa1303e1 	mov	x1, x19
    5bc4:	b0000220 	adrp	x0, 4a000 <_ZTVN11vector_tile10Tile_ValueE+0x30>
    5bc8:	f9400bf3 	ldr	x19, [sp, #16]
    5bcc:	d0000222 	adrp	x2, 4b000 <__data_start>
    5bd0:	a8c27bfd 	ldp	x29, x30, [sp], #32
    5bd4:	91002042 	add	x2, x2, #0x8
    5bd8:	f947fc00 	ldr	x0, [x0, #4088]
    5bdc:	17fffbf1 	b	4ba0 <__cxa_atexit@plt>

0000000000005be0 <_GLOBAL__sub_I_int128.cc>:
    5be0:	a9be7bfd 	stp	x29, x30, [sp, #-32]!
    5be4:	910003fd 	mov	x29, sp
    5be8:	f9000bf3 	str	x19, [sp, #16]
    5bec:	d0000233 	adrp	x19, 4b000 <__data_start>
    5bf0:	910a2273 	add	x19, x19, #0x288
    5bf4:	aa1303e0 	mov	x0, x19
    5bf8:	97fffc36 	bl	4cd0 <_ZNSt8ios_base4InitC1Ev@plt>
    5bfc:	aa1303e1 	mov	x1, x19
    5c00:	b0000220 	adrp	x0, 4a000 <_ZTVN11vector_tile10Tile_ValueE+0x30>
    5c04:	f9400bf3 	ldr	x19, [sp, #16]
    5c08:	d0000222 	adrp	x2, 4b000 <__data_start>
    5c0c:	a8c27bfd 	ldp	x29, x30, [sp], #32
    5c10:	91002042 	add	x2, x2, #0x8
    5c14:	f947fc00 	ldr	x0, [x0, #4088]
    5c18:	17fffbe2 	b	4ba0 <__cxa_atexit@plt>
    5c1c:	d503201f 	nop

0000000000005c20 <_GLOBAL__sub_I_once.cc>:
    5c20:	a9be7bfd 	stp	x29, x30, [sp, #-32]!
    5c24:	910003fd 	mov	x29, sp
    5c28:	f9000bf3 	str	x19, [sp, #16]
    5c2c:	d0000233 	adrp	x19, 4b000 <__data_start>
    5c30:	910a4273 	add	x19, x19, #0x290
    5c34:	aa1303e0 	mov	x0, x19
    5c38:	97fffc26 	bl	4cd0 <_ZNSt8ios_base4InitC1Ev@plt>
    5c3c:	aa1303e1 	mov	x1, x19
    5c40:	b0000220 	adrp	x0, 4a000 <_ZTVN11vector_tile10Tile_ValueE+0x30>
    5c44:	f9400bf3 	ldr	x19, [sp, #16]
    5c48:	d0000222 	adrp	x2, 4b000 <__data_start>
    5c4c:	a8c27bfd 	ldp	x29, x30, [sp], #32
    5c50:	91002042 	add	x2, x2, #0x8
    5c54:	f947fc00 	ldr	x0, [x0, #4088]
    5c58:	17fffbd2 	b	4ba0 <__cxa_atexit@plt>
    5c5c:	d503201f 	nop

0000000000005c60 <_GLOBAL__sub_I_status.cc>:
    5c60:	a9bd7bfd 	stp	x29, x30, [sp, #-48]!
    5c64:	910003fd 	mov	x29, sp
    5c68:	a90153f3 	stp	x19, x20, [sp, #16]
    5c6c:	d0000234 	adrp	x20, 4b000 <__data_start>
    5c70:	910a6294 	add	x20, x20, #0x298
    5c74:	aa1403e0 	mov	x0, x20
    5c78:	a9025bf5 	stp	x21, x22, [sp, #32]
    5c7c:	97fffc15 	bl	4cd0 <_ZNSt8ios_base4InitC1Ev@plt>
    5c80:	b0000220 	adrp	x0, 4a000 <_ZTVN11vector_tile10Tile_ValueE+0x30>
    5c84:	b0000235 	adrp	x21, 4a000 <_ZTVN11vector_tile10Tile_ValueE+0x30>
    5c88:	d0000233 	adrp	x19, 4b000 <__data_start>
    5c8c:	91002273 	add	x19, x19, #0x8
    5c90:	f947fc00 	ldr	x0, [x0, #4088]
    5c94:	aa1403e1 	mov	x1, x20
    5c98:	aa1303e2 	mov	x2, x19
    5c9c:	b0000234 	adrp	x20, 4a000 <_ZTVN11vector_tile10Tile_ValueE+0x30>
    5ca0:	d0000156 	adrp	x22, 2f000 <_ZN6google8protobuf11kuint128maxE+0x170>
    5ca4:	910cc2d6 	add	x22, x22, #0x330
    5ca8:	97fffbbe 	bl	4ba0 <__cxa_atexit@plt>
    5cac:	f9476ab5 	ldr	x21, [x21, #3792]
    5cb0:	aa1503e0 	mov	x0, x21
    5cb4:	9400323b 	bl	125a0 <_ZN6google8protobuf4util6StatusC1Ev>
    5cb8:	f947c694 	ldr	x20, [x20, #3976]
    5cbc:	aa1503e1 	mov	x1, x21
    5cc0:	b0000235 	adrp	x21, 4a000 <_ZTVN11vector_tile10Tile_ValueE+0x30>
    5cc4:	aa1303e2 	mov	x2, x19
    5cc8:	aa1403e0 	mov	x0, x20
    5ccc:	97fffbb5 	bl	4ba0 <__cxa_atexit@plt>
    5cd0:	f946b6b5 	ldr	x21, [x21, #3432]
    5cd4:	aa1603e2 	mov	x2, x22
    5cd8:	d2800003 	mov	x3, #0x0                   	// #0
    5cdc:	52800021 	mov	w1, #0x1                   	// #1
    5ce0:	aa1503e0 	mov	x0, x21
    5ce4:	94003237 	bl	125c0 <_ZN6google8protobuf4util6StatusC1ENS1_5error4CodeENS0_11StringPieceE>
    5ce8:	aa1503e1 	mov	x1, x21
    5cec:	b0000235 	adrp	x21, 4a000 <_ZTVN11vector_tile10Tile_ValueE+0x30>
    5cf0:	aa1303e2 	mov	x2, x19
    5cf4:	aa1403e0 	mov	x0, x20
    5cf8:	97fffbaa 	bl	4ba0 <__cxa_atexit@plt>
    5cfc:	f9470eb5 	ldr	x21, [x21, #3608]
    5d00:	aa1603e2 	mov	x2, x22
    5d04:	d2800003 	mov	x3, #0x0                   	// #0
    5d08:	52800041 	mov	w1, #0x2                   	// #2
    5d0c:	aa1503e0 	mov	x0, x21
    5d10:	9400322c 	bl	125c0 <_ZN6google8protobuf4util6StatusC1ENS1_5error4CodeENS0_11StringPieceE>
    5d14:	aa1303e2 	mov	x2, x19
    5d18:	aa1503e1 	mov	x1, x21
    5d1c:	aa1403e0 	mov	x0, x20
    5d20:	a94153f3 	ldp	x19, x20, [sp, #16]
    5d24:	a9425bf5 	ldp	x21, x22, [sp, #32]
    5d28:	a8c37bfd 	ldp	x29, x30, [sp], #48
    5d2c:	17fffb9d 	b	4ba0 <__cxa_atexit@plt>

0000000000005d30 <_GLOBAL__sub_I_arena.cc>:
    5d30:	a9be7bfd 	stp	x29, x30, [sp, #-32]!
    5d34:	910003fd 	mov	x29, sp
    5d38:	f9000bf3 	str	x19, [sp, #16]
    5d3c:	d0000233 	adrp	x19, 4b000 <__data_start>
    5d40:	910c6273 	add	x19, x19, #0x318
    5d44:	aa1303e0 	mov	x0, x19
    5d48:	97fffbe2 	bl	4cd0 <_ZNSt8ios_base4InitC1Ev@plt>
    5d4c:	b0000220 	adrp	x0, 4a000 <_ZTVN11vector_tile10Tile_ValueE+0x30>
    5d50:	aa1303e1 	mov	x1, x19
    5d54:	d0000222 	adrp	x2, 4b000 <__data_start>
    5d58:	91002042 	add	x2, x2, #0x8
    5d5c:	f947fc00 	ldr	x0, [x0, #4088]
    5d60:	97fffb90 	bl	4ba0 <__cxa_atexit@plt>
    5d64:	b0000220 	adrp	x0, 4a000 <_ZTVN11vector_tile10Tile_ValueE+0x30>
    5d68:	f9400bf3 	ldr	x19, [sp, #16]
    5d6c:	f947cc00 	ldr	x0, [x0, #3992]
    5d70:	f900001f 	str	xzr, [x0]
    5d74:	a8c27bfd 	ldp	x29, x30, [sp], #32
    5d78:	d65f03c0 	ret
    5d7c:	d503201f 	nop

0000000000005d80 <_GLOBAL__sub_I_extension_set.cc>:
    5d80:	a9be7bfd 	stp	x29, x30, [sp, #-32]!
    5d84:	910003fd 	mov	x29, sp
    5d88:	f9000bf3 	str	x19, [sp, #16]
    5d8c:	d0000233 	adrp	x19, 4b000 <__data_start>
    5d90:	910ca273 	add	x19, x19, #0x328
    5d94:	91004273 	add	x19, x19, #0x10
    5d98:	aa1303e0 	mov	x0, x19
    5d9c:	97fffbcd 	bl	4cd0 <_ZNSt8ios_base4InitC1Ev@plt>
    5da0:	aa1303e1 	mov	x1, x19
    5da4:	b0000220 	adrp	x0, 4a000 <_ZTVN11vector_tile10Tile_ValueE+0x30>
    5da8:	f9400bf3 	ldr	x19, [sp, #16]
    5dac:	d0000222 	adrp	x2, 4b000 <__data_start>
    5db0:	a8c27bfd 	ldp	x29, x30, [sp], #32
    5db4:	91002042 	add	x2, x2, #0x8
    5db8:	f947fc00 	ldr	x0, [x0, #4088]
    5dbc:	17fffb79 	b	4ba0 <__cxa_atexit@plt>

0000000000005dc0 <_GLOBAL__sub_I_generated_message_util.cc>:
    5dc0:	a9be7bfd 	stp	x29, x30, [sp, #-32]!
    5dc4:	910003fd 	mov	x29, sp
    5dc8:	f9000bf3 	str	x19, [sp, #16]
    5dcc:	d0000233 	adrp	x19, 4b000 <__data_start>
    5dd0:	910e8273 	add	x19, x19, #0x3a0
    5dd4:	aa1303e0 	mov	x0, x19
    5dd8:	97fffbbe 	bl	4cd0 <_ZNSt8ios_base4InitC1Ev@plt>
    5ddc:	aa1303e1 	mov	x1, x19
    5de0:	b0000220 	adrp	x0, 4a000 <_ZTVN11vector_tile10Tile_ValueE+0x30>
    5de4:	f9400bf3 	ldr	x19, [sp, #16]
    5de8:	d0000222 	adrp	x2, 4b000 <__data_start>
    5dec:	a8c27bfd 	ldp	x29, x30, [sp], #32
    5df0:	91002042 	add	x2, x2, #0x8
    5df4:	f947fc00 	ldr	x0, [x0, #4088]
    5df8:	17fffb6a 	b	4ba0 <__cxa_atexit@plt>
    5dfc:	d503201f 	nop

0000000000005e00 <_GLOBAL__sub_I_message_lite.cc>:
    5e00:	a9be7bfd 	stp	x29, x30, [sp, #-32]!
    5e04:	910003fd 	mov	x29, sp
    5e08:	f9000bf3 	str	x19, [sp, #16]
    5e0c:	d0000233 	adrp	x19, 4b000 <__data_start>
    5e10:	910f4273 	add	x19, x19, #0x3d0
    5e14:	aa1303e0 	mov	x0, x19
    5e18:	97fffbae 	bl	4cd0 <_ZNSt8ios_base4InitC1Ev@plt>
    5e1c:	aa1303e1 	mov	x1, x19
    5e20:	b0000220 	adrp	x0, 4a000 <_ZTVN11vector_tile10Tile_ValueE+0x30>
    5e24:	f9400bf3 	ldr	x19, [sp, #16]
    5e28:	d0000222 	adrp	x2, 4b000 <__data_start>
    5e2c:	a8c27bfd 	ldp	x29, x30, [sp], #32
    5e30:	91002042 	add	x2, x2, #0x8
    5e34:	f947fc00 	ldr	x0, [x0, #4088]
    5e38:	17fffb5a 	b	4ba0 <__cxa_atexit@plt>
    5e3c:	d503201f 	nop

0000000000005e40 <_GLOBAL__sub_I_repeated_field.cc>:
    5e40:	a9be7bfd 	stp	x29, x30, [sp, #-32]!
    5e44:	910003fd 	mov	x29, sp
    5e48:	f9000bf3 	str	x19, [sp, #16]
    5e4c:	d0000233 	adrp	x19, 4b000 <__data_start>
    5e50:	910f6273 	add	x19, x19, #0x3d8
    5e54:	aa1303e0 	mov	x0, x19
    5e58:	97fffb9e 	bl	4cd0 <_ZNSt8ios_base4InitC1Ev@plt>
    5e5c:	aa1303e1 	mov	x1, x19
    5e60:	b0000220 	adrp	x0, 4a000 <_ZTVN11vector_tile10Tile_ValueE+0x30>
    5e64:	f9400bf3 	ldr	x19, [sp, #16]
    5e68:	d0000222 	adrp	x2, 4b000 <__data_start>
    5e6c:	a8c27bfd 	ldp	x29, x30, [sp], #32
    5e70:	91002042 	add	x2, x2, #0x8
    5e74:	f947fc00 	ldr	x0, [x0, #4088]
    5e78:	17fffb4a 	b	4ba0 <__cxa_atexit@plt>
    5e7c:	d503201f 	nop

0000000000005e80 <_GLOBAL__sub_I_wire_format_lite.cc>:
    5e80:	a9be7bfd 	stp	x29, x30, [sp, #-32]!
    5e84:	910003fd 	mov	x29, sp
    5e88:	f9000bf3 	str	x19, [sp, #16]
    5e8c:	d0000233 	adrp	x19, 4b000 <__data_start>
    5e90:	910f8273 	add	x19, x19, #0x3e0
    5e94:	aa1303e0 	mov	x0, x19
    5e98:	97fffb8e 	bl	4cd0 <_ZNSt8ios_base4InitC1Ev@plt>
    5e9c:	aa1303e1 	mov	x1, x19
    5ea0:	b0000220 	adrp	x0, 4a000 <_ZTVN11vector_tile10Tile_ValueE+0x30>
    5ea4:	f9400bf3 	ldr	x19, [sp, #16]
    5ea8:	d0000222 	adrp	x2, 4b000 <__data_start>
    5eac:	a8c27bfd 	ldp	x29, x30, [sp], #32
    5eb0:	91002042 	add	x2, x2, #0x8
    5eb4:	f947fc00 	ldr	x0, [x0, #4088]
    5eb8:	17fffb3a 	b	4ba0 <__cxa_atexit@plt>
    5ebc:	d503201f 	nop

0000000000005ec0 <_GLOBAL__sub_I_coded_stream.cc>:
    5ec0:	a9be7bfd 	stp	x29, x30, [sp, #-32]!
    5ec4:	910003fd 	mov	x29, sp
    5ec8:	f9000bf3 	str	x19, [sp, #16]
    5ecc:	d0000233 	adrp	x19, 4b000 <__data_start>
    5ed0:	910fa273 	add	x19, x19, #0x3e8
    5ed4:	aa1303e0 	mov	x0, x19
    5ed8:	97fffb7e 	bl	4cd0 <_ZNSt8ios_base4InitC1Ev@plt>
    5edc:	aa1303e1 	mov	x1, x19
    5ee0:	b0000220 	adrp	x0, 4a000 <_ZTVN11vector_tile10Tile_ValueE+0x30>
    5ee4:	f9400bf3 	ldr	x19, [sp, #16]
    5ee8:	d0000222 	adrp	x2, 4b000 <__data_start>
    5eec:	a8c27bfd 	ldp	x29, x30, [sp], #32
    5ef0:	91002042 	add	x2, x2, #0x8
    5ef4:	f947fc00 	ldr	x0, [x0, #4088]
    5ef8:	17fffb2a 	b	4ba0 <__cxa_atexit@plt>
    5efc:	d503201f 	nop

0000000000005f00 <_GLOBAL__sub_I_zero_copy_stream_impl_lite.cc>:
    5f00:	a9be7bfd 	stp	x29, x30, [sp, #-32]!
    5f04:	910003fd 	mov	x29, sp
    5f08:	f9000bf3 	str	x19, [sp, #16]
    5f0c:	d0000233 	adrp	x19, 4b000 <__data_start>
    5f10:	910fe273 	add	x19, x19, #0x3f8
    5f14:	aa1303e0 	mov	x0, x19
    5f18:	97fffb6e 	bl	4cd0 <_ZNSt8ios_base4InitC1Ev@plt>
    5f1c:	aa1303e1 	mov	x1, x19
    5f20:	b0000220 	adrp	x0, 4a000 <_ZTVN11vector_tile10Tile_ValueE+0x30>
    5f24:	f9400bf3 	ldr	x19, [sp, #16]
    5f28:	d0000222 	adrp	x2, 4b000 <__data_start>
    5f2c:	a8c27bfd 	ldp	x29, x30, [sp], #32
    5f30:	91002042 	add	x2, x2, #0x8
    5f34:	f947fc00 	ldr	x0, [x0, #4088]
    5f38:	17fffb1a 	b	4ba0 <__cxa_atexit@plt>
    5f3c:	d503201f 	nop

0000000000005f40 <_GLOBAL__sub_I_stringprintf.cc>:
    5f40:	a9be7bfd 	stp	x29, x30, [sp, #-32]!
    5f44:	910003fd 	mov	x29, sp
    5f48:	f9000bf3 	str	x19, [sp, #16]
    5f4c:	d0000233 	adrp	x19, 4b000 <__data_start>
    5f50:	91100273 	add	x19, x19, #0x400
    5f54:	aa1303e0 	mov	x0, x19
    5f58:	97fffb5e 	bl	4cd0 <_ZNSt8ios_base4InitC1Ev@plt>
    5f5c:	aa1303e1 	mov	x1, x19
    5f60:	b0000220 	adrp	x0, 4a000 <_ZTVN11vector_tile10Tile_ValueE+0x30>
    5f64:	f9400bf3 	ldr	x19, [sp, #16]
    5f68:	d0000222 	adrp	x2, 4b000 <__data_start>
    5f6c:	a8c27bfd 	ldp	x29, x30, [sp], #32
    5f70:	91002042 	add	x2, x2, #0x8
    5f74:	f947fc00 	ldr	x0, [x0, #4088]
    5f78:	17fffb0a 	b	4ba0 <__cxa_atexit@plt>
    5f7c:	d503201f 	nop

0000000000005f80 <_GLOBAL__sub_I_structurally_valid.cc>:
    5f80:	a9be7bfd 	stp	x29, x30, [sp, #-32]!
    5f84:	910003fd 	mov	x29, sp
    5f88:	a90153f3 	stp	x19, x20, [sp, #16]
    5f8c:	d0000234 	adrp	x20, 4b000 <__data_start>
    5f90:	91102293 	add	x19, x20, #0x408
    5f94:	91002273 	add	x19, x19, #0x8
    5f98:	aa1303e0 	mov	x0, x19
    5f9c:	97fffb4d 	bl	4cd0 <_ZNSt8ios_base4InitC1Ev@plt>
    5fa0:	b0000220 	adrp	x0, 4a000 <_ZTVN11vector_tile10Tile_ValueE+0x30>
    5fa4:	aa1303e1 	mov	x1, x19
    5fa8:	d0000222 	adrp	x2, 4b000 <__data_start>
    5fac:	91002042 	add	x2, x2, #0x8
    5fb0:	f947fc00 	ldr	x0, [x0, #4088]
    5fb4:	97fffafb 	bl	4ba0 <__cxa_atexit@plt>
    5fb8:	52800020 	mov	w0, #0x1                   	// #1
    5fbc:	39102280 	strb	w0, [x20, #1032]
    5fc0:	a94153f3 	ldp	x19, x20, [sp, #16]
    5fc4:	a8c27bfd 	ldp	x29, x30, [sp], #32
    5fc8:	d65f03c0 	ret
    5fcc:	d503201f 	nop

0000000000005fd0 <_GLOBAL__sub_I_zero_copy_stream.cc>:
    5fd0:	a9be7bfd 	stp	x29, x30, [sp, #-32]!
    5fd4:	910003fd 	mov	x29, sp
    5fd8:	f9000bf3 	str	x19, [sp, #16]
    5fdc:	d0000233 	adrp	x19, 4b000 <__data_start>
    5fe0:	91106273 	add	x19, x19, #0x418
    5fe4:	aa1303e0 	mov	x0, x19
    5fe8:	97fffb3a 	bl	4cd0 <_ZNSt8ios_base4InitC1Ev@plt>
    5fec:	aa1303e1 	mov	x1, x19
    5ff0:	b0000220 	adrp	x0, 4a000 <_ZTVN11vector_tile10Tile_ValueE+0x30>
    5ff4:	f9400bf3 	ldr	x19, [sp, #16]
    5ff8:	d0000222 	adrp	x2, 4b000 <__data_start>
    5ffc:	a8c27bfd 	ldp	x29, x30, [sp], #32
    6000:	91002042 	add	x2, x2, #0x8
    6004:	f947fc00 	ldr	x0, [x0, #4088]
    6008:	17fffae6 	b	4ba0 <__cxa_atexit@plt>
    600c:	d503201f 	nop
    6010:	d503201f 	nop
    6014:	d503201f 	nop
    6018:	d503201f 	nop
    601c:	d503201f 	nop
    6020:	d503201f 	nop
    6024:	d503201f 	nop
    6028:	d503201f 	nop
    602c:	d503201f 	nop
    6030:	d503201f 	nop
    6034:	d503201f 	nop
    6038:	d503201f 	nop
    603c:	d503201f 	nop

0000000000006040 <_start>:
    6040:	d503201f 	nop
    6044:	d280001d 	mov	x29, #0x0                   	// #0
    6048:	d280001e 	mov	x30, #0x0                   	// #0
    604c:	aa0003e5 	mov	x5, x0
    6050:	f94003e1 	ldr	x1, [sp]
    6054:	910023e2 	add	x2, sp, #0x8
    6058:	910003e6 	mov	x6, sp
    605c:	90000220 	adrp	x0, 4a000 <_ZTVN11vector_tile10Tile_ValueE+0x30>
    6060:	f946cc00 	ldr	x0, [x0, #3480]
    6064:	d2800003 	mov	x3, #0x0                   	// #0
    6068:	d2800004 	mov	x4, #0x0                   	// #0
    606c:	97fffaa5 	bl	4b00 <__libc_start_main@plt>
    6070:	97fffb24 	bl	4d00 <abort@plt>
    6074:	d503201f 	nop
    6078:	d503201f 	nop
    607c:	d503201f 	nop

0000000000006080 <__gmon_start__>:
    6080:	b0000222 	adrp	x2, 4b000 <__data_start>
    6084:	b9403040 	ldr	w0, [x2, #48]
    6088:	34000040 	cbz	w0, 6090 <__gmon_start__+0x10>
    608c:	d65f03c0 	ret
    6090:	a9bf7bfd 	stp	x29, x30, [sp, #-16]!
    6094:	90000221 	adrp	x1, 4a000 <_ZTVN11vector_tile10Tile_ValueE+0x30>
    6098:	52800023 	mov	w3, #0x1                   	// #1
    609c:	910003fd 	mov	x29, sp
    60a0:	f9479821 	ldr	x1, [x1, #3888]
    60a4:	b9003043 	str	w3, [x2, #48]
    60a8:	d0ffffc0 	adrp	x0, 0 <_ZN6google8protobuf8internal9ArenaImpl13thread_cache_E>
    60ac:	91000000 	add	x0, x0, #0x0
    60b0:	97fffb04 	bl	4cc0 <__monstartup@plt>
    60b4:	a8c17bfd 	ldp	x29, x30, [sp], #16
    60b8:	90000220 	adrp	x0, 4a000 <_ZTVN11vector_tile10Tile_ValueE+0x30>
    60bc:	f946b000 	ldr	x0, [x0, #3424]
    60c0:	1400a140 	b	2e5c0 <atexit>
    60c4:	d503201f 	nop
    60c8:	d503201f 	nop
    60cc:	d503201f 	nop

00000000000060d0 <_dl_relocate_static_pie>:
    60d0:	d65f03c0 	ret

00000000000060d4 <call_weak_fn>:
    60d4:	90000220 	adrp	x0, 4a000 <_ZTVN11vector_tile10Tile_ValueE+0x30>
    60d8:	f947e400 	ldr	x0, [x0, #4040]
    60dc:	b4000040 	cbz	x0, 60e4 <call_weak_fn+0x10>
    60e0:	17ffffe8 	b	6080 <__gmon_start__>
    60e4:	d65f03c0 	ret
    60e8:	d503201f 	nop
    60ec:	d503201f 	nop

00000000000060f0 <deregister_tm_clones>:
    60f0:	b0000220 	adrp	x0, 4b000 <__data_start>
    60f4:	9100c000 	add	x0, x0, #0x30
    60f8:	b0000221 	adrp	x1, 4b000 <__data_start>
    60fc:	9100c021 	add	x1, x1, #0x30
    6100:	eb00003f 	cmp	x1, x0
    6104:	540000c0 	b.eq	611c <deregister_tm_clones+0x2c>  // b.none
    6108:	90000221 	adrp	x1, 4a000 <_ZTVN11vector_tile10Tile_ValueE+0x30>
    610c:	f947c021 	ldr	x1, [x1, #3968]
    6110:	b4000061 	cbz	x1, 611c <deregister_tm_clones+0x2c>
    6114:	aa0103f0 	mov	x16, x1
    6118:	d61f0200 	br	x16
    611c:	d65f03c0 	ret

0000000000006120 <register_tm_clones>:
    6120:	b0000220 	adrp	x0, 4b000 <__data_start>
    6124:	9100c000 	add	x0, x0, #0x30
    6128:	b0000221 	adrp	x1, 4b000 <__data_start>
    612c:	9100c021 	add	x1, x1, #0x30
    6130:	cb000021 	sub	x1, x1, x0
    6134:	d37ffc22 	lsr	x2, x1, #63
    6138:	8b810c41 	add	x1, x2, x1, asr #3
    613c:	9341fc21 	asr	x1, x1, #1
    6140:	b40000c1 	cbz	x1, 6158 <register_tm_clones+0x38>
    6144:	90000222 	adrp	x2, 4a000 <_ZTVN11vector_tile10Tile_ValueE+0x30>
    6148:	f947ec42 	ldr	x2, [x2, #4056]
    614c:	b4000062 	cbz	x2, 6158 <register_tm_clones+0x38>
    6150:	aa0203f0 	mov	x16, x2
    6154:	d61f0200 	br	x16
    6158:	d65f03c0 	ret
    615c:	d503201f 	nop

0000000000006160 <__do_global_dtors_aux>:
    6160:	a9be7bfd 	stp	x29, x30, [sp, #-32]!
    6164:	910003fd 	mov	x29, sp
    6168:	f9000bf3 	str	x19, [sp, #16]
    616c:	b0000233 	adrp	x19, 4b000 <__data_start>
    6170:	3940d260 	ldrb	w0, [x19, #52]
    6174:	35000140 	cbnz	w0, 619c <__do_global_dtors_aux+0x3c>
    6178:	90000220 	adrp	x0, 4a000 <_ZTVN11vector_tile10Tile_ValueE+0x30>
    617c:	f946fc00 	ldr	x0, [x0, #3576]
    6180:	b4000080 	cbz	x0, 6190 <__do_global_dtors_aux+0x30>
    6184:	b0000220 	adrp	x0, 4b000 <__data_start>
    6188:	f9400400 	ldr	x0, [x0, #8]
    618c:	97fffa21 	bl	4a10 <__cxa_finalize@plt>
    6190:	97ffffd8 	bl	60f0 <deregister_tm_clones>
    6194:	52800020 	mov	w0, #0x1                   	// #1
    6198:	3900d260 	strb	w0, [x19, #52]
    619c:	f9400bf3 	ldr	x19, [sp, #16]
    61a0:	a8c27bfd 	ldp	x29, x30, [sp], #32
    61a4:	d65f03c0 	ret
    61a8:	d503201f 	nop
    61ac:	d503201f 	nop

00000000000061b0 <frame_dummy>:
    61b0:	17ffffdc 	b	6120 <register_tm_clones>
    61b4:	d503201f 	nop
    61b8:	d503201f 	nop
    61bc:	d503201f 	nop

00000000000061c0 <_ZSt4endlIcSt11char_traitsIcEERSt13basic_ostreamIT_T0_ES6_.isra.0>:
    61c0:	a9be7bfd 	stp	x29, x30, [sp, #-32]!
    61c4:	910003fd 	mov	x29, sp
    61c8:	a90153f3 	stp	x19, x20, [sp, #16]
    61cc:	aa0003f3 	mov	x19, x0
    61d0:	d50320ff 	xpaclri
    61d4:	aa1e03e0 	mov	x0, x30
    61d8:	97fff9da 	bl	4940 <_mcount@plt>
    61dc:	f9400260 	ldr	x0, [x19]
    61e0:	f85e8000 	ldur	x0, [x0, #-24]
    61e4:	8b000260 	add	x0, x19, x0
    61e8:	f9407814 	ldr	x20, [x0, #240]
    61ec:	b40002d4 	cbz	x20, 6244 <_ZSt4endlIcSt11char_traitsIcEERSt13basic_ostreamIT_T0_ES6_.isra.0+0x84>
    61f0:	3940e280 	ldrb	w0, [x20, #56]
    61f4:	340000e0 	cbz	w0, 6210 <_ZSt4endlIcSt11char_traitsIcEERSt13basic_ostreamIT_T0_ES6_.isra.0+0x50>
    61f8:	39410e81 	ldrb	w1, [x20, #67]
    61fc:	aa1303e0 	mov	x0, x19
    6200:	97fff994 	bl	4850 <_ZNSo3putEc@plt>
    6204:	a94153f3 	ldp	x19, x20, [sp, #16]
    6208:	a8c27bfd 	ldp	x29, x30, [sp], #32
    620c:	17fffa21 	b	4a90 <_ZNSo5flushEv@plt>
    6210:	aa1403e0 	mov	x0, x20
    6214:	97fffa6b 	bl	4bc0 <_ZNKSt5ctypeIcE13_M_widen_initEv@plt>
    6218:	f9400282 	ldr	x2, [x20]
    621c:	90000000 	adrp	x0, 6000 <_GLOBAL__sub_I_zero_copy_stream.cc+0x30>
    6220:	910d4000 	add	x0, x0, #0x350
    6224:	52800141 	mov	w1, #0xa                   	// #10
    6228:	f9401842 	ldr	x2, [x2, #48]
    622c:	eb00005f 	cmp	x2, x0
    6230:	54fffe60 	b.eq	61fc <_ZSt4endlIcSt11char_traitsIcEERSt13basic_ostreamIT_T0_ES6_.isra.0+0x3c>  // b.none
    6234:	aa1403e0 	mov	x0, x20
    6238:	d63f0040 	blr	x2
    623c:	12001c01 	and	w1, w0, #0xff
    6240:	17ffffef 	b	61fc <_ZSt4endlIcSt11char_traitsIcEERSt13basic_ostreamIT_T0_ES6_.isra.0+0x3c>
    6244:	97fffa73 	bl	4c10 <_ZSt16__throw_bad_castv@plt>
    6248:	d503201f 	nop
    624c:	d503201f 	nop

0000000000006250 <_ZNSt7__cxx1112basic_stringIcSt11char_traitsIcESaIcEEC2EPKcRKS3_.constprop.0>:
    6250:	a9bc7bfd 	stp	x29, x30, [sp, #-64]!
    6254:	910003fd 	mov	x29, sp
    6258:	a90153f3 	stp	x19, x20, [sp, #16]
    625c:	a9025bf5 	stp	x21, x22, [sp, #32]
    6260:	d50320ff 	xpaclri
    6264:	aa0003f3 	mov	x19, x0
    6268:	aa0103f5 	mov	x21, x1
    626c:	aa1e03e0 	mov	x0, x30
    6270:	97fff9b4 	bl	4940 <_mcount@plt>
    6274:	91004276 	add	x22, x19, #0x10
    6278:	90000221 	adrp	x1, 4a000 <_ZTVN11vector_tile10Tile_ValueE+0x30>
    627c:	f946b821 	ldr	x1, [x1, #3440]
    6280:	f9400020 	ldr	x0, [x1]
    6284:	f9001fe0 	str	x0, [sp, #56]
    6288:	d2800000 	mov	x0, #0x0                   	// #0
    628c:	f9000276 	str	x22, [x19]
    6290:	b4000555 	cbz	x21, 6338 <_ZNSt7__cxx1112basic_stringIcSt11char_traitsIcESaIcEEC2EPKcRKS3_.constprop.0+0xe8>
    6294:	aa1503e0 	mov	x0, x21
    6298:	97fff996 	bl	48f0 <strlen@plt>
    629c:	f9001be0 	str	x0, [sp, #48]
    62a0:	aa0003f4 	mov	x20, x0
    62a4:	f1003c1f 	cmp	x0, #0xf
    62a8:	540002c8 	b.hi	6300 <_ZNSt7__cxx1112basic_stringIcSt11char_traitsIcESaIcEEC2EPKcRKS3_.constprop.0+0xb0>  // b.pmore
    62ac:	f100041f 	cmp	x0, #0x1
    62b0:	54000241 	b.ne	62f8 <_ZNSt7__cxx1112basic_stringIcSt11char_traitsIcESaIcEEC2EPKcRKS3_.constprop.0+0xa8>  // b.any
    62b4:	394002a0 	ldrb	w0, [x21]
    62b8:	39004260 	strb	w0, [x19, #16]
    62bc:	f9400262 	ldr	x2, [x19]
    62c0:	90000220 	adrp	x0, 4a000 <_ZTVN11vector_tile10Tile_ValueE+0x30>
    62c4:	f9401be1 	ldr	x1, [sp, #48]
    62c8:	f9000661 	str	x1, [x19, #8]
    62cc:	f946b800 	ldr	x0, [x0, #3440]
    62d0:	3821685f 	strb	wzr, [x2, x1]
    62d4:	f9401fe2 	ldr	x2, [sp, #56]
    62d8:	f9400001 	ldr	x1, [x0]
    62dc:	eb010042 	subs	x2, x2, x1
    62e0:	d2800001 	mov	x1, #0x0                   	// #0
    62e4:	54000281 	b.ne	6334 <_ZNSt7__cxx1112basic_stringIcSt11char_traitsIcESaIcEEC2EPKcRKS3_.constprop.0+0xe4>  // b.any
    62e8:	a94153f3 	ldp	x19, x20, [sp, #16]
    62ec:	a9425bf5 	ldp	x21, x22, [sp, #32]
    62f0:	a8c47bfd 	ldp	x29, x30, [sp], #64
    62f4:	d65f03c0 	ret
    62f8:	b4fffe20 	cbz	x0, 62bc <_ZNSt7__cxx1112basic_stringIcSt11char_traitsIcESaIcEEC2EPKcRKS3_.constprop.0+0x6c>
    62fc:	14000009 	b	6320 <_ZNSt7__cxx1112basic_stringIcSt11char_traitsIcESaIcEEC2EPKcRKS3_.constprop.0+0xd0>
    6300:	9100c3e1 	add	x1, sp, #0x30
    6304:	aa1303e0 	mov	x0, x19
    6308:	d2800002 	mov	x2, #0x0                   	// #0
    630c:	97fffa99 	bl	4d70 <_ZNSt7__cxx1112basic_stringIcSt11char_traitsIcESaIcEE9_M_createERmm@plt>
    6310:	aa0003f6 	mov	x22, x0
    6314:	f9000260 	str	x0, [x19]
    6318:	f9401be1 	ldr	x1, [sp, #48]
    631c:	f9000a61 	str	x1, [x19, #16]
    6320:	aa1403e2 	mov	x2, x20
    6324:	aa1503e1 	mov	x1, x21
    6328:	aa1603e0 	mov	x0, x22
    632c:	97fff94d 	bl	4860 <memcpy@plt>
    6330:	17ffffe3 	b	62bc <_ZNSt7__cxx1112basic_stringIcSt11char_traitsIcESaIcEEC2EPKcRKS3_.constprop.0+0x6c>
    6334:	97fff97b 	bl	4920 <__stack_chk_fail@plt>
    6338:	90000140 	adrp	x0, 2e000 <_ZN6google8protobuf8internal15UTF8GenericScanEPKNS1_19UTF8StateMachineObjEPKciPi>
    633c:	9117e000 	add	x0, x0, #0x5f8
    6340:	97fff9e4 	bl	4ad0 <_ZSt19__throw_logic_errorPKc@plt>
    6344:	d503201f 	nop
    6348:	d503201f 	nop
    634c:	d503201f 	nop

0000000000006350 <_ZNKSt5ctypeIcE8do_widenEc>:
    6350:	a9be7bfd 	stp	x29, x30, [sp, #-32]!
    6354:	910003fd 	mov	x29, sp
    6358:	f9000bf3 	str	x19, [sp, #16]
    635c:	d50320ff 	xpaclri
    6360:	12001c33 	and	w19, w1, #0xff
    6364:	aa1e03e0 	mov	x0, x30
    6368:	97fff976 	bl	4940 <_mcount@plt>
    636c:	2a1303e0 	mov	w0, w19
    6370:	f9400bf3 	ldr	x19, [sp, #16]
    6374:	a8c27bfd 	ldp	x29, x30, [sp], #32
    6378:	d65f03c0 	ret
    637c:	d503201f 	nop

0000000000006380 <_ZNK6mapnik4util4file4dataEv>:
    6380:	a9bd7bfd 	stp	x29, x30, [sp, #-48]!
    6384:	910003fd 	mov	x29, sp
    6388:	a90153f3 	stp	x19, x20, [sp, #16]
    638c:	aa0003f3 	mov	x19, x0
    6390:	d50320ff 	xpaclri
    6394:	aa0803f4 	mov	x20, x8
    6398:	aa1e03e0 	mov	x0, x30
    639c:	97fff969 	bl	4940 <_mcount@plt>
    63a0:	f9400a60 	ldr	x0, [x19, #16]
    63a4:	b50000c0 	cbnz	x0, 63bc <_ZNK6mapnik4util4file4dataEv+0x3c>
    63a8:	f900029f 	str	xzr, [x20]
    63ac:	aa1403e0 	mov	x0, x20
    63b0:	a94153f3 	ldp	x19, x20, [sp, #16]
    63b4:	a8c37bfd 	ldp	x29, x30, [sp], #48
    63b8:	d65f03c0 	ret
    63bc:	f9400660 	ldr	x0, [x19, #8]
    63c0:	52800002 	mov	w2, #0x0                   	// #0
    63c4:	d2800001 	mov	x1, #0x0                   	// #0
    63c8:	f90013f5 	str	x21, [sp, #32]
    63cc:	97fffa7d 	bl	4dc0 <fseek@plt>
    63d0:	f9400a60 	ldr	x0, [x19, #16]
    63d4:	97fff91b 	bl	4840 <_Znam@plt>
    63d8:	aa0003f5 	mov	x21, x0
    63dc:	a9408663 	ldp	x3, x1, [x19, #8]
    63e0:	d2800022 	mov	x2, #0x1                   	// #1
    63e4:	97fff927 	bl	4880 <fread@plt>
    63e8:	f100041f 	cmp	x0, #0x1
    63ec:	54000120 	b.eq	6410 <_ZNK6mapnik4util4file4dataEv+0x90>  // b.none
    63f0:	f900029f 	str	xzr, [x20]
    63f4:	aa1503e0 	mov	x0, x21
    63f8:	97fffa0a 	bl	4c20 <_ZdaPv@plt>
    63fc:	aa1403e0 	mov	x0, x20
    6400:	a94153f3 	ldp	x19, x20, [sp, #16]
    6404:	f94013f5 	ldr	x21, [sp, #32]
    6408:	a8c37bfd 	ldp	x29, x30, [sp], #48
    640c:	d65f03c0 	ret
    6410:	f9000295 	str	x21, [x20]
    6414:	aa1403e0 	mov	x0, x20
    6418:	a94153f3 	ldp	x19, x20, [sp, #16]
    641c:	f94013f5 	ldr	x21, [sp, #32]
    6420:	a8c37bfd 	ldp	x29, x30, [sp], #48
    6424:	d65f03c0 	ret
    6428:	aa0003f3 	mov	x19, x0
    642c:	aa1503e0 	mov	x0, x21
    6430:	97fff9fc 	bl	4c20 <_ZdaPv@plt>
    6434:	aa1303e0 	mov	x0, x19
    6438:	97fffa4a 	bl	4d60 <_Unwind_Resume@plt>
    643c:	d503201f 	nop

0000000000006440 <_ZN6mapnik16vector_tile_impl15zlib_decompressEPKcmRNSt7__cxx1112basic_stringIcSt11char_traitsIcESaIcEEE>:
    6440:	a9b07bfd 	stp	x29, x30, [sp, #-256]!
    6444:	910003fd 	mov	x29, sp
    6448:	a90153f3 	stp	x19, x20, [sp, #16]
    644c:	a9025bf5 	stp	x21, x22, [sp, #32]
    6450:	a90363f7 	stp	x23, x24, [sp, #48]
    6454:	f90023f9 	str	x25, [sp, #64]
    6458:	d50320ff 	xpaclri
    645c:	aa0103f8 	mov	x24, x1
    6460:	aa0003f9 	mov	x25, x0
    6464:	aa0203f4 	mov	x20, x2
    6468:	aa1e03e0 	mov	x0, x30
    646c:	97fff935 	bl	4940 <_mcount@plt>
    6470:	90000221 	adrp	x1, 4a000 <_ZTVN11vector_tile10Tile_ValueE+0x30>
    6474:	910183f6 	add	x22, sp, #0x60
    6478:	aa1603e0 	mov	x0, x22
    647c:	90000142 	adrp	x2, 2e000 <_ZN6google8protobuf8internal15UTF8GenericScanEPKNS1_19UTF8StateMachineObjEPKciPi>
    6480:	f946b821 	ldr	x1, [x1, #3440]
    6484:	911e2042 	add	x2, x2, #0x788
    6488:	d37ffb15 	lsl	x21, x24, #1
    648c:	531f7b17 	lsl	w23, w24, #1
    6490:	f9400023 	ldr	x3, [x1]
    6494:	f9007fe3 	str	x3, [sp, #248]
    6498:	d2800003 	mov	x3, #0x0                   	// #0
    649c:	d2800013 	mov	x19, #0x0                   	// #0
    64a0:	52800e03 	mov	w3, #0x70                  	// #112
    64a4:	528005e1 	mov	w1, #0x2f                  	// #47
    64a8:	f90033ff 	str	xzr, [sp, #96]
    64ac:	b9006bff 	str	wzr, [sp, #104]
    64b0:	a90a7fff 	stp	xzr, xzr, [sp, #160]
    64b4:	f9005bff 	str	xzr, [sp, #176]
    64b8:	97fff99e 	bl	4b30 <inflateInit2_@plt>
    64bc:	f90033f9 	str	x25, [sp, #96]
    64c0:	b9006bf8 	str	w24, [sp, #104]
    64c4:	14000005 	b	64d8 <_ZN6mapnik16vector_tile_impl15zlib_decompressEPKcmRNSt7__cxx1112basic_stringIcSt11char_traitsIcESaIcEEE+0x98>
    64c8:	b94083e1 	ldr	w1, [sp, #128]
    64cc:	cb2142a0 	sub	x0, x21, w1, uxtw
    64d0:	8b000273 	add	x19, x19, x0
    64d4:	350005c1 	cbnz	w1, 658c <_ZN6mapnik16vector_tile_impl15zlib_decompressEPKcmRNSt7__cxx1112basic_stringIcSt11char_traitsIcESaIcEEE+0x14c>
    64d8:	8b1302a1 	add	x1, x21, x19
    64dc:	aa1403e0 	mov	x0, x20
    64e0:	52800002 	mov	w2, #0x0                   	// #0
    64e4:	97fff8ff 	bl	48e0 <_ZNSt7__cxx1112basic_stringIcSt11char_traitsIcESaIcEE6resizeEmc@plt>
    64e8:	f9400283 	ldr	x3, [x20]
    64ec:	aa1603e0 	mov	x0, x22
    64f0:	52800081 	mov	w1, #0x4                   	// #4
    64f4:	b90083f7 	str	w23, [sp, #128]
    64f8:	8b130063 	add	x3, x3, x19
    64fc:	f9003fe3 	str	x3, [sp, #120]
    6500:	97fff988 	bl	4b20 <inflate@plt>
    6504:	7100041f 	cmp	w0, #0x1
    6508:	3a458804 	ccmn	w0, #0x5, #0x4, hi  // hi = pmore
    650c:	54fffde0 	b.eq	64c8 <_ZN6mapnik16vector_tile_impl15zlib_decompressEPKcmRNSt7__cxx1112basic_stringIcSt11char_traitsIcESaIcEEE+0x88>  // b.none
    6510:	f9404bf4 	ldr	x20, [sp, #144]
    6514:	9103a3f5 	add	x21, sp, #0xe8
    6518:	f9006ff5 	str	x21, [sp, #216]
    651c:	910363f7 	add	x23, sp, #0xd8
    6520:	b40007d4 	cbz	x20, 6618 <_ZN6mapnik16vector_tile_impl15zlib_decompressEPKcmRNSt7__cxx1112basic_stringIcSt11char_traitsIcESaIcEEE+0x1d8>
    6524:	aa1403e0 	mov	x0, x20
    6528:	97fff8f2 	bl	48f0 <strlen@plt>
    652c:	f9002fe0 	str	x0, [sp, #88]
    6530:	aa0003f3 	mov	x19, x0
    6534:	f1003c1f 	cmp	x0, #0xf
    6538:	54000568 	b.hi	65e4 <_ZN6mapnik16vector_tile_impl15zlib_decompressEPKcmRNSt7__cxx1112basic_stringIcSt11char_traitsIcESaIcEEE+0x1a4>  // b.pmore
    653c:	f100041f 	cmp	x0, #0x1
    6540:	540004c1 	b.ne	65d8 <_ZN6mapnik16vector_tile_impl15zlib_decompressEPKcmRNSt7__cxx1112basic_stringIcSt11char_traitsIcESaIcEEE+0x198>  // b.any
    6544:	39400281 	ldrb	w1, [x20]
    6548:	aa1503e0 	mov	x0, x21
    654c:	3903a3e1 	strb	w1, [sp, #232]
    6550:	f90073f3 	str	x19, [sp, #224]
    6554:	3833681f 	strb	wzr, [x0, x19]
    6558:	aa1603e0 	mov	x0, x22
    655c:	97fff98d 	bl	4b90 <inflateEnd@plt>
    6560:	d2800200 	mov	x0, #0x10                  	// #16
    6564:	97fff90b 	bl	4990 <__cxa_allocate_exception@plt>
    6568:	aa1703e1 	mov	x1, x23
    656c:	aa0003f4 	mov	x20, x0
    6570:	97fff9e8 	bl	4d10 <_ZNSt13runtime_errorC1ERKNSt7__cxx1112basic_stringIcSt11char_traitsIcESaIcEEE@plt>
    6574:	90000222 	adrp	x2, 4a000 <_ZTVN11vector_tile10Tile_ValueE+0x30>
    6578:	90000221 	adrp	x1, 4a000 <_ZTVN11vector_tile10Tile_ValueE+0x30>
    657c:	aa1403e0 	mov	x0, x20
    6580:	f9472c42 	ldr	x2, [x2, #3672]
    6584:	f947f421 	ldr	x1, [x1, #4072]
    6588:	97fff9f2 	bl	4d50 <__cxa_throw@plt>
    658c:	aa1603e0 	mov	x0, x22
    6590:	97fff980 	bl	4b90 <inflateEnd@plt>
    6594:	aa1303e1 	mov	x1, x19
    6598:	aa1403e0 	mov	x0, x20
    659c:	52800002 	mov	w2, #0x0                   	// #0
    65a0:	97fff8d0 	bl	48e0 <_ZNSt7__cxx1112basic_stringIcSt11char_traitsIcESaIcEE6resizeEmc@plt>
    65a4:	90000220 	adrp	x0, 4a000 <_ZTVN11vector_tile10Tile_ValueE+0x30>
    65a8:	f946b800 	ldr	x0, [x0, #3440]
    65ac:	f9407fe2 	ldr	x2, [sp, #248]
    65b0:	f9400001 	ldr	x1, [x0]
    65b4:	eb010042 	subs	x2, x2, x1
    65b8:	d2800001 	mov	x1, #0x0                   	// #0
    65bc:	54000341 	b.ne	6624 <_ZN6mapnik16vector_tile_impl15zlib_decompressEPKcmRNSt7__cxx1112basic_stringIcSt11char_traitsIcESaIcEEE+0x1e4>  // b.any
    65c0:	a94153f3 	ldp	x19, x20, [sp, #16]
    65c4:	a9425bf5 	ldp	x21, x22, [sp, #32]
    65c8:	a94363f7 	ldp	x23, x24, [sp, #48]
    65cc:	f94023f9 	ldr	x25, [sp, #64]
    65d0:	a8d07bfd 	ldp	x29, x30, [sp], #256
    65d4:	d65f03c0 	ret
    65d8:	aa1503e0 	mov	x0, x21
    65dc:	b4fffbb3 	cbz	x19, 6550 <_ZN6mapnik16vector_tile_impl15zlib_decompressEPKcmRNSt7__cxx1112basic_stringIcSt11char_traitsIcESaIcEEE+0x110>
    65e0:	14000008 	b	6600 <_ZN6mapnik16vector_tile_impl15zlib_decompressEPKcmRNSt7__cxx1112basic_stringIcSt11char_traitsIcESaIcEEE+0x1c0>
    65e4:	910163e1 	add	x1, sp, #0x58
    65e8:	aa1703e0 	mov	x0, x23
    65ec:	d2800002 	mov	x2, #0x0                   	// #0
    65f0:	97fff9e0 	bl	4d70 <_ZNSt7__cxx1112basic_stringIcSt11char_traitsIcESaIcEE9_M_createERmm@plt>
    65f4:	f9402fe1 	ldr	x1, [sp, #88]
    65f8:	f9006fe0 	str	x0, [sp, #216]
    65fc:	f90077e1 	str	x1, [sp, #232]
    6600:	aa1303e2 	mov	x2, x19
    6604:	aa1403e1 	mov	x1, x20
    6608:	97fff896 	bl	4860 <memcpy@plt>
    660c:	f9402ff3 	ldr	x19, [sp, #88]
    6610:	f9406fe0 	ldr	x0, [sp, #216]
    6614:	17ffffcf 	b	6550 <_ZN6mapnik16vector_tile_impl15zlib_decompressEPKcmRNSt7__cxx1112basic_stringIcSt11char_traitsIcESaIcEEE+0x110>
    6618:	90000140 	adrp	x0, 2e000 <_ZN6google8protobuf8internal15UTF8GenericScanEPKNS1_19UTF8StateMachineObjEPKciPi>
    661c:	9117e000 	add	x0, x0, #0x5f8
    6620:	97fff92c 	bl	4ad0 <_ZSt19__throw_logic_errorPKc@plt>
    6624:	97fff8bf 	bl	4920 <__stack_chk_fail@plt>
    6628:	aa0003f3 	mov	x19, x0
    662c:	aa1403e0 	mov	x0, x20
    6630:	97fff930 	bl	4af0 <__cxa_free_exception@plt>
    6634:	f9406fe0 	ldr	x0, [sp, #216]
    6638:	eb15001f 	cmp	x0, x21
    663c:	54000080 	b.eq	664c <_ZN6mapnik16vector_tile_impl15zlib_decompressEPKcmRNSt7__cxx1112basic_stringIcSt11char_traitsIcESaIcEEE+0x20c>  // b.none
    6640:	f94077e1 	ldr	x1, [sp, #232]
    6644:	91000421 	add	x1, x1, #0x1
    6648:	97fff94a 	bl	4b70 <_ZdlPvm@plt>
    664c:	aa1303e0 	mov	x0, x19
    6650:	97fff9c4 	bl	4d60 <_Unwind_Resume@plt>
    6654:	aa0003f3 	mov	x19, x0
    6658:	17fffff7 	b	6634 <_ZN6mapnik16vector_tile_impl15zlib_decompressEPKcmRNSt7__cxx1112basic_stringIcSt11char_traitsIcESaIcEEE+0x1f4>
    665c:	d503201f 	nop

0000000000006660 <_ZN6mapnik16vector_tile_impl15zlib_decompressERKNSt7__cxx1112basic_stringIcSt11char_traitsIcESaIcEEERS6_>:
    6660:	a9be7bfd 	stp	x29, x30, [sp, #-32]!
    6664:	910003fd 	mov	x29, sp
    6668:	a90153f3 	stp	x19, x20, [sp, #16]
    666c:	aa0003f3 	mov	x19, x0
    6670:	d50320ff 	xpaclri
    6674:	aa0103f4 	mov	x20, x1
    6678:	aa1e03e0 	mov	x0, x30
    667c:	97fff8b1 	bl	4940 <_mcount@plt>
    6680:	aa1403e2 	mov	x2, x20
    6684:	a9400660 	ldp	x0, x1, [x19]
    6688:	a94153f3 	ldp	x19, x20, [sp, #16]
    668c:	a8c27bfd 	ldp	x29, x30, [sp], #32
    6690:	17ffff6c 	b	6440 <_ZN6mapnik16vector_tile_impl15zlib_decompressEPKcmRNSt7__cxx1112basic_stringIcSt11char_traitsIcESaIcEEE>

0000000000006694 <_ZN6mapnik16vector_tile_impl13zlib_compressEPKcmRNSt7__cxx1112basic_stringIcSt11char_traitsIcESaIcEEEbii>:
    6694:	a9b47bfd 	stp	x29, x30, [sp, #-192]!
    6698:	910003fd 	mov	x29, sp
    669c:	a90153f3 	stp	x19, x20, [sp, #16]
    66a0:	a9025bf5 	stp	x21, x22, [sp, #32]
    66a4:	a90363f7 	stp	x23, x24, [sp, #48]
    66a8:	d50320ff 	xpaclri
    66ac:	12001c76 	and	w22, w3, #0xff
    66b0:	2a0403f3 	mov	w19, w4
    66b4:	aa0103f8 	mov	x24, x1
    66b8:	aa0203f4 	mov	x20, x2
    66bc:	2a0503f5 	mov	w21, w5
    66c0:	aa0003f7 	mov	x23, x0
    66c4:	aa1e03e0 	mov	x0, x30
    66c8:	97fff89e 	bl	4940 <_mcount@plt>
    66cc:	90000220 	adrp	x0, 4a000 <_ZTVN11vector_tile10Tile_ValueE+0x30>
    66d0:	710002df 	cmp	w22, #0x0
    66d4:	528003e2 	mov	w2, #0x1f                  	// #31
    66d8:	910103f6 	add	x22, sp, #0x40
    66dc:	f946b800 	ldr	x0, [x0, #3440]
    66e0:	528001e3 	mov	w3, #0xf                   	// #15
    66e4:	90000146 	adrp	x6, 2e000 <_ZN6google8protobuf8internal15UTF8GenericScanEPKNS1_19UTF8StateMachineObjEPKciPi>
    66e8:	1a820063 	csel	w3, w3, w2, eq  // eq = none
    66ec:	f9400004 	ldr	x4, [x0]
    66f0:	f9005fe4 	str	x4, [sp, #184]
    66f4:	d2800004 	mov	x4, #0x0                   	// #0
    66f8:	2a1503e5 	mov	w5, w21
    66fc:	52800104 	mov	w4, #0x8                   	// #8
    6700:	2a1303e1 	mov	w1, w19
    6704:	aa1603e0 	mov	x0, x22
    6708:	911e20c6 	add	x6, x6, #0x788
    670c:	2a0403e2 	mov	w2, w4
    6710:	52800e07 	mov	w7, #0x70                  	// #112
    6714:	f90023ff 	str	xzr, [sp, #64]
    6718:	b9004bff 	str	wzr, [sp, #72]
    671c:	a9087fff 	stp	xzr, xzr, [sp, #128]
    6720:	f9004bff 	str	xzr, [sp, #144]
    6724:	97fff853 	bl	4870 <deflateInit2_@plt>
    6728:	35000540 	cbnz	w0, 67d0 <_ZN6mapnik16vector_tile_impl13zlib_compressEPKcmRNSt7__cxx1112basic_stringIcSt11char_traitsIcESaIcEEEbii+0x13c>
    672c:	d341ff15 	lsr	x21, x24, #1
    6730:	f90023f7 	str	x23, [sp, #64]
    6734:	911002b5 	add	x21, x21, #0x400
    6738:	d2800013 	mov	x19, #0x0                   	// #0
    673c:	2a1503f7 	mov	w23, w21
    6740:	b9004bf8 	str	w24, [sp, #72]
    6744:	d503201f 	nop
    6748:	8b150261 	add	x1, x19, x21
    674c:	aa1403e0 	mov	x0, x20
    6750:	52800002 	mov	w2, #0x0                   	// #0
    6754:	97fff863 	bl	48e0 <_ZNSt7__cxx1112basic_stringIcSt11char_traitsIcESaIcEE6resizeEmc@plt>
    6758:	f9400283 	ldr	x3, [x20]
    675c:	52800081 	mov	w1, #0x4                   	// #4
    6760:	aa1603e0 	mov	x0, x22
    6764:	b90063f7 	str	w23, [sp, #96]
    6768:	8b130063 	add	x3, x3, x19
    676c:	f9002fe3 	str	x3, [sp, #88]
    6770:	97fff884 	bl	4980 <deflate@plt>
    6774:	b94063e1 	ldr	w1, [sp, #96]
    6778:	cb2142a0 	sub	x0, x21, w1, uxtw
    677c:	8b000273 	add	x19, x19, x0
    6780:	34fffe41 	cbz	w1, 6748 <_ZN6mapnik16vector_tile_impl13zlib_compressEPKcmRNSt7__cxx1112basic_stringIcSt11char_traitsIcESaIcEEEbii+0xb4>
    6784:	aa1603e0 	mov	x0, x22
    6788:	97fff8a6 	bl	4a20 <deflateEnd@plt>
    678c:	aa1303e1 	mov	x1, x19
    6790:	aa1403e0 	mov	x0, x20
    6794:	52800002 	mov	w2, #0x0                   	// #0
    6798:	97fff852 	bl	48e0 <_ZNSt7__cxx1112basic_stringIcSt11char_traitsIcESaIcEE6resizeEmc@plt>
    679c:	90000220 	adrp	x0, 4a000 <_ZTVN11vector_tile10Tile_ValueE+0x30>
    67a0:	f946b800 	ldr	x0, [x0, #3440]
    67a4:	f9405fe2 	ldr	x2, [sp, #184]
    67a8:	f9400001 	ldr	x1, [x0]
    67ac:	eb010042 	subs	x2, x2, x1
    67b0:	d2800001 	mov	x1, #0x0                   	// #0
    67b4:	540000c1 	b.ne	67cc <_ZN6mapnik16vector_tile_impl13zlib_compressEPKcmRNSt7__cxx1112basic_stringIcSt11char_traitsIcESaIcEEEbii+0x138>  // b.any
    67b8:	a94153f3 	ldp	x19, x20, [sp, #16]
    67bc:	a9425bf5 	ldp	x21, x22, [sp, #32]
    67c0:	a94363f7 	ldp	x23, x24, [sp, #48]
    67c4:	a8cc7bfd 	ldp	x29, x30, [sp], #192
    67c8:	d65f03c0 	ret
    67cc:	97fff855 	bl	4920 <__stack_chk_fail@plt>
    67d0:	d2800200 	mov	x0, #0x10                  	// #16
    67d4:	97fff86f 	bl	4990 <__cxa_allocate_exception@plt>
    67d8:	90000141 	adrp	x1, 2e000 <_ZN6google8protobuf8internal15UTF8GenericScanEPKNS1_19UTF8StateMachineObjEPKciPi>
    67dc:	aa0003f3 	mov	x19, x0
    67e0:	911e4021 	add	x1, x1, #0x790
    67e4:	97fff85f 	bl	4960 <_ZNSt13runtime_errorC1EPKc@plt>
    67e8:	90000222 	adrp	x2, 4a000 <_ZTVN11vector_tile10Tile_ValueE+0x30>
    67ec:	90000221 	adrp	x1, 4a000 <_ZTVN11vector_tile10Tile_ValueE+0x30>
    67f0:	aa1303e0 	mov	x0, x19
    67f4:	f9472c42 	ldr	x2, [x2, #3672]
    67f8:	f947f421 	ldr	x1, [x1, #4072]
    67fc:	97fff955 	bl	4d50 <__cxa_throw@plt>
    6800:	aa0003e1 	mov	x1, x0
    6804:	aa1303e0 	mov	x0, x19
    6808:	aa0103f3 	mov	x19, x1
    680c:	97fff8b9 	bl	4af0 <__cxa_free_exception@plt>
    6810:	aa1303e0 	mov	x0, x19
    6814:	97fff953 	bl	4d60 <_Unwind_Resume@plt>
    6818:	d503201f 	nop
    681c:	d503201f 	nop

0000000000006820 <_ZN6mapnik16vector_tile_impl13zlib_compressERKNSt7__cxx1112basic_stringIcSt11char_traitsIcESaIcEEERS6_bii>:
    6820:	a9bc7bfd 	stp	x29, x30, [sp, #-64]!
    6824:	910003fd 	mov	x29, sp
    6828:	a90153f3 	stp	x19, x20, [sp, #16]
    682c:	a9025bf5 	stp	x21, x22, [sp, #32]
    6830:	f9001bf7 	str	x23, [sp, #48]
    6834:	aa0003f3 	mov	x19, x0
    6838:	d50320ff 	xpaclri
    683c:	aa0103f4 	mov	x20, x1
    6840:	2a0303f5 	mov	w21, w3
    6844:	2a0403f6 	mov	w22, w4
    6848:	12001c57 	and	w23, w2, #0xff
    684c:	aa1e03e0 	mov	x0, x30
    6850:	97fff83c 	bl	4940 <_mcount@plt>
    6854:	2a1603e5 	mov	w5, w22
    6858:	2a1503e4 	mov	w4, w21
    685c:	2a1703e3 	mov	w3, w23
    6860:	aa1403e2 	mov	x2, x20
    6864:	a9400660 	ldp	x0, x1, [x19]
    6868:	a94153f3 	ldp	x19, x20, [sp, #16]
    686c:	a9425bf5 	ldp	x21, x22, [sp, #32]
    6870:	f9401bf7 	ldr	x23, [sp, #48]
    6874:	a8c47bfd 	ldp	x29, x30, [sp], #64
    6878:	17ffff87 	b	6694 <_ZN6mapnik16vector_tile_impl13zlib_compressEPKcmRNSt7__cxx1112basic_stringIcSt11char_traitsIcESaIcEEEbii>
    687c:	d503201f 	nop

0000000000006880 <_ZNK11vector_tile12Tile_Feature13IsInitializedEv>:
    6880:	a9bf7bfd 	stp	x29, x30, [sp, #-16]!
    6884:	910003fd 	mov	x29, sp
    6888:	d50320ff 	xpaclri
    688c:	aa1e03e0 	mov	x0, x30
    6890:	97fff82c 	bl	4940 <_mcount@plt>
    6894:	52800020 	mov	w0, #0x1                   	// #1
    6898:	a8c17bfd 	ldp	x29, x30, [sp], #16
    689c:	d65f03c0 	ret

00000000000068a0 <_ZNK11vector_tile10Tile_Value24SerializeWithCachedSizesEPN6google8protobuf2io17CodedOutputStreamE>:
    68a0:	a9bd7bfd 	stp	x29, x30, [sp, #-48]!
    68a4:	910003fd 	mov	x29, sp
    68a8:	a90153f3 	stp	x19, x20, [sp, #16]
    68ac:	f90013f5 	str	x21, [sp, #32]
    68b0:	aa0003f3 	mov	x19, x0
    68b4:	d50320ff 	xpaclri
    68b8:	aa0103f5 	mov	x21, x1
    68bc:	aa1e03e0 	mov	x0, x30
    68c0:	97fff820 	bl	4940 <_mcount@plt>
    68c4:	b9404a74 	ldr	w20, [x19, #72]
    68c8:	37000774 	tbnz	w20, #0, 69b4 <_ZNK11vector_tile10Tile_Value24SerializeWithCachedSizesEPN6google8protobuf2io17CodedOutputStreamE+0x114>
    68cc:	37180694 	tbnz	w20, #3, 699c <_ZNK11vector_tile10Tile_Value24SerializeWithCachedSizesEPN6google8protobuf2io17CodedOutputStreamE+0xfc>
    68d0:	370805b4 	tbnz	w20, #1, 6984 <_ZNK11vector_tile10Tile_Value24SerializeWithCachedSizesEPN6google8protobuf2io17CodedOutputStreamE+0xe4>
    68d4:	371004d4 	tbnz	w20, #2, 696c <_ZNK11vector_tile10Tile_Value24SerializeWithCachedSizesEPN6google8protobuf2io17CodedOutputStreamE+0xcc>
    68d8:	372803f4 	tbnz	w20, #5, 6954 <_ZNK11vector_tile10Tile_Value24SerializeWithCachedSizesEPN6google8protobuf2io17CodedOutputStreamE+0xb4>
    68dc:	37300294 	tbnz	w20, #6, 692c <_ZNK11vector_tile10Tile_Value24SerializeWithCachedSizesEPN6google8protobuf2io17CodedOutputStreamE+0x8c>
    68e0:	37200314 	tbnz	w20, #4, 6940 <_ZNK11vector_tile10Tile_Value24SerializeWithCachedSizesEPN6google8protobuf2io17CodedOutputStreamE+0xa0>
    68e4:	aa1503e3 	mov	x3, x21
    68e8:	91002260 	add	x0, x19, #0x8
    68ec:	52a40002 	mov	w2, #0x20000000            	// #536870912
    68f0:	52800101 	mov	w1, #0x8                   	// #8
    68f4:	94004663 	bl	18280 <_ZNK6google8protobuf8internal12ExtensionSet24SerializeWithCachedSizesEiiPNS0_2io17CodedOutputStreamE>
    68f8:	90000222 	adrp	x2, 4a000 <_ZTVN11vector_tile10Tile_ValueE+0x30>
    68fc:	aa1503e0 	mov	x0, x21
    6900:	f9402261 	ldr	x1, [x19, #64]
    6904:	f946a442 	ldr	x2, [x2, #3400]
    6908:	927ff823 	and	x3, x1, #0xfffffffffffffffe
    690c:	f240003f 	tst	x1, #0x1
    6910:	9a830042 	csel	x2, x2, x3, eq  // eq = none
    6914:	a94153f3 	ldp	x19, x20, [sp, #16]
    6918:	f94013f5 	ldr	x21, [sp, #32]
    691c:	a8c37bfd 	ldp	x29, x30, [sp], #48
    6920:	f9400041 	ldr	x1, [x2]
    6924:	b9400842 	ldr	w2, [x2, #8]
    6928:	14009612 	b	2c170 <_ZN6google8protobuf2io17CodedOutputStream8WriteRawEPKvi>
    692c:	f9403e61 	ldr	x1, [x19, #120]
    6930:	aa1503e2 	mov	x2, x21
    6934:	528000c0 	mov	w0, #0x6                   	// #6
    6938:	940088ca 	bl	28c60 <_ZN6google8protobuf8internal14WireFormatLite11WriteSInt64EilPNS0_2io17CodedOutputStreamE>
    693c:	3627fd54 	tbz	w20, #4, 68e4 <_ZNK11vector_tile10Tile_Value24SerializeWithCachedSizesEPN6google8protobuf2io17CodedOutputStreamE+0x44>
    6940:	3941b261 	ldrb	w1, [x19, #108]
    6944:	aa1503e2 	mov	x2, x21
    6948:	528000e0 	mov	w0, #0x7                   	// #7
    694c:	940089f6 	bl	29124 <_ZN6google8protobuf8internal14WireFormatLite9WriteBoolEibPNS0_2io17CodedOutputStreamE>
    6950:	17ffffe5 	b	68e4 <_ZNK11vector_tile10Tile_Value24SerializeWithCachedSizesEPN6google8protobuf2io17CodedOutputStreamE+0x44>
    6954:	f9403a61 	ldr	x1, [x19, #112]
    6958:	aa1503e2 	mov	x2, x21
    695c:	528000a0 	mov	w0, #0x5                   	// #5
    6960:	94008845 	bl	28a74 <_ZN6google8protobuf8internal14WireFormatLite11WriteUInt64EimPNS0_2io17CodedOutputStreamE>
    6964:	3637fbf4 	tbz	w20, #6, 68e0 <_ZNK11vector_tile10Tile_Value24SerializeWithCachedSizesEPN6google8protobuf2io17CodedOutputStreamE+0x40>
    6968:	17fffff1 	b	692c <_ZNK11vector_tile10Tile_Value24SerializeWithCachedSizesEPN6google8protobuf2io17CodedOutputStreamE+0x8c>
    696c:	f9403261 	ldr	x1, [x19, #96]
    6970:	aa1503e2 	mov	x2, x21
    6974:	52800080 	mov	w0, #0x4                   	// #4
    6978:	940087c3 	bl	28884 <_ZN6google8protobuf8internal14WireFormatLite10WriteInt64EilPNS0_2io17CodedOutputStreamE>
    697c:	362ffb14 	tbz	w20, #5, 68dc <_ZNK11vector_tile10Tile_Value24SerializeWithCachedSizesEPN6google8protobuf2io17CodedOutputStreamE+0x3c>
    6980:	17fffff5 	b	6954 <_ZNK11vector_tile10Tile_Value24SerializeWithCachedSizesEPN6google8protobuf2io17CodedOutputStreamE+0xb4>
    6984:	fd402e60 	ldr	d0, [x19, #88]
    6988:	aa1503e1 	mov	x1, x21
    698c:	52800060 	mov	w0, #0x3                   	// #3
    6990:	940089bd 	bl	29084 <_ZN6google8protobuf8internal14WireFormatLite11WriteDoubleEidPNS0_2io17CodedOutputStreamE>
    6994:	3617fa34 	tbz	w20, #2, 68d8 <_ZNK11vector_tile10Tile_Value24SerializeWithCachedSizesEPN6google8protobuf2io17CodedOutputStreamE+0x38>
    6998:	17fffff5 	b	696c <_ZNK11vector_tile10Tile_Value24SerializeWithCachedSizesEPN6google8protobuf2io17CodedOutputStreamE+0xcc>
    699c:	bd406a60 	ldr	s0, [x19, #104]
    69a0:	aa1503e1 	mov	x1, x21
    69a4:	52800040 	mov	w0, #0x2                   	// #2
    69a8:	9400898f 	bl	28fe4 <_ZN6google8protobuf8internal14WireFormatLite10WriteFloatEifPNS0_2io17CodedOutputStreamE>
    69ac:	360ff954 	tbz	w20, #1, 68d4 <_ZNK11vector_tile10Tile_Value24SerializeWithCachedSizesEPN6google8protobuf2io17CodedOutputStreamE+0x34>
    69b0:	17fffff5 	b	6984 <_ZNK11vector_tile10Tile_Value24SerializeWithCachedSizesEPN6google8protobuf2io17CodedOutputStreamE+0xe4>
    69b4:	f9402a61 	ldr	x1, [x19, #80]
    69b8:	aa1503e2 	mov	x2, x21
    69bc:	52800020 	mov	w0, #0x1                   	// #1
    69c0:	94008ab0 	bl	29480 <_ZN6google8protobuf8internal14WireFormatLite23WriteStringMaybeAliasedEiRKNSt7__cxx1112basic_stringIcSt11char_traitsIcESaIcEEEPNS0_2io17CodedOutputStreamE>
    69c4:	361ff874 	tbz	w20, #3, 68d0 <_ZNK11vector_tile10Tile_Value24SerializeWithCachedSizesEPN6google8protobuf2io17CodedOutputStreamE+0x30>
    69c8:	17fffff5 	b	699c <_ZNK11vector_tile10Tile_Value24SerializeWithCachedSizesEPN6google8protobuf2io17CodedOutputStreamE+0xfc>
    69cc:	d503201f 	nop

00000000000069d0 <_ZNK11vector_tile4Tile12ByteSizeLongEv>:
    69d0:	a9bc7bfd 	stp	x29, x30, [sp, #-64]!
    69d4:	910003fd 	mov	x29, sp
    69d8:	a90153f3 	stp	x19, x20, [sp, #16]
    69dc:	a9025bf5 	stp	x21, x22, [sp, #32]
    69e0:	f9001bf7 	str	x23, [sp, #48]
    69e4:	aa0003f4 	mov	x20, x0
    69e8:	d50320ff 	xpaclri
    69ec:	aa1e03e0 	mov	x0, x30
    69f0:	97fff7d4 	bl	4940 <_mcount@plt>
    69f4:	91002280 	add	x0, x20, #0x8
    69f8:	94004a22 	bl	19280 <_ZNK6google8protobuf8internal12ExtensionSet8ByteSizeEv>
    69fc:	90000221 	adrp	x1, 4a000 <_ZTVN11vector_tile10Tile_ValueE+0x30>
    6a00:	b9405a93 	ldr	w19, [x20, #88]
    6a04:	f9402282 	ldr	x2, [x20, #64]
    6a08:	91014297 	add	x23, x20, #0x50
    6a0c:	f946a421 	ldr	x1, [x1, #3400]
    6a10:	927ff843 	and	x3, x2, #0xfffffffffffffffe
    6a14:	f240005f 	tst	x2, #0x1
    6a18:	8b334016 	add	x22, x0, w19, uxtw
    6a1c:	9a830021 	csel	x1, x1, x3, eq  // eq = none
    6a20:	f9400420 	ldr	x0, [x1, #8]
    6a24:	8b0002d6 	add	x22, x22, x0
    6a28:	34000273 	cbz	w19, 6a74 <_ZNK11vector_tile4Tile12ByteSizeLongEv+0xa4>
    6a2c:	52800015 	mov	w21, #0x0                   	// #0
    6a30:	f9400ae0 	ldr	x0, [x23, #16]
    6a34:	8b35cc00 	add	x0, x0, w21, sxtw #3
    6a38:	110006b5 	add	w21, w21, #0x1
    6a3c:	f9400400 	ldr	x0, [x0, #8]
    6a40:	f9400001 	ldr	x1, [x0]
    6a44:	f9403021 	ldr	x1, [x1, #96]
    6a48:	d63f0020 	blr	x1
    6a4c:	32000001 	orr	w1, w0, #0x1
    6a50:	5ac01021 	clz	w1, w1
    6a54:	52001021 	eor	w1, w1, #0x1f
    6a58:	0b010c21 	add	w1, w1, w1, lsl #3
    6a5c:	11012421 	add	w1, w1, #0x49
    6a60:	d3462821 	ubfx	x1, x1, #6, #5
    6a64:	8b000020 	add	x0, x1, x0
    6a68:	8b0002d6 	add	x22, x22, x0
    6a6c:	6b15027f 	cmp	w19, w21
    6a70:	54fffe01 	b.ne	6a30 <_ZNK11vector_tile4Tile12ByteSizeLongEv+0x60>  // b.any
    6a74:	f9401bf7 	ldr	x23, [sp, #48]
    6a78:	b9004e96 	str	w22, [x20, #76]
    6a7c:	aa1603e0 	mov	x0, x22
    6a80:	a94153f3 	ldp	x19, x20, [sp, #16]
    6a84:	a9425bf5 	ldp	x21, x22, [sp, #32]
    6a88:	a8c47bfd 	ldp	x29, x30, [sp], #64
    6a8c:	d65f03c0 	ret

0000000000006a90 <_ZNK11vector_tile10Tile_Value12ByteSizeLongEv>:
    6a90:	a9be7bfd 	stp	x29, x30, [sp, #-32]!
    6a94:	910003fd 	mov	x29, sp
    6a98:	f9000bf3 	str	x19, [sp, #16]
    6a9c:	aa0003f3 	mov	x19, x0
    6aa0:	d50320ff 	xpaclri
    6aa4:	aa1e03e0 	mov	x0, x30
    6aa8:	97fff7a6 	bl	4940 <_mcount@plt>
    6aac:	91002260 	add	x0, x19, #0x8
    6ab0:	940049f4 	bl	19280 <_ZNK6google8protobuf8internal12ExtensionSet8ByteSizeEv>
    6ab4:	90000221 	adrp	x1, 4a000 <_ZTVN11vector_tile10Tile_ValueE+0x30>
    6ab8:	f9402262 	ldr	x2, [x19, #64]
    6abc:	f946a421 	ldr	x1, [x1, #3400]
    6ac0:	927ff843 	and	x3, x2, #0xfffffffffffffffe
    6ac4:	f240005f 	tst	x2, #0x1
    6ac8:	b9404a62 	ldr	w2, [x19, #72]
    6acc:	9a830021 	csel	x1, x1, x3, eq  // eq = none
    6ad0:	f9400421 	ldr	x1, [x1, #8]
    6ad4:	8b010000 	add	x0, x0, x1
    6ad8:	f240185f 	tst	x2, #0x7f
    6adc:	540006c0 	b.eq	6bb4 <_ZNK11vector_tile10Tile_Value12ByteSizeLongEv+0x124>  // b.none
    6ae0:	36000182 	tbz	w2, #0, 6b10 <_ZNK11vector_tile10Tile_Value12ByteSizeLongEv+0x80>
    6ae4:	f9402a61 	ldr	x1, [x19, #80]
    6ae8:	f9400423 	ldr	x3, [x1, #8]
    6aec:	32000061 	orr	w1, w3, #0x1
    6af0:	91000463 	add	x3, x3, #0x1
    6af4:	5ac01021 	clz	w1, w1
    6af8:	52001021 	eor	w1, w1, #0x1f
    6afc:	0b010c21 	add	w1, w1, w1, lsl #3
    6b00:	11012421 	add	w1, w1, #0x49
    6b04:	d3462821 	ubfx	x1, x1, #6, #5
    6b08:	8b000021 	add	x1, x1, x0
    6b0c:	8b010060 	add	x0, x3, x1
    6b10:	f27f005f 	tst	x2, #0x2
    6b14:	91002401 	add	x1, x0, #0x9
    6b18:	9a801020 	csel	x0, x1, x0, ne  // ne = any
    6b1c:	36100142 	tbz	w2, #2, 6b44 <_ZNK11vector_tile10Tile_Value12ByteSizeLongEv+0xb4>
    6b20:	f9403261 	ldr	x1, [x19, #96]
    6b24:	b2400021 	orr	x1, x1, #0x1
    6b28:	dac01021 	clz	x1, x1
    6b2c:	52001421 	eor	w1, w1, #0x3f
    6b30:	0b010c21 	add	w1, w1, w1, lsl #3
    6b34:	11012421 	add	w1, w1, #0x49
    6b38:	53067c21 	lsr	w1, w1, #6
    6b3c:	11000421 	add	w1, w1, #0x1
    6b40:	8b010000 	add	x0, x0, x1
    6b44:	f27d005f 	tst	x2, #0x8
    6b48:	91001401 	add	x1, x0, #0x5
    6b4c:	9a801020 	csel	x0, x1, x0, ne  // ne = any
    6b50:	f27c005f 	tst	x2, #0x10
    6b54:	91000801 	add	x1, x0, #0x2
    6b58:	9a801020 	csel	x0, x1, x0, ne  // ne = any
    6b5c:	36280142 	tbz	w2, #5, 6b84 <_ZNK11vector_tile10Tile_Value12ByteSizeLongEv+0xf4>
    6b60:	f9403a61 	ldr	x1, [x19, #112]
    6b64:	b2400021 	orr	x1, x1, #0x1
    6b68:	dac01021 	clz	x1, x1
    6b6c:	52001421 	eor	w1, w1, #0x3f
    6b70:	0b010c21 	add	w1, w1, w1, lsl #3
    6b74:	11012421 	add	w1, w1, #0x49
    6b78:	53067c21 	lsr	w1, w1, #6
    6b7c:	11000421 	add	w1, w1, #0x1
    6b80:	8b010000 	add	x0, x0, x1
    6b84:	36300182 	tbz	w2, #6, 6bb4 <_ZNK11vector_tile10Tile_Value12ByteSizeLongEv+0x124>
    6b88:	f9403e61 	ldr	x1, [x19, #120]
    6b8c:	937ffc22 	asr	x2, x1, #63
    6b90:	ca010441 	eor	x1, x2, x1, lsl #1
    6b94:	b2400021 	orr	x1, x1, #0x1
    6b98:	dac01021 	clz	x1, x1
    6b9c:	52001421 	eor	w1, w1, #0x3f
    6ba0:	0b010c21 	add	w1, w1, w1, lsl #3
    6ba4:	11012421 	add	w1, w1, #0x49
    6ba8:	53067c21 	lsr	w1, w1, #6
    6bac:	11000421 	add	w1, w1, #0x1
    6bb0:	8b010000 	add	x0, x0, x1
    6bb4:	b9004e60 	str	w0, [x19, #76]
    6bb8:	f9400bf3 	ldr	x19, [sp, #16]
    6bbc:	a8c27bfd 	ldp	x29, x30, [sp], #32
    6bc0:	d65f03c0 	ret

0000000000006bc4 <_ZNK11vector_tile10Tile_Value13IsInitializedEv>:
    6bc4:	a9be7bfd 	stp	x29, x30, [sp, #-32]!
    6bc8:	910003fd 	mov	x29, sp
    6bcc:	f9000bf3 	str	x19, [sp, #16]
    6bd0:	d50320ff 	xpaclri
    6bd4:	aa0003f3 	mov	x19, x0
    6bd8:	aa1e03e0 	mov	x0, x30
    6bdc:	97fff759 	bl	4940 <_mcount@plt>
    6be0:	91002260 	add	x0, x19, #0x8
    6be4:	f9400bf3 	ldr	x19, [sp, #16]
    6be8:	a8c27bfd 	ldp	x29, x30, [sp], #32
    6bec:	14003fbd 	b	16ae0 <_ZNK6google8protobuf8internal12ExtensionSet13IsInitializedEv>

0000000000006bf0 <_ZNK11vector_tile12Tile_Feature12ByteSizeLongEv>:
    6bf0:	a9be7bfd 	stp	x29, x30, [sp, #-32]!
    6bf4:	910003fd 	mov	x29, sp
    6bf8:	a90153f3 	stp	x19, x20, [sp, #16]
    6bfc:	aa0003f4 	mov	x20, x0
    6c00:	d50320ff 	xpaclri
    6c04:	aa1e03e0 	mov	x0, x30
    6c08:	97fff74e 	bl	4940 <_mcount@plt>
    6c0c:	90000221 	adrp	x1, 4a000 <_ZTVN11vector_tile10Tile_ValueE+0x30>
    6c10:	91006280 	add	x0, x20, #0x18
    6c14:	f9400682 	ldr	x2, [x20, #8]
    6c18:	f946a421 	ldr	x1, [x1, #3400]
    6c1c:	927ff843 	and	x3, x2, #0xfffffffffffffffe
    6c20:	f240005f 	tst	x2, #0x1
    6c24:	9a830021 	csel	x1, x1, x3, eq  // eq = none
    6c28:	f9400433 	ldr	x19, [x1, #8]
    6c2c:	94008e25 	bl	2a4c0 <_ZN6google8protobuf8internal14WireFormatLite10UInt32SizeERKNS0_13RepeatedFieldIjEE>
    6c30:	52800002 	mov	w2, #0x0                   	// #0
    6c34:	b4000160 	cbz	x0, 6c60 <_ZNK11vector_tile12Tile_Feature12ByteSizeLongEv+0x70>
    6c38:	2a0003e2 	mov	w2, w0
    6c3c:	37f808a0 	tbnz	w0, #31, 6d50 <_ZNK11vector_tile12Tile_Feature12ByteSizeLongEv+0x160>
    6c40:	32000001 	orr	w1, w0, #0x1
    6c44:	5ac01021 	clz	w1, w1
    6c48:	52001021 	eor	w1, w1, #0x1f
    6c4c:	0b010c21 	add	w1, w1, w1, lsl #3
    6c50:	11012421 	add	w1, w1, #0x49
    6c54:	d3462821 	ubfx	x1, x1, #6, #5
    6c58:	91000673 	add	x19, x19, #0x1
    6c5c:	8b010273 	add	x19, x19, x1
    6c60:	b9002a82 	str	w2, [x20, #40]
    6c64:	8b000273 	add	x19, x19, x0
    6c68:	9100c280 	add	x0, x20, #0x30
    6c6c:	94008e15 	bl	2a4c0 <_ZN6google8protobuf8internal14WireFormatLite10UInt32SizeERKNS0_13RepeatedFieldIjEE>
    6c70:	52800003 	mov	w3, #0x0                   	// #0
    6c74:	b4000160 	cbz	x0, 6ca0 <_ZNK11vector_tile12Tile_Feature12ByteSizeLongEv+0xb0>
    6c78:	2a0003e3 	mov	w3, w0
    6c7c:	37f80660 	tbnz	w0, #31, 6d48 <_ZNK11vector_tile12Tile_Feature12ByteSizeLongEv+0x158>
    6c80:	32000001 	orr	w1, w0, #0x1
    6c84:	5ac01021 	clz	w1, w1
    6c88:	52001021 	eor	w1, w1, #0x1f
    6c8c:	0b010c21 	add	w1, w1, w1, lsl #3
    6c90:	11012421 	add	w1, w1, #0x49
    6c94:	d3462821 	ubfx	x1, x1, #6, #5
    6c98:	91000673 	add	x19, x19, #0x1
    6c9c:	8b130033 	add	x19, x1, x19
    6ca0:	b9401282 	ldr	w2, [x20, #16]
    6ca4:	8b000260 	add	x0, x19, x0
    6ca8:	b9004283 	str	w3, [x20, #64]
    6cac:	f240085f 	tst	x2, #0x7
    6cb0:	54000440 	b.eq	6d38 <_ZNK11vector_tile12Tile_Feature12ByteSizeLongEv+0x148>  // b.none
    6cb4:	36000182 	tbz	w2, #0, 6ce4 <_ZNK11vector_tile12Tile_Feature12ByteSizeLongEv+0xf4>
    6cb8:	f9402681 	ldr	x1, [x20, #72]
    6cbc:	f9400423 	ldr	x3, [x1, #8]
    6cc0:	32000061 	orr	w1, w3, #0x1
    6cc4:	91000463 	add	x3, x3, #0x1
    6cc8:	5ac01021 	clz	w1, w1
    6ccc:	52001021 	eor	w1, w1, #0x1f
    6cd0:	0b010c21 	add	w1, w1, w1, lsl #3
    6cd4:	11012421 	add	w1, w1, #0x49
    6cd8:	d3462821 	ubfx	x1, x1, #6, #5
    6cdc:	8b000021 	add	x1, x1, x0
    6ce0:	8b010060 	add	x0, x3, x1
    6ce4:	36080142 	tbz	w2, #1, 6d0c <_ZNK11vector_tile12Tile_Feature12ByteSizeLongEv+0x11c>
    6ce8:	f9402a81 	ldr	x1, [x20, #80]
    6cec:	b2400021 	orr	x1, x1, #0x1
    6cf0:	dac01021 	clz	x1, x1
    6cf4:	52001421 	eor	w1, w1, #0x3f
    6cf8:	0b010c21 	add	w1, w1, w1, lsl #3
    6cfc:	11012421 	add	w1, w1, #0x49
    6d00:	53067c21 	lsr	w1, w1, #6
    6d04:	11000421 	add	w1, w1, #0x1
    6d08:	8b010000 	add	x0, x0, x1
    6d0c:	36100162 	tbz	w2, #2, 6d38 <_ZNK11vector_tile12Tile_Feature12ByteSizeLongEv+0x148>
    6d10:	b9405a81 	ldr	w1, [x20, #88]
    6d14:	37f80221 	tbnz	w1, #31, 6d58 <_ZNK11vector_tile12Tile_Feature12ByteSizeLongEv+0x168>
    6d18:	32000021 	orr	w1, w1, #0x1
    6d1c:	5ac01021 	clz	w1, w1
    6d20:	52001021 	eor	w1, w1, #0x1f
    6d24:	0b010c21 	add	w1, w1, w1, lsl #3
    6d28:	11012422 	add	w2, w1, #0x49
    6d2c:	d3462842 	ubfx	x2, x2, #6, #5
    6d30:	91000401 	add	x1, x0, #0x1
    6d34:	8b020020 	add	x0, x1, x2
    6d38:	b9001680 	str	w0, [x20, #20]
    6d3c:	a94153f3 	ldp	x19, x20, [sp, #16]
    6d40:	a8c27bfd 	ldp	x29, x30, [sp], #32
    6d44:	d65f03c0 	ret
    6d48:	d2800141 	mov	x1, #0xa                   	// #10
    6d4c:	17ffffd3 	b	6c98 <_ZNK11vector_tile12Tile_Feature12ByteSizeLongEv+0xa8>
    6d50:	d2800141 	mov	x1, #0xa                   	// #10
    6d54:	17ffffc1 	b	6c58 <_ZNK11vector_tile12Tile_Feature12ByteSizeLongEv+0x68>
    6d58:	d2800142 	mov	x2, #0xa                   	// #10
    6d5c:	17fffff5 	b	6d30 <_ZNK11vector_tile12Tile_Feature12ByteSizeLongEv+0x140>

0000000000006d60 <_ZNK11vector_tile4Tile24SerializeWithCachedSizesEPN6google8protobuf2io17CodedOutputStreamE>:
    6d60:	a9bc7bfd 	stp	x29, x30, [sp, #-64]!
    6d64:	910003fd 	mov	x29, sp
    6d68:	a90153f3 	stp	x19, x20, [sp, #16]
    6d6c:	a9025bf5 	stp	x21, x22, [sp, #32]
    6d70:	f9001bf7 	str	x23, [sp, #48]
    6d74:	91014016 	add	x22, x0, #0x50
    6d78:	d50320ff 	xpaclri
    6d7c:	aa0003f7 	mov	x23, x0
    6d80:	aa0103f4 	mov	x20, x1
    6d84:	aa1e03e0 	mov	x0, x30
    6d88:	97fff6ee 	bl	4940 <_mcount@plt>
    6d8c:	b9400ad5 	ldr	w21, [x22, #8]
    6d90:	34000175 	cbz	w21, 6dbc <_ZNK11vector_tile4Tile24SerializeWithCachedSizesEPN6google8protobuf2io17CodedOutputStreamE+0x5c>
    6d94:	52800013 	mov	w19, #0x0                   	// #0
    6d98:	f9400ac3 	ldr	x3, [x22, #16]
    6d9c:	aa1403e2 	mov	x2, x20
    6da0:	52800060 	mov	w0, #0x3                   	// #3
    6da4:	8b33cc63 	add	x3, x3, w19, sxtw #3
    6da8:	11000673 	add	w19, w19, #0x1
    6dac:	f9400461 	ldr	x1, [x3, #8]
    6db0:	94008b48 	bl	29ad0 <_ZN6google8protobuf8internal14WireFormatLite12WriteMessageEiRKNS0_11MessageLiteEPNS0_2io17CodedOutputStreamE>
    6db4:	6b1302bf 	cmp	w21, w19
    6db8:	54ffff01 	b.ne	6d98 <_ZNK11vector_tile4Tile24SerializeWithCachedSizesEPN6google8protobuf2io17CodedOutputStreamE+0x38>  // b.any
    6dbc:	aa1403e3 	mov	x3, x20
    6dc0:	910022e0 	add	x0, x23, #0x8
    6dc4:	52840002 	mov	w2, #0x2000                	// #8192
    6dc8:	52800201 	mov	w1, #0x10                  	// #16
    6dcc:	9400452d 	bl	18280 <_ZNK6google8protobuf8internal12ExtensionSet24SerializeWithCachedSizesEiiPNS0_2io17CodedOutputStreamE>
    6dd0:	90000222 	adrp	x2, 4a000 <_ZTVN11vector_tile10Tile_ValueE+0x30>
    6dd4:	aa1403e0 	mov	x0, x20
    6dd8:	f94022e1 	ldr	x1, [x23, #64]
    6ddc:	f946a442 	ldr	x2, [x2, #3400]
    6de0:	927ff823 	and	x3, x1, #0xfffffffffffffffe
    6de4:	f240003f 	tst	x1, #0x1
    6de8:	9a830042 	csel	x2, x2, x3, eq  // eq = none
    6dec:	a94153f3 	ldp	x19, x20, [sp, #16]
    6df0:	a9425bf5 	ldp	x21, x22, [sp, #32]
    6df4:	f9401bf7 	ldr	x23, [sp, #48]
    6df8:	a8c47bfd 	ldp	x29, x30, [sp], #64
    6dfc:	f9400041 	ldr	x1, [x2]
    6e00:	b9400842 	ldr	w2, [x2, #8]
    6e04:	140094db 	b	2c170 <_ZN6google8protobuf2io17CodedOutputStream8WriteRawEPKvi>
    6e08:	d503201f 	nop
    6e0c:	d503201f 	nop

0000000000006e10 <_ZNK11vector_tile10Tile_Layer24SerializeWithCachedSizesEPN6google8protobuf2io17CodedOutputStreamE>:
    6e10:	a9bc7bfd 	stp	x29, x30, [sp, #-64]!
    6e14:	910003fd 	mov	x29, sp
    6e18:	a90153f3 	stp	x19, x20, [sp, #16]
    6e1c:	a9025bf5 	stp	x21, x22, [sp, #32]
    6e20:	a90363f7 	stp	x23, x24, [sp, #48]
    6e24:	aa0003f5 	mov	x21, x0
    6e28:	d50320ff 	xpaclri
    6e2c:	aa0103f4 	mov	x20, x1
    6e30:	aa1e03e0 	mov	x0, x30
    6e34:	97fff6c3 	bl	4940 <_mcount@plt>
    6e38:	b9404ab6 	ldr	w22, [x21, #72]
    6e3c:	37000936 	tbnz	w22, #0, 6f60 <_ZNK11vector_tile10Tile_Layer24SerializeWithCachedSizesEPN6google8protobuf2io17CodedOutputStreamE+0x150>
    6e40:	b9405ab7 	ldr	w23, [x21, #88]
    6e44:	910142b8 	add	x24, x21, #0x50
    6e48:	34000177 	cbz	w23, 6e74 <_ZNK11vector_tile10Tile_Layer24SerializeWithCachedSizesEPN6google8protobuf2io17CodedOutputStreamE+0x64>
    6e4c:	52800013 	mov	w19, #0x0                   	// #0
    6e50:	f9400b01 	ldr	x1, [x24, #16]
    6e54:	aa1403e2 	mov	x2, x20
    6e58:	52800040 	mov	w0, #0x2                   	// #2
    6e5c:	8b33cc21 	add	x1, x1, w19, sxtw #3
    6e60:	11000673 	add	w19, w19, #0x1
    6e64:	f9400421 	ldr	x1, [x1, #8]
    6e68:	94008b1a 	bl	29ad0 <_ZN6google8protobuf8internal14WireFormatLite12WriteMessageEiRKNS0_11MessageLiteEPNS0_2io17CodedOutputStreamE>
    6e6c:	6b1302ff 	cmp	w23, w19
    6e70:	54ffff01 	b.ne	6e50 <_ZNK11vector_tile10Tile_Layer24SerializeWithCachedSizesEPN6google8protobuf2io17CodedOutputStreamE+0x40>  // b.any
    6e74:	b94072b7 	ldr	w23, [x21, #112]
    6e78:	9101a2b8 	add	x24, x21, #0x68
    6e7c:	710002ff 	cmp	w23, #0x0
    6e80:	5400016d 	b.le	6eac <_ZNK11vector_tile10Tile_Layer24SerializeWithCachedSizesEPN6google8protobuf2io17CodedOutputStreamE+0x9c>
    6e84:	52800013 	mov	w19, #0x0                   	// #0
    6e88:	f9400b03 	ldr	x3, [x24, #16]
    6e8c:	aa1403e2 	mov	x2, x20
    6e90:	52800060 	mov	w0, #0x3                   	// #3
    6e94:	8b33cc63 	add	x3, x3, w19, sxtw #3
    6e98:	11000673 	add	w19, w19, #0x1
    6e9c:	f9400461 	ldr	x1, [x3, #8]
    6ea0:	94008911 	bl	292e4 <_ZN6google8protobuf8internal14WireFormatLite11WriteStringEiRKNSt7__cxx1112basic_stringIcSt11char_traitsIcESaIcEEEPNS0_2io17CodedOutputStreamE>
    6ea4:	6b17027f 	cmp	w19, w23
    6ea8:	54ffff01 	b.ne	6e88 <_ZNK11vector_tile10Tile_Layer24SerializeWithCachedSizesEPN6google8protobuf2io17CodedOutputStreamE+0x78>  // b.any
    6eac:	b9408ab7 	ldr	w23, [x21, #136]
    6eb0:	910202b8 	add	x24, x21, #0x80
    6eb4:	34000197 	cbz	w23, 6ee4 <_ZNK11vector_tile10Tile_Layer24SerializeWithCachedSizesEPN6google8protobuf2io17CodedOutputStreamE+0xd4>
    6eb8:	52800013 	mov	w19, #0x0                   	// #0
    6ebc:	d503201f 	nop
    6ec0:	f9400b03 	ldr	x3, [x24, #16]
    6ec4:	aa1403e2 	mov	x2, x20
    6ec8:	52800080 	mov	w0, #0x4                   	// #4
    6ecc:	8b33cc63 	add	x3, x3, w19, sxtw #3
    6ed0:	11000673 	add	w19, w19, #0x1
    6ed4:	f9400461 	ldr	x1, [x3, #8]
    6ed8:	94008afe 	bl	29ad0 <_ZN6google8protobuf8internal14WireFormatLite12WriteMessageEiRKNS0_11MessageLiteEPNS0_2io17CodedOutputStreamE>
    6edc:	6b1302ff 	cmp	w23, w19
    6ee0:	54ffff01 	b.ne	6ec0 <_ZNK11vector_tile10Tile_Layer24SerializeWithCachedSizesEPN6google8protobuf2io17CodedOutputStreamE+0xb0>  // b.any
    6ee4:	370802b6 	tbnz	w22, #1, 6f38 <_ZNK11vector_tile10Tile_Layer24SerializeWithCachedSizesEPN6google8protobuf2io17CodedOutputStreamE+0x128>
    6ee8:	37100336 	tbnz	w22, #2, 6f4c <_ZNK11vector_tile10Tile_Layer24SerializeWithCachedSizesEPN6google8protobuf2io17CodedOutputStreamE+0x13c>
    6eec:	aa1403e3 	mov	x3, x20
    6ef0:	910022a0 	add	x0, x21, #0x8
    6ef4:	52a40002 	mov	w2, #0x20000000            	// #536870912
    6ef8:	52800201 	mov	w1, #0x10                  	// #16
    6efc:	940044e1 	bl	18280 <_ZNK6google8protobuf8internal12ExtensionSet24SerializeWithCachedSizesEiiPNS0_2io17CodedOutputStreamE>
    6f00:	90000222 	adrp	x2, 4a000 <_ZTVN11vector_tile10Tile_ValueE+0x30>
    6f04:	aa1403e0 	mov	x0, x20
    6f08:	f94022a1 	ldr	x1, [x21, #64]
    6f0c:	f946a442 	ldr	x2, [x2, #3400]
    6f10:	927ff823 	and	x3, x1, #0xfffffffffffffffe
    6f14:	f240003f 	tst	x1, #0x1
    6f18:	9a830042 	csel	x2, x2, x3, eq  // eq = none
    6f1c:	a94153f3 	ldp	x19, x20, [sp, #16]
    6f20:	a9425bf5 	ldp	x21, x22, [sp, #32]
    6f24:	a94363f7 	ldp	x23, x24, [sp, #48]
    6f28:	a8c47bfd 	ldp	x29, x30, [sp], #64
    6f2c:	f9400041 	ldr	x1, [x2]
    6f30:	b9400842 	ldr	w2, [x2, #8]
    6f34:	1400948f 	b	2c170 <_ZN6google8protobuf2io17CodedOutputStream8WriteRawEPKvi>
    6f38:	b940a2a1 	ldr	w1, [x21, #160]
    6f3c:	aa1403e2 	mov	x2, x20
    6f40:	528000a0 	mov	w0, #0x5                   	// #5
    6f44:	9400868f 	bl	28980 <_ZN6google8protobuf8internal14WireFormatLite11WriteUInt32EijPNS0_2io17CodedOutputStreamE>
    6f48:	3617fd36 	tbz	w22, #2, 6eec <_ZNK11vector_tile10Tile_Layer24SerializeWithCachedSizesEPN6google8protobuf2io17CodedOutputStreamE+0xdc>
    6f4c:	b940a6a1 	ldr	w1, [x21, #164]
    6f50:	aa1403e2 	mov	x2, x20
    6f54:	528001e0 	mov	w0, #0xf                   	// #15
    6f58:	9400868a 	bl	28980 <_ZN6google8protobuf8internal14WireFormatLite11WriteUInt32EijPNS0_2io17CodedOutputStreamE>
    6f5c:	17ffffe4 	b	6eec <_ZNK11vector_tile10Tile_Layer24SerializeWithCachedSizesEPN6google8protobuf2io17CodedOutputStreamE+0xdc>
    6f60:	f9404ea1 	ldr	x1, [x21, #152]
    6f64:	aa1403e2 	mov	x2, x20
    6f68:	52800020 	mov	w0, #0x1                   	// #1
    6f6c:	94008945 	bl	29480 <_ZN6google8protobuf8internal14WireFormatLite23WriteStringMaybeAliasedEiRKNSt7__cxx1112basic_stringIcSt11char_traitsIcESaIcEEEPNS0_2io17CodedOutputStreamE>
    6f70:	17ffffb4 	b	6e40 <_ZNK11vector_tile10Tile_Layer24SerializeWithCachedSizesEPN6google8protobuf2io17CodedOutputStreamE+0x30>

0000000000006f74 <_ZNK11vector_tile10Tile_Layer13IsInitializedEv>:
    6f74:	a9bd7bfd 	stp	x29, x30, [sp, #-48]!
    6f78:	910003fd 	mov	x29, sp
    6f7c:	a90153f3 	stp	x19, x20, [sp, #16]
    6f80:	d50320ff 	xpaclri
    6f84:	aa0003f4 	mov	x20, x0
    6f88:	aa1e03e0 	mov	x0, x30
    6f8c:	97fff66d 	bl	4940 <_mcount@plt>
    6f90:	91002280 	add	x0, x20, #0x8
    6f94:	94003ed3 	bl	16ae0 <_ZNK6google8protobuf8internal12ExtensionSet13IsInitializedEv>
    6f98:	72001c13 	ands	w19, w0, #0xff
    6f9c:	540000c0 	b.eq	6fb4 <_ZNK11vector_tile10Tile_Layer13IsInitializedEv+0x40>  // b.none
    6fa0:	b9404a80 	ldr	w0, [x20, #72]
    6fa4:	528000a1 	mov	w1, #0x5                   	// #5
    6fa8:	0a010000 	and	w0, w0, w1
    6fac:	6b01001f 	cmp	w0, w1
    6fb0:	540000c0 	b.eq	6fc8 <_ZNK11vector_tile10Tile_Layer13IsInitializedEv+0x54>  // b.none
    6fb4:	52800013 	mov	w19, #0x0                   	// #0
    6fb8:	2a1303e0 	mov	w0, w19
    6fbc:	a94153f3 	ldp	x19, x20, [sp, #16]
    6fc0:	a8c37bfd 	ldp	x29, x30, [sp], #48
    6fc4:	d65f03c0 	ret
    6fc8:	91020294 	add	x20, x20, #0x80
    6fcc:	f90013f5 	str	x21, [sp, #32]
    6fd0:	b9400a95 	ldr	w21, [x20, #8]
    6fd4:	710006b5 	subs	w21, w21, #0x1
    6fd8:	54000144 	b.mi	7000 <_ZNK11vector_tile10Tile_Layer13IsInitializedEv+0x8c>  // b.first
    6fdc:	f9400a80 	ldr	x0, [x20, #16]
    6fe0:	8b35cc00 	add	x0, x0, w21, sxtw #3
    6fe4:	f9400400 	ldr	x0, [x0, #8]
    6fe8:	91002000 	add	x0, x0, #0x8
    6fec:	94003ebd 	bl	16ae0 <_ZNK6google8protobuf8internal12ExtensionSet13IsInitializedEv>
    6ff0:	72001c1f 	tst	w0, #0xff
    6ff4:	54ffff01 	b.ne	6fd4 <_ZNK11vector_tile10Tile_Layer13IsInitializedEv+0x60>  // b.any
    6ff8:	f94013f5 	ldr	x21, [sp, #32]
    6ffc:	17ffffee 	b	6fb4 <_ZNK11vector_tile10Tile_Layer13IsInitializedEv+0x40>
    7000:	f94013f5 	ldr	x21, [sp, #32]
    7004:	17ffffed 	b	6fb8 <_ZNK11vector_tile10Tile_Layer13IsInitializedEv+0x44>
    7008:	d503201f 	nop
    700c:	d503201f 	nop

0000000000007010 <_ZNK11vector_tile12Tile_Feature11GetTypeNameB5cxx11Ev>:
    7010:	a9bd7bfd 	stp	x29, x30, [sp, #-48]!
    7014:	910003fd 	mov	x29, sp
    7018:	f9000bf3 	str	x19, [sp, #16]
    701c:	d50320ff 	xpaclri
    7020:	aa0803f3 	mov	x19, x8
    7024:	aa1e03e0 	mov	x0, x30
    7028:	97fff646 	bl	4940 <_mcount@plt>
    702c:	f0000203 	adrp	x3, 4a000 <_ZTVN11vector_tile10Tile_ValueE+0x30>
    7030:	91004265 	add	x5, x19, #0x10
    7034:	d2800304 	mov	x4, #0x18                  	// #24
    7038:	910083e1 	add	x1, sp, #0x20
    703c:	f946b863 	ldr	x3, [x3, #3440]
    7040:	d2800002 	mov	x2, #0x0                   	// #0
    7044:	aa1303e0 	mov	x0, x19
    7048:	f9400066 	ldr	x6, [x3]
    704c:	f90017e6 	str	x6, [sp, #40]
    7050:	d2800006 	mov	x6, #0x0                   	// #0
    7054:	f9000265 	str	x5, [x19]
    7058:	f90013e4 	str	x4, [sp, #32]
    705c:	97fff745 	bl	4d70 <_ZNSt7__cxx1112basic_stringIcSt11char_traitsIcESaIcEE9_M_createERmm@plt>
    7060:	f9000260 	str	x0, [x19]
    7064:	f0000121 	adrp	x1, 2e000 <_ZN6google8protobuf8internal15UTF8GenericScanEPKNS1_19UTF8StateMachineObjEPKciPi>
    7068:	911ea021 	add	x1, x1, #0x7a8
    706c:	f94013e2 	ldr	x2, [sp, #32]
    7070:	f9000a62 	str	x2, [x19, #16]
    7074:	a9400c22 	ldp	x2, x3, [x1]
    7078:	a9000c02 	stp	x2, x3, [x0]
    707c:	f9400821 	ldr	x1, [x1, #16]
    7080:	f9000801 	str	x1, [x0, #16]
    7084:	f94013e1 	ldr	x1, [sp, #32]
    7088:	f0000202 	adrp	x2, 4a000 <_ZTVN11vector_tile10Tile_ValueE+0x30>
    708c:	f9400263 	ldr	x3, [x19]
    7090:	f9000661 	str	x1, [x19, #8]
    7094:	f946b840 	ldr	x0, [x2, #3440]
    7098:	3821687f 	strb	wzr, [x3, x1]
    709c:	f94017e2 	ldr	x2, [sp, #40]
    70a0:	f9400001 	ldr	x1, [x0]
    70a4:	eb010042 	subs	x2, x2, x1
    70a8:	d2800001 	mov	x1, #0x0                   	// #0
    70ac:	540000a1 	b.ne	70c0 <_ZNK11vector_tile12Tile_Feature11GetTypeNameB5cxx11Ev+0xb0>  // b.any
    70b0:	aa1303e0 	mov	x0, x19
    70b4:	f9400bf3 	ldr	x19, [sp, #16]
    70b8:	a8c37bfd 	ldp	x29, x30, [sp], #48
    70bc:	d65f03c0 	ret
    70c0:	97fff618 	bl	4920 <__stack_chk_fail@plt>

00000000000070c4 <_ZNK11vector_tile10Tile_Value11GetTypeNameB5cxx11Ev>:
    70c4:	a9bd7bfd 	stp	x29, x30, [sp, #-48]!
    70c8:	910003fd 	mov	x29, sp
    70cc:	f9000bf3 	str	x19, [sp, #16]
    70d0:	d50320ff 	xpaclri
    70d4:	aa0803f3 	mov	x19, x8
    70d8:	aa1e03e0 	mov	x0, x30
    70dc:	97fff619 	bl	4940 <_mcount@plt>
    70e0:	f0000203 	adrp	x3, 4a000 <_ZTVN11vector_tile10Tile_ValueE+0x30>
    70e4:	91004265 	add	x5, x19, #0x10
    70e8:	d28002c4 	mov	x4, #0x16                  	// #22
    70ec:	910083e1 	add	x1, sp, #0x20
    70f0:	f946b863 	ldr	x3, [x3, #3440]
    70f4:	d2800002 	mov	x2, #0x0                   	// #0
    70f8:	aa1303e0 	mov	x0, x19
    70fc:	f9400066 	ldr	x6, [x3]
    7100:	f90017e6 	str	x6, [sp, #40]
    7104:	d2800006 	mov	x6, #0x0                   	// #0
    7108:	f9000265 	str	x5, [x19]
    710c:	f90013e4 	str	x4, [sp, #32]
    7110:	97fff718 	bl	4d70 <_ZNSt7__cxx1112basic_stringIcSt11char_traitsIcESaIcEE9_M_createERmm@plt>
    7114:	f9000260 	str	x0, [x19]
    7118:	f0000121 	adrp	x1, 2e000 <_ZN6google8protobuf8internal15UTF8GenericScanEPKNS1_19UTF8StateMachineObjEPKciPi>
    711c:	911f2021 	add	x1, x1, #0x7c8
    7120:	f94013e2 	ldr	x2, [sp, #32]
    7124:	f9000a62 	str	x2, [x19, #16]
    7128:	a9400c22 	ldp	x2, x3, [x1]
    712c:	a9000c02 	stp	x2, x3, [x0]
    7130:	f840e021 	ldur	x1, [x1, #14]
    7134:	f800e001 	stur	x1, [x0, #14]
    7138:	f94013e1 	ldr	x1, [sp, #32]
    713c:	f0000202 	adrp	x2, 4a000 <_ZTVN11vector_tile10Tile_ValueE+0x30>
    7140:	f9400263 	ldr	x3, [x19]
    7144:	f9000661 	str	x1, [x19, #8]
    7148:	f946b840 	ldr	x0, [x2, #3440]
    714c:	3821687f 	strb	wzr, [x3, x1]
    7150:	f94017e2 	ldr	x2, [sp, #40]
    7154:	f9400001 	ldr	x1, [x0]
    7158:	eb010042 	subs	x2, x2, x1
    715c:	d2800001 	mov	x1, #0x0                   	// #0
    7160:	540000a1 	b.ne	7174 <_ZNK11vector_tile10Tile_Value11GetTypeNameB5cxx11Ev+0xb0>  // b.any
    7164:	aa1303e0 	mov	x0, x19
    7168:	f9400bf3 	ldr	x19, [sp, #16]
    716c:	a8c37bfd 	ldp	x29, x30, [sp], #48
    7170:	d65f03c0 	ret
    7174:	97fff5eb 	bl	4920 <__stack_chk_fail@plt>
    7178:	d503201f 	nop
    717c:	d503201f 	nop

0000000000007180 <_ZNK11vector_tile10Tile_Layer11GetTypeNameB5cxx11Ev>:
    7180:	a9bd7bfd 	stp	x29, x30, [sp, #-48]!
    7184:	910003fd 	mov	x29, sp
    7188:	f9000bf3 	str	x19, [sp, #16]
    718c:	d50320ff 	xpaclri
    7190:	aa0803f3 	mov	x19, x8
    7194:	aa1e03e0 	mov	x0, x30
    7198:	97fff5ea 	bl	4940 <_mcount@plt>
    719c:	f0000203 	adrp	x3, 4a000 <_ZTVN11vector_tile10Tile_ValueE+0x30>
    71a0:	91004265 	add	x5, x19, #0x10
    71a4:	d28002c4 	mov	x4, #0x16                  	// #22
    71a8:	910083e1 	add	x1, sp, #0x20
    71ac:	f946b863 	ldr	x3, [x3, #3440]
    71b0:	d2800002 	mov	x2, #0x0                   	// #0
    71b4:	aa1303e0 	mov	x0, x19
    71b8:	f9400066 	ldr	x6, [x3]
    71bc:	f90017e6 	str	x6, [sp, #40]
    71c0:	d2800006 	mov	x6, #0x0                   	// #0
    71c4:	f9000265 	str	x5, [x19]
    71c8:	f90013e4 	str	x4, [sp, #32]
    71cc:	97fff6e9 	bl	4d70 <_ZNSt7__cxx1112basic_stringIcSt11char_traitsIcESaIcEE9_M_createERmm@plt>
    71d0:	f9000260 	str	x0, [x19]
    71d4:	f0000121 	adrp	x1, 2e000 <_ZN6google8protobuf8internal15UTF8GenericScanEPKNS1_19UTF8StateMachineObjEPKciPi>
    71d8:	911f8021 	add	x1, x1, #0x7e0
    71dc:	f94013e2 	ldr	x2, [sp, #32]
    71e0:	f9000a62 	str	x2, [x19, #16]
    71e4:	a9400c22 	ldp	x2, x3, [x1]
    71e8:	a9000c02 	stp	x2, x3, [x0]
    71ec:	f840e021 	ldur	x1, [x1, #14]
    71f0:	f800e001 	stur	x1, [x0, #14]
    71f4:	f94013e1 	ldr	x1, [sp, #32]
    71f8:	f0000202 	adrp	x2, 4a000 <_ZTVN11vector_tile10Tile_ValueE+0x30>
    71fc:	f9400263 	ldr	x3, [x19]
    7200:	f9000661 	str	x1, [x19, #8]
    7204:	f946b840 	ldr	x0, [x2, #3440]
    7208:	3821687f 	strb	wzr, [x3, x1]
    720c:	f94017e2 	ldr	x2, [sp, #40]
    7210:	f9400001 	ldr	x1, [x0]
    7214:	eb010042 	subs	x2, x2, x1
    7218:	d2800001 	mov	x1, #0x0                   	// #0
    721c:	540000a1 	b.ne	7230 <_ZNK11vector_tile10Tile_Layer11GetTypeNameB5cxx11Ev+0xb0>  // b.any
    7220:	aa1303e0 	mov	x0, x19
    7224:	f9400bf3 	ldr	x19, [sp, #16]
    7228:	a8c37bfd 	ldp	x29, x30, [sp], #48
    722c:	d65f03c0 	ret
    7230:	97fff5bc 	bl	4920 <__stack_chk_fail@plt>

0000000000007234 <_ZNK11vector_tile4Tile11GetTypeNameB5cxx11Ev>:
    7234:	a9bd7bfd 	stp	x29, x30, [sp, #-48]!
    7238:	910003fd 	mov	x29, sp
    723c:	f9000bf3 	str	x19, [sp, #16]
    7240:	d50320ff 	xpaclri
    7244:	aa0803f3 	mov	x19, x8
    7248:	aa1e03e0 	mov	x0, x30
    724c:	97fff5bd 	bl	4940 <_mcount@plt>
    7250:	f0000203 	adrp	x3, 4a000 <_ZTVN11vector_tile10Tile_ValueE+0x30>
    7254:	91004265 	add	x5, x19, #0x10
    7258:	d2800204 	mov	x4, #0x10                  	// #16
    725c:	910083e1 	add	x1, sp, #0x20
    7260:	f946b863 	ldr	x3, [x3, #3440]
    7264:	d2800002 	mov	x2, #0x0                   	// #0
    7268:	aa1303e0 	mov	x0, x19
    726c:	f9400066 	ldr	x6, [x3]
    7270:	f90017e6 	str	x6, [sp, #40]
    7274:	d2800006 	mov	x6, #0x0                   	// #0
    7278:	f9000265 	str	x5, [x19]
    727c:	f90013e4 	str	x4, [sp, #32]
    7280:	97fff6bc 	bl	4d70 <_ZNSt7__cxx1112basic_stringIcSt11char_traitsIcESaIcEE9_M_createERmm@plt>
    7284:	f9000260 	str	x0, [x19]
    7288:	f0000121 	adrp	x1, 2e000 <_ZN6google8protobuf8internal15UTF8GenericScanEPKNS1_19UTF8StateMachineObjEPKciPi>
    728c:	911fe021 	add	x1, x1, #0x7f8
    7290:	f94013e2 	ldr	x2, [sp, #32]
    7294:	f9000a62 	str	x2, [x19, #16]
    7298:	a9400c22 	ldp	x2, x3, [x1]
    729c:	a9000c02 	stp	x2, x3, [x0]
    72a0:	f0000200 	adrp	x0, 4a000 <_ZTVN11vector_tile10Tile_ValueE+0x30>
    72a4:	f9400262 	ldr	x2, [x19]
    72a8:	f94013e1 	ldr	x1, [sp, #32]
    72ac:	f9000661 	str	x1, [x19, #8]
    72b0:	f946b800 	ldr	x0, [x0, #3440]
    72b4:	3821685f 	strb	wzr, [x2, x1]
    72b8:	f94017e2 	ldr	x2, [sp, #40]
    72bc:	f9400001 	ldr	x1, [x0]
    72c0:	eb010042 	subs	x2, x2, x1
    72c4:	d2800001 	mov	x1, #0x0                   	// #0
    72c8:	540000a1 	b.ne	72dc <_ZNK11vector_tile4Tile11GetTypeNameB5cxx11Ev+0xa8>  // b.any
    72cc:	aa1303e0 	mov	x0, x19
    72d0:	f9400bf3 	ldr	x19, [sp, #16]
    72d4:	a8c37bfd 	ldp	x29, x30, [sp], #48
    72d8:	d65f03c0 	ret
    72dc:	97fff591 	bl	4920 <__stack_chk_fail@plt>

00000000000072e0 <_ZNK11vector_tile4Tile13IsInitializedEv>:
    72e0:	a9bc7bfd 	stp	x29, x30, [sp, #-64]!
    72e4:	910003fd 	mov	x29, sp
    72e8:	a9025bf5 	stp	x21, x22, [sp, #32]
    72ec:	d50320ff 	xpaclri
    72f0:	aa0003f5 	mov	x21, x0
    72f4:	aa1e03e0 	mov	x0, x30
    72f8:	97fff592 	bl	4940 <_mcount@plt>
    72fc:	910022a0 	add	x0, x21, #0x8
    7300:	94003df8 	bl	16ae0 <_ZNK6google8protobuf8internal12ExtensionSet13IsInitializedEv>
    7304:	72001c16 	ands	w22, w0, #0xff
    7308:	540000c1 	b.ne	7320 <_ZNK11vector_tile4Tile13IsInitializedEv+0x40>  // b.any
    730c:	52800016 	mov	w22, #0x0                   	// #0
    7310:	2a1603e0 	mov	w0, w22
    7314:	a9425bf5 	ldp	x21, x22, [sp, #32]
    7318:	a8c47bfd 	ldp	x29, x30, [sp], #64
    731c:	d65f03c0 	ret
    7320:	910142b5 	add	x21, x21, #0x50
    7324:	a90153f3 	stp	x19, x20, [sp, #16]
    7328:	a90363f7 	stp	x23, x24, [sp, #48]
    732c:	528000b7 	mov	w23, #0x5                   	// #5
    7330:	b9400ab3 	ldr	w19, [x21, #8]
    7334:	71000673 	subs	w19, w19, #0x1
    7338:	54000404 	b.mi	73b8 <_ZNK11vector_tile4Tile13IsInitializedEv+0xd8>  // b.first
    733c:	d503201f 	nop
    7340:	f9400aa1 	ldr	x1, [x21, #16]
    7344:	8b33cc21 	add	x1, x1, w19, sxtw #3
    7348:	f9400434 	ldr	x20, [x1, #8]
    734c:	91002280 	add	x0, x20, #0x8
    7350:	94003de4 	bl	16ae0 <_ZNK6google8protobuf8internal12ExtensionSet13IsInitializedEv>
    7354:	72001c1f 	tst	w0, #0xff
    7358:	540000a0 	b.eq	736c <_ZNK11vector_tile4Tile13IsInitializedEv+0x8c>  // b.none
    735c:	b9404a81 	ldr	w1, [x20, #72]
    7360:	0a170021 	and	w1, w1, w23
    7364:	7100143f 	cmp	w1, #0x5
    7368:	54000080 	b.eq	7378 <_ZNK11vector_tile4Tile13IsInitializedEv+0x98>  // b.none
    736c:	a94153f3 	ldp	x19, x20, [sp, #16]
    7370:	a94363f7 	ldp	x23, x24, [sp, #48]
    7374:	17ffffe6 	b	730c <_ZNK11vector_tile4Tile13IsInitializedEv+0x2c>
    7378:	b9408a98 	ldr	w24, [x20, #136]
    737c:	91020294 	add	x20, x20, #0x80
    7380:	71000718 	subs	w24, w24, #0x1
    7384:	54000144 	b.mi	73ac <_ZNK11vector_tile4Tile13IsInitializedEv+0xcc>  // b.first
    7388:	f9400a80 	ldr	x0, [x20, #16]
    738c:	8b38cc00 	add	x0, x0, w24, sxtw #3
    7390:	f9400400 	ldr	x0, [x0, #8]
    7394:	91002000 	add	x0, x0, #0x8
    7398:	94003dd2 	bl	16ae0 <_ZNK6google8protobuf8internal12ExtensionSet13IsInitializedEv>
    739c:	72001c1f 	tst	w0, #0xff
    73a0:	54fffe60 	b.eq	736c <_ZNK11vector_tile4Tile13IsInitializedEv+0x8c>  // b.none
    73a4:	71000718 	subs	w24, w24, #0x1
    73a8:	54ffff05 	b.pl	7388 <_ZNK11vector_tile4Tile13IsInitializedEv+0xa8>  // b.nfrst
    73ac:	51000673 	sub	w19, w19, #0x1
    73b0:	3100067f 	cmn	w19, #0x1
    73b4:	54fffc61 	b.ne	7340 <_ZNK11vector_tile4Tile13IsInitializedEv+0x60>  // b.any
    73b8:	2a1603e0 	mov	w0, w22
    73bc:	a94153f3 	ldp	x19, x20, [sp, #16]
    73c0:	a9425bf5 	ldp	x21, x22, [sp, #32]
    73c4:	a94363f7 	ldp	x23, x24, [sp, #48]
    73c8:	a8c47bfd 	ldp	x29, x30, [sp], #64
    73cc:	d65f03c0 	ret

00000000000073d0 <_ZNK11vector_tile12Tile_Feature24SerializeWithCachedSizesEPN6google8protobuf2io17CodedOutputStreamE>:
    73d0:	a9bc7bfd 	stp	x29, x30, [sp, #-64]!
    73d4:	910003fd 	mov	x29, sp
    73d8:	a90153f3 	stp	x19, x20, [sp, #16]
    73dc:	a9025bf5 	stp	x21, x22, [sp, #32]
    73e0:	aa0003f3 	mov	x19, x0
    73e4:	d50320ff 	xpaclri
    73e8:	aa0103f5 	mov	x21, x1
    73ec:	aa1e03e0 	mov	x0, x30
    73f0:	97fff554 	bl	4940 <_mcount@plt>
    73f4:	b9401274 	ldr	w20, [x19, #16]
    73f8:	37081574 	tbnz	w20, #1, 76a4 <_ZNK11vector_tile12Tile_Feature24SerializeWithCachedSizesEPN6google8protobuf2io17CodedOutputStreamE+0x2d4>
    73fc:	b9401a60 	ldr	w0, [x19, #24]
    7400:	7100001f 	cmp	w0, #0x0
    7404:	54000b4c 	b.gt	756c <_ZNK11vector_tile12Tile_Feature24SerializeWithCachedSizesEPN6google8protobuf2io17CodedOutputStreamE+0x19c>
    7408:	37101394 	tbnz	w20, #2, 7678 <_ZNK11vector_tile12Tile_Feature24SerializeWithCachedSizesEPN6google8protobuf2io17CodedOutputStreamE+0x2a8>
    740c:	b9403260 	ldr	w0, [x19, #48]
    7410:	7100001f 	cmp	w0, #0x0
    7414:	540001ec 	b.gt	7450 <_ZNK11vector_tile12Tile_Feature24SerializeWithCachedSizesEPN6google8protobuf2io17CodedOutputStreamE+0x80>
    7418:	37000a14 	tbnz	w20, #0, 7558 <_ZNK11vector_tile12Tile_Feature24SerializeWithCachedSizesEPN6google8protobuf2io17CodedOutputStreamE+0x188>
    741c:	f0000201 	adrp	x1, 4a000 <_ZTVN11vector_tile10Tile_ValueE+0x30>
    7420:	aa1503e0 	mov	x0, x21
    7424:	f9400662 	ldr	x2, [x19, #8]
    7428:	f946a421 	ldr	x1, [x1, #3400]
    742c:	927ff843 	and	x3, x2, #0xfffffffffffffffe
    7430:	f240005f 	tst	x2, #0x1
    7434:	9a830022 	csel	x2, x1, x3, eq  // eq = none
    7438:	a94153f3 	ldp	x19, x20, [sp, #16]
    743c:	a9425bf5 	ldp	x21, x22, [sp, #32]
    7440:	a8c47bfd 	ldp	x29, x30, [sp], #64
    7444:	f9400041 	ldr	x1, [x2]
    7448:	b9400842 	ldr	w2, [x2, #8]
    744c:	14009349 	b	2c170 <_ZN6google8protobuf2io17CodedOutputStream8WriteRawEPKvi>
    7450:	b94012a0 	ldr	w0, [x21, #16]
    7454:	a90363f7 	stp	x23, x24, [sp, #48]
    7458:	7100101f 	cmp	w0, #0x4
    745c:	540012ed 	b.le	76b8 <_ZNK11vector_tile12Tile_Feature24SerializeWithCachedSizesEPN6google8protobuf2io17CodedOutputStreamE+0x2e8>
    7460:	f94006a0 	ldr	x0, [x21, #8]
    7464:	52800441 	mov	w1, #0x22                  	// #34
    7468:	39000001 	strb	w1, [x0]
    746c:	f94006a1 	ldr	x1, [x21, #8]
    7470:	b94012a0 	ldr	w0, [x21, #16]
    7474:	91000421 	add	x1, x1, #0x1
    7478:	f90006a1 	str	x1, [x21, #8]
    747c:	51000400 	sub	w0, w0, #0x1
    7480:	b90012a0 	str	w0, [x21, #16]
    7484:	b9404261 	ldr	w1, [x19, #64]
    7488:	7100101f 	cmp	w0, #0x4
    748c:	5400124d 	b.le	76d4 <_ZNK11vector_tile12Tile_Feature24SerializeWithCachedSizesEPN6google8protobuf2io17CodedOutputStreamE+0x304>
    7490:	f94006a3 	ldr	x3, [x21, #8]
    7494:	aa0303e0 	mov	x0, x3
    7498:	7101fc3f 	cmp	w1, #0x7f
    749c:	540000c9 	b.ls	74b4 <_ZNK11vector_tile12Tile_Feature24SerializeWithCachedSizesEPN6google8protobuf2io17CodedOutputStreamE+0xe4>  // b.plast
    74a0:	32196022 	orr	w2, w1, #0xffffff80
    74a4:	53077c21 	lsr	w1, w1, #7
    74a8:	38001402 	strb	w2, [x0], #1
    74ac:	7101fc3f 	cmp	w1, #0x7f
    74b0:	54ffff88 	b.hi	74a0 <_ZNK11vector_tile12Tile_Feature24SerializeWithCachedSizesEPN6google8protobuf2io17CodedOutputStreamE+0xd0>  // b.pmore
    74b4:	38001401 	strb	w1, [x0], #1
    74b8:	f94006a2 	ldr	x2, [x21, #8]
    74bc:	cb030000 	sub	x0, x0, x3
    74c0:	b94012a1 	ldr	w1, [x21, #16]
    74c4:	8b20c042 	add	x2, x2, w0, sxtw
    74c8:	4b000020 	sub	w0, w1, w0
    74cc:	f90006a2 	str	x2, [x21, #8]
    74d0:	b90012a0 	str	w0, [x21, #16]
    74d4:	b9403277 	ldr	w23, [x19, #48]
    74d8:	710002ff 	cmp	w23, #0x0
    74dc:	540003ad 	b.le	7550 <_ZNK11vector_tile12Tile_Feature24SerializeWithCachedSizesEPN6google8protobuf2io17CodedOutputStreamE+0x180>
    74e0:	9100c278 	add	x24, x19, #0x30
    74e4:	52800016 	mov	w22, #0x0                   	// #0
    74e8:	f9400700 	ldr	x0, [x24, #8]
    74ec:	b94012a2 	ldr	w2, [x21, #16]
    74f0:	8b36c800 	add	x0, x0, w22, sxtw #2
    74f4:	b9400801 	ldr	w1, [x0, #8]
    74f8:	7100105f 	cmp	w2, #0x4
    74fc:	54000c8d 	b.le	768c <_ZNK11vector_tile12Tile_Feature24SerializeWithCachedSizesEPN6google8protobuf2io17CodedOutputStreamE+0x2bc>
    7500:	f94006a2 	ldr	x2, [x21, #8]
    7504:	aa0203e3 	mov	x3, x2
    7508:	7101fc3f 	cmp	w1, #0x7f
    750c:	540000c9 	b.ls	7524 <_ZNK11vector_tile12Tile_Feature24SerializeWithCachedSizesEPN6google8protobuf2io17CodedOutputStreamE+0x154>  // b.plast
    7510:	32196020 	orr	w0, w1, #0xffffff80
    7514:	53077c21 	lsr	w1, w1, #7
    7518:	38001460 	strb	w0, [x3], #1
    751c:	7101fc3f 	cmp	w1, #0x7f
    7520:	54ffff88 	b.hi	7510 <_ZNK11vector_tile12Tile_Feature24SerializeWithCachedSizesEPN6google8protobuf2io17CodedOutputStreamE+0x140>  // b.pmore
    7524:	38001461 	strb	w1, [x3], #1
    7528:	f94006a1 	ldr	x1, [x21, #8]
    752c:	cb020063 	sub	x3, x3, x2
    7530:	b94012a0 	ldr	w0, [x21, #16]
    7534:	8b23c021 	add	x1, x1, w3, sxtw
    7538:	4b030000 	sub	w0, w0, w3
    753c:	f90006a1 	str	x1, [x21, #8]
    7540:	b90012a0 	str	w0, [x21, #16]
    7544:	110006d6 	add	w22, w22, #0x1
    7548:	6b1702df 	cmp	w22, w23
    754c:	54fffce1 	b.ne	74e8 <_ZNK11vector_tile12Tile_Feature24SerializeWithCachedSizesEPN6google8protobuf2io17CodedOutputStreamE+0x118>  // b.any
    7550:	a94363f7 	ldp	x23, x24, [sp, #48]
    7554:	3607f654 	tbz	w20, #0, 741c <_ZNK11vector_tile12Tile_Feature24SerializeWithCachedSizesEPN6google8protobuf2io17CodedOutputStreamE+0x4c>
    7558:	f9402661 	ldr	x1, [x19, #72]
    755c:	aa1503e2 	mov	x2, x21
    7560:	528000a0 	mov	w0, #0x5                   	// #5
    7564:	940088a3 	bl	297f0 <_ZN6google8protobuf8internal14WireFormatLite22WriteBytesMaybeAliasedEiRKNSt7__cxx1112basic_stringIcSt11char_traitsIcESaIcEEEPNS0_2io17CodedOutputStreamE>
    7568:	17ffffad 	b	741c <_ZNK11vector_tile12Tile_Feature24SerializeWithCachedSizesEPN6google8protobuf2io17CodedOutputStreamE+0x4c>
    756c:	b94012a0 	ldr	w0, [x21, #16]
    7570:	a90363f7 	stp	x23, x24, [sp, #48]
    7574:	7100101f 	cmp	w0, #0x4
    7578:	54000bad 	b.le	76ec <_ZNK11vector_tile12Tile_Feature24SerializeWithCachedSizesEPN6google8protobuf2io17CodedOutputStreamE+0x31c>
    757c:	f94006a0 	ldr	x0, [x21, #8]
    7580:	52800241 	mov	w1, #0x12                  	// #18
    7584:	39000001 	strb	w1, [x0]
    7588:	f94006a1 	ldr	x1, [x21, #8]
    758c:	b94012a0 	ldr	w0, [x21, #16]
    7590:	91000421 	add	x1, x1, #0x1
    7594:	f90006a1 	str	x1, [x21, #8]
    7598:	51000400 	sub	w0, w0, #0x1
    759c:	b90012a0 	str	w0, [x21, #16]
    75a0:	b9402a61 	ldr	w1, [x19, #40]
    75a4:	7100101f 	cmp	w0, #0x4
    75a8:	540009cd 	b.le	76e0 <_ZNK11vector_tile12Tile_Feature24SerializeWithCachedSizesEPN6google8protobuf2io17CodedOutputStreamE+0x310>
    75ac:	f94006a3 	ldr	x3, [x21, #8]
    75b0:	aa0303e0 	mov	x0, x3
    75b4:	7101fc3f 	cmp	w1, #0x7f
    75b8:	540000e9 	b.ls	75d4 <_ZNK11vector_tile12Tile_Feature24SerializeWithCachedSizesEPN6google8protobuf2io17CodedOutputStreamE+0x204>  // b.plast
    75bc:	d503201f 	nop
    75c0:	32196022 	orr	w2, w1, #0xffffff80
    75c4:	53077c21 	lsr	w1, w1, #7
    75c8:	38001402 	strb	w2, [x0], #1
    75cc:	7101fc3f 	cmp	w1, #0x7f
    75d0:	54ffff88 	b.hi	75c0 <_ZNK11vector_tile12Tile_Feature24SerializeWithCachedSizesEPN6google8protobuf2io17CodedOutputStreamE+0x1f0>  // b.pmore
    75d4:	38001401 	strb	w1, [x0], #1
    75d8:	f94006a2 	ldr	x2, [x21, #8]
    75dc:	cb030000 	sub	x0, x0, x3
    75e0:	b94012a1 	ldr	w1, [x21, #16]
    75e4:	8b20c042 	add	x2, x2, w0, sxtw
    75e8:	4b000020 	sub	w0, w1, w0
    75ec:	f90006a2 	str	x2, [x21, #8]
    75f0:	b90012a0 	str	w0, [x21, #16]
    75f4:	b9401a77 	ldr	w23, [x19, #24]
    75f8:	710002ff 	cmp	w23, #0x0
    75fc:	540003ad 	b.le	7670 <_ZNK11vector_tile12Tile_Feature24SerializeWithCachedSizesEPN6google8protobuf2io17CodedOutputStreamE+0x2a0>
    7600:	91006278 	add	x24, x19, #0x18
    7604:	52800016 	mov	w22, #0x0                   	// #0
    7608:	f9400700 	ldr	x0, [x24, #8]
    760c:	b94012a2 	ldr	w2, [x21, #16]
    7610:	8b36c800 	add	x0, x0, w22, sxtw #2
    7614:	b9400801 	ldr	w1, [x0, #8]
    7618:	7100105f 	cmp	w2, #0x4
    761c:	540003ed 	b.le	7698 <_ZNK11vector_tile12Tile_Feature24SerializeWithCachedSizesEPN6google8protobuf2io17CodedOutputStreamE+0x2c8>
    7620:	f94006a2 	ldr	x2, [x21, #8]
    7624:	aa0203e3 	mov	x3, x2
    7628:	7101fc3f 	cmp	w1, #0x7f
    762c:	540000c9 	b.ls	7644 <_ZNK11vector_tile12Tile_Feature24SerializeWithCachedSizesEPN6google8protobuf2io17CodedOutputStreamE+0x274>  // b.plast
    7630:	32196020 	orr	w0, w1, #0xffffff80
    7634:	53077c21 	lsr	w1, w1, #7
    7638:	38001460 	strb	w0, [x3], #1
    763c:	7101fc3f 	cmp	w1, #0x7f
    7640:	54ffff88 	b.hi	7630 <_ZNK11vector_tile12Tile_Feature24SerializeWithCachedSizesEPN6google8protobuf2io17CodedOutputStreamE+0x260>  // b.pmore
    7644:	38001461 	strb	w1, [x3], #1
    7648:	f94006a1 	ldr	x1, [x21, #8]
    764c:	cb020063 	sub	x3, x3, x2
    7650:	b94012a0 	ldr	w0, [x21, #16]
    7654:	8b23c021 	add	x1, x1, w3, sxtw
    7658:	4b030000 	sub	w0, w0, w3
    765c:	f90006a1 	str	x1, [x21, #8]
    7660:	b90012a0 	str	w0, [x21, #16]
    7664:	110006d6 	add	w22, w22, #0x1
    7668:	6b1702df 	cmp	w22, w23
    766c:	54fffce1 	b.ne	7608 <_ZNK11vector_tile12Tile_Feature24SerializeWithCachedSizesEPN6google8protobuf2io17CodedOutputStreamE+0x238>  // b.any
    7670:	a94363f7 	ldp	x23, x24, [sp, #48]
    7674:	3617ecd4 	tbz	w20, #2, 740c <_ZNK11vector_tile12Tile_Feature24SerializeWithCachedSizesEPN6google8protobuf2io17CodedOutputStreamE+0x3c>
    7678:	b9405a61 	ldr	w1, [x19, #88]
    767c:	aa1503e2 	mov	x2, x21
    7680:	52800060 	mov	w0, #0x3                   	// #3
    7684:	940086db 	bl	291f0 <_ZN6google8protobuf8internal14WireFormatLite9WriteEnumEiiPNS0_2io17CodedOutputStreamE>
    7688:	17ffff61 	b	740c <_ZNK11vector_tile12Tile_Feature24SerializeWithCachedSizesEPN6google8protobuf2io17CodedOutputStreamE+0x3c>
    768c:	aa1503e0 	mov	x0, x21
    7690:	94009344 	bl	2c3a0 <_ZN6google8protobuf2io17CodedOutputStream21WriteVarint32SlowPathEj>
    7694:	17ffffac 	b	7544 <_ZNK11vector_tile12Tile_Feature24SerializeWithCachedSizesEPN6google8protobuf2io17CodedOutputStreamE+0x174>
    7698:	aa1503e0 	mov	x0, x21
    769c:	94009341 	bl	2c3a0 <_ZN6google8protobuf2io17CodedOutputStream21WriteVarint32SlowPathEj>
    76a0:	17fffff1 	b	7664 <_ZNK11vector_tile12Tile_Feature24SerializeWithCachedSizesEPN6google8protobuf2io17CodedOutputStreamE+0x294>
    76a4:	f9402a61 	ldr	x1, [x19, #80]
    76a8:	aa1503e2 	mov	x2, x21
    76ac:	52800020 	mov	w0, #0x1                   	// #1
    76b0:	940084f1 	bl	28a74 <_ZN6google8protobuf8internal14WireFormatLite11WriteUInt64EimPNS0_2io17CodedOutputStreamE>
    76b4:	17ffff52 	b	73fc <_ZNK11vector_tile12Tile_Feature24SerializeWithCachedSizesEPN6google8protobuf2io17CodedOutputStreamE+0x2c>
    76b8:	aa1503e0 	mov	x0, x21
    76bc:	52800441 	mov	w1, #0x22                  	// #34
    76c0:	94009338 	bl	2c3a0 <_ZN6google8protobuf2io17CodedOutputStream21WriteVarint32SlowPathEj>
    76c4:	b94012a0 	ldr	w0, [x21, #16]
    76c8:	b9404261 	ldr	w1, [x19, #64]
    76cc:	7100101f 	cmp	w0, #0x4
    76d0:	54ffee0c 	b.gt	7490 <_ZNK11vector_tile12Tile_Feature24SerializeWithCachedSizesEPN6google8protobuf2io17CodedOutputStreamE+0xc0>
    76d4:	aa1503e0 	mov	x0, x21
    76d8:	94009332 	bl	2c3a0 <_ZN6google8protobuf2io17CodedOutputStream21WriteVarint32SlowPathEj>
    76dc:	17ffff7e 	b	74d4 <_ZNK11vector_tile12Tile_Feature24SerializeWithCachedSizesEPN6google8protobuf2io17CodedOutputStreamE+0x104>
    76e0:	aa1503e0 	mov	x0, x21
    76e4:	9400932f 	bl	2c3a0 <_ZN6google8protobuf2io17CodedOutputStream21WriteVarint32SlowPathEj>
    76e8:	17ffffc3 	b	75f4 <_ZNK11vector_tile12Tile_Feature24SerializeWithCachedSizesEPN6google8protobuf2io17CodedOutputStreamE+0x224>
    76ec:	aa1503e0 	mov	x0, x21
    76f0:	52800241 	mov	w1, #0x12                  	// #18
    76f4:	9400932b 	bl	2c3a0 <_ZN6google8protobuf2io17CodedOutputStream21WriteVarint32SlowPathEj>
    76f8:	b94012a0 	ldr	w0, [x21, #16]
    76fc:	17ffffa9 	b	75a0 <_ZNK11vector_tile12Tile_Feature24SerializeWithCachedSizesEPN6google8protobuf2io17CodedOutputStreamE+0x1d0>

0000000000007700 <_ZNK11vector_tile10Tile_Layer12ByteSizeLongEv>:
    7700:	a9bc7bfd 	stp	x29, x30, [sp, #-64]!
    7704:	910003fd 	mov	x29, sp
    7708:	a90153f3 	stp	x19, x20, [sp, #16]
    770c:	a9025bf5 	stp	x21, x22, [sp, #32]
    7710:	f9001bf7 	str	x23, [sp, #48]
    7714:	aa0003f3 	mov	x19, x0
    7718:	d50320ff 	xpaclri
    771c:	aa1e03e0 	mov	x0, x30
    7720:	97fff488 	bl	4940 <_mcount@plt>
    7724:	91002260 	add	x0, x19, #0x8
    7728:	940046d6 	bl	19280 <_ZNK6google8protobuf8internal12ExtensionSet8ByteSizeEv>
    772c:	f0000201 	adrp	x1, 4a000 <_ZTVN11vector_tile10Tile_ValueE+0x30>
    7730:	528000a3 	mov	w3, #0x5                   	// #5
    7734:	f9402262 	ldr	x2, [x19, #64]
    7738:	f946a421 	ldr	x1, [x1, #3400]
    773c:	927ff844 	and	x4, x2, #0xfffffffffffffffe
    7740:	f240005f 	tst	x2, #0x1
    7744:	b9404a62 	ldr	w2, [x19, #72]
    7748:	9a840021 	csel	x1, x1, x4, eq  // eq = none
    774c:	f9400421 	ldr	x1, [x1, #8]
    7750:	8b010014 	add	x20, x0, x1
    7754:	6a22007f 	bics	wzr, w3, w2
    7758:	54000d21 	b.ne	78fc <_ZNK11vector_tile10Tile_Layer12ByteSizeLongEv+0x1fc>  // b.any
    775c:	f9404e61 	ldr	x1, [x19, #152]
    7760:	b940a660 	ldr	w0, [x19, #164]
    7764:	f9400422 	ldr	x2, [x1, #8]
    7768:	32000000 	orr	w0, w0, #0x1
    776c:	5ac01000 	clz	w0, w0
    7770:	32000041 	orr	w1, w2, #0x1
    7774:	52001000 	eor	w0, w0, #0x1f
    7778:	5ac01021 	clz	w1, w1
    777c:	91000442 	add	x2, x2, #0x1
    7780:	52001021 	eor	w1, w1, #0x1f
    7784:	0b000c00 	add	w0, w0, w0, lsl #3
    7788:	11012400 	add	w0, w0, #0x49
    778c:	0b010c21 	add	w1, w1, w1, lsl #3
    7790:	11012421 	add	w1, w1, #0x49
    7794:	53067c00 	lsr	w0, w0, #6
    7798:	11000400 	add	w0, w0, #0x1
    779c:	d3462821 	ubfx	x1, x1, #6, #5
    77a0:	8b140021 	add	x1, x1, x20
    77a4:	8b020021 	add	x1, x1, x2
    77a8:	8b010014 	add	x20, x0, x1
    77ac:	b9405a75 	ldr	w21, [x19, #88]
    77b0:	91014277 	add	x23, x19, #0x50
    77b4:	8b354294 	add	x20, x20, w21, uxtw
    77b8:	34000275 	cbz	w21, 7804 <_ZNK11vector_tile10Tile_Layer12ByteSizeLongEv+0x104>
    77bc:	52800016 	mov	w22, #0x0                   	// #0
    77c0:	f9400ae0 	ldr	x0, [x23, #16]
    77c4:	8b36cc00 	add	x0, x0, w22, sxtw #3
    77c8:	110006d6 	add	w22, w22, #0x1
    77cc:	f9400400 	ldr	x0, [x0, #8]
    77d0:	f9400001 	ldr	x1, [x0]
    77d4:	f9403021 	ldr	x1, [x1, #96]
    77d8:	d63f0020 	blr	x1
    77dc:	32000001 	orr	w1, w0, #0x1
    77e0:	5ac01021 	clz	w1, w1
    77e4:	52001021 	eor	w1, w1, #0x1f
    77e8:	0b010c21 	add	w1, w1, w1, lsl #3
    77ec:	11012421 	add	w1, w1, #0x49
    77f0:	d3462821 	ubfx	x1, x1, #6, #5
    77f4:	8b000020 	add	x0, x1, x0
    77f8:	8b000294 	add	x20, x20, x0
    77fc:	6b1602bf 	cmp	w21, w22
    7800:	54fffe01 	b.ne	77c0 <_ZNK11vector_tile10Tile_Layer12ByteSizeLongEv+0xc0>  // b.any
    7804:	b9407263 	ldr	w3, [x19, #112]
    7808:	8b234294 	add	x20, x20, w3, uxtw
    780c:	7100007f 	cmp	w3, #0x0
    7810:	5400024d 	b.le	7858 <_ZNK11vector_tile10Tile_Layer12ByteSizeLongEv+0x158>
    7814:	f9403e60 	ldr	x0, [x19, #120]
    7818:	51000463 	sub	w3, w3, #0x1
    781c:	91004001 	add	x1, x0, #0x10
    7820:	91002000 	add	x0, x0, #0x8
    7824:	8b234c23 	add	x3, x1, w3, uxtw #3
    7828:	f8408401 	ldr	x1, [x0], #8
    782c:	f9400422 	ldr	x2, [x1, #8]
    7830:	32000041 	orr	w1, w2, #0x1
    7834:	5ac01021 	clz	w1, w1
    7838:	52001021 	eor	w1, w1, #0x1f
    783c:	0b010c21 	add	w1, w1, w1, lsl #3
    7840:	11012421 	add	w1, w1, #0x49
    7844:	d3462821 	ubfx	x1, x1, #6, #5
    7848:	8b020021 	add	x1, x1, x2
    784c:	8b010294 	add	x20, x20, x1
    7850:	eb00007f 	cmp	x3, x0
    7854:	54fffea1 	b.ne	7828 <_ZNK11vector_tile10Tile_Layer12ByteSizeLongEv+0x128>  // b.any
    7858:	b9408a75 	ldr	w21, [x19, #136]
    785c:	91020277 	add	x23, x19, #0x80
    7860:	8b354294 	add	x20, x20, w21, uxtw
    7864:	34000295 	cbz	w21, 78b4 <_ZNK11vector_tile10Tile_Layer12ByteSizeLongEv+0x1b4>
    7868:	52800016 	mov	w22, #0x0                   	// #0
    786c:	d503201f 	nop
    7870:	f9400ae0 	ldr	x0, [x23, #16]
    7874:	8b36cc00 	add	x0, x0, w22, sxtw #3
    7878:	110006d6 	add	w22, w22, #0x1
    787c:	f9400400 	ldr	x0, [x0, #8]
    7880:	f9400001 	ldr	x1, [x0]
    7884:	f9403021 	ldr	x1, [x1, #96]
    7888:	d63f0020 	blr	x1
    788c:	32000001 	orr	w1, w0, #0x1
    7890:	5ac01021 	clz	w1, w1
    7894:	52001021 	eor	w1, w1, #0x1f
    7898:	0b010c21 	add	w1, w1, w1, lsl #3
    789c:	11012421 	add	w1, w1, #0x49
    78a0:	d3462821 	ubfx	x1, x1, #6, #5
    78a4:	8b000020 	add	x0, x1, x0
    78a8:	8b000294 	add	x20, x20, x0
    78ac:	6b1602bf 	cmp	w21, w22
    78b0:	54fffe01 	b.ne	7870 <_ZNK11vector_tile10Tile_Layer12ByteSizeLongEv+0x170>  // b.any
    78b4:	b9404a60 	ldr	w0, [x19, #72]
    78b8:	36080140 	tbz	w0, #1, 78e0 <_ZNK11vector_tile10Tile_Layer12ByteSizeLongEv+0x1e0>
    78bc:	b940a260 	ldr	w0, [x19, #160]
    78c0:	32000000 	orr	w0, w0, #0x1
    78c4:	5ac01000 	clz	w0, w0
    78c8:	52001000 	eor	w0, w0, #0x1f
    78cc:	0b000c00 	add	w0, w0, w0, lsl #3
    78d0:	11012400 	add	w0, w0, #0x49
    78d4:	53067c00 	lsr	w0, w0, #6
    78d8:	11000400 	add	w0, w0, #0x1
    78dc:	8b000294 	add	x20, x20, x0
    78e0:	a9425bf5 	ldp	x21, x22, [sp, #32]
    78e4:	aa1403e0 	mov	x0, x20
    78e8:	f9401bf7 	ldr	x23, [sp, #48]
    78ec:	b9004e74 	str	w20, [x19, #76]
    78f0:	a94153f3 	ldp	x19, x20, [sp, #16]
    78f4:	a8c47bfd 	ldp	x29, x30, [sp], #64
    78f8:	d65f03c0 	ret
    78fc:	d2800000 	mov	x0, #0x0                   	// #0
    7900:	36000162 	tbz	w2, #0, 792c <_ZNK11vector_tile10Tile_Layer12ByteSizeLongEv+0x22c>
    7904:	f9404e60 	ldr	x0, [x19, #152]
    7908:	f9400401 	ldr	x1, [x0, #8]
    790c:	32000020 	orr	w0, w1, #0x1
    7910:	91000421 	add	x1, x1, #0x1
    7914:	5ac01000 	clz	w0, w0
    7918:	52001000 	eor	w0, w0, #0x1f
    791c:	0b000c00 	add	w0, w0, w0, lsl #3
    7920:	11012400 	add	w0, w0, #0x49
    7924:	d3462800 	ubfx	x0, x0, #6, #5
    7928:	8b010000 	add	x0, x0, x1
    792c:	36100142 	tbz	w2, #2, 7954 <_ZNK11vector_tile10Tile_Layer12ByteSizeLongEv+0x254>
    7930:	b940a661 	ldr	w1, [x19, #164]
    7934:	32000021 	orr	w1, w1, #0x1
    7938:	5ac01021 	clz	w1, w1
    793c:	52001021 	eor	w1, w1, #0x1f
    7940:	0b010c21 	add	w1, w1, w1, lsl #3
    7944:	11012421 	add	w1, w1, #0x49
    7948:	53067c21 	lsr	w1, w1, #6
    794c:	11000421 	add	w1, w1, #0x1
    7950:	8b010000 	add	x0, x0, x1
    7954:	8b000294 	add	x20, x20, x0
    7958:	17ffff95 	b	77ac <_ZNK11vector_tile10Tile_Layer12ByteSizeLongEv+0xac>
    795c:	d503201f 	nop

0000000000007960 <_ZN11vector_tile10Tile_ValueD1Ev>:
    7960:	a9be7bfd 	stp	x29, x30, [sp, #-32]!
    7964:	910003fd 	mov	x29, sp
    7968:	a90153f3 	stp	x19, x20, [sp, #16]
    796c:	aa0003f3 	mov	x19, x0
    7970:	d50320ff 	xpaclri
    7974:	aa1e03e0 	mov	x0, x30
    7978:	97fff3f2 	bl	4940 <_mcount@plt>
    797c:	f0000200 	adrp	x0, 4a000 <_ZTVN11vector_tile10Tile_ValueE+0x30>
    7980:	d0000201 	adrp	x1, 49000 <__FRAME_END__+0x101d8>
    7984:	f9402a74 	ldr	x20, [x19, #80]
    7988:	913f8021 	add	x1, x1, #0xfe0
    798c:	f946a400 	ldr	x0, [x0, #3400]
    7990:	f9000261 	str	x1, [x19]
    7994:	f100029f 	cmp	x20, #0x0
    7998:	fa401284 	ccmp	x20, x0, #0x4, ne  // ne = any
    799c:	54000161 	b.ne	79c8 <_ZN11vector_tile10Tile_ValueD1Ev+0x68>  // b.any
    79a0:	f9402260 	ldr	x0, [x19, #64]
    79a4:	360000a0 	tbz	w0, #0, 79b8 <_ZN11vector_tile10Tile_ValueD1Ev+0x58>
    79a8:	927ff814 	and	x20, x0, #0xfffffffffffffffe
    79ac:	aa1403e1 	mov	x1, x20
    79b0:	370003a0 	tbnz	w0, #0, 7a24 <_ZN11vector_tile10Tile_ValueD1Ev+0xc4>
    79b4:	b4000201 	cbz	x1, 79f4 <_ZN11vector_tile10Tile_ValueD1Ev+0x94>
    79b8:	91002260 	add	x0, x19, #0x8
    79bc:	a94153f3 	ldp	x19, x20, [sp, #16]
    79c0:	a8c27bfd 	ldp	x29, x30, [sp], #32
    79c4:	1400472b 	b	19670 <_ZN6google8protobuf8internal12ExtensionSetD1Ev>
    79c8:	aa1403e1 	mov	x1, x20
    79cc:	f8410420 	ldr	x0, [x1], #16
    79d0:	eb01001f 	cmp	x0, x1
    79d4:	54000080 	b.eq	79e4 <_ZN11vector_tile10Tile_ValueD1Ev+0x84>  // b.none
    79d8:	f9400a81 	ldr	x1, [x20, #16]
    79dc:	91000421 	add	x1, x1, #0x1
    79e0:	97fff464 	bl	4b70 <_ZdlPvm@plt>
    79e4:	aa1403e0 	mov	x0, x20
    79e8:	d2800401 	mov	x1, #0x20                  	// #32
    79ec:	97fff461 	bl	4b70 <_ZdlPvm@plt>
    79f0:	17ffffec 	b	79a0 <_ZN11vector_tile10Tile_ValueD1Ev+0x40>
    79f4:	b4fffe34 	cbz	x20, 79b8 <_ZN11vector_tile10Tile_ValueD1Ev+0x58>
    79f8:	aa1403e1 	mov	x1, x20
    79fc:	f8410420 	ldr	x0, [x1], #16
    7a00:	eb01001f 	cmp	x0, x1
    7a04:	54000080 	b.eq	7a14 <_ZN11vector_tile10Tile_ValueD1Ev+0xb4>  // b.none
    7a08:	f9400a81 	ldr	x1, [x20, #16]
    7a0c:	91000421 	add	x1, x1, #0x1
    7a10:	97fff458 	bl	4b70 <_ZdlPvm@plt>
    7a14:	aa1403e0 	mov	x0, x20
    7a18:	d2800501 	mov	x1, #0x28                  	// #40
    7a1c:	97fff455 	bl	4b70 <_ZdlPvm@plt>
    7a20:	17ffffe6 	b	79b8 <_ZN11vector_tile10Tile_ValueD1Ev+0x58>
    7a24:	f9401281 	ldr	x1, [x20, #32]
    7a28:	b5fffc81 	cbnz	x1, 79b8 <_ZN11vector_tile10Tile_ValueD1Ev+0x58>
    7a2c:	17fffff2 	b	79f4 <_ZN11vector_tile10Tile_ValueD1Ev+0x94>

0000000000007a30 <_ZN11vector_tile10Tile_ValueD0Ev>:
    7a30:	a9be7bfd 	stp	x29, x30, [sp, #-32]!
    7a34:	910003fd 	mov	x29, sp
    7a38:	a90153f3 	stp	x19, x20, [sp, #16]
    7a3c:	aa0003f3 	mov	x19, x0
    7a40:	d50320ff 	xpaclri
    7a44:	aa1e03e0 	mov	x0, x30
    7a48:	97fff3be 	bl	4940 <_mcount@plt>
    7a4c:	f0000200 	adrp	x0, 4a000 <_ZTVN11vector_tile10Tile_ValueE+0x30>
    7a50:	d0000201 	adrp	x1, 49000 <__FRAME_END__+0x101d8>
    7a54:	f9402a74 	ldr	x20, [x19, #80]
    7a58:	913f8021 	add	x1, x1, #0xfe0
    7a5c:	f946a400 	ldr	x0, [x0, #3400]
    7a60:	f9000261 	str	x1, [x19]
    7a64:	f100029f 	cmp	x20, #0x0
    7a68:	fa401284 	ccmp	x20, x0, #0x4, ne  // ne = any
    7a6c:	540001c1 	b.ne	7aa4 <_ZN11vector_tile10Tile_ValueD0Ev+0x74>  // b.any
    7a70:	f9402260 	ldr	x0, [x19, #64]
    7a74:	360000a0 	tbz	w0, #0, 7a88 <_ZN11vector_tile10Tile_ValueD0Ev+0x58>
    7a78:	927ff814 	and	x20, x0, #0xfffffffffffffffe
    7a7c:	aa1403e1 	mov	x1, x20
    7a80:	37000400 	tbnz	w0, #0, 7b00 <_ZN11vector_tile10Tile_ValueD0Ev+0xd0>
    7a84:	b4000261 	cbz	x1, 7ad0 <_ZN11vector_tile10Tile_ValueD0Ev+0xa0>
    7a88:	91002260 	add	x0, x19, #0x8
    7a8c:	940046f9 	bl	19670 <_ZN6google8protobuf8internal12ExtensionSetD1Ev>
    7a90:	aa1303e0 	mov	x0, x19
    7a94:	d2801001 	mov	x1, #0x80                  	// #128
    7a98:	a94153f3 	ldp	x19, x20, [sp, #16]
    7a9c:	a8c27bfd 	ldp	x29, x30, [sp], #32
    7aa0:	17fff434 	b	4b70 <_ZdlPvm@plt>
    7aa4:	aa1403e1 	mov	x1, x20
    7aa8:	f8410420 	ldr	x0, [x1], #16
    7aac:	eb01001f 	cmp	x0, x1
    7ab0:	54000080 	b.eq	7ac0 <_ZN11vector_tile10Tile_ValueD0Ev+0x90>  // b.none
    7ab4:	f9400a81 	ldr	x1, [x20, #16]
    7ab8:	91000421 	add	x1, x1, #0x1
    7abc:	97fff42d 	bl	4b70 <_ZdlPvm@plt>
    7ac0:	aa1403e0 	mov	x0, x20
    7ac4:	d2800401 	mov	x1, #0x20                  	// #32
    7ac8:	97fff42a 	bl	4b70 <_ZdlPvm@plt>
    7acc:	17ffffe9 	b	7a70 <_ZN11vector_tile10Tile_ValueD0Ev+0x40>
    7ad0:	b4fffdd4 	cbz	x20, 7a88 <_ZN11vector_tile10Tile_ValueD0Ev+0x58>
    7ad4:	aa1403e1 	mov	x1, x20
    7ad8:	f8410420 	ldr	x0, [x1], #16
    7adc:	eb01001f 	cmp	x0, x1
    7ae0:	54000080 	b.eq	7af0 <_ZN11vector_tile10Tile_ValueD0Ev+0xc0>  // b.none
    7ae4:	f9400a81 	ldr	x1, [x20, #16]
    7ae8:	91000421 	add	x1, x1, #0x1
    7aec:	97fff421 	bl	4b70 <_ZdlPvm@plt>
    7af0:	aa1403e0 	mov	x0, x20
    7af4:	d2800501 	mov	x1, #0x28                  	// #40
    7af8:	97fff41e 	bl	4b70 <_ZdlPvm@plt>
    7afc:	17ffffe3 	b	7a88 <_ZN11vector_tile10Tile_ValueD0Ev+0x58>
    7b00:	f9401281 	ldr	x1, [x20, #32]
    7b04:	b5fffc21 	cbnz	x1, 7a88 <_ZN11vector_tile10Tile_ValueD0Ev+0x58>
    7b08:	17fffff2 	b	7ad0 <_ZN11vector_tile10Tile_ValueD0Ev+0xa0>
    7b0c:	d503201f 	nop

0000000000007b10 <_ZN11vector_tile12Tile_FeatureD1Ev>:
    7b10:	a9be7bfd 	stp	x29, x30, [sp, #-32]!
    7b14:	910003fd 	mov	x29, sp
    7b18:	a90153f3 	stp	x19, x20, [sp, #16]
    7b1c:	aa0003f3 	mov	x19, x0
    7b20:	d50320ff 	xpaclri
    7b24:	aa1e03e0 	mov	x0, x30
    7b28:	97fff386 	bl	4940 <_mcount@plt>
    7b2c:	f0000200 	adrp	x0, 4a000 <_ZTVN11vector_tile10Tile_ValueE+0x30>
    7b30:	f0000201 	adrp	x1, 4a000 <_ZTVN11vector_tile10Tile_ValueE+0x30>
    7b34:	f9402674 	ldr	x20, [x19, #72]
    7b38:	91020021 	add	x1, x1, #0x80
    7b3c:	f946a400 	ldr	x0, [x0, #3400]
    7b40:	f9000261 	str	x1, [x19]
    7b44:	f100029f 	cmp	x20, #0x0
    7b48:	fa401284 	ccmp	x20, x0, #0x4, ne  // ne = any
    7b4c:	54000241 	b.ne	7b94 <_ZN11vector_tile12Tile_FeatureD1Ev+0x84>  // b.any
    7b50:	f9401e60 	ldr	x0, [x19, #56]
    7b54:	b4000060 	cbz	x0, 7b60 <_ZN11vector_tile12Tile_FeatureD1Ev+0x50>
    7b58:	f9400002 	ldr	x2, [x0]
    7b5c:	b4000522 	cbz	x2, 7c00 <_ZN11vector_tile12Tile_FeatureD1Ev+0xf0>
    7b60:	f9401260 	ldr	x0, [x19, #32]
    7b64:	b4000060 	cbz	x0, 7b70 <_ZN11vector_tile12Tile_FeatureD1Ev+0x60>
    7b68:	f9400002 	ldr	x2, [x0]
    7b6c:	b4000542 	cbz	x2, 7c14 <_ZN11vector_tile12Tile_FeatureD1Ev+0x104>
    7b70:	f9400660 	ldr	x0, [x19, #8]
    7b74:	360000a0 	tbz	w0, #0, 7b88 <_ZN11vector_tile12Tile_FeatureD1Ev+0x78>
    7b78:	927ff813 	and	x19, x0, #0xfffffffffffffffe
    7b7c:	aa1303e1 	mov	x1, x19
    7b80:	370003a0 	tbnz	w0, #0, 7bf4 <_ZN11vector_tile12Tile_FeatureD1Ev+0xe4>
    7b84:	b40001e1 	cbz	x1, 7bc0 <_ZN11vector_tile12Tile_FeatureD1Ev+0xb0>
    7b88:	a94153f3 	ldp	x19, x20, [sp, #16]
    7b8c:	a8c27bfd 	ldp	x29, x30, [sp], #32
    7b90:	d65f03c0 	ret
    7b94:	aa1403e1 	mov	x1, x20
    7b98:	f8410420 	ldr	x0, [x1], #16
    7b9c:	eb01001f 	cmp	x0, x1
    7ba0:	54000080 	b.eq	7bb0 <_ZN11vector_tile12Tile_FeatureD1Ev+0xa0>  // b.none
    7ba4:	f9400a81 	ldr	x1, [x20, #16]
    7ba8:	91000421 	add	x1, x1, #0x1
    7bac:	97fff3f1 	bl	4b70 <_ZdlPvm@plt>
    7bb0:	aa1403e0 	mov	x0, x20
    7bb4:	d2800401 	mov	x1, #0x20                  	// #32
    7bb8:	97fff3ee 	bl	4b70 <_ZdlPvm@plt>
    7bbc:	17ffffe5 	b	7b50 <_ZN11vector_tile12Tile_FeatureD1Ev+0x40>
    7bc0:	b4fffe53 	cbz	x19, 7b88 <_ZN11vector_tile12Tile_FeatureD1Ev+0x78>
    7bc4:	aa1303e1 	mov	x1, x19
    7bc8:	f8410420 	ldr	x0, [x1], #16
    7bcc:	eb01001f 	cmp	x0, x1
    7bd0:	54000080 	b.eq	7be0 <_ZN11vector_tile12Tile_FeatureD1Ev+0xd0>  // b.none
    7bd4:	f9400a61 	ldr	x1, [x19, #16]
    7bd8:	91000421 	add	x1, x1, #0x1
    7bdc:	97fff3e5 	bl	4b70 <_ZdlPvm@plt>
    7be0:	aa1303e0 	mov	x0, x19
    7be4:	d2800501 	mov	x1, #0x28                  	// #40
    7be8:	a94153f3 	ldp	x19, x20, [sp, #16]
    7bec:	a8c27bfd 	ldp	x29, x30, [sp], #32
    7bf0:	17fff3e0 	b	4b70 <_ZdlPvm@plt>
    7bf4:	f9401261 	ldr	x1, [x19, #32]
    7bf8:	b5fffc81 	cbnz	x1, 7b88 <_ZN11vector_tile12Tile_FeatureD1Ev+0x78>
    7bfc:	17fffff1 	b	7bc0 <_ZN11vector_tile12Tile_FeatureD1Ev+0xb0>
    7c00:	b9803661 	ldrsw	x1, [x19, #52]
    7c04:	91000821 	add	x1, x1, #0x2
    7c08:	d37ef421 	lsl	x1, x1, #2
    7c0c:	97fff3d9 	bl	4b70 <_ZdlPvm@plt>
    7c10:	17ffffd4 	b	7b60 <_ZN11vector_tile12Tile_FeatureD1Ev+0x50>
    7c14:	b9801e61 	ldrsw	x1, [x19, #28]
    7c18:	91000821 	add	x1, x1, #0x2
    7c1c:	d37ef421 	lsl	x1, x1, #2
    7c20:	97fff3d4 	bl	4b70 <_ZdlPvm@plt>
    7c24:	17ffffd3 	b	7b70 <_ZN11vector_tile12Tile_FeatureD1Ev+0x60>
    7c28:	d503201f 	nop
    7c2c:	d503201f 	nop

0000000000007c30 <_ZN11vector_tile12Tile_FeatureD0Ev>:
    7c30:	a9be7bfd 	stp	x29, x30, [sp, #-32]!
    7c34:	910003fd 	mov	x29, sp
    7c38:	a90153f3 	stp	x19, x20, [sp, #16]
    7c3c:	aa0003f3 	mov	x19, x0
    7c40:	d50320ff 	xpaclri
    7c44:	aa1e03e0 	mov	x0, x30
    7c48:	97fff33e 	bl	4940 <_mcount@plt>
    7c4c:	f0000200 	adrp	x0, 4a000 <_ZTVN11vector_tile10Tile_ValueE+0x30>
    7c50:	f0000201 	adrp	x1, 4a000 <_ZTVN11vector_tile10Tile_ValueE+0x30>
    7c54:	f9402674 	ldr	x20, [x19, #72]
    7c58:	91020021 	add	x1, x1, #0x80
    7c5c:	f946a400 	ldr	x0, [x0, #3400]
    7c60:	f9000261 	str	x1, [x19]
    7c64:	f100029f 	cmp	x20, #0x0
    7c68:	fa401284 	ccmp	x20, x0, #0x4, ne  // ne = any
    7c6c:	54000281 	b.ne	7cbc <_ZN11vector_tile12Tile_FeatureD0Ev+0x8c>  // b.any
    7c70:	f9401e60 	ldr	x0, [x19, #56]
    7c74:	b4000060 	cbz	x0, 7c80 <_ZN11vector_tile12Tile_FeatureD0Ev+0x50>
    7c78:	f9400002 	ldr	x2, [x0]
    7c7c:	b4000542 	cbz	x2, 7d24 <_ZN11vector_tile12Tile_FeatureD0Ev+0xf4>
    7c80:	f9401260 	ldr	x0, [x19, #32]
    7c84:	b4000060 	cbz	x0, 7c90 <_ZN11vector_tile12Tile_FeatureD0Ev+0x60>
    7c88:	f9400002 	ldr	x2, [x0]
    7c8c:	b4000562 	cbz	x2, 7d38 <_ZN11vector_tile12Tile_FeatureD0Ev+0x108>
    7c90:	f9400660 	ldr	x0, [x19, #8]
    7c94:	360000a0 	tbz	w0, #0, 7ca8 <_ZN11vector_tile12Tile_FeatureD0Ev+0x78>
    7c98:	927ff814 	and	x20, x0, #0xfffffffffffffffe
    7c9c:	aa1403e1 	mov	x1, x20
    7ca0:	370003c0 	tbnz	w0, #0, 7d18 <_ZN11vector_tile12Tile_FeatureD0Ev+0xe8>
    7ca4:	b4000221 	cbz	x1, 7ce8 <_ZN11vector_tile12Tile_FeatureD0Ev+0xb8>
    7ca8:	aa1303e0 	mov	x0, x19
    7cac:	d2800c01 	mov	x1, #0x60                  	// #96
    7cb0:	a94153f3 	ldp	x19, x20, [sp, #16]
    7cb4:	a8c27bfd 	ldp	x29, x30, [sp], #32
    7cb8:	17fff3ae 	b	4b70 <_ZdlPvm@plt>
    7cbc:	aa1403e1 	mov	x1, x20
    7cc0:	f8410420 	ldr	x0, [x1], #16
    7cc4:	eb01001f 	cmp	x0, x1
    7cc8:	54000080 	b.eq	7cd8 <_ZN11vector_tile12Tile_FeatureD0Ev+0xa8>  // b.none
    7ccc:	f9400a81 	ldr	x1, [x20, #16]
    7cd0:	91000421 	add	x1, x1, #0x1
    7cd4:	97fff3a7 	bl	4b70 <_ZdlPvm@plt>
    7cd8:	aa1403e0 	mov	x0, x20
    7cdc:	d2800401 	mov	x1, #0x20                  	// #32
    7ce0:	97fff3a4 	bl	4b70 <_ZdlPvm@plt>
    7ce4:	17ffffe3 	b	7c70 <_ZN11vector_tile12Tile_FeatureD0Ev+0x40>
    7ce8:	b4fffe14 	cbz	x20, 7ca8 <_ZN11vector_tile12Tile_FeatureD0Ev+0x78>
    7cec:	aa1403e1 	mov	x1, x20
    7cf0:	f8410420 	ldr	x0, [x1], #16
    7cf4:	eb01001f 	cmp	x0, x1
    7cf8:	54000080 	b.eq	7d08 <_ZN11vector_tile12Tile_FeatureD0Ev+0xd8>  // b.none
    7cfc:	f9400a81 	ldr	x1, [x20, #16]
    7d00:	91000421 	add	x1, x1, #0x1
    7d04:	97fff39b 	bl	4b70 <_ZdlPvm@plt>
    7d08:	aa1403e0 	mov	x0, x20
    7d0c:	d2800501 	mov	x1, #0x28                  	// #40
    7d10:	97fff398 	bl	4b70 <_ZdlPvm@plt>
    7d14:	17ffffe5 	b	7ca8 <_ZN11vector_tile12Tile_FeatureD0Ev+0x78>
    7d18:	f9401281 	ldr	x1, [x20, #32]
    7d1c:	b5fffc61 	cbnz	x1, 7ca8 <_ZN11vector_tile12Tile_FeatureD0Ev+0x78>
    7d20:	17fffff2 	b	7ce8 <_ZN11vector_tile12Tile_FeatureD0Ev+0xb8>
    7d24:	b9803661 	ldrsw	x1, [x19, #52]
    7d28:	91000821 	add	x1, x1, #0x2
    7d2c:	d37ef421 	lsl	x1, x1, #2
    7d30:	97fff390 	bl	4b70 <_ZdlPvm@plt>
    7d34:	17ffffd3 	b	7c80 <_ZN11vector_tile12Tile_FeatureD0Ev+0x50>
    7d38:	b9801e61 	ldrsw	x1, [x19, #28]
    7d3c:	91000821 	add	x1, x1, #0x2
    7d40:	d37ef421 	lsl	x1, x1, #2
    7d44:	97fff38b 	bl	4b70 <_ZdlPvm@plt>
    7d48:	17ffffd2 	b	7c90 <_ZN11vector_tile12Tile_FeatureD0Ev+0x60>
    7d4c:	d503201f 	nop

0000000000007d50 <_ZN30protobuf_vector_5ftile_2eproto22InitDefaultsTile_ValueEv>:
    7d50:	a9bc7bfd 	stp	x29, x30, [sp, #-64]!
    7d54:	910003fd 	mov	x29, sp
    7d58:	d50320ff 	xpaclri
    7d5c:	aa1e03e0 	mov	x0, x30
    7d60:	97fff2f8 	bl	4940 <_mcount@plt>
    7d64:	f0000201 	adrp	x1, 4a000 <_ZTVN11vector_tile10Tile_ValueE+0x30>
    7d68:	90000222 	adrp	x2, 4b000 <__data_start>
    7d6c:	91010040 	add	x0, x2, #0x40
    7d70:	f946b821 	ldr	x1, [x1, #3440]
    7d74:	f9400023 	ldr	x3, [x1]
    7d78:	f9001fe3 	str	x3, [sp, #56]
    7d7c:	d2800003 	mov	x3, #0x0                   	// #0
    7d80:	c8dffc01 	ldar	x1, [x0]
    7d84:	f100083f 	cmp	x1, #0x2
    7d88:	54000141 	b.ne	7db0 <_ZN30protobuf_vector_5ftile_2eproto22InitDefaultsTile_ValueEv+0x60>  // b.any
    7d8c:	f0000200 	adrp	x0, 4a000 <_ZTVN11vector_tile10Tile_ValueE+0x30>
    7d90:	f946b800 	ldr	x0, [x0, #3440]
    7d94:	f9401fe2 	ldr	x2, [sp, #56]
    7d98:	f9400001 	ldr	x1, [x0]
    7d9c:	eb010042 	subs	x2, x2, x1
    7da0:	d2800001 	mov	x1, #0x0                   	// #0
    7da4:	54000241 	b.ne	7dec <_ZN30protobuf_vector_5ftile_2eproto22InitDefaultsTile_ValueEv+0x9c>  // b.any
    7da8:	a8c47bfd 	ldp	x29, x30, [sp], #64
    7dac:	d65f03c0 	ret
    7db0:	f0000202 	adrp	x2, 4a000 <_ZTVN11vector_tile10Tile_ValueE+0x30>
    7db4:	b0000003 	adrp	x3, 8000 <_ZN30protobuf_vector_5ftile_2eproto16InitDefaultsTileEv+0x60>
    7db8:	91239063 	add	x3, x3, #0x8e4
    7dbc:	f9000bf3 	str	x19, [sp, #16]
    7dc0:	f9471842 	ldr	x2, [x2, #3632]
    7dc4:	910083f3 	add	x19, sp, #0x20
    7dc8:	aa1303e1 	mov	x1, x19
    7dcc:	3900c3ff 	strb	wzr, [sp, #48]
    7dd0:	91004042 	add	x2, x2, #0x10
    7dd4:	a9020fe2 	stp	x2, x3, [sp, #32]
    7dd8:	940029be 	bl	124d0 <_ZN6google8protobuf18GoogleOnceInitImplEPlPNS0_7ClosureE>
    7ddc:	aa1303e0 	mov	x0, x19
    7de0:	94002175 	bl	103b4 <_ZN6google8protobuf8internal16FunctionClosure0D1Ev>
    7de4:	f9400bf3 	ldr	x19, [sp, #16]
    7de8:	17ffffe9 	b	7d8c <_ZN30protobuf_vector_5ftile_2eproto22InitDefaultsTile_ValueEv+0x3c>
    7dec:	f9000bf3 	str	x19, [sp, #16]
    7df0:	97fff2cc 	bl	4920 <__stack_chk_fail@plt>
    7df4:	aa0003e1 	mov	x1, x0
    7df8:	aa1303e0 	mov	x0, x19
    7dfc:	aa0103f3 	mov	x19, x1
    7e00:	9400216d 	bl	103b4 <_ZN6google8protobuf8internal16FunctionClosure0D1Ev>
    7e04:	aa1303e0 	mov	x0, x19
    7e08:	97fff3d6 	bl	4d60 <_Unwind_Resume@plt>
    7e0c:	d503201f 	nop

0000000000007e10 <_ZN30protobuf_vector_5ftile_2eproto24InitDefaultsTile_FeatureEv>:
    7e10:	a9bc7bfd 	stp	x29, x30, [sp, #-64]!
    7e14:	910003fd 	mov	x29, sp
    7e18:	d50320ff 	xpaclri
    7e1c:	aa1e03e0 	mov	x0, x30
    7e20:	97fff2c8 	bl	4940 <_mcount@plt>
    7e24:	f0000201 	adrp	x1, 4a000 <_ZTVN11vector_tile10Tile_ValueE+0x30>
    7e28:	90000220 	adrp	x0, 4b000 <__data_start>
    7e2c:	91010000 	add	x0, x0, #0x40
    7e30:	f946b821 	ldr	x1, [x1, #3440]
    7e34:	f9400022 	ldr	x2, [x1]
    7e38:	f9001fe2 	str	x2, [sp, #56]
    7e3c:	d2800002 	mov	x2, #0x0                   	// #0
    7e40:	91002001 	add	x1, x0, #0x8
    7e44:	c8dffc21 	ldar	x1, [x1]
    7e48:	f100083f 	cmp	x1, #0x2
    7e4c:	54000141 	b.ne	7e74 <_ZN30protobuf_vector_5ftile_2eproto24InitDefaultsTile_FeatureEv+0x64>  // b.any
    7e50:	f0000200 	adrp	x0, 4a000 <_ZTVN11vector_tile10Tile_ValueE+0x30>
    7e54:	f946b800 	ldr	x0, [x0, #3440]
    7e58:	f9401fe2 	ldr	x2, [sp, #56]
    7e5c:	f9400001 	ldr	x1, [x0]
    7e60:	eb010042 	subs	x2, x2, x1
    7e64:	d2800001 	mov	x1, #0x0                   	// #0
    7e68:	54000261 	b.ne	7eb4 <_ZN30protobuf_vector_5ftile_2eproto24InitDefaultsTile_FeatureEv+0xa4>  // b.any
    7e6c:	a8c47bfd 	ldp	x29, x30, [sp], #64
    7e70:	d65f03c0 	ret
    7e74:	f0000202 	adrp	x2, 4a000 <_ZTVN11vector_tile10Tile_ValueE+0x30>
    7e78:	b0000003 	adrp	x3, 8000 <_ZN30protobuf_vector_5ftile_2eproto16InitDefaultsTileEv+0x60>
    7e7c:	912f8063 	add	x3, x3, #0xbe0
    7e80:	f9000bf3 	str	x19, [sp, #16]
    7e84:	f9471842 	ldr	x2, [x2, #3632]
    7e88:	910083f3 	add	x19, sp, #0x20
    7e8c:	91002000 	add	x0, x0, #0x8
    7e90:	aa1303e1 	mov	x1, x19
    7e94:	91004042 	add	x2, x2, #0x10
    7e98:	a9020fe2 	stp	x2, x3, [sp, #32]
    7e9c:	3900c3ff 	strb	wzr, [sp, #48]
    7ea0:	9400298c 	bl	124d0 <_ZN6google8protobuf18GoogleOnceInitImplEPlPNS0_7ClosureE>
    7ea4:	aa1303e0 	mov	x0, x19
    7ea8:	94002143 	bl	103b4 <_ZN6google8protobuf8internal16FunctionClosure0D1Ev>
    7eac:	f9400bf3 	ldr	x19, [sp, #16]
    7eb0:	17ffffe8 	b	7e50 <_ZN30protobuf_vector_5ftile_2eproto24InitDefaultsTile_FeatureEv+0x40>
    7eb4:	f9000bf3 	str	x19, [sp, #16]
    7eb8:	97fff29a 	bl	4920 <__stack_chk_fail@plt>
    7ebc:	aa0003e1 	mov	x1, x0
    7ec0:	aa1303e0 	mov	x0, x19
    7ec4:	aa0103f3 	mov	x19, x1
    7ec8:	9400213b 	bl	103b4 <_ZN6google8protobuf8internal16FunctionClosure0D1Ev>
    7ecc:	aa1303e0 	mov	x0, x19
    7ed0:	97fff3a4 	bl	4d60 <_Unwind_Resume@plt>

0000000000007ed4 <_ZN30protobuf_vector_5ftile_2eproto22InitDefaultsTile_LayerEv>:
    7ed4:	a9bc7bfd 	stp	x29, x30, [sp, #-64]!
    7ed8:	910003fd 	mov	x29, sp
    7edc:	d50320ff 	xpaclri
    7ee0:	aa1e03e0 	mov	x0, x30
    7ee4:	97fff297 	bl	4940 <_mcount@plt>
    7ee8:	f0000201 	adrp	x1, 4a000 <_ZTVN11vector_tile10Tile_ValueE+0x30>
    7eec:	90000220 	adrp	x0, 4b000 <__data_start>
    7ef0:	91010000 	add	x0, x0, #0x40
    7ef4:	f946b821 	ldr	x1, [x1, #3440]
    7ef8:	f9400022 	ldr	x2, [x1]
    7efc:	f9001fe2 	str	x2, [sp, #56]
    7f00:	d2800002 	mov	x2, #0x0                   	// #0
    7f04:	91004001 	add	x1, x0, #0x10
    7f08:	c8dffc21 	ldar	x1, [x1]
    7f0c:	f100083f 	cmp	x1, #0x2
    7f10:	54000141 	b.ne	7f38 <_ZN30protobuf_vector_5ftile_2eproto22InitDefaultsTile_LayerEv+0x64>  // b.any
    7f14:	f0000200 	adrp	x0, 4a000 <_ZTVN11vector_tile10Tile_ValueE+0x30>
    7f18:	f946b800 	ldr	x0, [x0, #3440]
    7f1c:	f9401fe2 	ldr	x2, [sp, #56]
    7f20:	f9400001 	ldr	x1, [x0]
    7f24:	eb010042 	subs	x2, x2, x1
    7f28:	d2800001 	mov	x1, #0x0                   	// #0
    7f2c:	54000261 	b.ne	7f78 <_ZN30protobuf_vector_5ftile_2eproto22InitDefaultsTile_LayerEv+0xa4>  // b.any
    7f30:	a8c47bfd 	ldp	x29, x30, [sp], #64
    7f34:	d65f03c0 	ret
    7f38:	f0000202 	adrp	x2, 4a000 <_ZTVN11vector_tile10Tile_ValueE+0x30>
    7f3c:	b0000023 	adrp	x3, c000 <_ZN11vector_tile4Tile27MergePartialFromCodedStreamEPN6google8protobuf2io16CodedInputStreamE+0x34c>
    7f40:	911dd063 	add	x3, x3, #0x774
    7f44:	f9000bf3 	str	x19, [sp, #16]
    7f48:	f9471842 	ldr	x2, [x2, #3632]
    7f4c:	910083f3 	add	x19, sp, #0x20
    7f50:	91004000 	add	x0, x0, #0x10
    7f54:	aa1303e1 	mov	x1, x19
    7f58:	91004042 	add	x2, x2, #0x10
    7f5c:	a9020fe2 	stp	x2, x3, [sp, #32]
    7f60:	3900c3ff 	strb	wzr, [sp, #48]
    7f64:	9400295b 	bl	124d0 <_ZN6google8protobuf18GoogleOnceInitImplEPlPNS0_7ClosureE>
    7f68:	aa1303e0 	mov	x0, x19
    7f6c:	94002112 	bl	103b4 <_ZN6google8protobuf8internal16FunctionClosure0D1Ev>
    7f70:	f9400bf3 	ldr	x19, [sp, #16]
    7f74:	17ffffe8 	b	7f14 <_ZN30protobuf_vector_5ftile_2eproto22InitDefaultsTile_LayerEv+0x40>
    7f78:	f9000bf3 	str	x19, [sp, #16]
    7f7c:	97fff269 	bl	4920 <__stack_chk_fail@plt>
    7f80:	aa0003e1 	mov	x1, x0
    7f84:	aa1303e0 	mov	x0, x19
    7f88:	aa0103f3 	mov	x19, x1
    7f8c:	9400210a 	bl	103b4 <_ZN6google8protobuf8internal16FunctionClosure0D1Ev>
    7f90:	aa1303e0 	mov	x0, x19
    7f94:	97fff373 	bl	4d60 <_Unwind_Resume@plt>
    7f98:	d503201f 	nop
    7f9c:	d503201f 	nop

0000000000007fa0 <_ZN30protobuf_vector_5ftile_2eproto16InitDefaultsTileEv>:
    7fa0:	a9bc7bfd 	stp	x29, x30, [sp, #-64]!
    7fa4:	910003fd 	mov	x29, sp
    7fa8:	d50320ff 	xpaclri
    7fac:	aa1e03e0 	mov	x0, x30
    7fb0:	97fff264 	bl	4940 <_mcount@plt>
    7fb4:	f0000201 	adrp	x1, 4a000 <_ZTVN11vector_tile10Tile_ValueE+0x30>
    7fb8:	90000220 	adrp	x0, 4b000 <__data_start>
    7fbc:	91010000 	add	x0, x0, #0x40
    7fc0:	f946b821 	ldr	x1, [x1, #3440]
    7fc4:	f9400022 	ldr	x2, [x1]
    7fc8:	f9001fe2 	str	x2, [sp, #56]
    7fcc:	d2800002 	mov	x2, #0x0                   	// #0
    7fd0:	91006001 	add	x1, x0, #0x18
    7fd4:	c8dffc21 	ldar	x1, [x1]
    7fd8:	f100083f 	cmp	x1, #0x2
    7fdc:	54000141 	b.ne	8004 <_ZN30protobuf_vector_5ftile_2eproto16InitDefaultsTileEv+0x64>  // b.any
    7fe0:	f0000200 	adrp	x0, 4a000 <_ZTVN11vector_tile10Tile_ValueE+0x30>
    7fe4:	f946b800 	ldr	x0, [x0, #3440]
    7fe8:	f9401fe2 	ldr	x2, [sp, #56]
    7fec:	f9400001 	ldr	x1, [x0]
    7ff0:	eb010042 	subs	x2, x2, x1
    7ff4:	d2800001 	mov	x1, #0x0                   	// #0
    7ff8:	54000261 	b.ne	8044 <_ZN30protobuf_vector_5ftile_2eproto16InitDefaultsTileEv+0xa4>  // b.any
    7ffc:	a8c47bfd 	ldp	x29, x30, [sp], #64
    8000:	d65f03c0 	ret
    8004:	d0000202 	adrp	x2, 4a000 <_ZTVN11vector_tile10Tile_ValueE+0x30>
    8008:	90000023 	adrp	x3, c000 <_ZN11vector_tile4Tile27MergePartialFromCodedStreamEPN6google8protobuf2io16CodedInputStreamE+0x34c>
    800c:	9132d063 	add	x3, x3, #0xcb4
    8010:	f9000bf3 	str	x19, [sp, #16]
    8014:	f9471842 	ldr	x2, [x2, #3632]
    8018:	910083f3 	add	x19, sp, #0x20
    801c:	91006000 	add	x0, x0, #0x18
    8020:	aa1303e1 	mov	x1, x19
    8024:	91004042 	add	x2, x2, #0x10
    8028:	a9020fe2 	stp	x2, x3, [sp, #32]
    802c:	3900c3ff 	strb	wzr, [sp, #48]
    8030:	94002928 	bl	124d0 <_ZN6google8protobuf18GoogleOnceInitImplEPlPNS0_7ClosureE>
    8034:	aa1303e0 	mov	x0, x19
    8038:	940020df 	bl	103b4 <_ZN6google8protobuf8internal16FunctionClosure0D1Ev>
    803c:	f9400bf3 	ldr	x19, [sp, #16]
    8040:	17ffffe8 	b	7fe0 <_ZN30protobuf_vector_5ftile_2eproto16InitDefaultsTileEv+0x40>
    8044:	f9000bf3 	str	x19, [sp, #16]
    8048:	97fff236 	bl	4920 <__stack_chk_fail@plt>
    804c:	aa0003e1 	mov	x1, x0
    8050:	aa1303e0 	mov	x0, x19
    8054:	aa0103f3 	mov	x19, x1
    8058:	940020d7 	bl	103b4 <_ZN6google8protobuf8internal16FunctionClosure0D1Ev>
    805c:	aa1303e0 	mov	x0, x19
    8060:	97fff340 	bl	4d60 <_Unwind_Resume@plt>

0000000000008064 <_ZN11vector_tile21Tile_GeomType_IsValidEi>:
    8064:	a9be7bfd 	stp	x29, x30, [sp, #-32]!
    8068:	910003fd 	mov	x29, sp
    806c:	f9000bf3 	str	x19, [sp, #16]
    8070:	d50320ff 	xpaclri
    8074:	2a0003f3 	mov	w19, w0
    8078:	aa1e03e0 	mov	x0, x30
    807c:	97fff231 	bl	4940 <_mcount@plt>
    8080:	71000e7f 	cmp	w19, #0x3
    8084:	1a9f87e0 	cset	w0, ls  // ls = plast
    8088:	f9400bf3 	ldr	x19, [sp, #16]
    808c:	a8c27bfd 	ldp	x29, x30, [sp], #32
    8090:	d65f03c0 	ret

0000000000008094 <_ZN11vector_tile10Tile_Value21InitAsDefaultInstanceEv>:
    8094:	a9bf7bfd 	stp	x29, x30, [sp, #-16]!
    8098:	910003fd 	mov	x29, sp
    809c:	d50320ff 	xpaclri
    80a0:	aa1e03e0 	mov	x0, x30
    80a4:	97fff227 	bl	4940 <_mcount@plt>
    80a8:	a8c17bfd 	ldp	x29, x30, [sp], #16
    80ac:	d65f03c0 	ret

00000000000080b0 <_ZN11vector_tile10Tile_Value10SharedCtorEv>:
    80b0:	a9be7bfd 	stp	x29, x30, [sp, #-32]!
    80b4:	910003fd 	mov	x29, sp
    80b8:	f9000bf3 	str	x19, [sp, #16]
    80bc:	d50320ff 	xpaclri
    80c0:	aa0003f3 	mov	x19, x0
    80c4:	aa1e03e0 	mov	x0, x30
    80c8:	97fff21e 	bl	4940 <_mcount@plt>
    80cc:	d0000200 	adrp	x0, 4a000 <_ZTVN11vector_tile10Tile_ValueE+0x30>
    80d0:	b9004e7f 	str	wzr, [x19, #76]
    80d4:	f946a400 	ldr	x0, [x0, #3400]
    80d8:	f9002a60 	str	x0, [x19, #80]
    80dc:	a905fe7f 	stp	xzr, xzr, [x19, #88]
    80e0:	a906fe7f 	stp	xzr, xzr, [x19, #104]
    80e4:	f9003e7f 	str	xzr, [x19, #120]
    80e8:	f9400bf3 	ldr	x19, [sp, #16]
    80ec:	a8c27bfd 	ldp	x29, x30, [sp], #32
    80f0:	d65f03c0 	ret

00000000000080f4 <_ZN11vector_tile10Tile_Value10SharedDtorEv>:
    80f4:	a9be7bfd 	stp	x29, x30, [sp, #-32]!
    80f8:	910003fd 	mov	x29, sp
    80fc:	f9000bf3 	str	x19, [sp, #16]
    8100:	aa0003f3 	mov	x19, x0
    8104:	d50320ff 	xpaclri
    8108:	aa1e03e0 	mov	x0, x30
    810c:	97fff20d 	bl	4940 <_mcount@plt>
    8110:	d0000201 	adrp	x1, 4a000 <_ZTVN11vector_tile10Tile_ValueE+0x30>
    8114:	f9402a73 	ldr	x19, [x19, #80]
    8118:	f946a420 	ldr	x0, [x1, #3400]
    811c:	f100027f 	cmp	x19, #0x0
    8120:	fa401264 	ccmp	x19, x0, #0x4, ne  // ne = any
    8124:	54000081 	b.ne	8134 <_ZN11vector_tile10Tile_Value10SharedDtorEv+0x40>  // b.any
    8128:	f9400bf3 	ldr	x19, [sp, #16]
    812c:	a8c27bfd 	ldp	x29, x30, [sp], #32
    8130:	d65f03c0 	ret
    8134:	aa1303e1 	mov	x1, x19
    8138:	f8410420 	ldr	x0, [x1], #16
    813c:	eb01001f 	cmp	x0, x1
    8140:	54000080 	b.eq	8150 <_ZN11vector_tile10Tile_Value10SharedDtorEv+0x5c>  // b.none
    8144:	f9400a61 	ldr	x1, [x19, #16]
    8148:	91000421 	add	x1, x1, #0x1
    814c:	97fff289 	bl	4b70 <_ZdlPvm@plt>
    8150:	aa1303e0 	mov	x0, x19
    8154:	d2800401 	mov	x1, #0x20                  	// #32
    8158:	f9400bf3 	ldr	x19, [sp, #16]
    815c:	a8c27bfd 	ldp	x29, x30, [sp], #32
    8160:	17fff284 	b	4b70 <_ZdlPvm@plt>

0000000000008164 <_ZNK11vector_tile10Tile_Value13SetCachedSizeEi>:
    8164:	a9be7bfd 	stp	x29, x30, [sp, #-32]!
    8168:	910003fd 	mov	x29, sp
    816c:	a90153f3 	stp	x19, x20, [sp, #16]
    8170:	aa0003f3 	mov	x19, x0
    8174:	d50320ff 	xpaclri
    8178:	2a0103f4 	mov	w20, w1
    817c:	aa1e03e0 	mov	x0, x30
    8180:	97fff1f0 	bl	4940 <_mcount@plt>
    8184:	b9004e74 	str	w20, [x19, #76]
    8188:	a94153f3 	ldp	x19, x20, [sp, #16]
    818c:	a8c27bfd 	ldp	x29, x30, [sp], #32
    8190:	d65f03c0 	ret

0000000000008194 <_ZN11vector_tile10Tile_Value16default_instanceEv>:
    8194:	a9bc7bfd 	stp	x29, x30, [sp, #-64]!
    8198:	910003fd 	mov	x29, sp
    819c:	a90153f3 	stp	x19, x20, [sp, #16]
    81a0:	d50320ff 	xpaclri
    81a4:	aa1e03e0 	mov	x0, x30
    81a8:	97fff1e6 	bl	4940 <_mcount@plt>
    81ac:	f0000213 	adrp	x19, 4b000 <__data_start>
    81b0:	d0000201 	adrp	x1, 4a000 <_ZTVN11vector_tile10Tile_ValueE+0x30>
    81b4:	91010260 	add	x0, x19, #0x40
    81b8:	f946b821 	ldr	x1, [x1, #3440]
    81bc:	f9400022 	ldr	x2, [x1]
    81c0:	f9001fe2 	str	x2, [sp, #56]
    81c4:	d2800002 	mov	x2, #0x0                   	// #0
    81c8:	c8dffc01 	ldar	x1, [x0]
    81cc:	f100083f 	cmp	x1, #0x2
    81d0:	540001a1 	b.ne	8204 <_ZN11vector_tile10Tile_Value16default_instanceEv+0x70>  // b.any
    81d4:	d0000201 	adrp	x1, 4a000 <_ZTVN11vector_tile10Tile_ValueE+0x30>
    81d8:	91010273 	add	x19, x19, #0x40
    81dc:	91008260 	add	x0, x19, #0x20
    81e0:	f946b821 	ldr	x1, [x1, #3440]
    81e4:	f9401fe3 	ldr	x3, [sp, #56]
    81e8:	f9400022 	ldr	x2, [x1]
    81ec:	eb020063 	subs	x3, x3, x2
    81f0:	d2800002 	mov	x2, #0x0                   	// #0
    81f4:	54000221 	b.ne	8238 <_ZN11vector_tile10Tile_Value16default_instanceEv+0xa4>  // b.any
    81f8:	a94153f3 	ldp	x19, x20, [sp, #16]
    81fc:	a8c47bfd 	ldp	x29, x30, [sp], #64
    8200:	d65f03c0 	ret
    8204:	d0000202 	adrp	x2, 4a000 <_ZTVN11vector_tile10Tile_ValueE+0x30>
    8208:	90000003 	adrp	x3, 8000 <_ZN30protobuf_vector_5ftile_2eproto16InitDefaultsTileEv+0x60>
    820c:	91239063 	add	x3, x3, #0x8e4
    8210:	910083f4 	add	x20, sp, #0x20
    8214:	f9471842 	ldr	x2, [x2, #3632]
    8218:	aa1403e1 	mov	x1, x20
    821c:	3900c3ff 	strb	wzr, [sp, #48]
    8220:	91004042 	add	x2, x2, #0x10
    8224:	a9020fe2 	stp	x2, x3, [sp, #32]
    8228:	940028aa 	bl	124d0 <_ZN6google8protobuf18GoogleOnceInitImplEPlPNS0_7ClosureE>
    822c:	aa1403e0 	mov	x0, x20
    8230:	94002061 	bl	103b4 <_ZN6google8protobuf8internal16FunctionClosure0D1Ev>
    8234:	17ffffe8 	b	81d4 <_ZN11vector_tile10Tile_Value16default_instanceEv+0x40>
    8238:	97fff1ba 	bl	4920 <__stack_chk_fail@plt>
    823c:	aa0003f3 	mov	x19, x0
    8240:	aa1403e0 	mov	x0, x20
    8244:	9400205c 	bl	103b4 <_ZN6google8protobuf8internal16FunctionClosure0D1Ev>
    8248:	aa1303e0 	mov	x0, x19
    824c:	97fff2c5 	bl	4d60 <_Unwind_Resume@plt>

0000000000008250 <_ZN11vector_tile12Tile_Feature21InitAsDefaultInstanceEv>:
    8250:	a9bf7bfd 	stp	x29, x30, [sp, #-16]!
    8254:	910003fd 	mov	x29, sp
    8258:	d50320ff 	xpaclri
    825c:	aa1e03e0 	mov	x0, x30
    8260:	97fff1b8 	bl	4940 <_mcount@plt>
    8264:	a8c17bfd 	ldp	x29, x30, [sp], #16
    8268:	d65f03c0 	ret
    826c:	d503201f 	nop

0000000000008270 <_ZN11vector_tile12Tile_Feature10SharedCtorEv>:
    8270:	a9be7bfd 	stp	x29, x30, [sp, #-32]!
    8274:	910003fd 	mov	x29, sp
    8278:	f9000bf3 	str	x19, [sp, #16]
    827c:	d50320ff 	xpaclri
    8280:	aa0003f3 	mov	x19, x0
    8284:	aa1e03e0 	mov	x0, x30
    8288:	97fff1ae 	bl	4940 <_mcount@plt>
    828c:	d0000200 	adrp	x0, 4a000 <_ZTVN11vector_tile10Tile_ValueE+0x30>
    8290:	b900167f 	str	wzr, [x19, #20]
    8294:	f946a400 	ldr	x0, [x0, #3400]
    8298:	a904fe60 	stp	x0, xzr, [x19, #72]
    829c:	b9005a7f 	str	wzr, [x19, #88]
    82a0:	f9400bf3 	ldr	x19, [sp, #16]
    82a4:	a8c27bfd 	ldp	x29, x30, [sp], #32
    82a8:	d65f03c0 	ret
    82ac:	d503201f 	nop

00000000000082b0 <_ZN11vector_tile12Tile_Feature10SharedDtorEv>:
    82b0:	a9be7bfd 	stp	x29, x30, [sp, #-32]!
    82b4:	910003fd 	mov	x29, sp
    82b8:	f9000bf3 	str	x19, [sp, #16]
    82bc:	aa0003f3 	mov	x19, x0
    82c0:	d50320ff 	xpaclri
    82c4:	aa1e03e0 	mov	x0, x30
    82c8:	97fff19e 	bl	4940 <_mcount@plt>
    82cc:	d0000201 	adrp	x1, 4a000 <_ZTVN11vector_tile10Tile_ValueE+0x30>
    82d0:	f9402673 	ldr	x19, [x19, #72]
    82d4:	f946a420 	ldr	x0, [x1, #3400]
    82d8:	f100027f 	cmp	x19, #0x0
    82dc:	fa401264 	ccmp	x19, x0, #0x4, ne  // ne = any
    82e0:	54000081 	b.ne	82f0 <_ZN11vector_tile12Tile_Feature10SharedDtorEv+0x40>  // b.any
    82e4:	f9400bf3 	ldr	x19, [sp, #16]
    82e8:	a8c27bfd 	ldp	x29, x30, [sp], #32
    82ec:	d65f03c0 	ret
    82f0:	aa1303e1 	mov	x1, x19
    82f4:	f8410420 	ldr	x0, [x1], #16
    82f8:	eb01001f 	cmp	x0, x1
    82fc:	54000080 	b.eq	830c <_ZN11vector_tile12Tile_Feature10SharedDtorEv+0x5c>  // b.none
    8300:	f9400a61 	ldr	x1, [x19, #16]
    8304:	91000421 	add	x1, x1, #0x1
    8308:	97fff21a 	bl	4b70 <_ZdlPvm@plt>
    830c:	aa1303e0 	mov	x0, x19
    8310:	d2800401 	mov	x1, #0x20                  	// #32
    8314:	f9400bf3 	ldr	x19, [sp, #16]
    8318:	a8c27bfd 	ldp	x29, x30, [sp], #32
    831c:	17fff215 	b	4b70 <_ZdlPvm@plt>

0000000000008320 <_ZNK11vector_tile12Tile_Feature13SetCachedSizeEi>:
    8320:	a9be7bfd 	stp	x29, x30, [sp, #-32]!
    8324:	910003fd 	mov	x29, sp
    8328:	a90153f3 	stp	x19, x20, [sp, #16]
    832c:	aa0003f3 	mov	x19, x0
    8330:	d50320ff 	xpaclri
    8334:	2a0103f4 	mov	w20, w1
    8338:	aa1e03e0 	mov	x0, x30
    833c:	97fff181 	bl	4940 <_mcount@plt>
    8340:	b9001674 	str	w20, [x19, #20]
    8344:	a94153f3 	ldp	x19, x20, [sp, #16]
    8348:	a8c27bfd 	ldp	x29, x30, [sp], #32
    834c:	d65f03c0 	ret

0000000000008350 <_ZN11vector_tile12Tile_Feature16default_instanceEv>:
    8350:	a9bc7bfd 	stp	x29, x30, [sp, #-64]!
    8354:	910003fd 	mov	x29, sp
    8358:	a90153f3 	stp	x19, x20, [sp, #16]
    835c:	d50320ff 	xpaclri
    8360:	aa1e03e0 	mov	x0, x30
    8364:	97fff177 	bl	4940 <_mcount@plt>
    8368:	f0000213 	adrp	x19, 4b000 <__data_start>
    836c:	d0000201 	adrp	x1, 4a000 <_ZTVN11vector_tile10Tile_ValueE+0x30>
    8370:	91010260 	add	x0, x19, #0x40
    8374:	f946b821 	ldr	x1, [x1, #3440]
    8378:	f9400022 	ldr	x2, [x1]
    837c:	f9001fe2 	str	x2, [sp, #56]
    8380:	d2800002 	mov	x2, #0x0                   	// #0
    8384:	91002001 	add	x1, x0, #0x8
    8388:	c8dffc21 	ldar	x1, [x1]
    838c:	f100083f 	cmp	x1, #0x2
    8390:	540001a1 	b.ne	83c4 <_ZN11vector_tile12Tile_Feature16default_instanceEv+0x74>  // b.any
    8394:	d0000201 	adrp	x1, 4a000 <_ZTVN11vector_tile10Tile_ValueE+0x30>
    8398:	91010273 	add	x19, x19, #0x40
    839c:	91028260 	add	x0, x19, #0xa0
    83a0:	f946b821 	ldr	x1, [x1, #3440]
    83a4:	f9401fe3 	ldr	x3, [sp, #56]
    83a8:	f9400022 	ldr	x2, [x1]
    83ac:	eb020063 	subs	x3, x3, x2
    83b0:	d2800002 	mov	x2, #0x0                   	// #0
    83b4:	54000241 	b.ne	83fc <_ZN11vector_tile12Tile_Feature16default_instanceEv+0xac>  // b.any
    83b8:	a94153f3 	ldp	x19, x20, [sp, #16]
    83bc:	a8c47bfd 	ldp	x29, x30, [sp], #64
    83c0:	d65f03c0 	ret
    83c4:	d0000202 	adrp	x2, 4a000 <_ZTVN11vector_tile10Tile_ValueE+0x30>
    83c8:	90000003 	adrp	x3, 8000 <_ZN30protobuf_vector_5ftile_2eproto16InitDefaultsTileEv+0x60>
    83cc:	912f8063 	add	x3, x3, #0xbe0
    83d0:	910083f4 	add	x20, sp, #0x20
    83d4:	f9471842 	ldr	x2, [x2, #3632]
    83d8:	91002000 	add	x0, x0, #0x8
    83dc:	aa1403e1 	mov	x1, x20
    83e0:	3900c3ff 	strb	wzr, [sp, #48]
    83e4:	91004042 	add	x2, x2, #0x10
    83e8:	a9020fe2 	stp	x2, x3, [sp, #32]
    83ec:	94002839 	bl	124d0 <_ZN6google8protobuf18GoogleOnceInitImplEPlPNS0_7ClosureE>
    83f0:	aa1403e0 	mov	x0, x20
    83f4:	94001ff0 	bl	103b4 <_ZN6google8protobuf8internal16FunctionClosure0D1Ev>
    83f8:	17ffffe7 	b	8394 <_ZN11vector_tile12Tile_Feature16default_instanceEv+0x44>
    83fc:	97fff149 	bl	4920 <__stack_chk_fail@plt>
    8400:	aa0003f3 	mov	x19, x0
    8404:	aa1403e0 	mov	x0, x20
    8408:	94001feb 	bl	103b4 <_ZN6google8protobuf8internal16FunctionClosure0D1Ev>
    840c:	aa1303e0 	mov	x0, x19
    8410:	97fff254 	bl	4d60 <_Unwind_Resume@plt>

0000000000008414 <_ZN11vector_tile10Tile_Layer21InitAsDefaultInstanceEv>:
    8414:	a9bf7bfd 	stp	x29, x30, [sp, #-16]!
    8418:	910003fd 	mov	x29, sp
    841c:	d50320ff 	xpaclri
    8420:	aa1e03e0 	mov	x0, x30
    8424:	97fff147 	bl	4940 <_mcount@plt>
    8428:	a8c17bfd 	ldp	x29, x30, [sp], #16
    842c:	d65f03c0 	ret

0000000000008430 <_ZN11vector_tile10Tile_Layer10SharedCtorEv>:
    8430:	a9be7bfd 	stp	x29, x30, [sp, #-32]!
    8434:	910003fd 	mov	x29, sp
    8438:	f9000bf3 	str	x19, [sp, #16]
    843c:	d50320ff 	xpaclri
    8440:	aa0003f3 	mov	x19, x0
    8444:	aa1e03e0 	mov	x0, x30
    8448:	97fff13e 	bl	4940 <_mcount@plt>
    844c:	d0000121 	adrp	x1, 2e000 <_ZN6google8protobuf8internal15UTF8GenericScanEPKNS1_19UTF8StateMachineObjEPKciPi>
    8450:	d0000200 	adrp	x0, 4a000 <_ZTVN11vector_tile10Tile_ValueE+0x30>
    8454:	b9004e7f 	str	wzr, [x19, #76]
    8458:	f946a400 	ldr	x0, [x0, #3400]
    845c:	f9004e60 	str	x0, [x19, #152]
    8460:	fd44c420 	ldr	d0, [x1, #2440]
    8464:	fd005260 	str	d0, [x19, #160]
    8468:	f9400bf3 	ldr	x19, [sp, #16]
    846c:	a8c27bfd 	ldp	x29, x30, [sp], #32
    8470:	d65f03c0 	ret

0000000000008474 <_ZN11vector_tile10Tile_Layer10SharedDtorEv>:
    8474:	a9be7bfd 	stp	x29, x30, [sp, #-32]!
    8478:	910003fd 	mov	x29, sp
    847c:	f9000bf3 	str	x19, [sp, #16]
    8480:	aa0003f3 	mov	x19, x0
    8484:	d50320ff 	xpaclri
    8488:	aa1e03e0 	mov	x0, x30
    848c:	97fff12d 	bl	4940 <_mcount@plt>
    8490:	d0000201 	adrp	x1, 4a000 <_ZTVN11vector_tile10Tile_ValueE+0x30>
    8494:	f9404e73 	ldr	x19, [x19, #152]
    8498:	f946a420 	ldr	x0, [x1, #3400]
    849c:	f100027f 	cmp	x19, #0x0
    84a0:	fa401264 	ccmp	x19, x0, #0x4, ne  // ne = any
    84a4:	54000081 	b.ne	84b4 <_ZN11vector_tile10Tile_Layer10SharedDtorEv+0x40>  // b.any
    84a8:	f9400bf3 	ldr	x19, [sp, #16]
    84ac:	a8c27bfd 	ldp	x29, x30, [sp], #32
    84b0:	d65f03c0 	ret
    84b4:	aa1303e1 	mov	x1, x19
    84b8:	f8410420 	ldr	x0, [x1], #16
    84bc:	eb01001f 	cmp	x0, x1
    84c0:	54000080 	b.eq	84d0 <_ZN11vector_tile10Tile_Layer10SharedDtorEv+0x5c>  // b.none
    84c4:	f9400a61 	ldr	x1, [x19, #16]
    84c8:	91000421 	add	x1, x1, #0x1
    84cc:	97fff1a9 	bl	4b70 <_ZdlPvm@plt>
    84d0:	aa1303e0 	mov	x0, x19
    84d4:	d2800401 	mov	x1, #0x20                  	// #32
    84d8:	f9400bf3 	ldr	x19, [sp, #16]
    84dc:	a8c27bfd 	ldp	x29, x30, [sp], #32
    84e0:	17fff1a4 	b	4b70 <_ZdlPvm@plt>

00000000000084e4 <_ZNK11vector_tile10Tile_Layer13SetCachedSizeEi>:
    84e4:	a9be7bfd 	stp	x29, x30, [sp, #-32]!
    84e8:	910003fd 	mov	x29, sp
    84ec:	a90153f3 	stp	x19, x20, [sp, #16]
    84f0:	aa0003f3 	mov	x19, x0
    84f4:	d50320ff 	xpaclri
    84f8:	2a0103f4 	mov	w20, w1
    84fc:	aa1e03e0 	mov	x0, x30
    8500:	97fff110 	bl	4940 <_mcount@plt>
    8504:	b9004e74 	str	w20, [x19, #76]
    8508:	a94153f3 	ldp	x19, x20, [sp, #16]
    850c:	a8c27bfd 	ldp	x29, x30, [sp], #32
    8510:	d65f03c0 	ret

0000000000008514 <_ZN11vector_tile10Tile_Layer16default_instanceEv>:
    8514:	a9bc7bfd 	stp	x29, x30, [sp, #-64]!
    8518:	910003fd 	mov	x29, sp
    851c:	a90153f3 	stp	x19, x20, [sp, #16]
    8520:	d50320ff 	xpaclri
    8524:	aa1e03e0 	mov	x0, x30
    8528:	97fff106 	bl	4940 <_mcount@plt>
    852c:	f0000213 	adrp	x19, 4b000 <__data_start>
    8530:	d0000201 	adrp	x1, 4a000 <_ZTVN11vector_tile10Tile_ValueE+0x30>
    8534:	91010260 	add	x0, x19, #0x40
    8538:	f946b821 	ldr	x1, [x1, #3440]
    853c:	f9400022 	ldr	x2, [x1]
    8540:	f9001fe2 	str	x2, [sp, #56]
    8544:	d2800002 	mov	x2, #0x0                   	// #0
    8548:	91004001 	add	x1, x0, #0x10
    854c:	c8dffc21 	ldar	x1, [x1]
    8550:	f100083f 	cmp	x1, #0x2
    8554:	540001a1 	b.ne	8588 <_ZN11vector_tile10Tile_Layer16default_instanceEv+0x74>  // b.any
    8558:	d0000201 	adrp	x1, 4a000 <_ZTVN11vector_tile10Tile_ValueE+0x30>
    855c:	91010273 	add	x19, x19, #0x40
    8560:	91040260 	add	x0, x19, #0x100
    8564:	f946b821 	ldr	x1, [x1, #3440]
    8568:	f9401fe3 	ldr	x3, [sp, #56]
    856c:	f9400022 	ldr	x2, [x1]
    8570:	eb020063 	subs	x3, x3, x2
    8574:	d2800002 	mov	x2, #0x0                   	// #0
    8578:	54000241 	b.ne	85c0 <_ZN11vector_tile10Tile_Layer16default_instanceEv+0xac>  // b.any
    857c:	a94153f3 	ldp	x19, x20, [sp, #16]
    8580:	a8c47bfd 	ldp	x29, x30, [sp], #64
    8584:	d65f03c0 	ret
    8588:	d0000202 	adrp	x2, 4a000 <_ZTVN11vector_tile10Tile_ValueE+0x30>
    858c:	90000023 	adrp	x3, c000 <_ZN11vector_tile4Tile27MergePartialFromCodedStreamEPN6google8protobuf2io16CodedInputStreamE+0x34c>
    8590:	911dd063 	add	x3, x3, #0x774
    8594:	910083f4 	add	x20, sp, #0x20
    8598:	f9471842 	ldr	x2, [x2, #3632]
    859c:	91004000 	add	x0, x0, #0x10
    85a0:	aa1403e1 	mov	x1, x20
    85a4:	3900c3ff 	strb	wzr, [sp, #48]
    85a8:	91004042 	add	x2, x2, #0x10
    85ac:	a9020fe2 	stp	x2, x3, [sp, #32]
    85b0:	940027c8 	bl	124d0 <_ZN6google8protobuf18GoogleOnceInitImplEPlPNS0_7ClosureE>
    85b4:	aa1403e0 	mov	x0, x20
    85b8:	94001f7f 	bl	103b4 <_ZN6google8protobuf8internal16FunctionClosure0D1Ev>
    85bc:	17ffffe7 	b	8558 <_ZN11vector_tile10Tile_Layer16default_instanceEv+0x44>
    85c0:	97fff0d8 	bl	4920 <__stack_chk_fail@plt>
    85c4:	aa0003f3 	mov	x19, x0
    85c8:	aa1403e0 	mov	x0, x20
    85cc:	94001f7a 	bl	103b4 <_ZN6google8protobuf8internal16FunctionClosure0D1Ev>
    85d0:	aa1303e0 	mov	x0, x19
    85d4:	97fff1e3 	bl	4d60 <_Unwind_Resume@plt>
    85d8:	d503201f 	nop
    85dc:	d503201f 	nop

00000000000085e0 <_ZNK11vector_tile10Tile_Layer30RequiredFieldsByteSizeFallbackEv>:
    85e0:	a9be7bfd 	stp	x29, x30, [sp, #-32]!
    85e4:	910003fd 	mov	x29, sp
    85e8:	f9000bf3 	str	x19, [sp, #16]
    85ec:	aa0003f3 	mov	x19, x0
    85f0:	d50320ff 	xpaclri
    85f4:	aa1e03e0 	mov	x0, x30
    85f8:	97fff0d2 	bl	4940 <_mcount@plt>
    85fc:	d2800000 	mov	x0, #0x0                   	// #0
    8600:	b9404a62 	ldr	w2, [x19, #72]
    8604:	36000162 	tbz	w2, #0, 8630 <_ZNK11vector_tile10Tile_Layer30RequiredFieldsByteSizeFallbackEv+0x50>
    8608:	f9404e60 	ldr	x0, [x19, #152]
    860c:	f9400400 	ldr	x0, [x0, #8]
    8610:	32000001 	orr	w1, w0, #0x1
    8614:	91000400 	add	x0, x0, #0x1
    8618:	5ac01021 	clz	w1, w1
    861c:	52001021 	eor	w1, w1, #0x1f
    8620:	0b010c21 	add	w1, w1, w1, lsl #3
    8624:	11012421 	add	w1, w1, #0x49
    8628:	d3462821 	ubfx	x1, x1, #6, #5
    862c:	8b000020 	add	x0, x1, x0
    8630:	36100142 	tbz	w2, #2, 8658 <_ZNK11vector_tile10Tile_Layer30RequiredFieldsByteSizeFallbackEv+0x78>
    8634:	b940a661 	ldr	w1, [x19, #164]
    8638:	32000021 	orr	w1, w1, #0x1
    863c:	5ac01021 	clz	w1, w1
    8640:	52001021 	eor	w1, w1, #0x1f
    8644:	0b010c21 	add	w1, w1, w1, lsl #3
    8648:	11012421 	add	w1, w1, #0x49
    864c:	53067c21 	lsr	w1, w1, #6
    8650:	11000421 	add	w1, w1, #0x1
    8654:	8b010000 	add	x0, x0, x1
    8658:	f9400bf3 	ldr	x19, [sp, #16]
    865c:	a8c27bfd 	ldp	x29, x30, [sp], #32
    8660:	d65f03c0 	ret

0000000000008664 <_ZN11vector_tile4Tile21InitAsDefaultInstanceEv>:
    8664:	a9bf7bfd 	stp	x29, x30, [sp, #-16]!
    8668:	910003fd 	mov	x29, sp
    866c:	d50320ff 	xpaclri
    8670:	aa1e03e0 	mov	x0, x30
    8674:	97fff0b3 	bl	4940 <_mcount@plt>
    8678:	a8c17bfd 	ldp	x29, x30, [sp], #16
    867c:	d65f03c0 	ret

0000000000008680 <_ZN11vector_tile4Tile10SharedCtorEv>:
    8680:	a9be7bfd 	stp	x29, x30, [sp, #-32]!
    8684:	910003fd 	mov	x29, sp
    8688:	f9000bf3 	str	x19, [sp, #16]
    868c:	aa0003f3 	mov	x19, x0
    8690:	d50320ff 	xpaclri
    8694:	aa1e03e0 	mov	x0, x30
    8698:	97fff0aa 	bl	4940 <_mcount@plt>
    869c:	b9004e7f 	str	wzr, [x19, #76]
    86a0:	f9400bf3 	ldr	x19, [sp, #16]
    86a4:	a8c27bfd 	ldp	x29, x30, [sp], #32
    86a8:	d65f03c0 	ret
    86ac:	d503201f 	nop

00000000000086b0 <_ZN11vector_tile4Tile10SharedDtorEv>:
    86b0:	a9bf7bfd 	stp	x29, x30, [sp, #-16]!
    86b4:	910003fd 	mov	x29, sp
    86b8:	d50320ff 	xpaclri
    86bc:	aa1e03e0 	mov	x0, x30
    86c0:	97fff0a0 	bl	4940 <_mcount@plt>
    86c4:	a8c17bfd 	ldp	x29, x30, [sp], #16
    86c8:	d65f03c0 	ret
    86cc:	d503201f 	nop

00000000000086d0 <_ZNK11vector_tile4Tile13SetCachedSizeEi>:
    86d0:	a9be7bfd 	stp	x29, x30, [sp, #-32]!
    86d4:	910003fd 	mov	x29, sp
    86d8:	a90153f3 	stp	x19, x20, [sp, #16]
    86dc:	aa0003f3 	mov	x19, x0
    86e0:	d50320ff 	xpaclri
    86e4:	2a0103f4 	mov	w20, w1
    86e8:	aa1e03e0 	mov	x0, x30
    86ec:	97fff095 	bl	4940 <_mcount@plt>
    86f0:	b9004e74 	str	w20, [x19, #76]
    86f4:	a94153f3 	ldp	x19, x20, [sp, #16]
    86f8:	a8c27bfd 	ldp	x29, x30, [sp], #32
    86fc:	d65f03c0 	ret

0000000000008700 <_ZN11vector_tile4Tile16default_instanceEv>:
    8700:	a9bc7bfd 	stp	x29, x30, [sp, #-64]!
    8704:	910003fd 	mov	x29, sp
    8708:	a90153f3 	stp	x19, x20, [sp, #16]
    870c:	d50320ff 	xpaclri
    8710:	aa1e03e0 	mov	x0, x30
    8714:	97fff08b 	bl	4940 <_mcount@plt>
    8718:	f0000213 	adrp	x19, 4b000 <__data_start>
    871c:	d0000201 	adrp	x1, 4a000 <_ZTVN11vector_tile10Tile_ValueE+0x30>
    8720:	91010260 	add	x0, x19, #0x40
    8724:	f946b821 	ldr	x1, [x1, #3440]
    8728:	f9400022 	ldr	x2, [x1]
    872c:	f9001fe2 	str	x2, [sp, #56]
    8730:	d2800002 	mov	x2, #0x0                   	// #0
    8734:	91006001 	add	x1, x0, #0x18
    8738:	c8dffc21 	ldar	x1, [x1]
    873c:	f100083f 	cmp	x1, #0x2
    8740:	540001a1 	b.ne	8774 <_ZN11vector_tile4Tile16default_instanceEv+0x74>  // b.any
    8744:	d0000201 	adrp	x1, 4a000 <_ZTVN11vector_tile10Tile_ValueE+0x30>
    8748:	91010273 	add	x19, x19, #0x40
    874c:	9106a260 	add	x0, x19, #0x1a8
    8750:	f946b821 	ldr	x1, [x1, #3440]
    8754:	f9401fe3 	ldr	x3, [sp, #56]
    8758:	f9400022 	ldr	x2, [x1]
    875c:	eb020063 	subs	x3, x3, x2
    8760:	d2800002 	mov	x2, #0x0                   	// #0
    8764:	54000241 	b.ne	87ac <_ZN11vector_tile4Tile16default_instanceEv+0xac>  // b.any
    8768:	a94153f3 	ldp	x19, x20, [sp, #16]
    876c:	a8c47bfd 	ldp	x29, x30, [sp], #64
    8770:	d65f03c0 	ret
    8774:	d0000202 	adrp	x2, 4a000 <_ZTVN11vector_tile10Tile_ValueE+0x30>
    8778:	90000023 	adrp	x3, c000 <_ZN11vector_tile4Tile27MergePartialFromCodedStreamEPN6google8protobuf2io16CodedInputStreamE+0x34c>
    877c:	9132d063 	add	x3, x3, #0xcb4
    8780:	910083f4 	add	x20, sp, #0x20
    8784:	f9471842 	ldr	x2, [x2, #3632]
    8788:	91006000 	add	x0, x0, #0x18
    878c:	aa1403e1 	mov	x1, x20
    8790:	3900c3ff 	strb	wzr, [sp, #48]
    8794:	91004042 	add	x2, x2, #0x10
    8798:	a9020fe2 	stp	x2, x3, [sp, #32]
    879c:	9400274d 	bl	124d0 <_ZN6google8protobuf18GoogleOnceInitImplEPlPNS0_7ClosureE>
    87a0:	aa1403e0 	mov	x0, x20
    87a4:	94001f04 	bl	103b4 <_ZN6google8protobuf8internal16FunctionClosure0D1Ev>
    87a8:	17ffffe7 	b	8744 <_ZN11vector_tile4Tile16default_instanceEv+0x44>
    87ac:	97fff05d 	bl	4920 <__stack_chk_fail@plt>
    87b0:	aa0003f3 	mov	x19, x0
    87b4:	aa1403e0 	mov	x0, x20
    87b8:	94001eff 	bl	103b4 <_ZN6google8protobuf8internal16FunctionClosure0D1Ev>
    87bc:	aa1303e0 	mov	x0, x19
    87c0:	97fff168 	bl	4d60 <_Unwind_Resume@plt>

00000000000087c4 <_ZN11vector_tile10Tile_ValueC2Ev>:
    87c4:	a9bb7bfd 	stp	x29, x30, [sp, #-80]!
    87c8:	910003fd 	mov	x29, sp
    87cc:	a90153f3 	stp	x19, x20, [sp, #16]
    87d0:	d50320ff 	xpaclri
    87d4:	aa0003f3 	mov	x19, x0
    87d8:	aa1e03e0 	mov	x0, x30
    87dc:	97fff059 	bl	4940 <_mcount@plt>
    87e0:	d0000201 	adrp	x1, 4a000 <_ZTVN11vector_tile10Tile_ValueE+0x30>
    87e4:	aa1303f4 	mov	x20, x19
    87e8:	b0000200 	adrp	x0, 49000 <__FRAME_END__+0x101d8>
    87ec:	913f8000 	add	x0, x0, #0xfe0
    87f0:	f946b821 	ldr	x1, [x1, #3440]
    87f4:	f9400022 	ldr	x2, [x1]
    87f8:	f90027e2 	str	x2, [sp, #72]
    87fc:	d2800002 	mov	x2, #0x0                   	// #0
    8800:	f8008680 	str	x0, [x20], #8
    8804:	aa1403e0 	mov	x0, x20
    8808:	94002eb6 	bl	142e0 <_ZN6google8protobuf8internal12ExtensionSetC1Ev>
    880c:	f900227f 	str	xzr, [x19, #64]
    8810:	f0000201 	adrp	x1, 4b000 <__data_start>
    8814:	91010020 	add	x0, x1, #0x40
    8818:	91008002 	add	x2, x0, #0x20
    881c:	b9004a7f 	str	wzr, [x19, #72]
    8820:	eb02027f 	cmp	x19, x2
    8824:	54000080 	b.eq	8834 <_ZN11vector_tile10Tile_ValueC2Ev+0x70>  // b.none
    8828:	c8dffc01 	ldar	x1, [x0]
    882c:	f100083f 	cmp	x1, #0x2
    8830:	54000241 	b.ne	8878 <_ZN11vector_tile10Tile_ValueC2Ev+0xb4>  // b.any
    8834:	d0000201 	adrp	x1, 4a000 <_ZTVN11vector_tile10Tile_ValueE+0x30>
    8838:	d0000200 	adrp	x0, 4a000 <_ZTVN11vector_tile10Tile_ValueE+0x30>
    883c:	b9004e7f 	str	wzr, [x19, #76]
    8840:	f946a421 	ldr	x1, [x1, #3400]
    8844:	f9002a61 	str	x1, [x19, #80]
    8848:	f946b800 	ldr	x0, [x0, #3440]
    884c:	a905fe7f 	stp	xzr, xzr, [x19, #88]
    8850:	a906fe7f 	stp	xzr, xzr, [x19, #104]
    8854:	f9003e7f 	str	xzr, [x19, #120]
    8858:	f94027e2 	ldr	x2, [sp, #72]
    885c:	f9400001 	ldr	x1, [x0]
    8860:	eb010042 	subs	x2, x2, x1
    8864:	d2800001 	mov	x1, #0x0                   	// #0
    8868:	54000261 	b.ne	88b4 <_ZN11vector_tile10Tile_ValueC2Ev+0xf0>  // b.any
    886c:	a94153f3 	ldp	x19, x20, [sp, #16]
    8870:	a8c57bfd 	ldp	x29, x30, [sp], #80
    8874:	d65f03c0 	ret
    8878:	d0000202 	adrp	x2, 4a000 <_ZTVN11vector_tile10Tile_ValueE+0x30>
    887c:	90000003 	adrp	x3, 8000 <_ZN30protobuf_vector_5ftile_2eproto16InitDefaultsTileEv+0x60>
    8880:	91239063 	add	x3, x3, #0x8e4
    8884:	f90013f5 	str	x21, [sp, #32]
    8888:	f9471842 	ldr	x2, [x2, #3632]
    888c:	9100c3f5 	add	x21, sp, #0x30
    8890:	aa1503e1 	mov	x1, x21
    8894:	390103ff 	strb	wzr, [sp, #64]
    8898:	91004042 	add	x2, x2, #0x10
    889c:	a9030fe2 	stp	x2, x3, [sp, #48]
    88a0:	9400270c 	bl	124d0 <_ZN6google8protobuf18GoogleOnceInitImplEPlPNS0_7ClosureE>
    88a4:	aa1503e0 	mov	x0, x21
    88a8:	94001ec3 	bl	103b4 <_ZN6google8protobuf8internal16FunctionClosure0D1Ev>
    88ac:	f94013f5 	ldr	x21, [sp, #32]
    88b0:	17ffffe1 	b	8834 <_ZN11vector_tile10Tile_ValueC2Ev+0x70>
    88b4:	f90013f5 	str	x21, [sp, #32]
    88b8:	97fff01a 	bl	4920 <__stack_chk_fail@plt>
    88bc:	aa0003e1 	mov	x1, x0
    88c0:	aa1503e0 	mov	x0, x21
    88c4:	aa0103f5 	mov	x21, x1
    88c8:	94001ebb 	bl	103b4 <_ZN6google8protobuf8internal16FunctionClosure0D1Ev>
    88cc:	91010260 	add	x0, x19, #0x40
    88d0:	940013fc 	bl	d8c0 <_ZN6google8protobuf8internal29InternalMetadataWithArenaBaseINSt7__cxx1112basic_stringIcSt11char_traitsIcESaIcEEENS1_29InternalMetadataWithArenaLiteEED1Ev>
    88d4:	aa1403e0 	mov	x0, x20
    88d8:	94004366 	bl	19670 <_ZN6google8protobuf8internal12ExtensionSetD1Ev>
    88dc:	aa1503e0 	mov	x0, x21
    88e0:	97fff120 	bl	4d60 <_Unwind_Resume@plt>

00000000000088e4 <_ZN30protobuf_vector_5ftile_2eproto26InitDefaultsTile_ValueImplEv>:
    88e4:	a9be7bfd 	stp	x29, x30, [sp, #-32]!
    88e8:	910003fd 	mov	x29, sp
    88ec:	a90153f3 	stp	x19, x20, [sp, #16]
    88f0:	d50320ff 	xpaclri
    88f4:	aa1e03e0 	mov	x0, x30
    88f8:	97fff012 	bl	4940 <_mcount@plt>
    88fc:	f0000213 	adrp	x19, 4b000 <__data_start>
    8900:	d0000122 	adrp	x2, 2e000 <_ZN6google8protobuf8internal15UTF8GenericScanEPKNS1_19UTF8StateMachineObjEPKciPi>
    8904:	529b4901 	mov	w1, #0xda48                	// #55880
    8908:	91204042 	add	x2, x2, #0x810
    890c:	529b4920 	mov	w0, #0xda49                	// #55881
    8910:	72a005a1 	movk	w1, #0x2d, lsl #16
    8914:	72a005a0 	movk	w0, #0x2d, lsl #16
    8918:	9400201b 	bl	10984 <_ZN6google8protobuf8internal13VerifyVersionEiiPKc>
    891c:	91010273 	add	x19, x19, #0x40
    8920:	94005dc4 	bl	20030 <_ZN6google8protobuf8internal20InitProtobufDefaultsEv>
    8924:	91008274 	add	x20, x19, #0x20
    8928:	b0000201 	adrp	x1, 49000 <__FRAME_END__+0x101d8>
    892c:	913f8021 	add	x1, x1, #0xfe0
    8930:	9100a260 	add	x0, x19, #0x28
    8934:	f9001261 	str	x1, [x19, #32]
    8938:	94002e6a 	bl	142e0 <_ZN6google8protobuf8internal12ExtensionSetC1Ev>
    893c:	a9067e7f 	stp	xzr, xzr, [x19, #96]
    8940:	d0000201 	adrp	x1, 4a000 <_ZTVN11vector_tile10Tile_ValueE+0x30>
    8944:	aa1403e0 	mov	x0, x20
    8948:	a907fe7f 	stp	xzr, xzr, [x19, #120]
    894c:	f946a421 	ldr	x1, [x1, #3400]
    8950:	f9003a61 	str	x1, [x19, #112]
    8954:	a908fe7f 	stp	xzr, xzr, [x19, #136]
    8958:	f9004e7f 	str	xzr, [x19, #152]
    895c:	a94153f3 	ldp	x19, x20, [sp, #16]
    8960:	a8c27bfd 	ldp	x29, x30, [sp], #32
    8964:	1400229b 	b	113d0 <_ZN6google8protobuf8internal24OnShutdownDestroyMessageEPKv>
    8968:	d503201f 	nop
    896c:	d503201f 	nop

0000000000008970 <_ZNK11vector_tile10Tile_Value3NewEPN6google8protobuf5ArenaE>:
    8970:	a9bb7bfd 	stp	x29, x30, [sp, #-80]!
    8974:	910003fd 	mov	x29, sp
    8978:	a90153f3 	stp	x19, x20, [sp, #16]
    897c:	a9025bf5 	stp	x21, x22, [sp, #32]
    8980:	d50320ff 	xpaclri
    8984:	aa0103f4 	mov	x20, x1
    8988:	aa1e03e0 	mov	x0, x30
    898c:	97ffefed 	bl	4940 <_mcount@plt>
    8990:	d0000201 	adrp	x1, 4a000 <_ZTVN11vector_tile10Tile_ValueE+0x30>
    8994:	d2801000 	mov	x0, #0x80                  	// #128
    8998:	f946b821 	ldr	x1, [x1, #3440]
    899c:	f9400022 	ldr	x2, [x1]
    89a0:	f90027e2 	str	x2, [sp, #72]
    89a4:	d2800002 	mov	x2, #0x0                   	// #0
    89a8:	97fff06e 	bl	4b60 <_Znwm@plt>
    89ac:	aa0003f5 	mov	x21, x0
    89b0:	b0000201 	adrp	x1, 49000 <__FRAME_END__+0x101d8>
    89b4:	913f8021 	add	x1, x1, #0xfe0
    89b8:	aa0003f3 	mov	x19, x0
    89bc:	f80086a1 	str	x1, [x21], #8
    89c0:	aa1503e0 	mov	x0, x21
    89c4:	94002e47 	bl	142e0 <_ZN6google8protobuf8internal12ExtensionSetC1Ev>
    89c8:	f0000201 	adrp	x1, 4b000 <__data_start>
    89cc:	91010020 	add	x0, x1, #0x40
    89d0:	f900227f 	str	xzr, [x19, #64]
    89d4:	b9004a7f 	str	wzr, [x19, #72]
    89d8:	c8dffc01 	ldar	x1, [x0]
    89dc:	f100083f 	cmp	x1, #0x2
    89e0:	54000301 	b.ne	8a40 <_ZNK11vector_tile10Tile_Value3NewEPN6google8protobuf5ArenaE+0xd0>  // b.any
    89e4:	d0000200 	adrp	x0, 4a000 <_ZTVN11vector_tile10Tile_ValueE+0x30>
    89e8:	b9004e7f 	str	wzr, [x19, #76]
    89ec:	a905fe7f 	stp	xzr, xzr, [x19, #88]
    89f0:	f946a400 	ldr	x0, [x0, #3400]
    89f4:	f9002a60 	str	x0, [x19, #80]
    89f8:	a906fe7f 	stp	xzr, xzr, [x19, #104]
    89fc:	f9003e7f 	str	xzr, [x19, #120]
    8a00:	b4000094 	cbz	x20, 8a10 <_ZNK11vector_tile10Tile_Value3NewEPN6google8protobuf5ArenaE+0xa0>
    8a04:	aa1403e0 	mov	x0, x20
    8a08:	aa1303e1 	mov	x1, x19
    8a0c:	9400141d 	bl	da80 <_ZN6google8protobuf5Arena3OwnIN11vector_tile10Tile_ValueEEEvPT_>
    8a10:	d0000200 	adrp	x0, 4a000 <_ZTVN11vector_tile10Tile_ValueE+0x30>
    8a14:	f946b800 	ldr	x0, [x0, #3440]
    8a18:	f94027e2 	ldr	x2, [sp, #72]
    8a1c:	f9400001 	ldr	x1, [x0]
    8a20:	eb010042 	subs	x2, x2, x1
    8a24:	d2800001 	mov	x1, #0x0                   	// #0
    8a28:	54000261 	b.ne	8a74 <_ZNK11vector_tile10Tile_Value3NewEPN6google8protobuf5ArenaE+0x104>  // b.any
    8a2c:	aa1303e0 	mov	x0, x19
    8a30:	a94153f3 	ldp	x19, x20, [sp, #16]
    8a34:	a9425bf5 	ldp	x21, x22, [sp, #32]
    8a38:	a8c57bfd 	ldp	x29, x30, [sp], #80
    8a3c:	d65f03c0 	ret
    8a40:	d0000202 	adrp	x2, 4a000 <_ZTVN11vector_tile10Tile_ValueE+0x30>
    8a44:	90000003 	adrp	x3, 8000 <_ZN30protobuf_vector_5ftile_2eproto16InitDefaultsTileEv+0x60>
    8a48:	91239063 	add	x3, x3, #0x8e4
    8a4c:	9100c3f6 	add	x22, sp, #0x30
    8a50:	f9471842 	ldr	x2, [x2, #3632]
    8a54:	aa1603e1 	mov	x1, x22
    8a58:	390103ff 	strb	wzr, [sp, #64]
    8a5c:	91004042 	add	x2, x2, #0x10
    8a60:	a9030fe2 	stp	x2, x3, [sp, #48]
    8a64:	9400269b 	bl	124d0 <_ZN6google8protobuf18GoogleOnceInitImplEPlPNS0_7ClosureE>
    8a68:	aa1603e0 	mov	x0, x22
    8a6c:	94001e52 	bl	103b4 <_ZN6google8protobuf8internal16FunctionClosure0D1Ev>
    8a70:	17ffffdd 	b	89e4 <_ZNK11vector_tile10Tile_Value3NewEPN6google8protobuf5ArenaE+0x74>
    8a74:	97ffefab 	bl	4920 <__stack_chk_fail@plt>
    8a78:	aa0003f4 	mov	x20, x0
    8a7c:	14000008 	b	8a9c <_ZNK11vector_tile10Tile_Value3NewEPN6google8protobuf5ArenaE+0x12c>
    8a80:	aa0003f4 	mov	x20, x0
    8a84:	aa1603e0 	mov	x0, x22
    8a88:	94001e4b 	bl	103b4 <_ZN6google8protobuf8internal16FunctionClosure0D1Ev>
    8a8c:	91010260 	add	x0, x19, #0x40
    8a90:	9400138c 	bl	d8c0 <_ZN6google8protobuf8internal29InternalMetadataWithArenaBaseINSt7__cxx1112basic_stringIcSt11char_traitsIcESaIcEEENS1_29InternalMetadataWithArenaLiteEED1Ev>
    8a94:	aa1503e0 	mov	x0, x21
    8a98:	940042f6 	bl	19670 <_ZN6google8protobuf8internal12ExtensionSetD1Ev>
    8a9c:	d2801001 	mov	x1, #0x80                  	// #128
    8aa0:	aa1303e0 	mov	x0, x19
    8aa4:	97fff033 	bl	4b70 <_ZdlPvm@plt>
    8aa8:	aa1403e0 	mov	x0, x20
    8aac:	97fff0ad 	bl	4d60 <_Unwind_Resume@plt>

0000000000008ab0 <_ZN11vector_tile12Tile_FeatureC2Ev>:
    8ab0:	a9bb7bfd 	stp	x29, x30, [sp, #-80]!
    8ab4:	910003fd 	mov	x29, sp
    8ab8:	a90153f3 	stp	x19, x20, [sp, #16]
    8abc:	a9025bf5 	stp	x21, x22, [sp, #32]
    8ac0:	d50320ff 	xpaclri
    8ac4:	aa0003f3 	mov	x19, x0
    8ac8:	aa1e03e0 	mov	x0, x30
    8acc:	97ffef9d 	bl	4940 <_mcount@plt>
    8ad0:	d0000202 	adrp	x2, 4a000 <_ZTVN11vector_tile10Tile_ValueE+0x30>
    8ad4:	91006274 	add	x20, x19, #0x18
    8ad8:	9100c275 	add	x21, x19, #0x30
    8adc:	d0000201 	adrp	x1, 4a000 <_ZTVN11vector_tile10Tile_ValueE+0x30>
    8ae0:	f946b842 	ldr	x2, [x2, #3440]
    8ae4:	91020021 	add	x1, x1, #0x80
    8ae8:	f0000200 	adrp	x0, 4b000 <__data_start>
    8aec:	91010000 	add	x0, x0, #0x40
    8af0:	f9400043 	ldr	x3, [x2]
    8af4:	f90027e3 	str	x3, [sp, #72]
    8af8:	d2800003 	mov	x3, #0x0                   	// #0
    8afc:	a9007e61 	stp	x1, xzr, [x19]
    8b00:	91028001 	add	x1, x0, #0xa0
    8b04:	b900127f 	str	wzr, [x19, #16]
    8b08:	f9000e7f 	str	xzr, [x19, #24]
    8b0c:	f900069f 	str	xzr, [x20, #8]
    8b10:	f9001a7f 	str	xzr, [x19, #48]
    8b14:	f90006bf 	str	xzr, [x21, #8]
    8b18:	eb01027f 	cmp	x19, x1
    8b1c:	540000a0 	b.eq	8b30 <_ZN11vector_tile12Tile_FeatureC2Ev+0x80>  // b.none
    8b20:	91002001 	add	x1, x0, #0x8
    8b24:	c8dffc21 	ldar	x1, [x1]
    8b28:	f100083f 	cmp	x1, #0x2
    8b2c:	54000221 	b.ne	8b70 <_ZN11vector_tile12Tile_FeatureC2Ev+0xc0>  // b.any
    8b30:	d0000201 	adrp	x1, 4a000 <_ZTVN11vector_tile10Tile_ValueE+0x30>
    8b34:	d0000200 	adrp	x0, 4a000 <_ZTVN11vector_tile10Tile_ValueE+0x30>
    8b38:	b900167f 	str	wzr, [x19, #20]
    8b3c:	f946a421 	ldr	x1, [x1, #3400]
    8b40:	a904fe61 	stp	x1, xzr, [x19, #72]
    8b44:	f946b800 	ldr	x0, [x0, #3440]
    8b48:	b9005a7f 	str	wzr, [x19, #88]
    8b4c:	f94027e2 	ldr	x2, [sp, #72]
    8b50:	f9400001 	ldr	x1, [x0]
    8b54:	eb010042 	subs	x2, x2, x1
    8b58:	d2800001 	mov	x1, #0x0                   	// #0
    8b5c:	54000261 	b.ne	8ba8 <_ZN11vector_tile12Tile_FeatureC2Ev+0xf8>  // b.any
    8b60:	a94153f3 	ldp	x19, x20, [sp, #16]
    8b64:	a9425bf5 	ldp	x21, x22, [sp, #32]
    8b68:	a8c57bfd 	ldp	x29, x30, [sp], #80
    8b6c:	d65f03c0 	ret
    8b70:	d0000202 	adrp	x2, 4a000 <_ZTVN11vector_tile10Tile_ValueE+0x30>
    8b74:	90000003 	adrp	x3, 8000 <_ZN30protobuf_vector_5ftile_2eproto16InitDefaultsTileEv+0x60>
    8b78:	912f8063 	add	x3, x3, #0xbe0
    8b7c:	9100c3f6 	add	x22, sp, #0x30
    8b80:	f9471842 	ldr	x2, [x2, #3632]
    8b84:	91002000 	add	x0, x0, #0x8
    8b88:	aa1603e1 	mov	x1, x22
    8b8c:	390103ff 	strb	wzr, [sp, #64]
    8b90:	91004042 	add	x2, x2, #0x10
    8b94:	a9030fe2 	stp	x2, x3, [sp, #48]
    8b98:	9400264e 	bl	124d0 <_ZN6google8protobuf18GoogleOnceInitImplEPlPNS0_7ClosureE>
    8b9c:	aa1603e0 	mov	x0, x22
    8ba0:	94001e05 	bl	103b4 <_ZN6google8protobuf8internal16FunctionClosure0D1Ev>
    8ba4:	17ffffe3 	b	8b30 <_ZN11vector_tile12Tile_FeatureC2Ev+0x80>
    8ba8:	97ffef5e 	bl	4920 <__stack_chk_fail@plt>
    8bac:	aa0003e1 	mov	x1, x0
    8bb0:	aa1603e0 	mov	x0, x22
    8bb4:	aa0103f6 	mov	x22, x1
    8bb8:	94001dff 	bl	103b4 <_ZN6google8protobuf8internal16FunctionClosure0D1Ev>
    8bbc:	aa1503e0 	mov	x0, x21
    8bc0:	940013c4 	bl	dad0 <_ZN6google8protobuf13RepeatedFieldIjED2Ev>
    8bc4:	aa1403e0 	mov	x0, x20
    8bc8:	940013c2 	bl	dad0 <_ZN6google8protobuf13RepeatedFieldIjED2Ev>
    8bcc:	91002260 	add	x0, x19, #0x8
    8bd0:	9400133c 	bl	d8c0 <_ZN6google8protobuf8internal29InternalMetadataWithArenaBaseINSt7__cxx1112basic_stringIcSt11char_traitsIcESaIcEEENS1_29InternalMetadataWithArenaLiteEED1Ev>
    8bd4:	aa1603e0 	mov	x0, x22
    8bd8:	97fff062 	bl	4d60 <_Unwind_Resume@plt>
    8bdc:	d503201f 	nop

0000000000008be0 <_ZN30protobuf_vector_5ftile_2eproto28InitDefaultsTile_FeatureImplEv>:
    8be0:	a9bf7bfd 	stp	x29, x30, [sp, #-16]!
    8be4:	910003fd 	mov	x29, sp
    8be8:	d50320ff 	xpaclri
    8bec:	aa1e03e0 	mov	x0, x30
    8bf0:	97ffef54 	bl	4940 <_mcount@plt>
    8bf4:	d0000122 	adrp	x2, 2e000 <_ZN6google8protobuf8internal15UTF8GenericScanEPKNS1_19UTF8StateMachineObjEPKciPi>
    8bf8:	529b4901 	mov	w1, #0xda48                	// #55880
    8bfc:	91204042 	add	x2, x2, #0x810
    8c00:	529b4920 	mov	w0, #0xda49                	// #55881
    8c04:	72a005a0 	movk	w0, #0x2d, lsl #16
    8c08:	72a005a1 	movk	w1, #0x2d, lsl #16
    8c0c:	94001f5e 	bl	10984 <_ZN6google8protobuf8internal13VerifyVersionEiiPKc>
    8c10:	94005d08 	bl	20030 <_ZN6google8protobuf8internal20InitProtobufDefaultsEv>
    8c14:	f0000201 	adrp	x1, 4b000 <__data_start>
    8c18:	91010021 	add	x1, x1, #0x40
    8c1c:	91028020 	add	x0, x1, #0xa0
    8c20:	d0000202 	adrp	x2, 4a000 <_ZTVN11vector_tile10Tile_ValueE+0x30>
    8c24:	d0000203 	adrp	x3, 4a000 <_ZTVN11vector_tile10Tile_ValueE+0x30>
    8c28:	91020063 	add	x3, x3, #0x80
    8c2c:	f946a442 	ldr	x2, [x2, #3400]
    8c30:	a900fc1f 	stp	xzr, xzr, [x0, #8]
    8c34:	a901fc1f 	stp	xzr, xzr, [x0, #24]
    8c38:	f900181f 	str	xzr, [x0, #48]
    8c3c:	f9001c1f 	str	xzr, [x0, #56]
    8c40:	f9002402 	str	x2, [x0, #72]
    8c44:	f9005023 	str	x3, [x1, #160]
    8c48:	f900783f 	str	xzr, [x1, #240]
    8c4c:	b900f83f 	str	wzr, [x1, #248]
    8c50:	a8c17bfd 	ldp	x29, x30, [sp], #16
    8c54:	140021df 	b	113d0 <_ZN6google8protobuf8internal24OnShutdownDestroyMessageEPKv>
    8c58:	d503201f 	nop
    8c5c:	d503201f 	nop

0000000000008c60 <_ZNK11vector_tile12Tile_Feature3NewEPN6google8protobuf5ArenaE>:
    8c60:	a9ba7bfd 	stp	x29, x30, [sp, #-96]!
    8c64:	910003fd 	mov	x29, sp
    8c68:	a90153f3 	stp	x19, x20, [sp, #16]
    8c6c:	a9025bf5 	stp	x21, x22, [sp, #32]
    8c70:	d50320ff 	xpaclri
    8c74:	aa0103f4 	mov	x20, x1
    8c78:	aa1e03e0 	mov	x0, x30
    8c7c:	97ffef31 	bl	4940 <_mcount@plt>
    8c80:	d0000201 	adrp	x1, 4a000 <_ZTVN11vector_tile10Tile_ValueE+0x30>
    8c84:	d2800c00 	mov	x0, #0x60                  	// #96
    8c88:	f946b821 	ldr	x1, [x1, #3440]
    8c8c:	f9400022 	ldr	x2, [x1]
    8c90:	f9002fe2 	str	x2, [sp, #88]
    8c94:	d2800002 	mov	x2, #0x0                   	// #0
    8c98:	97ffefb2 	bl	4b60 <_Znwm@plt>
    8c9c:	aa0003f3 	mov	x19, x0
    8ca0:	91006015 	add	x21, x0, #0x18
    8ca4:	9100c016 	add	x22, x0, #0x30
    8ca8:	d0000201 	adrp	x1, 4a000 <_ZTVN11vector_tile10Tile_ValueE+0x30>
    8cac:	91020021 	add	x1, x1, #0x80
    8cb0:	a9007e61 	stp	x1, xzr, [x19]
    8cb4:	f0000200 	adrp	x0, 4b000 <__data_start>
    8cb8:	91010000 	add	x0, x0, #0x40
    8cbc:	b900127f 	str	wzr, [x19, #16]
    8cc0:	91002001 	add	x1, x0, #0x8
    8cc4:	f9000e7f 	str	xzr, [x19, #24]
    8cc8:	f90006bf 	str	xzr, [x21, #8]
    8ccc:	f9001a7f 	str	xzr, [x19, #48]
    8cd0:	f90006df 	str	xzr, [x22, #8]
    8cd4:	c8dffc21 	ldar	x1, [x1]
    8cd8:	f100083f 	cmp	x1, #0x2
    8cdc:	540002c1 	b.ne	8d34 <_ZNK11vector_tile12Tile_Feature3NewEPN6google8protobuf5ArenaE+0xd4>  // b.any
    8ce0:	d0000200 	adrp	x0, 4a000 <_ZTVN11vector_tile10Tile_ValueE+0x30>
    8ce4:	b900167f 	str	wzr, [x19, #20]
    8ce8:	b9005a7f 	str	wzr, [x19, #88]
    8cec:	f946a400 	ldr	x0, [x0, #3400]
    8cf0:	a904fe60 	stp	x0, xzr, [x19, #72]
    8cf4:	b4000094 	cbz	x20, 8d04 <_ZNK11vector_tile12Tile_Feature3NewEPN6google8protobuf5ArenaE+0xa4>
    8cf8:	aa1403e0 	mov	x0, x20
    8cfc:	aa1303e1 	mov	x1, x19
    8d00:	940013d8 	bl	dc60 <_ZN6google8protobuf5Arena3OwnIN11vector_tile12Tile_FeatureEEEvPT_>
    8d04:	d0000200 	adrp	x0, 4a000 <_ZTVN11vector_tile10Tile_ValueE+0x30>
    8d08:	f946b800 	ldr	x0, [x0, #3440]
    8d0c:	f9402fe2 	ldr	x2, [sp, #88]
    8d10:	f9400001 	ldr	x1, [x0]
    8d14:	eb010042 	subs	x2, x2, x1
    8d18:	d2800001 	mov	x1, #0x0                   	// #0
    8d1c:	540002c1 	b.ne	8d74 <_ZNK11vector_tile12Tile_Feature3NewEPN6google8protobuf5ArenaE+0x114>  // b.any
    8d20:	aa1303e0 	mov	x0, x19
    8d24:	a94153f3 	ldp	x19, x20, [sp, #16]
    8d28:	a9425bf5 	ldp	x21, x22, [sp, #32]
    8d2c:	a8c67bfd 	ldp	x29, x30, [sp], #96
    8d30:	d65f03c0 	ret
    8d34:	d0000202 	adrp	x2, 4a000 <_ZTVN11vector_tile10Tile_ValueE+0x30>
    8d38:	90000003 	adrp	x3, 8000 <_ZN30protobuf_vector_5ftile_2eproto16InitDefaultsTileEv+0x60>
    8d3c:	912f8063 	add	x3, x3, #0xbe0
    8d40:	f9001bf7 	str	x23, [sp, #48]
    8d44:	f9471842 	ldr	x2, [x2, #3632]
    8d48:	910103f7 	add	x23, sp, #0x40
    8d4c:	91002000 	add	x0, x0, #0x8
    8d50:	aa1703e1 	mov	x1, x23
    8d54:	91004042 	add	x2, x2, #0x10
    8d58:	a9040fe2 	stp	x2, x3, [sp, #64]
    8d5c:	390143ff 	strb	wzr, [sp, #80]
    8d60:	940025dc 	bl	124d0 <_ZN6google8protobuf18GoogleOnceInitImplEPlPNS0_7ClosureE>
    8d64:	aa1703e0 	mov	x0, x23
    8d68:	94001d93 	bl	103b4 <_ZN6google8protobuf8internal16FunctionClosure0D1Ev>
    8d6c:	f9401bf7 	ldr	x23, [sp, #48]
    8d70:	17ffffdc 	b	8ce0 <_ZNK11vector_tile12Tile_Feature3NewEPN6google8protobuf5ArenaE+0x80>
    8d74:	f9001bf7 	str	x23, [sp, #48]
    8d78:	97ffeeea 	bl	4920 <__stack_chk_fail@plt>
    8d7c:	aa0003f4 	mov	x20, x0
    8d80:	aa1703e0 	mov	x0, x23
    8d84:	94001d8c 	bl	103b4 <_ZN6google8protobuf8internal16FunctionClosure0D1Ev>
    8d88:	aa1603e0 	mov	x0, x22
    8d8c:	94001351 	bl	dad0 <_ZN6google8protobuf13RepeatedFieldIjED2Ev>
    8d90:	aa1503e0 	mov	x0, x21
    8d94:	9400134f 	bl	dad0 <_ZN6google8protobuf13RepeatedFieldIjED2Ev>
    8d98:	91002260 	add	x0, x19, #0x8
    8d9c:	940012c9 	bl	d8c0 <_ZN6google8protobuf8internal29InternalMetadataWithArenaBaseINSt7__cxx1112basic_stringIcSt11char_traitsIcESaIcEEENS1_29InternalMetadataWithArenaLiteEED1Ev>
    8da0:	d2800c01 	mov	x1, #0x60                  	// #96
    8da4:	aa1303e0 	mov	x0, x19
    8da8:	97ffef72 	bl	4b70 <_ZdlPvm@plt>
    8dac:	aa1403e0 	mov	x0, x20
    8db0:	97ffefec 	bl	4d60 <_Unwind_Resume@plt>

0000000000008db4 <_ZN11vector_tile10Tile_Layer12InternalSwapEPS0_>:
    8db4:	a9bd7bfd 	stp	x29, x30, [sp, #-48]!
    8db8:	910003fd 	mov	x29, sp
    8dbc:	a90153f3 	stp	x19, x20, [sp, #16]
    8dc0:	aa0103f4 	mov	x20, x1
    8dc4:	d50320ff 	xpaclri
    8dc8:	aa0003f3 	mov	x19, x0
    8dcc:	aa1e03e0 	mov	x0, x30
    8dd0:	97ffeedc 	bl	4940 <_mcount@plt>
    8dd4:	f9403281 	ldr	x1, [x20, #96]
    8dd8:	f9403260 	ldr	x0, [x19, #96]
    8ddc:	f9003261 	str	x1, [x19, #96]
    8de0:	b9405a81 	ldr	w1, [x20, #88]
    8de4:	f9003280 	str	x0, [x20, #96]
    8de8:	b9405a60 	ldr	w0, [x19, #88]
    8dec:	b9005a61 	str	w1, [x19, #88]
    8df0:	b9005a80 	str	w0, [x20, #88]
    8df4:	b9405e81 	ldr	w1, [x20, #92]
    8df8:	b9405e60 	ldr	w0, [x19, #92]
    8dfc:	b9005e61 	str	w1, [x19, #92]
    8e00:	b9005e80 	str	w0, [x20, #92]
    8e04:	f9403e81 	ldr	x1, [x20, #120]
    8e08:	f9403e60 	ldr	x0, [x19, #120]
    8e0c:	f9003e61 	str	x1, [x19, #120]
    8e10:	b9407281 	ldr	w1, [x20, #112]
    8e14:	f9003e80 	str	x0, [x20, #120]
    8e18:	b9407260 	ldr	w0, [x19, #112]
    8e1c:	b9007261 	str	w1, [x19, #112]
    8e20:	b9007280 	str	w0, [x20, #112]
    8e24:	b9407681 	ldr	w1, [x20, #116]
    8e28:	b9407660 	ldr	w0, [x19, #116]
    8e2c:	b9007661 	str	w1, [x19, #116]
    8e30:	b9007680 	str	w0, [x20, #116]
    8e34:	f9404a81 	ldr	x1, [x20, #144]
    8e38:	f9404a60 	ldr	x0, [x19, #144]
    8e3c:	f9004a61 	str	x1, [x19, #144]
    8e40:	b9408a81 	ldr	w1, [x20, #136]
    8e44:	f9004a80 	str	x0, [x20, #144]
    8e48:	b9408a60 	ldr	w0, [x19, #136]
    8e4c:	b9008a61 	str	w1, [x19, #136]
    8e50:	b9008a80 	str	w0, [x20, #136]
    8e54:	b9408e60 	ldr	w0, [x19, #140]
    8e58:	b9408e81 	ldr	w1, [x20, #140]
    8e5c:	b9008e61 	str	w1, [x19, #140]
    8e60:	b9008e80 	str	w0, [x20, #140]
    8e64:	f9404e81 	ldr	x1, [x20, #152]
    8e68:	f9404e60 	ldr	x0, [x19, #152]
    8e6c:	f9004e61 	str	x1, [x19, #152]
    8e70:	b940a281 	ldr	w1, [x20, #160]
    8e74:	f9004e80 	str	x0, [x20, #152]
    8e78:	b940a260 	ldr	w0, [x19, #160]
    8e7c:	b900a261 	str	w1, [x19, #160]
    8e80:	f9402262 	ldr	x2, [x19, #64]
    8e84:	b900a280 	str	w0, [x20, #160]
    8e88:	b940a681 	ldr	w1, [x20, #164]
    8e8c:	b940a660 	ldr	w0, [x19, #164]
    8e90:	b900a661 	str	w1, [x19, #164]
    8e94:	b900a680 	str	w0, [x20, #164]
    8e98:	b9404a81 	ldr	w1, [x20, #72]
    8e9c:	b9404a60 	ldr	w0, [x19, #72]
    8ea0:	b9004a61 	str	w1, [x19, #72]
    8ea4:	b9004a80 	str	w0, [x20, #72]
    8ea8:	f9402281 	ldr	x1, [x20, #64]
    8eac:	360001e2 	tbz	w2, #0, 8ee8 <_ZN11vector_tile10Tile_Layer12InternalSwapEPS0_+0x134>
    8eb0:	36000221 	tbz	w1, #0, 8ef4 <_ZN11vector_tile10Tile_Layer12InternalSwapEPS0_+0x140>
    8eb4:	927ff821 	and	x1, x1, #0xfffffffffffffffe
    8eb8:	36000282 	tbz	w2, #0, 8f08 <_ZN11vector_tile10Tile_Layer12InternalSwapEPS0_+0x154>
    8ebc:	927ff840 	and	x0, x2, #0xfffffffffffffffe
    8ec0:	97ffef08 	bl	4ae0 <_ZNSt7__cxx1112basic_stringIcSt11char_traitsIcESaIcEE4swapERS4_@plt>
    8ec4:	b9404e83 	ldr	w3, [x20, #76]
    8ec8:	91002281 	add	x1, x20, #0x8
    8ecc:	b9404e62 	ldr	w2, [x19, #76]
    8ed0:	91002260 	add	x0, x19, #0x8
    8ed4:	b9004e63 	str	w3, [x19, #76]
    8ed8:	b9004e82 	str	w2, [x20, #76]
    8edc:	a94153f3 	ldp	x19, x20, [sp, #16]
    8ee0:	a8c37bfd 	ldp	x29, x30, [sp], #48
    8ee4:	14004c9f 	b	1c160 <_ZN6google8protobuf8internal12ExtensionSet4SwapEPS2_>
    8ee8:	3607fee1 	tbz	w1, #0, 8ec4 <_ZN11vector_tile10Tile_Layer12InternalSwapEPS0_+0x110>
    8eec:	927ff821 	and	x1, x1, #0xfffffffffffffffe
    8ef0:	17fffff2 	b	8eb8 <_ZN11vector_tile10Tile_Layer12InternalSwapEPS0_+0x104>
    8ef4:	91010280 	add	x0, x20, #0x40
    8ef8:	94001396 	bl	dd50 <_ZN6google8protobuf8internal29InternalMetadataWithArenaBaseINSt7__cxx1112basic_stringIcSt11char_traitsIcESaIcEEENS1_29InternalMetadataWithArenaLiteEE27mutable_unknown_fields_slowEv>
    8efc:	aa0003e1 	mov	x1, x0
    8f00:	f9402262 	ldr	x2, [x19, #64]
    8f04:	17ffffed 	b	8eb8 <_ZN11vector_tile10Tile_Layer12InternalSwapEPS0_+0x104>
    8f08:	91010260 	add	x0, x19, #0x40
    8f0c:	f90017e1 	str	x1, [sp, #40]
    8f10:	94001390 	bl	dd50 <_ZN6google8protobuf8internal29InternalMetadataWithArenaBaseINSt7__cxx1112basic_stringIcSt11char_traitsIcESaIcEEENS1_29InternalMetadataWithArenaLiteEE27mutable_unknown_fields_slowEv>
    8f14:	f94017e1 	ldr	x1, [sp, #40]
    8f18:	17ffffea 	b	8ec0 <_ZN11vector_tile10Tile_Layer12InternalSwapEPS0_+0x10c>
    8f1c:	d503201f 	nop

0000000000008f20 <_ZN11vector_tile4Tile12InternalSwapEPS0_>:
    8f20:	a9bd7bfd 	stp	x29, x30, [sp, #-48]!
    8f24:	910003fd 	mov	x29, sp
    8f28:	a90153f3 	stp	x19, x20, [sp, #16]
    8f2c:	aa0103f4 	mov	x20, x1
    8f30:	d50320ff 	xpaclri
    8f34:	aa0003f3 	mov	x19, x0
    8f38:	aa1e03e0 	mov	x0, x30
    8f3c:	97ffee81 	bl	4940 <_mcount@plt>
    8f40:	f9403281 	ldr	x1, [x20, #96]
    8f44:	f9403260 	ldr	x0, [x19, #96]
    8f48:	f9003261 	str	x1, [x19, #96]
    8f4c:	b9405a81 	ldr	w1, [x20, #88]
    8f50:	f9003280 	str	x0, [x20, #96]
    8f54:	b9405a60 	ldr	w0, [x19, #88]
    8f58:	b9005a61 	str	w1, [x19, #88]
    8f5c:	f9402262 	ldr	x2, [x19, #64]
    8f60:	b9005a80 	str	w0, [x20, #88]
    8f64:	b9405e81 	ldr	w1, [x20, #92]
    8f68:	b9405e60 	ldr	w0, [x19, #92]
    8f6c:	b9005e61 	str	w1, [x19, #92]
    8f70:	b9005e80 	str	w0, [x20, #92]
    8f74:	b9404a81 	ldr	w1, [x20, #72]
    8f78:	b9404a60 	ldr	w0, [x19, #72]
    8f7c:	b9004a61 	str	w1, [x19, #72]
    8f80:	b9004a80 	str	w0, [x20, #72]
    8f84:	f9402281 	ldr	x1, [x20, #64]
    8f88:	360001e2 	tbz	w2, #0, 8fc4 <_ZN11vector_tile4Tile12InternalSwapEPS0_+0xa4>
    8f8c:	36000221 	tbz	w1, #0, 8fd0 <_ZN11vector_tile4Tile12InternalSwapEPS0_+0xb0>
    8f90:	927ff821 	and	x1, x1, #0xfffffffffffffffe
    8f94:	36000282 	tbz	w2, #0, 8fe4 <_ZN11vector_tile4Tile12InternalSwapEPS0_+0xc4>
    8f98:	927ff840 	and	x0, x2, #0xfffffffffffffffe
    8f9c:	97ffeed1 	bl	4ae0 <_ZNSt7__cxx1112basic_stringIcSt11char_traitsIcESaIcEE4swapERS4_@plt>
    8fa0:	b9404e83 	ldr	w3, [x20, #76]
    8fa4:	91002281 	add	x1, x20, #0x8
    8fa8:	b9404e62 	ldr	w2, [x19, #76]
    8fac:	91002260 	add	x0, x19, #0x8
    8fb0:	b9004e63 	str	w3, [x19, #76]
    8fb4:	b9004e82 	str	w2, [x20, #76]
    8fb8:	a94153f3 	ldp	x19, x20, [sp, #16]
    8fbc:	a8c37bfd 	ldp	x29, x30, [sp], #48
    8fc0:	14004c68 	b	1c160 <_ZN6google8protobuf8internal12ExtensionSet4SwapEPS2_>
    8fc4:	3607fee1 	tbz	w1, #0, 8fa0 <_ZN11vector_tile4Tile12InternalSwapEPS0_+0x80>
    8fc8:	927ff821 	and	x1, x1, #0xfffffffffffffffe
    8fcc:	17fffff2 	b	8f94 <_ZN11vector_tile4Tile12InternalSwapEPS0_+0x74>
    8fd0:	91010280 	add	x0, x20, #0x40
    8fd4:	9400135f 	bl	dd50 <_ZN6google8protobuf8internal29InternalMetadataWithArenaBaseINSt7__cxx1112basic_stringIcSt11char_traitsIcESaIcEEENS1_29InternalMetadataWithArenaLiteEE27mutable_unknown_fields_slowEv>
    8fd8:	aa0003e1 	mov	x1, x0
    8fdc:	f9402262 	ldr	x2, [x19, #64]
    8fe0:	17ffffed 	b	8f94 <_ZN11vector_tile4Tile12InternalSwapEPS0_+0x74>
    8fe4:	91010260 	add	x0, x19, #0x40
    8fe8:	f90017e1 	str	x1, [sp, #40]
    8fec:	94001359 	bl	dd50 <_ZN6google8protobuf8internal29InternalMetadataWithArenaBaseINSt7__cxx1112basic_stringIcSt11char_traitsIcESaIcEEENS1_29InternalMetadataWithArenaLiteEE27mutable_unknown_fields_slowEv>
    8ff0:	f94017e1 	ldr	x1, [sp, #40]
    8ff4:	17ffffea 	b	8f9c <_ZN11vector_tile4Tile12InternalSwapEPS0_+0x7c>
    8ff8:	d503201f 	nop
    8ffc:	d503201f 	nop

0000000000009000 <_ZN11vector_tile10Tile_Value12InternalSwapEPS0_>:
    9000:	a9bd7bfd 	stp	x29, x30, [sp, #-48]!
    9004:	910003fd 	mov	x29, sp
    9008:	a90153f3 	stp	x19, x20, [sp, #16]
    900c:	aa0103f4 	mov	x20, x1
    9010:	d50320ff 	xpaclri
    9014:	aa0003f3 	mov	x19, x0
    9018:	aa1e03e0 	mov	x0, x30
    901c:	97ffee49 	bl	4940 <_mcount@plt>
    9020:	f9402a81 	ldr	x1, [x20, #80]
    9024:	f9402a60 	ldr	x0, [x19, #80]
    9028:	fd402e81 	ldr	d1, [x20, #88]
    902c:	f9002a61 	str	x1, [x19, #80]
    9030:	fd402e60 	ldr	d0, [x19, #88]
    9034:	f9002a80 	str	x0, [x20, #80]
    9038:	f9403281 	ldr	x1, [x20, #96]
    903c:	fd002e61 	str	d1, [x19, #88]
    9040:	f9403260 	ldr	x0, [x19, #96]
    9044:	fd002e80 	str	d0, [x20, #88]
    9048:	bd406a81 	ldr	s1, [x20, #104]
    904c:	f9003261 	str	x1, [x19, #96]
    9050:	bd406a60 	ldr	s0, [x19, #104]
    9054:	f9003280 	str	x0, [x20, #96]
    9058:	3941b281 	ldrb	w1, [x20, #108]
    905c:	bd006a61 	str	s1, [x19, #104]
    9060:	3941b260 	ldrb	w0, [x19, #108]
    9064:	bd006a80 	str	s0, [x20, #104]
    9068:	3901b261 	strb	w1, [x19, #108]
    906c:	3901b280 	strb	w0, [x20, #108]
    9070:	f9403a81 	ldr	x1, [x20, #112]
    9074:	f9403a60 	ldr	x0, [x19, #112]
    9078:	f9003a61 	str	x1, [x19, #112]
    907c:	f9003a80 	str	x0, [x20, #112]
    9080:	f9403e81 	ldr	x1, [x20, #120]
    9084:	f9403e60 	ldr	x0, [x19, #120]
    9088:	f9003e61 	str	x1, [x19, #120]
    908c:	b9404a81 	ldr	w1, [x20, #72]
    9090:	f9003e80 	str	x0, [x20, #120]
    9094:	b9404a60 	ldr	w0, [x19, #72]
    9098:	b9004a61 	str	w1, [x19, #72]
    909c:	b9004a80 	str	w0, [x20, #72]
    90a0:	f9402262 	ldr	x2, [x19, #64]
    90a4:	f9402281 	ldr	x1, [x20, #64]
    90a8:	360001e2 	tbz	w2, #0, 90e4 <_ZN11vector_tile10Tile_Value12InternalSwapEPS0_+0xe4>
    90ac:	36000221 	tbz	w1, #0, 90f0 <_ZN11vector_tile10Tile_Value12InternalSwapEPS0_+0xf0>
    90b0:	927ff821 	and	x1, x1, #0xfffffffffffffffe
    90b4:	36000282 	tbz	w2, #0, 9104 <_ZN11vector_tile10Tile_Value12InternalSwapEPS0_+0x104>
    90b8:	927ff840 	and	x0, x2, #0xfffffffffffffffe
    90bc:	97ffee89 	bl	4ae0 <_ZNSt7__cxx1112basic_stringIcSt11char_traitsIcESaIcEE4swapERS4_@plt>
    90c0:	b9404e83 	ldr	w3, [x20, #76]
    90c4:	91002281 	add	x1, x20, #0x8
    90c8:	b9404e62 	ldr	w2, [x19, #76]
    90cc:	91002260 	add	x0, x19, #0x8
    90d0:	b9004e63 	str	w3, [x19, #76]
    90d4:	b9004e82 	str	w2, [x20, #76]
    90d8:	a94153f3 	ldp	x19, x20, [sp, #16]
    90dc:	a8c37bfd 	ldp	x29, x30, [sp], #48
    90e0:	14004c20 	b	1c160 <_ZN6google8protobuf8internal12ExtensionSet4SwapEPS2_>
    90e4:	3607fee1 	tbz	w1, #0, 90c0 <_ZN11vector_tile10Tile_Value12InternalSwapEPS0_+0xc0>
    90e8:	927ff821 	and	x1, x1, #0xfffffffffffffffe
    90ec:	17fffff2 	b	90b4 <_ZN11vector_tile10Tile_Value12InternalSwapEPS0_+0xb4>
    90f0:	91010280 	add	x0, x20, #0x40
    90f4:	94001317 	bl	dd50 <_ZN6google8protobuf8internal29InternalMetadataWithArenaBaseINSt7__cxx1112basic_stringIcSt11char_traitsIcESaIcEEENS1_29InternalMetadataWithArenaLiteEE27mutable_unknown_fields_slowEv>
    90f8:	aa0003e1 	mov	x1, x0
    90fc:	f9402262 	ldr	x2, [x19, #64]
    9100:	17ffffed 	b	90b4 <_ZN11vector_tile10Tile_Value12InternalSwapEPS0_+0xb4>
    9104:	91010260 	add	x0, x19, #0x40
    9108:	f90017e1 	str	x1, [sp, #40]
    910c:	94001311 	bl	dd50 <_ZN6google8protobuf8internal29InternalMetadataWithArenaBaseINSt7__cxx1112basic_stringIcSt11char_traitsIcESaIcEEENS1_29InternalMetadataWithArenaLiteEE27mutable_unknown_fields_slowEv>
    9110:	f94017e1 	ldr	x1, [sp, #40]
    9114:	17ffffea 	b	90bc <_ZN11vector_tile10Tile_Value12InternalSwapEPS0_+0xbc>
    9118:	d503201f 	nop
    911c:	d503201f 	nop

0000000000009120 <_ZN11vector_tile12Tile_Feature12InternalSwapEPS0_>:
    9120:	a9bd7bfd 	stp	x29, x30, [sp, #-48]!
    9124:	910003fd 	mov	x29, sp
    9128:	a90153f3 	stp	x19, x20, [sp, #16]
    912c:	aa0103f4 	mov	x20, x1
    9130:	d50320ff 	xpaclri
    9134:	aa0003f3 	mov	x19, x0
    9138:	aa1e03e0 	mov	x0, x30
    913c:	97ffee01 	bl	4940 <_mcount@plt>
    9140:	f9401281 	ldr	x1, [x20, #32]
    9144:	f9401260 	ldr	x0, [x19, #32]
    9148:	f9001261 	str	x1, [x19, #32]
    914c:	b9401a81 	ldr	w1, [x20, #24]
    9150:	f9001280 	str	x0, [x20, #32]
    9154:	b9401a60 	ldr	w0, [x19, #24]
    9158:	b9001a61 	str	w1, [x19, #24]
    915c:	b9001a80 	str	w0, [x20, #24]
    9160:	b9401e81 	ldr	w1, [x20, #28]
    9164:	b9401e60 	ldr	w0, [x19, #28]
    9168:	b9001e61 	str	w1, [x19, #28]
    916c:	b9001e80 	str	w0, [x20, #28]
    9170:	f9401e81 	ldr	x1, [x20, #56]
    9174:	f9401e60 	ldr	x0, [x19, #56]
    9178:	f9001e61 	str	x1, [x19, #56]
    917c:	b9403281 	ldr	w1, [x20, #48]
    9180:	f9001e80 	str	x0, [x20, #56]
    9184:	b9403260 	ldr	w0, [x19, #48]
    9188:	b9003261 	str	w1, [x19, #48]
    918c:	b9003280 	str	w0, [x20, #48]
    9190:	b9403681 	ldr	w1, [x20, #52]
    9194:	b9403660 	ldr	w0, [x19, #52]
    9198:	b9003661 	str	w1, [x19, #52]
    919c:	b9003680 	str	w0, [x20, #52]
    91a0:	f9402681 	ldr	x1, [x20, #72]
    91a4:	f9402660 	ldr	x0, [x19, #72]
    91a8:	f9002661 	str	x1, [x19, #72]
    91ac:	f9002680 	str	x0, [x20, #72]
    91b0:	f9402a81 	ldr	x1, [x20, #80]
    91b4:	f9402a60 	ldr	x0, [x19, #80]
    91b8:	f9002a61 	str	x1, [x19, #80]
    91bc:	f9002a80 	str	x0, [x20, #80]
    91c0:	b9405a60 	ldr	w0, [x19, #88]
    91c4:	b9405a81 	ldr	w1, [x20, #88]
    91c8:	b9005a61 	str	w1, [x19, #88]
    91cc:	f9400662 	ldr	x2, [x19, #8]
    91d0:	b9005a80 	str	w0, [x20, #88]
    91d4:	b9401281 	ldr	w1, [x20, #16]
    91d8:	b9401260 	ldr	w0, [x19, #16]
    91dc:	b9001261 	str	w1, [x19, #16]
    91e0:	b9001280 	str	w0, [x20, #16]
    91e4:	f9400681 	ldr	x1, [x20, #8]
    91e8:	360001a2 	tbz	w2, #0, 921c <_ZN11vector_tile12Tile_Feature12InternalSwapEPS0_+0xfc>
    91ec:	360001e1 	tbz	w1, #0, 9228 <_ZN11vector_tile12Tile_Feature12InternalSwapEPS0_+0x108>
    91f0:	927ff821 	and	x1, x1, #0xfffffffffffffffe
    91f4:	36000242 	tbz	w2, #0, 923c <_ZN11vector_tile12Tile_Feature12InternalSwapEPS0_+0x11c>
    91f8:	927ff840 	and	x0, x2, #0xfffffffffffffffe
    91fc:	97ffee39 	bl	4ae0 <_ZNSt7__cxx1112basic_stringIcSt11char_traitsIcESaIcEE4swapERS4_@plt>
    9200:	b9401681 	ldr	w1, [x20, #20]
    9204:	b9401660 	ldr	w0, [x19, #20]
    9208:	b9001661 	str	w1, [x19, #20]
    920c:	b9001680 	str	w0, [x20, #20]
    9210:	a94153f3 	ldp	x19, x20, [sp, #16]
    9214:	a8c37bfd 	ldp	x29, x30, [sp], #48
    9218:	d65f03c0 	ret
    921c:	3607ff21 	tbz	w1, #0, 9200 <_ZN11vector_tile12Tile_Feature12InternalSwapEPS0_+0xe0>
    9220:	927ff821 	and	x1, x1, #0xfffffffffffffffe
    9224:	17fffff4 	b	91f4 <_ZN11vector_tile12Tile_Feature12InternalSwapEPS0_+0xd4>
    9228:	91002280 	add	x0, x20, #0x8
    922c:	940012c9 	bl	dd50 <_ZN6google8protobuf8internal29InternalMetadataWithArenaBaseINSt7__cxx1112basic_stringIcSt11char_traitsIcESaIcEEENS1_29InternalMetadataWithArenaLiteEE27mutable_unknown_fields_slowEv>
    9230:	aa0003e1 	mov	x1, x0
    9234:	f9400662 	ldr	x2, [x19, #8]
    9238:	17ffffef 	b	91f4 <_ZN11vector_tile12Tile_Feature12InternalSwapEPS0_+0xd4>
    923c:	91002260 	add	x0, x19, #0x8
    9240:	f90017e1 	str	x1, [sp, #40]
    9244:	940012c3 	bl	dd50 <_ZN6google8protobuf8internal29InternalMetadataWithArenaBaseINSt7__cxx1112basic_stringIcSt11char_traitsIcESaIcEEENS1_29InternalMetadataWithArenaLiteEE27mutable_unknown_fields_slowEv>
    9248:	f94017e1 	ldr	x1, [sp, #40]
    924c:	17ffffec 	b	91fc <_ZN11vector_tile12Tile_Feature12InternalSwapEPS0_+0xdc>

0000000000009250 <_ZN11vector_tile12Tile_Feature5ClearEv>:
    9250:	a9be7bfd 	stp	x29, x30, [sp, #-32]!
    9254:	910003fd 	mov	x29, sp
    9258:	f9000bf3 	str	x19, [sp, #16]
    925c:	aa0003f3 	mov	x19, x0
    9260:	d50320ff 	xpaclri
    9264:	aa1e03e0 	mov	x0, x30
    9268:	97ffedb6 	bl	4940 <_mcount@plt>
    926c:	b9401260 	ldr	w0, [x19, #16]
    9270:	b9001a7f 	str	wzr, [x19, #24]
    9274:	b900327f 	str	wzr, [x19, #48]
    9278:	360000a0 	tbz	w0, #0, 928c <_ZN11vector_tile12Tile_Feature5ClearEv+0x3c>
    927c:	f9402661 	ldr	x1, [x19, #72]
    9280:	f9400022 	ldr	x2, [x1]
    9284:	f900043f 	str	xzr, [x1, #8]
    9288:	3900005f 	strb	wzr, [x2]
    928c:	721f041f 	tst	w0, #0x6
    9290:	540000e1 	b.ne	92ac <_ZN11vector_tile12Tile_Feature5ClearEv+0x5c>  // b.any
    9294:	f9400660 	ldr	x0, [x19, #8]
    9298:	b900127f 	str	wzr, [x19, #16]
    929c:	37000120 	tbnz	w0, #0, 92c0 <_ZN11vector_tile12Tile_Feature5ClearEv+0x70>
    92a0:	f9400bf3 	ldr	x19, [sp, #16]
    92a4:	a8c27bfd 	ldp	x29, x30, [sp], #32
    92a8:	d65f03c0 	ret
    92ac:	f9400660 	ldr	x0, [x19, #8]
    92b0:	b900127f 	str	wzr, [x19, #16]
    92b4:	f9002a7f 	str	xzr, [x19, #80]
    92b8:	b9005a7f 	str	wzr, [x19, #88]
    92bc:	3607ff20 	tbz	w0, #0, 92a0 <_ZN11vector_tile12Tile_Feature5ClearEv+0x50>
    92c0:	927ff800 	and	x0, x0, #0xfffffffffffffffe
    92c4:	f9400001 	ldr	x1, [x0]
    92c8:	f900041f 	str	xzr, [x0, #8]
    92cc:	3900003f 	strb	wzr, [x1]
    92d0:	f9400bf3 	ldr	x19, [sp, #16]
    92d4:	a8c27bfd 	ldp	x29, x30, [sp], #32
    92d8:	d65f03c0 	ret
    92dc:	d503201f 	nop

00000000000092e0 <_ZN11vector_tile10Tile_Value5ClearEv>:
    92e0:	a9be7bfd 	stp	x29, x30, [sp, #-32]!
    92e4:	910003fd 	mov	x29, sp
    92e8:	f9000bf3 	str	x19, [sp, #16]
    92ec:	aa0003f3 	mov	x19, x0
    92f0:	d50320ff 	xpaclri
    92f4:	aa1e03e0 	mov	x0, x30
    92f8:	97ffed92 	bl	4940 <_mcount@plt>
    92fc:	91002260 	add	x0, x19, #0x8
    9300:	9400372c 	bl	16fb0 <_ZN6google8protobuf8internal12ExtensionSet5ClearEv>
    9304:	b9404a60 	ldr	w0, [x19, #72]
    9308:	360000a0 	tbz	w0, #0, 931c <_ZN11vector_tile10Tile_Value5ClearEv+0x3c>
    930c:	f9402a61 	ldr	x1, [x19, #80]
    9310:	f9400022 	ldr	x2, [x1]
    9314:	f900043f 	str	xzr, [x1, #8]
    9318:	3900005f 	strb	wzr, [x2]
    931c:	721f141f 	tst	w0, #0x7e
    9320:	540000e1 	b.ne	933c <_ZN11vector_tile10Tile_Value5ClearEv+0x5c>  // b.any
    9324:	f9402260 	ldr	x0, [x19, #64]
    9328:	b9004a7f 	str	wzr, [x19, #72]
    932c:	37000140 	tbnz	w0, #0, 9354 <_ZN11vector_tile10Tile_Value5ClearEv+0x74>
    9330:	f9400bf3 	ldr	x19, [sp, #16]
    9334:	a8c27bfd 	ldp	x29, x30, [sp], #32
    9338:	d65f03c0 	ret
    933c:	f9402260 	ldr	x0, [x19, #64]
    9340:	b9004a7f 	str	wzr, [x19, #72]
    9344:	a905fe7f 	stp	xzr, xzr, [x19, #88]
    9348:	a906fe7f 	stp	xzr, xzr, [x19, #104]
    934c:	f9003e7f 	str	xzr, [x19, #120]
    9350:	3607ff00 	tbz	w0, #0, 9330 <_ZN11vector_tile10Tile_Value5ClearEv+0x50>
    9354:	927ff800 	and	x0, x0, #0xfffffffffffffffe
    9358:	f9400001 	ldr	x1, [x0]
    935c:	f900041f 	str	xzr, [x0, #8]
    9360:	3900003f 	strb	wzr, [x1]
    9364:	f9400bf3 	ldr	x19, [sp, #16]
    9368:	a8c27bfd 	ldp	x29, x30, [sp], #32
    936c:	d65f03c0 	ret

0000000000009370 <_ZN11vector_tile4Tile9MergeFromERKS0_>:
    9370:	a9bd7bfd 	stp	x29, x30, [sp, #-48]!
    9374:	910003fd 	mov	x29, sp
    9378:	a90153f3 	stp	x19, x20, [sp, #16]
    937c:	f90013f5 	str	x21, [sp, #32]
    9380:	aa0103f4 	mov	x20, x1
    9384:	d50320ff 	xpaclri
    9388:	aa0003f3 	mov	x19, x0
    938c:	aa1e03e0 	mov	x0, x30
    9390:	97ffed6c 	bl	4940 <_mcount@plt>
    9394:	91002281 	add	x1, x20, #0x8
    9398:	91002260 	add	x0, x19, #0x8
    939c:	94004b59 	bl	1c100 <_ZN6google8protobuf8internal12ExtensionSet9MergeFromERKS2_>
    93a0:	f9402281 	ldr	x1, [x20, #64]
    93a4:	36000181 	tbz	w1, #0, 93d4 <_ZN11vector_tile4Tile9MergeFromERKS0_+0x64>
    93a8:	b0000215 	adrp	x21, 4a000 <_ZTVN11vector_tile10Tile_ValueE+0x30>
    93ac:	f240003f 	tst	x1, #0x1
    93b0:	f9402262 	ldr	x2, [x19, #64]
    93b4:	927ff821 	and	x1, x1, #0xfffffffffffffffe
    93b8:	f946a6b5 	ldr	x21, [x21, #3400]
    93bc:	91010260 	add	x0, x19, #0x40
    93c0:	9a8102b5 	csel	x21, x21, x1, eq  // eq = none
    93c4:	360004a2 	tbz	w2, #0, 9458 <_ZN11vector_tile4Tile9MergeFromERKS0_+0xe8>
    93c8:	927ff840 	and	x0, x2, #0xfffffffffffffffe
    93cc:	a9400aa1 	ldp	x1, x2, [x21]
    93d0:	97ffed4c 	bl	4900 <_ZNSt7__cxx1112basic_stringIcSt11char_traitsIcESaIcEE9_M_appendEPKcm@plt>
    93d4:	b9405a95 	ldr	w21, [x20, #88]
    93d8:	350000b5 	cbnz	w21, 93ec <_ZN11vector_tile4Tile9MergeFromERKS0_+0x7c>
    93dc:	a94153f3 	ldp	x19, x20, [sp, #16]
    93e0:	f94013f5 	ldr	x21, [sp, #32]
    93e4:	a8c37bfd 	ldp	x29, x30, [sp], #48
    93e8:	d65f03c0 	ret
    93ec:	91014273 	add	x19, x19, #0x50
    93f0:	2a1503e1 	mov	w1, w21
    93f4:	aa1303e0 	mov	x0, x19
    93f8:	f9403294 	ldr	x20, [x20, #96]
    93fc:	94007989 	bl	27a20 <_ZN6google8protobuf8internal20RepeatedPtrFieldBase14InternalExtendEi>
    9400:	f9400a65 	ldr	x5, [x19, #16]
    9404:	91002294 	add	x20, x20, #0x8
    9408:	b9400a64 	ldr	w4, [x19, #8]
    940c:	aa0003e1 	mov	x1, x0
    9410:	aa1403e2 	mov	x2, x20
    9414:	aa1303e0 	mov	x0, x19
    9418:	b94000a5 	ldr	w5, [x5]
    941c:	2a1503e3 	mov	w3, w21
    9420:	4b0400a4 	sub	w4, w5, w4
    9424:	9400187b 	bl	f610 <_ZN6google8protobuf8internal20RepeatedPtrFieldBase18MergeFromInnerLoopINS0_16RepeatedPtrFieldIN11vector_tile10Tile_LayerEE11TypeHandlerEEEvPPvSA_ii>
    9428:	f9400a60 	ldr	x0, [x19, #16]
    942c:	b9400a62 	ldr	w2, [x19, #8]
    9430:	b9400001 	ldr	w1, [x0]
    9434:	0b0202b5 	add	w21, w21, w2
    9438:	b9000a75 	str	w21, [x19, #8]
    943c:	6b0102bf 	cmp	w21, w1
    9440:	54fffced 	b.le	93dc <_ZN11vector_tile4Tile9MergeFromERKS0_+0x6c>
    9444:	b9000015 	str	w21, [x0]
    9448:	a94153f3 	ldp	x19, x20, [sp, #16]
    944c:	f94013f5 	ldr	x21, [sp, #32]
    9450:	a8c37bfd 	ldp	x29, x30, [sp], #48
    9454:	d65f03c0 	ret
    9458:	9400123e 	bl	dd50 <_ZN6google8protobuf8internal29InternalMetadataWithArenaBaseINSt7__cxx1112basic_stringIcSt11char_traitsIcESaIcEEENS1_29InternalMetadataWithArenaLiteEE27mutable_unknown_fields_slowEv>
    945c:	17ffffdc 	b	93cc <_ZN11vector_tile4Tile9MergeFromERKS0_+0x5c>

0000000000009460 <_ZN11vector_tile10Tile_ValueC1ERKS0_>:
    9460:	a9bc7bfd 	stp	x29, x30, [sp, #-64]!
    9464:	910003fd 	mov	x29, sp
    9468:	a90153f3 	stp	x19, x20, [sp, #16]
    946c:	a9025bf5 	stp	x21, x22, [sp, #32]
    9470:	f9001bf7 	str	x23, [sp, #48]
    9474:	aa0003f5 	mov	x21, x0
    9478:	d50320ff 	xpaclri
    947c:	aa0003f3 	mov	x19, x0
    9480:	aa0103f4 	mov	x20, x1
    9484:	aa1e03e0 	mov	x0, x30
    9488:	97ffed2e 	bl	4940 <_mcount@plt>
    948c:	90000200 	adrp	x0, 49000 <__FRAME_END__+0x101d8>
    9490:	913f8000 	add	x0, x0, #0xfe0
    9494:	f80086a0 	str	x0, [x21], #8
    9498:	91010277 	add	x23, x19, #0x40
    949c:	aa1503e0 	mov	x0, x21
    94a0:	94002b90 	bl	142e0 <_ZN6google8protobuf8internal12ExtensionSetC1Ev>
    94a4:	b9404a81 	ldr	w1, [x20, #72]
    94a8:	f900227f 	str	xzr, [x19, #64]
    94ac:	29097e61 	stp	w1, wzr, [x19, #72]
    94b0:	f9402280 	ldr	x0, [x20, #64]
    94b4:	36000140 	tbz	w0, #0, 94dc <_ZN11vector_tile10Tile_ValueC1ERKS0_+0x7c>
    94b8:	b0000216 	adrp	x22, 4a000 <_ZTVN11vector_tile10Tile_ValueE+0x30>
    94bc:	f240001f 	tst	x0, #0x1
    94c0:	927ff801 	and	x1, x0, #0xfffffffffffffffe
    94c4:	aa1703e0 	mov	x0, x23
    94c8:	f946a6d6 	ldr	x22, [x22, #3400]
    94cc:	9a8102d6 	csel	x22, x22, x1, eq  // eq = none
    94d0:	94001220 	bl	dd50 <_ZN6google8protobuf8internal29InternalMetadataWithArenaBaseINSt7__cxx1112basic_stringIcSt11char_traitsIcESaIcEEENS1_29InternalMetadataWithArenaLiteEE27mutable_unknown_fields_slowEv>
    94d4:	a9400ac1 	ldp	x1, x2, [x22]
    94d8:	97ffed0a 	bl	4900 <_ZNSt7__cxx1112basic_stringIcSt11char_traitsIcESaIcEE9_M_appendEPKcm@plt>
    94dc:	91002281 	add	x1, x20, #0x8
    94e0:	aa1503e0 	mov	x0, x21
    94e4:	94004b07 	bl	1c100 <_ZN6google8protobuf8internal12ExtensionSet9MergeFromERKS2_>
    94e8:	b0000200 	adrp	x0, 4a000 <_ZTVN11vector_tile10Tile_ValueE+0x30>
    94ec:	b9404a81 	ldr	w1, [x20, #72]
    94f0:	f946a400 	ldr	x0, [x0, #3400]
    94f4:	f9002a60 	str	x0, [x19, #80]
    94f8:	360000c1 	tbz	w1, #0, 9510 <_ZN11vector_tile10Tile_ValueC1ERKS0_+0xb0>
    94fc:	f9402a81 	ldr	x1, [x20, #80]
    9500:	eb00003f 	cmp	x1, x0
    9504:	54000060 	b.eq	9510 <_ZN11vector_tile10Tile_ValueC1ERKS0_+0xb0>  // b.none
    9508:	91014260 	add	x0, x19, #0x50
    950c:	940010a5 	bl	d7a0 <_ZN6google8protobuf8internal14ArenaStringPtr21CreateInstanceNoArenaEPKNSt7__cxx1112basic_stringIcSt11char_traitsIcESaIcEEE>
    9510:	91016294 	add	x20, x20, #0x58
    9514:	91016273 	add	x19, x19, #0x58
    9518:	ad400680 	ldp	q0, q1, [x20]
    951c:	ad000660 	stp	q0, q1, [x19]
    9520:	f9401280 	ldr	x0, [x20, #32]
    9524:	f9001260 	str	x0, [x19, #32]
    9528:	a94153f3 	ldp	x19, x20, [sp, #16]
    952c:	a9425bf5 	ldp	x21, x22, [sp, #32]
    9530:	f9401bf7 	ldr	x23, [sp, #48]
    9534:	a8c47bfd 	ldp	x29, x30, [sp], #64
    9538:	d65f03c0 	ret
    953c:	aa0003f3 	mov	x19, x0
    9540:	aa1703e0 	mov	x0, x23
    9544:	940010df 	bl	d8c0 <_ZN6google8protobuf8internal29InternalMetadataWithArenaBaseINSt7__cxx1112basic_stringIcSt11char_traitsIcESaIcEEENS1_29InternalMetadataWithArenaLiteEED1Ev>
    9548:	aa1503e0 	mov	x0, x21
    954c:	94004049 	bl	19670 <_ZN6google8protobuf8internal12ExtensionSetD1Ev>
    9550:	aa1303e0 	mov	x0, x19
    9554:	97ffee03 	bl	4d60 <_Unwind_Resume@plt>
    9558:	d503201f 	nop
    955c:	d503201f 	nop

0000000000009560 <_ZN11vector_tile4Tile4SwapEPS0_>:
    9560:	a9bd7bfd 	stp	x29, x30, [sp, #-48]!
    9564:	910003fd 	mov	x29, sp
    9568:	a90153f3 	stp	x19, x20, [sp, #16]
    956c:	d50320ff 	xpaclri
    9570:	aa0003f3 	mov	x19, x0
    9574:	aa0103f4 	mov	x20, x1
    9578:	aa1e03e0 	mov	x0, x30
    957c:	97ffecf1 	bl	4940 <_mcount@plt>
    9580:	eb13029f 	cmp	x20, x19
    9584:	540004a0 	b.eq	9618 <_ZN11vector_tile4Tile4SwapEPS0_+0xb8>  // b.none
    9588:	f9403281 	ldr	x1, [x20, #96]
    958c:	f9403260 	ldr	x0, [x19, #96]
    9590:	f9003261 	str	x1, [x19, #96]
    9594:	b9405a81 	ldr	w1, [x20, #88]
    9598:	f9003280 	str	x0, [x20, #96]
    959c:	b9405a60 	ldr	w0, [x19, #88]
    95a0:	b9005a61 	str	w1, [x19, #88]
    95a4:	f9402262 	ldr	x2, [x19, #64]
    95a8:	b9005a80 	str	w0, [x20, #88]
    95ac:	b9405e81 	ldr	w1, [x20, #92]
    95b0:	b9405e60 	ldr	w0, [x19, #92]
    95b4:	b9005e61 	str	w1, [x19, #92]
    95b8:	b9005e80 	str	w0, [x20, #92]
    95bc:	b9404a81 	ldr	w1, [x20, #72]
    95c0:	b9404a60 	ldr	w0, [x19, #72]
    95c4:	b9004a61 	str	w1, [x19, #72]
    95c8:	b9004a80 	str	w0, [x20, #72]
    95cc:	f9402281 	ldr	x1, [x20, #64]
    95d0:	360001e2 	tbz	w2, #0, 960c <_ZN11vector_tile4Tile4SwapEPS0_+0xac>
    95d4:	36000281 	tbz	w1, #0, 9624 <_ZN11vector_tile4Tile4SwapEPS0_+0xc4>
    95d8:	927ff821 	and	x1, x1, #0xfffffffffffffffe
    95dc:	360002e2 	tbz	w2, #0, 9638 <_ZN11vector_tile4Tile4SwapEPS0_+0xd8>
    95e0:	927ff840 	and	x0, x2, #0xfffffffffffffffe
    95e4:	97ffed3f 	bl	4ae0 <_ZNSt7__cxx1112basic_stringIcSt11char_traitsIcESaIcEE4swapERS4_@plt>
    95e8:	b9404e83 	ldr	w3, [x20, #76]
    95ec:	91002281 	add	x1, x20, #0x8
    95f0:	b9404e62 	ldr	w2, [x19, #76]
    95f4:	91002260 	add	x0, x19, #0x8
    95f8:	b9004e63 	str	w3, [x19, #76]
    95fc:	b9004e82 	str	w2, [x20, #76]
    9600:	a94153f3 	ldp	x19, x20, [sp, #16]
    9604:	a8c37bfd 	ldp	x29, x30, [sp], #48
    9608:	14004ad6 	b	1c160 <_ZN6google8protobuf8internal12ExtensionSet4SwapEPS2_>
    960c:	3607fee1 	tbz	w1, #0, 95e8 <_ZN11vector_tile4Tile4SwapEPS0_+0x88>
    9610:	927ff821 	and	x1, x1, #0xfffffffffffffffe
    9614:	17fffff2 	b	95dc <_ZN11vector_tile4Tile4SwapEPS0_+0x7c>
    9618:	a94153f3 	ldp	x19, x20, [sp, #16]
    961c:	a8c37bfd 	ldp	x29, x30, [sp], #48
    9620:	d65f03c0 	ret
    9624:	91010280 	add	x0, x20, #0x40
    9628:	940011ca 	bl	dd50 <_ZN6google8protobuf8internal29InternalMetadataWithArenaBaseINSt7__cxx1112basic_stringIcSt11char_traitsIcESaIcEEENS1_29InternalMetadataWithArenaLiteEE27mutable_unknown_fields_slowEv>
    962c:	aa0003e1 	mov	x1, x0
    9630:	f9402262 	ldr	x2, [x19, #64]
    9634:	17ffffea 	b	95dc <_ZN11vector_tile4Tile4SwapEPS0_+0x7c>
    9638:	91010260 	add	x0, x19, #0x40
    963c:	f90017e1 	str	x1, [sp, #40]
    9640:	940011c4 	bl	dd50 <_ZN6google8protobuf8internal29InternalMetadataWithArenaBaseINSt7__cxx1112basic_stringIcSt11char_traitsIcESaIcEEENS1_29InternalMetadataWithArenaLiteEE27mutable_unknown_fields_slowEv>
    9644:	f94017e1 	ldr	x1, [sp, #40]
    9648:	17ffffe7 	b	95e4 <_ZN11vector_tile4Tile4SwapEPS0_+0x84>
    964c:	d503201f 	nop

0000000000009650 <_ZN11vector_tile10Tile_Value9MergeFromERKS0_>:
    9650:	a9bd7bfd 	stp	x29, x30, [sp, #-48]!
    9654:	910003fd 	mov	x29, sp
    9658:	a90153f3 	stp	x19, x20, [sp, #16]
