
vtile-edit:     file format elf64-littleaarch64


Disassembly of section .init:

0000000000004980 <_init>:
    4980:	d503201f 	nop
    4984:	a9bf7bfd 	stp	x29, x30, [sp, #-16]!
    4988:	910003fd 	mov	x29, sp
    498c:	940002da 	bl	54f4 <call_weak_fn>
    4990:	a8c17bfd 	ldp	x29, x30, [sp], #16
    4994:	d65f03c0 	ret

Disassembly of section .plt:

00000000000049a0 <.plt>:
    49a0:	a9bf7bf0 	stp	x16, x30, [sp, #-16]!
    49a4:	d0000210 	adrp	x16, 46000 <GCC_except_table137+0x10ca0>
    49a8:	f947fe11 	ldr	x17, [x16, #4088]
    49ac:	913fe210 	add	x16, x16, #0xff8
    49b0:	d61f0220 	br	x17
    49b4:	d503201f 	nop
    49b8:	d503201f 	nop
    49bc:	d503201f 	nop

00000000000049c0 <_Znam@plt>:
    49c0:	f0000210 	adrp	x16, 47000 <_Znam@GLIBCXX_3.4>
    49c4:	f9400211 	ldr	x17, [x16]
    49c8:	91000210 	add	x16, x16, #0x0
    49cc:	d61f0220 	br	x17

00000000000049d0 <_ZNSo3putEc@plt>:
    49d0:	f0000210 	adrp	x16, 47000 <_Znam@GLIBCXX_3.4>
    49d4:	f9400611 	ldr	x17, [x16, #8]
    49d8:	91002210 	add	x16, x16, #0x8
    49dc:	d61f0220 	br	x17

00000000000049e0 <memcpy@plt>:
    49e0:	f0000210 	adrp	x16, 47000 <_Znam@GLIBCXX_3.4>
    49e4:	f9400a11 	ldr	x17, [x16, #16]
    49e8:	91004210 	add	x16, x16, #0x10
    49ec:	d61f0220 	br	x17

00000000000049f0 <deflateInit2_@plt>:
    49f0:	f0000210 	adrp	x16, 47000 <_Znam@GLIBCXX_3.4>
    49f4:	f9400e11 	ldr	x17, [x16, #24]
    49f8:	91006210 	add	x16, x16, #0x18
    49fc:	d61f0220 	br	x17

0000000000004a00 <fread@plt>:
    4a00:	f0000210 	adrp	x16, 47000 <_Znam@GLIBCXX_3.4>
    4a04:	f9401211 	ldr	x17, [x16, #32]
    4a08:	91008210 	add	x16, x16, #0x20
    4a0c:	d61f0220 	br	x17

0000000000004a10 <_ZSt29_Rb_tree_insert_and_rebalancebPSt18_Rb_tree_node_baseS0_RS_@plt>:
    4a10:	f0000210 	adrp	x16, 47000 <_Znam@GLIBCXX_3.4>
    4a14:	f9401611 	ldr	x17, [x16, #40]
    4a18:	9100a210 	add	x16, x16, #0x28
    4a1c:	d61f0220 	br	x17

0000000000004a20 <_ZNSt7__cxx1119basic_ostringstreamIcSt11char_traitsIcESaIcEED1Ev@plt>:
    4a20:	f0000210 	adrp	x16, 47000 <_Znam@GLIBCXX_3.4>
    4a24:	f9401a11 	ldr	x17, [x16, #48]
    4a28:	9100c210 	add	x16, x16, #0x30
    4a2c:	d61f0220 	br	x17

0000000000004a30 <_ZSt9terminatev@plt>:
    4a30:	f0000210 	adrp	x16, 47000 <_Znam@GLIBCXX_3.4>
    4a34:	f9401e11 	ldr	x17, [x16, #56]
    4a38:	9100e210 	add	x16, x16, #0x38
    4a3c:	d61f0220 	br	x17

0000000000004a40 <_ZNKSt7__cxx1112basic_stringIcSt11char_traitsIcESaIcEE7compareEPKc@plt>:
    4a40:	f0000210 	adrp	x16, 47000 <_Znam@GLIBCXX_3.4>
    4a44:	f9402211 	ldr	x17, [x16, #64]
    4a48:	91010210 	add	x16, x16, #0x40
    4a4c:	d61f0220 	br	x17

0000000000004a50 <_ZNSt8ios_baseC2Ev@plt>:
    4a50:	f0000210 	adrp	x16, 47000 <_Znam@GLIBCXX_3.4>
    4a54:	f9402611 	ldr	x17, [x16, #72]
    4a58:	91012210 	add	x16, x16, #0x48
    4a5c:	d61f0220 	br	x17

0000000000004a60 <pthread_mutex_lock@plt>:
    4a60:	f0000210 	adrp	x16, 47000 <_Znam@GLIBCXX_3.4>
    4a64:	f9402a11 	ldr	x17, [x16, #80]
    4a68:	91014210 	add	x16, x16, #0x50
    4a6c:	d61f0220 	br	x17

0000000000004a70 <_ZNSt7__cxx1112basic_stringIcSt11char_traitsIcESaIcEE6resizeEmc@plt>:
    4a70:	f0000210 	adrp	x16, 47000 <_Znam@GLIBCXX_3.4>
    4a74:	f9402e11 	ldr	x17, [x16, #88]
    4a78:	91016210 	add	x16, x16, #0x58
    4a7c:	d61f0220 	br	x17

0000000000004a80 <strlen@plt>:
    4a80:	f0000210 	adrp	x16, 47000 <_Znam@GLIBCXX_3.4>
    4a84:	f9403211 	ldr	x17, [x16, #96]
    4a88:	91018210 	add	x16, x16, #0x60
    4a8c:	d61f0220 	br	x17

0000000000004a90 <_ZNSt7__cxx1112basic_stringIcSt11char_traitsIcESaIcEE9_M_appendEPKcm@plt>:
    4a90:	f0000210 	adrp	x16, 47000 <_Znam@GLIBCXX_3.4>
    4a94:	f9403611 	ldr	x17, [x16, #104]
    4a98:	9101a210 	add	x16, x16, #0x68
    4a9c:	d61f0220 	br	x17

0000000000004aa0 <_ZNSt8ios_baseD2Ev@plt>:
    4aa0:	f0000210 	adrp	x16, 47000 <_Znam@GLIBCXX_3.4>
    4aa4:	f9403a11 	ldr	x17, [x16, #112]
    4aa8:	9101c210 	add	x16, x16, #0x70
    4aac:	d61f0220 	br	x17

0000000000004ab0 <__stack_chk_fail@plt>:
    4ab0:	f0000210 	adrp	x16, 47000 <_Znam@GLIBCXX_3.4>
    4ab4:	f9403e11 	ldr	x17, [x16, #120]
    4ab8:	9101e210 	add	x16, x16, #0x78
    4abc:	d61f0220 	br	x17

0000000000004ac0 <ftell@plt>:
    4ac0:	f0000210 	adrp	x16, 47000 <_Znam@GLIBCXX_3.4>
    4ac4:	f9404211 	ldr	x17, [x16, #128]
    4ac8:	91020210 	add	x16, x16, #0x80
    4acc:	d61f0220 	br	x17

0000000000004ad0 <_mcount@plt>:
    4ad0:	f0000210 	adrp	x16, 47000 <_Znam@GLIBCXX_3.4>
    4ad4:	f9404611 	ldr	x17, [x16, #136]
    4ad8:	91022210 	add	x16, x16, #0x88
    4adc:	d61f0220 	br	x17

0000000000004ae0 <_ZSt17__throw_bad_allocv@plt>:
    4ae0:	f0000210 	adrp	x16, 47000 <_Znam@GLIBCXX_3.4>
    4ae4:	f9404a11 	ldr	x17, [x16, #144]
    4ae8:	91024210 	add	x16, x16, #0x90
    4aec:	d61f0220 	br	x17

0000000000004af0 <_ZNSt13runtime_errorC1EPKc@plt>:
    4af0:	f0000210 	adrp	x16, 47000 <_Znam@GLIBCXX_3.4>
    4af4:	f9404e11 	ldr	x17, [x16, #152]
    4af8:	91026210 	add	x16, x16, #0x98
    4afc:	d61f0220 	br	x17

0000000000004b00 <_ZNSt7__cxx1112basic_stringIcSt11char_traitsIcESaIcEEC2EPKcRKS3_@plt>:
    4b00:	f0000210 	adrp	x16, 47000 <_Znam@GLIBCXX_3.4>
    4b04:	f9405211 	ldr	x17, [x16, #160]
    4b08:	91028210 	add	x16, x16, #0xa0
    4b0c:	d61f0220 	br	x17

0000000000004b10 <__cxa_begin_catch@plt>:
    4b10:	f0000210 	adrp	x16, 47000 <_Znam@GLIBCXX_3.4>
    4b14:	f9405611 	ldr	x17, [x16, #168]
    4b18:	9102a210 	add	x16, x16, #0xa8
    4b1c:	d61f0220 	br	x17

0000000000004b20 <deflate@plt>:
    4b20:	f0000210 	adrp	x16, 47000 <_Znam@GLIBCXX_3.4>
    4b24:	f9405a11 	ldr	x17, [x16, #176]
    4b28:	9102c210 	add	x16, x16, #0xb0
    4b2c:	d61f0220 	br	x17

0000000000004b30 <fclose@plt>:
    4b30:	f0000210 	adrp	x16, 47000 <_Znam@GLIBCXX_3.4>
    4b34:	f9405e11 	ldr	x17, [x16, #184]
    4b38:	9102e210 	add	x16, x16, #0xb8
    4b3c:	d61f0220 	br	x17

0000000000004b40 <__cxa_allocate_exception@plt>:
    4b40:	f0000210 	adrp	x16, 47000 <_Znam@GLIBCXX_3.4>
    4b44:	f9406211 	ldr	x17, [x16, #192]
    4b48:	91030210 	add	x16, x16, #0xc0
    4b4c:	d61f0220 	br	x17

0000000000004b50 <memcmp@plt>:
    4b50:	f0000210 	adrp	x16, 47000 <_Znam@GLIBCXX_3.4>
    4b54:	f9406611 	ldr	x17, [x16, #200]
    4b58:	91032210 	add	x16, x16, #0xc8
    4b5c:	d61f0220 	br	x17

0000000000004b60 <strtol@plt>:
    4b60:	f0000210 	adrp	x16, 47000 <_Znam@GLIBCXX_3.4>
    4b64:	f9406a11 	ldr	x17, [x16, #208]
    4b68:	91034210 	add	x16, x16, #0xd0
    4b6c:	d61f0220 	br	x17

0000000000004b70 <_ZSt20__throw_length_errorPKc@plt>:
    4b70:	f0000210 	adrp	x16, 47000 <_Znam@GLIBCXX_3.4>
    4b74:	f9406e11 	ldr	x17, [x16, #216]
    4b78:	91036210 	add	x16, x16, #0xd8
    4b7c:	d61f0220 	br	x17

0000000000004b80 <_ZNSt7__cxx1112basic_stringIcSt11char_traitsIcESaIcEE9_M_assignERKS4_@plt>:
    4b80:	f0000210 	adrp	x16, 47000 <_Znam@GLIBCXX_3.4>
    4b84:	f9407211 	ldr	x17, [x16, #224]
    4b88:	91038210 	add	x16, x16, #0xe0
    4b8c:	d61f0220 	br	x17

0000000000004b90 <memset@plt>:
    4b90:	f0000210 	adrp	x16, 47000 <_Znam@GLIBCXX_3.4>
    4b94:	f9407611 	ldr	x17, [x16, #232]
    4b98:	9103a210 	add	x16, x16, #0xe8
    4b9c:	d61f0220 	br	x17

0000000000004ba0 <pthread_mutex_unlock@plt>:
    4ba0:	f0000210 	adrp	x16, 47000 <_Znam@GLIBCXX_3.4>
    4ba4:	f9407a11 	ldr	x17, [x16, #240]
    4ba8:	9103c210 	add	x16, x16, #0xf0
    4bac:	d61f0220 	br	x17

0000000000004bb0 <__fprintf_chk@plt>:
    4bb0:	f0000210 	adrp	x16, 47000 <_Znam@GLIBCXX_3.4>
    4bb4:	f9407e11 	ldr	x17, [x16, #248]
    4bb8:	9103e210 	add	x16, x16, #0xf8
    4bbc:	d61f0220 	br	x17

0000000000004bc0 <__cxa_finalize@plt>:
    4bc0:	f0000210 	adrp	x16, 47000 <_Znam@GLIBCXX_3.4>
    4bc4:	f9408211 	ldr	x17, [x16, #256]
    4bc8:	91040210 	add	x16, x16, #0x100
    4bcc:	d61f0220 	br	x17

0000000000004bd0 <deflateEnd@plt>:
    4bd0:	f0000210 	adrp	x16, 47000 <_Znam@GLIBCXX_3.4>
    4bd4:	f9408611 	ldr	x17, [x16, #264]
    4bd8:	91042210 	add	x16, x16, #0x108
    4bdc:	d61f0220 	br	x17

0000000000004be0 <__snprintf_chk@plt>:
    4be0:	f0000210 	adrp	x16, 47000 <_Znam@GLIBCXX_3.4>
    4be4:	f9408a11 	ldr	x17, [x16, #272]
    4be8:	91044210 	add	x16, x16, #0x110
    4bec:	d61f0220 	br	x17

0000000000004bf0 <_ZSt28_Rb_tree_rebalance_for_erasePSt18_Rb_tree_node_baseRS_@plt>:
    4bf0:	f0000210 	adrp	x16, 47000 <_Znam@GLIBCXX_3.4>
    4bf4:	f9408e11 	ldr	x17, [x16, #280]
    4bf8:	91046210 	add	x16, x16, #0x118
    4bfc:	d61f0220 	br	x17

0000000000004c00 <_ZSt24__throw_invalid_argumentPKc@plt>:
    4c00:	f0000210 	adrp	x16, 47000 <_Znam@GLIBCXX_3.4>
    4c04:	f9409211 	ldr	x17, [x16, #288]
    4c08:	91048210 	add	x16, x16, #0x120
    4c0c:	d61f0220 	br	x17

0000000000004c10 <_ZNSt7__cxx1112basic_stringIcSt11char_traitsIcESaIcEED1Ev@plt>:
    4c10:	f0000210 	adrp	x16, 47000 <_Znam@GLIBCXX_3.4>
    4c14:	f9409611 	ldr	x17, [x16, #296]
    4c18:	9104a210 	add	x16, x16, #0x128
    4c1c:	d61f0220 	br	x17

0000000000004c20 <pthread_mutex_init@plt>:
    4c20:	f0000210 	adrp	x16, 47000 <_Znam@GLIBCXX_3.4>
    4c24:	f9409a11 	ldr	x17, [x16, #304]
    4c28:	9104c210 	add	x16, x16, #0x130
    4c2c:	d61f0220 	br	x17

0000000000004c30 <_ZNSo9_M_insertImEERSoT_@plt>:
    4c30:	f0000210 	adrp	x16, 47000 <_Znam@GLIBCXX_3.4>
    4c34:	f9409e11 	ldr	x17, [x16, #312]
    4c38:	9104e210 	add	x16, x16, #0x138
    4c3c:	d61f0220 	br	x17

0000000000004c40 <_ZNSo5flushEv@plt>:
    4c40:	f0000210 	adrp	x16, 47000 <_Znam@GLIBCXX_3.4>
    4c44:	f940a211 	ldr	x17, [x16, #320]
    4c48:	91050210 	add	x16, x16, #0x140
    4c4c:	d61f0220 	br	x17

0000000000004c50 <_ZSt18_Rb_tree_incrementPSt18_Rb_tree_node_base@plt>:
    4c50:	f0000210 	adrp	x16, 47000 <_Znam@GLIBCXX_3.4>
    4c54:	f940a611 	ldr	x17, [x16, #328]
    4c58:	91052210 	add	x16, x16, #0x148
    4c5c:	d61f0220 	br	x17

0000000000004c60 <strerror@plt>:
    4c60:	f0000210 	adrp	x16, 47000 <_Znam@GLIBCXX_3.4>
    4c64:	f940aa11 	ldr	x17, [x16, #336]
    4c68:	91054210 	add	x16, x16, #0x150
    4c6c:	d61f0220 	br	x17

0000000000004c70 <_ZNKSt8__detail20_Prime_rehash_policy11_M_next_bktEm@plt>:
    4c70:	f0000210 	adrp	x16, 47000 <_Znam@GLIBCXX_3.4>
    4c74:	f940ae11 	ldr	x17, [x16, #344]
    4c78:	91056210 	add	x16, x16, #0x158
    4c7c:	d61f0220 	br	x17

0000000000004c80 <_ZSt19__throw_logic_errorPKc@plt>:
    4c80:	f0000210 	adrp	x16, 47000 <_Znam@GLIBCXX_3.4>
    4c84:	f940b211 	ldr	x17, [x16, #352]
    4c88:	91058210 	add	x16, x16, #0x160
    4c8c:	d61f0220 	br	x17

0000000000004c90 <_ZNSt7__cxx1112basic_stringIcSt11char_traitsIcESaIcEE4swapERS4_@plt>:
    4c90:	f0000210 	adrp	x16, 47000 <_Znam@GLIBCXX_3.4>
    4c94:	f940b611 	ldr	x17, [x16, #360]
    4c98:	9105a210 	add	x16, x16, #0x168
    4c9c:	d61f0220 	br	x17

0000000000004ca0 <__cxa_free_exception@plt>:
    4ca0:	f0000210 	adrp	x16, 47000 <_Znam@GLIBCXX_3.4>
    4ca4:	f940ba11 	ldr	x17, [x16, #368]
    4ca8:	9105c210 	add	x16, x16, #0x170
    4cac:	d61f0220 	br	x17

0000000000004cb0 <__libc_start_main@plt>:
    4cb0:	f0000210 	adrp	x16, 47000 <_Znam@GLIBCXX_3.4>
    4cb4:	f940be11 	ldr	x17, [x16, #376]
    4cb8:	9105e210 	add	x16, x16, #0x178
    4cbc:	d61f0220 	br	x17

0000000000004cc0 <_ZSt28__throw_bad_array_new_lengthv@plt>:
    4cc0:	f0000210 	adrp	x16, 47000 <_Znam@GLIBCXX_3.4>
    4cc4:	f940c211 	ldr	x17, [x16, #384]
    4cc8:	91060210 	add	x16, x16, #0x180
    4ccc:	d61f0220 	br	x17

0000000000004cd0 <inflate@plt>:
    4cd0:	f0000210 	adrp	x16, 47000 <_Znam@GLIBCXX_3.4>
    4cd4:	f940c611 	ldr	x17, [x16, #392]
    4cd8:	91062210 	add	x16, x16, #0x188
    4cdc:	d61f0220 	br	x17

0000000000004ce0 <_ZNSt13basic_filebufIcSt11char_traitsIcEED2Ev@plt>:
    4ce0:	f0000210 	adrp	x16, 47000 <_Znam@GLIBCXX_3.4>
    4ce4:	f940ca11 	ldr	x17, [x16, #400]
    4ce8:	91064210 	add	x16, x16, #0x190
    4cec:	d61f0220 	br	x17

0000000000004cf0 <inflateInit2_@plt>:
    4cf0:	f0000210 	adrp	x16, 47000 <_Znam@GLIBCXX_3.4>
    4cf4:	f940ce11 	ldr	x17, [x16, #408]
    4cf8:	91066210 	add	x16, x16, #0x198
    4cfc:	d61f0220 	br	x17

0000000000004d00 <_ZdlPv@plt>:
    4d00:	f0000210 	adrp	x16, 47000 <_Znam@GLIBCXX_3.4>
    4d04:	f940d211 	ldr	x17, [x16, #416]
    4d08:	91068210 	add	x16, x16, #0x1a0
    4d0c:	d61f0220 	br	x17

0000000000004d10 <_ZStlsISt11char_traitsIcEERSt13basic_ostreamIcT_ES5_PKc@plt>:
    4d10:	f0000210 	adrp	x16, 47000 <_Znam@GLIBCXX_3.4>
    4d14:	f940d611 	ldr	x17, [x16, #424]
    4d18:	9106a210 	add	x16, x16, #0x1a8
    4d1c:	d61f0220 	br	x17

0000000000004d20 <_Znwm@plt>:
    4d20:	f0000210 	adrp	x16, 47000 <_Znam@GLIBCXX_3.4>
    4d24:	f940da11 	ldr	x17, [x16, #432]
    4d28:	9106c210 	add	x16, x16, #0x1b0
    4d2c:	d61f0220 	br	x17

0000000000004d30 <_ZSt18_Rb_tree_decrementPSt18_Rb_tree_node_base@plt>:
    4d30:	f0000210 	adrp	x16, 47000 <_Znam@GLIBCXX_3.4>
    4d34:	f940de11 	ldr	x17, [x16, #440]
    4d38:	9106e210 	add	x16, x16, #0x1b8
    4d3c:	d61f0220 	br	x17

0000000000004d40 <inflateEnd@plt>:
    4d40:	f0000210 	adrp	x16, 47000 <_Znam@GLIBCXX_3.4>
    4d44:	f940e211 	ldr	x17, [x16, #448]
    4d48:	91070210 	add	x16, x16, #0x1c0
    4d4c:	d61f0220 	br	x17

0000000000004d50 <__cxa_atexit@plt>:
    4d50:	f0000210 	adrp	x16, 47000 <_Znam@GLIBCXX_3.4>
    4d54:	f940e611 	ldr	x17, [x16, #456]
    4d58:	91072210 	add	x16, x16, #0x1c8
    4d5c:	d61f0220 	br	x17

0000000000004d60 <_ZSt16__ostream_insertIcSt11char_traitsIcEERSt13basic_ostreamIT_T0_ES6_PKS3_l@plt>:
    4d60:	f0000210 	adrp	x16, 47000 <_Znam@GLIBCXX_3.4>
    4d64:	f940ea11 	ldr	x17, [x16, #464]
    4d68:	91074210 	add	x16, x16, #0x1d0
    4d6c:	d61f0220 	br	x17

0000000000004d70 <_ZNKSt5ctypeIcE13_M_widen_initEv@plt>:
    4d70:	f0000210 	adrp	x16, 47000 <_Znam@GLIBCXX_3.4>
    4d74:	f940ee11 	ldr	x17, [x16, #472]
    4d78:	91076210 	add	x16, x16, #0x1d8
    4d7c:	d61f0220 	br	x17

0000000000004d80 <_ZSt18_Rb_tree_incrementPKSt18_Rb_tree_node_base@plt>:
    4d80:	f0000210 	adrp	x16, 47000 <_Znam@GLIBCXX_3.4>
    4d84:	f940f211 	ldr	x17, [x16, #480]
    4d88:	91078210 	add	x16, x16, #0x1e0
    4d8c:	d61f0220 	br	x17

0000000000004d90 <__vsnprintf_chk@plt>:
    4d90:	f0000210 	adrp	x16, 47000 <_Znam@GLIBCXX_3.4>
    4d94:	f940f611 	ldr	x17, [x16, #488]
    4d98:	9107a210 	add	x16, x16, #0x1e8
    4d9c:	d61f0220 	br	x17

0000000000004da0 <fflush@plt>:
    4da0:	f0000210 	adrp	x16, 47000 <_Znam@GLIBCXX_3.4>
    4da4:	f940fa11 	ldr	x17, [x16, #496]
    4da8:	9107c210 	add	x16, x16, #0x1f0
    4dac:	d61f0220 	br	x17

0000000000004db0 <memmove@plt>:
    4db0:	f0000210 	adrp	x16, 47000 <_Znam@GLIBCXX_3.4>
    4db4:	f940fe11 	ldr	x17, [x16, #504]
    4db8:	9107e210 	add	x16, x16, #0x1f8
    4dbc:	d61f0220 	br	x17

0000000000004dc0 <_ZSt16__throw_bad_castv@plt>:
    4dc0:	f0000210 	adrp	x16, 47000 <_Znam@GLIBCXX_3.4>
    4dc4:	f9410211 	ldr	x17, [x16, #512]
    4dc8:	91080210 	add	x16, x16, #0x200
    4dcc:	d61f0220 	br	x17

0000000000004dd0 <_ZdaPv@plt>:
    4dd0:	f0000210 	adrp	x16, 47000 <_Znam@GLIBCXX_3.4>
    4dd4:	f9410611 	ldr	x17, [x16, #520]
    4dd8:	91082210 	add	x16, x16, #0x208
    4ddc:	d61f0220 	br	x17

0000000000004de0 <__errno_location@plt>:
    4de0:	f0000210 	adrp	x16, 47000 <_Znam@GLIBCXX_3.4>
    4de4:	f9410a11 	ldr	x17, [x16, #528]
    4de8:	91084210 	add	x16, x16, #0x210
    4dec:	d61f0220 	br	x17

0000000000004df0 <sched_yield@plt>:
    4df0:	f0000210 	adrp	x16, 47000 <_Znam@GLIBCXX_3.4>
    4df4:	f9410e11 	ldr	x17, [x16, #536]
    4df8:	91086210 	add	x16, x16, #0x218
    4dfc:	d61f0220 	br	x17

0000000000004e00 <_ZNKSt8__detail20_Prime_rehash_policy14_M_need_rehashEmmm@plt>:
    4e00:	f0000210 	adrp	x16, 47000 <_Znam@GLIBCXX_3.4>
    4e04:	f9411211 	ldr	x17, [x16, #544]
    4e08:	91088210 	add	x16, x16, #0x220
    4e0c:	d61f0220 	br	x17

0000000000004e10 <_ZNSt9basic_iosIcSt11char_traitsIcEE4initEPSt15basic_streambufIcS1_E@plt>:
    4e10:	f0000210 	adrp	x16, 47000 <_Znam@GLIBCXX_3.4>
    4e14:	f9411611 	ldr	x17, [x16, #552]
    4e18:	9108a210 	add	x16, x16, #0x228
    4e1c:	d61f0220 	br	x17

0000000000004e20 <_ZNSt6localeD1Ev@plt>:
    4e20:	f0000210 	adrp	x16, 47000 <_Znam@GLIBCXX_3.4>
    4e24:	f9411a11 	ldr	x17, [x16, #560]
    4e28:	9108c210 	add	x16, x16, #0x230
    4e2c:	d61f0220 	br	x17

0000000000004e30 <fopen@plt>:
    4e30:	f0000210 	adrp	x16, 47000 <_Znam@GLIBCXX_3.4>
    4e34:	f9411e11 	ldr	x17, [x16, #568]
    4e38:	9108e210 	add	x16, x16, #0x238
    4e3c:	d61f0220 	br	x17

0000000000004e40 <_ZSt20__throw_out_of_rangePKc@plt>:
    4e40:	f0000210 	adrp	x16, 47000 <_Znam@GLIBCXX_3.4>
    4e44:	f9412211 	ldr	x17, [x16, #576]
    4e48:	91090210 	add	x16, x16, #0x240
    4e4c:	d61f0220 	br	x17

0000000000004e50 <__cxa_rethrow@plt>:
    4e50:	f0000210 	adrp	x16, 47000 <_Znam@GLIBCXX_3.4>
    4e54:	f9412611 	ldr	x17, [x16, #584]
    4e58:	91092210 	add	x16, x16, #0x248
    4e5c:	d61f0220 	br	x17

0000000000004e60 <_ZNSt14basic_ofstreamIcSt11char_traitsIcEED1Ev@plt>:
    4e60:	f0000210 	adrp	x16, 47000 <_Znam@GLIBCXX_3.4>
    4e64:	f9412a11 	ldr	x17, [x16, #592]
    4e68:	91094210 	add	x16, x16, #0x250
    4e6c:	d61f0220 	br	x17

0000000000004e70 <_ZNSt8ios_base4InitC1Ev@plt>:
    4e70:	f0000210 	adrp	x16, 47000 <_Znam@GLIBCXX_3.4>
    4e74:	f9412e11 	ldr	x17, [x16, #600]
    4e78:	91096210 	add	x16, x16, #0x258
    4e7c:	d61f0220 	br	x17

0000000000004e80 <_ZNSt7__cxx1112basic_stringIcSt11char_traitsIcESaIcEE10_M_replaceEmmPKcm@plt>:
    4e80:	f0000210 	adrp	x16, 47000 <_Znam@GLIBCXX_3.4>
    4e84:	f9413211 	ldr	x17, [x16, #608]
    4e88:	91098210 	add	x16, x16, #0x260
    4e8c:	d61f0220 	br	x17

0000000000004e90 <_ZNSt7__cxx1112basic_stringIcSt11char_traitsIcESaIcEE7reserveEm@plt>:
    4e90:	f0000210 	adrp	x16, 47000 <_Znam@GLIBCXX_3.4>
    4e94:	f9413611 	ldr	x17, [x16, #616]
    4e98:	9109a210 	add	x16, x16, #0x268
    4e9c:	d61f0220 	br	x17

0000000000004ea0 <abort@plt>:
    4ea0:	f0000210 	adrp	x16, 47000 <_Znam@GLIBCXX_3.4>
    4ea4:	f9413a11 	ldr	x17, [x16, #624]
    4ea8:	9109c210 	add	x16, x16, #0x270
    4eac:	d61f0220 	br	x17

0000000000004eb0 <_ZNSt13runtime_errorC1ERKNSt7__cxx1112basic_stringIcSt11char_traitsIcESaIcEEE@plt>:
    4eb0:	f0000210 	adrp	x16, 47000 <_Znam@GLIBCXX_3.4>
    4eb4:	f9413e11 	ldr	x17, [x16, #632]
    4eb8:	9109e210 	add	x16, x16, #0x278
    4ebc:	d61f0220 	br	x17

0000000000004ec0 <__cxa_end_catch@plt>:
    4ec0:	f0000210 	adrp	x16, 47000 <_Znam@GLIBCXX_3.4>
    4ec4:	f9414211 	ldr	x17, [x16, #640]
    4ec8:	910a0210 	add	x16, x16, #0x280
    4ecc:	d61f0220 	br	x17

0000000000004ed0 <pthread_mutex_destroy@plt>:
    4ed0:	f0000210 	adrp	x16, 47000 <_Znam@GLIBCXX_3.4>
    4ed4:	f9414611 	ldr	x17, [x16, #648]
    4ed8:	910a2210 	add	x16, x16, #0x288
    4edc:	d61f0220 	br	x17

0000000000004ee0 <__gxx_personality_v0@plt>:
    4ee0:	f0000210 	adrp	x16, 47000 <_Znam@GLIBCXX_3.4>
    4ee4:	f9414a11 	ldr	x17, [x16, #656]
    4ee8:	910a4210 	add	x16, x16, #0x290
    4eec:	d61f0220 	br	x17

0000000000004ef0 <__cxa_throw@plt>:
    4ef0:	f0000210 	adrp	x16, 47000 <_Znam@GLIBCXX_3.4>
    4ef4:	f9414e11 	ldr	x17, [x16, #664]
    4ef8:	910a6210 	add	x16, x16, #0x298
    4efc:	d61f0220 	br	x17

0000000000004f00 <_Unwind_Resume@plt>:
    4f00:	f0000210 	adrp	x16, 47000 <_Znam@GLIBCXX_3.4>
    4f04:	f9415211 	ldr	x17, [x16, #672]
    4f08:	910a8210 	add	x16, x16, #0x2a0
    4f0c:	d61f0220 	br	x17

0000000000004f10 <_ZNSt7__cxx1112basic_stringIcSt11char_traitsIcESaIcEE9_M_createERmm@plt>:
    4f10:	f0000210 	adrp	x16, 47000 <_Znam@GLIBCXX_3.4>
    4f14:	f9415611 	ldr	x17, [x16, #680]
    4f18:	910aa210 	add	x16, x16, #0x2a8
    4f1c:	d61f0220 	br	x17

0000000000004f20 <_ZNSt9exceptionD2Ev@plt>:
    4f20:	f0000210 	adrp	x16, 47000 <_Znam@GLIBCXX_3.4>
    4f24:	f9415a11 	ldr	x17, [x16, #688]
    4f28:	910ac210 	add	x16, x16, #0x2b0
    4f2c:	d61f0220 	br	x17

0000000000004f30 <_ZNSt7__cxx1112basic_stringIcSt11char_traitsIcESaIcEE14_M_replace_auxEmmmc@plt>:
    4f30:	f0000210 	adrp	x16, 47000 <_Znam@GLIBCXX_3.4>
    4f34:	f9415e11 	ldr	x17, [x16, #696]
    4f38:	910ae210 	add	x16, x16, #0x2b8
    4f3c:	d61f0220 	br	x17

0000000000004f40 <__gmon_start__@plt>:
    4f40:	f0000210 	adrp	x16, 47000 <_Znam@GLIBCXX_3.4>
    4f44:	f9416211 	ldr	x17, [x16, #704]
    4f48:	910b0210 	add	x16, x16, #0x2c0
    4f4c:	d61f0220 	br	x17

0000000000004f50 <__cxa_pure_virtual@plt>:
    4f50:	f0000210 	adrp	x16, 47000 <_Znam@GLIBCXX_3.4>
    4f54:	f9416611 	ldr	x17, [x16, #712]
    4f58:	910b2210 	add	x16, x16, #0x2c8
    4f5c:	d61f0220 	br	x17

0000000000004f60 <_ZNSt14basic_ofstreamIcSt11char_traitsIcEEC1ERKNSt7__cxx1112basic_stringIcS1_SaIcEEESt13_Ios_Openmode@plt>:
    4f60:	f0000210 	adrp	x16, 47000 <_Znam@GLIBCXX_3.4>
    4f64:	f9416a11 	ldr	x17, [x16, #720]
    4f68:	910b4210 	add	x16, x16, #0x2d0
    4f6c:	d61f0220 	br	x17

0000000000004f70 <fseek@plt>:
    4f70:	f0000210 	adrp	x16, 47000 <_Znam@GLIBCXX_3.4>
    4f74:	f9416e11 	ldr	x17, [x16, #728]
    4f78:	910b6210 	add	x16, x16, #0x2d8
    4f7c:	d61f0220 	br	x17

0000000000004f80 <_ZNSt6localeC1Ev@plt>:
    4f80:	f0000210 	adrp	x16, 47000 <_Znam@GLIBCXX_3.4>
    4f84:	f9417211 	ldr	x17, [x16, #736]
    4f88:	910b8210 	add	x16, x16, #0x2e0
    4f8c:	d61f0220 	br	x17

Disassembly of section .text:

0000000000004fc0 <_GLOBAL__sub_I_vtile_edit.cpp>:
    4fc0:	a9be7bfd 	stp	x29, x30, [sp, #-32]!
    4fc4:	f9000bf3 	str	x19, [sp, #16]
    4fc8:	910003fd 	mov	x29, sp
    4fcc:	f0000213 	adrp	x19, 47000 <_Znam@GLIBCXX_3.4>
    4fd0:	910c6673 	add	x19, x19, #0x319
    4fd4:	aa1303e0 	mov	x0, x19
    4fd8:	97ffffa6 	bl	4e70 <_ZNSt8ios_base4InitC1Ev@plt>
    4fdc:	d0000200 	adrp	x0, 46000 <GCC_except_table137+0x10ca0>
    4fe0:	f0000202 	adrp	x2, 47000 <_Znam@GLIBCXX_3.4>
    4fe4:	910bc042 	add	x2, x2, #0x2f0
    4fe8:	f947f000 	ldr	x0, [x0, #4064]
    4fec:	aa1303e1 	mov	x1, x19
    4ff0:	f9400bf3 	ldr	x19, [sp, #16]
    4ff4:	a8c27bfd 	ldp	x29, x30, [sp], #32
    4ff8:	17ffff56 	b	4d50 <__cxa_atexit@plt>

0000000000004ffc <_GLOBAL__sub_I_vector_tile.pb.cc>:
    4ffc:	a9be7bfd 	stp	x29, x30, [sp, #-32]!
    5000:	f9000bf3 	str	x19, [sp, #16]
    5004:	910003fd 	mov	x29, sp
    5008:	97fffeb2 	bl	4ad0 <_mcount@plt>
    500c:	d0000213 	adrp	x19, 47000 <_Znam@GLIBCXX_3.4>
    5010:	910c8273 	add	x19, x19, #0x320
    5014:	aa1303e0 	mov	x0, x19
    5018:	97ffff96 	bl	4e70 <_ZNSt8ios_base4InitC1Ev@plt>
    501c:	b0000200 	adrp	x0, 46000 <GCC_except_table137+0x10ca0>
    5020:	d0000202 	adrp	x2, 47000 <_Znam@GLIBCXX_3.4>
    5024:	910bc042 	add	x2, x2, #0x2f0
    5028:	f947f000 	ldr	x0, [x0, #4064]
    502c:	aa1303e1 	mov	x1, x19
    5030:	f9400bf3 	ldr	x19, [sp, #16]
    5034:	a8c27bfd 	ldp	x29, x30, [sp], #32
    5038:	17ffff46 	b	4d50 <__cxa_atexit@plt>
    503c:	d503201f 	nop

0000000000005040 <_GLOBAL__sub_I_common.cc>:
    5040:	a9be7bfd 	stp	x29, x30, [sp, #-32]!
    5044:	910003fd 	mov	x29, sp
    5048:	f9000bf3 	str	x19, [sp, #16]
    504c:	d0000213 	adrp	x19, 47000 <_Znam@GLIBCXX_3.4>
    5050:	9114e273 	add	x19, x19, #0x538
    5054:	91004273 	add	x19, x19, #0x10
    5058:	aa1303e0 	mov	x0, x19
    505c:	97ffff85 	bl	4e70 <_ZNSt8ios_base4InitC1Ev@plt>
    5060:	aa1303e1 	mov	x1, x19
    5064:	b0000200 	adrp	x0, 46000 <GCC_except_table137+0x10ca0>
    5068:	f9400bf3 	ldr	x19, [sp, #16]
    506c:	d0000202 	adrp	x2, 47000 <_Znam@GLIBCXX_3.4>
    5070:	a8c27bfd 	ldp	x29, x30, [sp], #32
    5074:	910bc042 	add	x2, x2, #0x2f0
    5078:	f947f000 	ldr	x0, [x0, #4064]
    507c:	17ffff35 	b	4d50 <__cxa_atexit@plt>

0000000000005080 <_GLOBAL__sub_I_int128.cc>:
    5080:	a9be7bfd 	stp	x29, x30, [sp, #-32]!
    5084:	910003fd 	mov	x29, sp
    5088:	f9000bf3 	str	x19, [sp, #16]
    508c:	d0000213 	adrp	x19, 47000 <_Znam@GLIBCXX_3.4>
    5090:	9115a273 	add	x19, x19, #0x568
    5094:	aa1303e0 	mov	x0, x19
    5098:	97ffff76 	bl	4e70 <_ZNSt8ios_base4InitC1Ev@plt>
    509c:	aa1303e1 	mov	x1, x19
    50a0:	b0000200 	adrp	x0, 46000 <GCC_except_table137+0x10ca0>
    50a4:	f9400bf3 	ldr	x19, [sp, #16]
    50a8:	d0000202 	adrp	x2, 47000 <_Znam@GLIBCXX_3.4>
    50ac:	a8c27bfd 	ldp	x29, x30, [sp], #32
    50b0:	910bc042 	add	x2, x2, #0x2f0
    50b4:	f947f000 	ldr	x0, [x0, #4064]
    50b8:	17ffff26 	b	4d50 <__cxa_atexit@plt>
    50bc:	d503201f 	nop

00000000000050c0 <_GLOBAL__sub_I_once.cc>:
    50c0:	a9be7bfd 	stp	x29, x30, [sp, #-32]!
    50c4:	910003fd 	mov	x29, sp
    50c8:	f9000bf3 	str	x19, [sp, #16]
    50cc:	d0000213 	adrp	x19, 47000 <_Znam@GLIBCXX_3.4>
    50d0:	9115c273 	add	x19, x19, #0x570
    50d4:	aa1303e0 	mov	x0, x19
    50d8:	97ffff66 	bl	4e70 <_ZNSt8ios_base4InitC1Ev@plt>
    50dc:	aa1303e1 	mov	x1, x19
    50e0:	b0000200 	adrp	x0, 46000 <GCC_except_table137+0x10ca0>
    50e4:	f9400bf3 	ldr	x19, [sp, #16]
    50e8:	d0000202 	adrp	x2, 47000 <_Znam@GLIBCXX_3.4>
    50ec:	a8c27bfd 	ldp	x29, x30, [sp], #32
    50f0:	910bc042 	add	x2, x2, #0x2f0
    50f4:	f947f000 	ldr	x0, [x0, #4064]
    50f8:	17ffff16 	b	4d50 <__cxa_atexit@plt>
    50fc:	d503201f 	nop

0000000000005100 <_GLOBAL__sub_I_status.cc>:
    5100:	a9bd7bfd 	stp	x29, x30, [sp, #-48]!
    5104:	910003fd 	mov	x29, sp
    5108:	a90153f3 	stp	x19, x20, [sp, #16]
    510c:	d0000214 	adrp	x20, 47000 <_Znam@GLIBCXX_3.4>
    5110:	9115e294 	add	x20, x20, #0x578
    5114:	aa1403e0 	mov	x0, x20
    5118:	a9025bf5 	stp	x21, x22, [sp, #32]
    511c:	97ffff55 	bl	4e70 <_ZNSt8ios_base4InitC1Ev@plt>
    5120:	b0000200 	adrp	x0, 46000 <GCC_except_table137+0x10ca0>
    5124:	b0000215 	adrp	x21, 46000 <GCC_except_table137+0x10ca0>
    5128:	d0000213 	adrp	x19, 47000 <_Znam@GLIBCXX_3.4>
    512c:	910bc273 	add	x19, x19, #0x2f0
    5130:	f947f000 	ldr	x0, [x0, #4064]
    5134:	aa1403e1 	mov	x1, x20
    5138:	aa1303e2 	mov	x2, x19
    513c:	b0000214 	adrp	x20, 46000 <GCC_except_table137+0x10ca0>
    5140:	d0000136 	adrp	x22, 2b000 <_ZN6google8protobuf11kuint128maxE+0x130>
    5144:	910dc2d6 	add	x22, x22, #0x370
    5148:	97ffff02 	bl	4d50 <__cxa_atexit@plt>
    514c:	f94762b5 	ldr	x21, [x21, #3776]
    5150:	aa1503e0 	mov	x0, x21
    5154:	9400292f 	bl	f610 <_ZN6google8protobuf4util6StatusC1Ev>
    5158:	f947ba94 	ldr	x20, [x20, #3952]
    515c:	aa1503e1 	mov	x1, x21
    5160:	b0000215 	adrp	x21, 46000 <GCC_except_table137+0x10ca0>
    5164:	aa1303e2 	mov	x2, x19
    5168:	aa1403e0 	mov	x0, x20
    516c:	97fffef9 	bl	4d50 <__cxa_atexit@plt>
    5170:	f946aeb5 	ldr	x21, [x21, #3416]
    5174:	aa1603e2 	mov	x2, x22
    5178:	d2800003 	mov	x3, #0x0                   	// #0
    517c:	52800021 	mov	w1, #0x1                   	// #1
    5180:	aa1503e0 	mov	x0, x21
    5184:	9400292b 	bl	f630 <_ZN6google8protobuf4util6StatusC1ENS1_5error4CodeENS0_11StringPieceE>
    5188:	aa1503e1 	mov	x1, x21
    518c:	b0000215 	adrp	x21, 46000 <GCC_except_table137+0x10ca0>
    5190:	aa1303e2 	mov	x2, x19
    5194:	aa1403e0 	mov	x0, x20
    5198:	97fffeee 	bl	4d50 <__cxa_atexit@plt>
    519c:	f94706b5 	ldr	x21, [x21, #3592]
    51a0:	aa1603e2 	mov	x2, x22
    51a4:	d2800003 	mov	x3, #0x0                   	// #0
    51a8:	52800041 	mov	w1, #0x2                   	// #2
    51ac:	aa1503e0 	mov	x0, x21
    51b0:	94002920 	bl	f630 <_ZN6google8protobuf4util6StatusC1ENS1_5error4CodeENS0_11StringPieceE>
    51b4:	aa1303e2 	mov	x2, x19
    51b8:	aa1503e1 	mov	x1, x21
    51bc:	aa1403e0 	mov	x0, x20
    51c0:	a94153f3 	ldp	x19, x20, [sp, #16]
    51c4:	a9425bf5 	ldp	x21, x22, [sp, #32]
    51c8:	a8c37bfd 	ldp	x29, x30, [sp], #48
    51cc:	17fffee1 	b	4d50 <__cxa_atexit@plt>

00000000000051d0 <_GLOBAL__sub_I_arena.cc>:
    51d0:	a9be7bfd 	stp	x29, x30, [sp, #-32]!
    51d4:	910003fd 	mov	x29, sp
    51d8:	f9000bf3 	str	x19, [sp, #16]
    51dc:	d0000213 	adrp	x19, 47000 <_Znam@GLIBCXX_3.4>
    51e0:	9117e273 	add	x19, x19, #0x5f8
    51e4:	aa1303e0 	mov	x0, x19
    51e8:	97ffff22 	bl	4e70 <_ZNSt8ios_base4InitC1Ev@plt>
    51ec:	b0000200 	adrp	x0, 46000 <GCC_except_table137+0x10ca0>
    51f0:	aa1303e1 	mov	x1, x19
    51f4:	d0000202 	adrp	x2, 47000 <_Znam@GLIBCXX_3.4>
    51f8:	910bc042 	add	x2, x2, #0x2f0
    51fc:	f947f000 	ldr	x0, [x0, #4064]
    5200:	97fffed4 	bl	4d50 <__cxa_atexit@plt>
    5204:	b0000200 	adrp	x0, 46000 <GCC_except_table137+0x10ca0>
    5208:	f9400bf3 	ldr	x19, [sp, #16]
    520c:	f947c000 	ldr	x0, [x0, #3968]
    5210:	f900001f 	str	xzr, [x0]
    5214:	a8c27bfd 	ldp	x29, x30, [sp], #32
    5218:	d65f03c0 	ret
    521c:	d503201f 	nop

0000000000005220 <_GLOBAL__sub_I_extension_set.cc>:
    5220:	a9be7bfd 	stp	x29, x30, [sp, #-32]!
    5224:	910003fd 	mov	x29, sp
    5228:	f9000bf3 	str	x19, [sp, #16]
    522c:	d0000213 	adrp	x19, 47000 <_Znam@GLIBCXX_3.4>
    5230:	91182273 	add	x19, x19, #0x608
    5234:	91004273 	add	x19, x19, #0x10
    5238:	aa1303e0 	mov	x0, x19
    523c:	97ffff0d 	bl	4e70 <_ZNSt8ios_base4InitC1Ev@plt>
    5240:	aa1303e1 	mov	x1, x19
    5244:	b0000200 	adrp	x0, 46000 <GCC_except_table137+0x10ca0>
    5248:	f9400bf3 	ldr	x19, [sp, #16]
    524c:	d0000202 	adrp	x2, 47000 <_Znam@GLIBCXX_3.4>
    5250:	a8c27bfd 	ldp	x29, x30, [sp], #32
    5254:	910bc042 	add	x2, x2, #0x2f0
    5258:	f947f000 	ldr	x0, [x0, #4064]
    525c:	17fffebd 	b	4d50 <__cxa_atexit@plt>

0000000000005260 <_GLOBAL__sub_I_generated_message_util.cc>:
    5260:	a9be7bfd 	stp	x29, x30, [sp, #-32]!
    5264:	910003fd 	mov	x29, sp
    5268:	f9000bf3 	str	x19, [sp, #16]
    526c:	d0000213 	adrp	x19, 47000 <_Znam@GLIBCXX_3.4>
    5270:	911a0273 	add	x19, x19, #0x680
    5274:	aa1303e0 	mov	x0, x19
    5278:	97fffefe 	bl	4e70 <_ZNSt8ios_base4InitC1Ev@plt>
    527c:	aa1303e1 	mov	x1, x19
    5280:	b0000200 	adrp	x0, 46000 <GCC_except_table137+0x10ca0>
    5284:	f9400bf3 	ldr	x19, [sp, #16]
    5288:	d0000202 	adrp	x2, 47000 <_Znam@GLIBCXX_3.4>
    528c:	a8c27bfd 	ldp	x29, x30, [sp], #32
    5290:	910bc042 	add	x2, x2, #0x2f0
    5294:	f947f000 	ldr	x0, [x0, #4064]
    5298:	17fffeae 	b	4d50 <__cxa_atexit@plt>
    529c:	d503201f 	nop

00000000000052a0 <_GLOBAL__sub_I_message_lite.cc>:
    52a0:	a9be7bfd 	stp	x29, x30, [sp, #-32]!
    52a4:	910003fd 	mov	x29, sp
    52a8:	f9000bf3 	str	x19, [sp, #16]
    52ac:	d0000213 	adrp	x19, 47000 <_Znam@GLIBCXX_3.4>
    52b0:	911ac273 	add	x19, x19, #0x6b0
    52b4:	aa1303e0 	mov	x0, x19
    52b8:	97fffeee 	bl	4e70 <_ZNSt8ios_base4InitC1Ev@plt>
    52bc:	aa1303e1 	mov	x1, x19
    52c0:	b0000200 	adrp	x0, 46000 <GCC_except_table137+0x10ca0>
    52c4:	f9400bf3 	ldr	x19, [sp, #16]
    52c8:	d0000202 	adrp	x2, 47000 <_Znam@GLIBCXX_3.4>
    52cc:	a8c27bfd 	ldp	x29, x30, [sp], #32
    52d0:	910bc042 	add	x2, x2, #0x2f0
    52d4:	f947f000 	ldr	x0, [x0, #4064]
    52d8:	17fffe9e 	b	4d50 <__cxa_atexit@plt>
    52dc:	d503201f 	nop

00000000000052e0 <_GLOBAL__sub_I_repeated_field.cc>:
    52e0:	a9be7bfd 	stp	x29, x30, [sp, #-32]!
    52e4:	910003fd 	mov	x29, sp
    52e8:	f9000bf3 	str	x19, [sp, #16]
    52ec:	d0000213 	adrp	x19, 47000 <_Znam@GLIBCXX_3.4>
    52f0:	911ae273 	add	x19, x19, #0x6b8
    52f4:	aa1303e0 	mov	x0, x19
    52f8:	97fffede 	bl	4e70 <_ZNSt8ios_base4InitC1Ev@plt>
    52fc:	aa1303e1 	mov	x1, x19
    5300:	b0000200 	adrp	x0, 46000 <GCC_except_table137+0x10ca0>
    5304:	f9400bf3 	ldr	x19, [sp, #16]
    5308:	d0000202 	adrp	x2, 47000 <_Znam@GLIBCXX_3.4>
    530c:	a8c27bfd 	ldp	x29, x30, [sp], #32
    5310:	910bc042 	add	x2, x2, #0x2f0
    5314:	f947f000 	ldr	x0, [x0, #4064]
    5318:	17fffe8e 	b	4d50 <__cxa_atexit@plt>
    531c:	d503201f 	nop

0000000000005320 <_GLOBAL__sub_I_wire_format_lite.cc>:
    5320:	a9be7bfd 	stp	x29, x30, [sp, #-32]!
    5324:	910003fd 	mov	x29, sp
    5328:	f9000bf3 	str	x19, [sp, #16]
    532c:	d0000213 	adrp	x19, 47000 <_Znam@GLIBCXX_3.4>
    5330:	911b0273 	add	x19, x19, #0x6c0
    5334:	aa1303e0 	mov	x0, x19
    5338:	97fffece 	bl	4e70 <_ZNSt8ios_base4InitC1Ev@plt>
    533c:	aa1303e1 	mov	x1, x19
    5340:	b0000200 	adrp	x0, 46000 <GCC_except_table137+0x10ca0>
    5344:	f9400bf3 	ldr	x19, [sp, #16]
    5348:	d0000202 	adrp	x2, 47000 <_Znam@GLIBCXX_3.4>
    534c:	a8c27bfd 	ldp	x29, x30, [sp], #32
    5350:	910bc042 	add	x2, x2, #0x2f0
    5354:	f947f000 	ldr	x0, [x0, #4064]
    5358:	17fffe7e 	b	4d50 <__cxa_atexit@plt>
    535c:	d503201f 	nop

0000000000005360 <_GLOBAL__sub_I_coded_stream.cc>:
    5360:	a9be7bfd 	stp	x29, x30, [sp, #-32]!
    5364:	910003fd 	mov	x29, sp
    5368:	f9000bf3 	str	x19, [sp, #16]
    536c:	d0000213 	adrp	x19, 47000 <_Znam@GLIBCXX_3.4>
    5370:	911b2273 	add	x19, x19, #0x6c8
    5374:	aa1303e0 	mov	x0, x19
    5378:	97fffebe 	bl	4e70 <_ZNSt8ios_base4InitC1Ev@plt>
    537c:	aa1303e1 	mov	x1, x19
    5380:	b0000200 	adrp	x0, 46000 <GCC_except_table137+0x10ca0>
    5384:	f9400bf3 	ldr	x19, [sp, #16]
    5388:	d0000202 	adrp	x2, 47000 <_Znam@GLIBCXX_3.4>
    538c:	a8c27bfd 	ldp	x29, x30, [sp], #32
    5390:	910bc042 	add	x2, x2, #0x2f0
    5394:	f947f000 	ldr	x0, [x0, #4064]
    5398:	17fffe6e 	b	4d50 <__cxa_atexit@plt>
    539c:	d503201f 	nop

00000000000053a0 <_GLOBAL__sub_I_zero_copy_stream_impl_lite.cc>:
    53a0:	a9be7bfd 	stp	x29, x30, [sp, #-32]!
    53a4:	910003fd 	mov	x29, sp
    53a8:	f9000bf3 	str	x19, [sp, #16]
    53ac:	d0000213 	adrp	x19, 47000 <_Znam@GLIBCXX_3.4>
    53b0:	911b6273 	add	x19, x19, #0x6d8
    53b4:	aa1303e0 	mov	x0, x19
    53b8:	97fffeae 	bl	4e70 <_ZNSt8ios_base4InitC1Ev@plt>
    53bc:	aa1303e1 	mov	x1, x19
    53c0:	b0000200 	adrp	x0, 46000 <GCC_except_table137+0x10ca0>
    53c4:	f9400bf3 	ldr	x19, [sp, #16]
    53c8:	d0000202 	adrp	x2, 47000 <_Znam@GLIBCXX_3.4>
    53cc:	a8c27bfd 	ldp	x29, x30, [sp], #32
    53d0:	910bc042 	add	x2, x2, #0x2f0
    53d4:	f947f000 	ldr	x0, [x0, #4064]
    53d8:	17fffe5e 	b	4d50 <__cxa_atexit@plt>
    53dc:	d503201f 	nop

00000000000053e0 <_GLOBAL__sub_I_stringprintf.cc>:
    53e0:	a9be7bfd 	stp	x29, x30, [sp, #-32]!
    53e4:	910003fd 	mov	x29, sp
    53e8:	f9000bf3 	str	x19, [sp, #16]
    53ec:	d0000213 	adrp	x19, 47000 <_Znam@GLIBCXX_3.4>
    53f0:	911b8273 	add	x19, x19, #0x6e0
    53f4:	aa1303e0 	mov	x0, x19
    53f8:	97fffe9e 	bl	4e70 <_ZNSt8ios_base4InitC1Ev@plt>
    53fc:	aa1303e1 	mov	x1, x19
    5400:	b0000200 	adrp	x0, 46000 <GCC_except_table137+0x10ca0>
    5404:	f9400bf3 	ldr	x19, [sp, #16]
    5408:	d0000202 	adrp	x2, 47000 <_Znam@GLIBCXX_3.4>
    540c:	a8c27bfd 	ldp	x29, x30, [sp], #32
    5410:	910bc042 	add	x2, x2, #0x2f0
    5414:	f947f000 	ldr	x0, [x0, #4064]
    5418:	17fffe4e 	b	4d50 <__cxa_atexit@plt>
    541c:	d503201f 	nop

0000000000005420 <_GLOBAL__sub_I_structurally_valid.cc>:
    5420:	a9be7bfd 	stp	x29, x30, [sp, #-32]!
    5424:	910003fd 	mov	x29, sp
    5428:	a90153f3 	stp	x19, x20, [sp, #16]
    542c:	d0000214 	adrp	x20, 47000 <_Znam@GLIBCXX_3.4>
    5430:	911ba293 	add	x19, x20, #0x6e8
    5434:	91002273 	add	x19, x19, #0x8
    5438:	aa1303e0 	mov	x0, x19
    543c:	97fffe8d 	bl	4e70 <_ZNSt8ios_base4InitC1Ev@plt>
    5440:	b0000200 	adrp	x0, 46000 <GCC_except_table137+0x10ca0>
    5444:	aa1303e1 	mov	x1, x19
    5448:	d0000202 	adrp	x2, 47000 <_Znam@GLIBCXX_3.4>
    544c:	910bc042 	add	x2, x2, #0x2f0
    5450:	f947f000 	ldr	x0, [x0, #4064]
    5454:	97fffe3f 	bl	4d50 <__cxa_atexit@plt>
    5458:	52800020 	mov	w0, #0x1                   	// #1
    545c:	391ba280 	strb	w0, [x20, #1768]
    5460:	a94153f3 	ldp	x19, x20, [sp, #16]
    5464:	a8c27bfd 	ldp	x29, x30, [sp], #32
    5468:	d65f03c0 	ret
    546c:	d503201f 	nop

0000000000005470 <_GLOBAL__sub_I_zero_copy_stream.cc>:
    5470:	a9be7bfd 	stp	x29, x30, [sp, #-32]!
    5474:	910003fd 	mov	x29, sp
    5478:	f9000bf3 	str	x19, [sp, #16]
    547c:	d0000213 	adrp	x19, 47000 <_Znam@GLIBCXX_3.4>
    5480:	911be273 	add	x19, x19, #0x6f8
    5484:	aa1303e0 	mov	x0, x19
    5488:	97fffe7a 	bl	4e70 <_ZNSt8ios_base4InitC1Ev@plt>
    548c:	aa1303e1 	mov	x1, x19
    5490:	b0000200 	adrp	x0, 46000 <GCC_except_table137+0x10ca0>
    5494:	f9400bf3 	ldr	x19, [sp, #16]
    5498:	d0000202 	adrp	x2, 47000 <_Znam@GLIBCXX_3.4>
    549c:	a8c27bfd 	ldp	x29, x30, [sp], #32
    54a0:	910bc042 	add	x2, x2, #0x2f0
    54a4:	f947f000 	ldr	x0, [x0, #4064]
    54a8:	17fffe2a 	b	4d50 <__cxa_atexit@plt>
    54ac:	d503201f 	nop
    54b0:	d503201f 	nop
    54b4:	d503201f 	nop
    54b8:	d503201f 	nop
    54bc:	d503201f 	nop

00000000000054c0 <_start>:
    54c0:	d503201f 	nop
    54c4:	d280001d 	mov	x29, #0x0                   	// #0
    54c8:	d280001e 	mov	x30, #0x0                   	// #0
    54cc:	aa0003e5 	mov	x5, x0
    54d0:	f94003e1 	ldr	x1, [sp]
    54d4:	910023e2 	add	x2, sp, #0x8
    54d8:	910003e6 	mov	x6, sp
    54dc:	b0000200 	adrp	x0, 46000 <GCC_except_table137+0x10ca0>
    54e0:	f946c000 	ldr	x0, [x0, #3456]
    54e4:	d2800003 	mov	x3, #0x0                   	// #0
    54e8:	d2800004 	mov	x4, #0x0                   	// #0
    54ec:	97fffdf1 	bl	4cb0 <__libc_start_main@plt>
    54f0:	97fffe6c 	bl	4ea0 <abort@plt>

00000000000054f4 <call_weak_fn>:
    54f4:	b0000200 	adrp	x0, 46000 <GCC_except_table137+0x10ca0>
    54f8:	f947d800 	ldr	x0, [x0, #4016]
    54fc:	b4000040 	cbz	x0, 5504 <call_weak_fn+0x10>
    5500:	17fffe90 	b	4f40 <__gmon_start__@plt>
    5504:	d65f03c0 	ret
    5508:	d503201f 	nop
    550c:	d503201f 	nop

0000000000005510 <deregister_tm_clones>:
    5510:	d0000200 	adrp	x0, 47000 <_Znam@GLIBCXX_3.4>
    5514:	910c6000 	add	x0, x0, #0x318
    5518:	d0000201 	adrp	x1, 47000 <_Znam@GLIBCXX_3.4>
    551c:	910c6021 	add	x1, x1, #0x318
    5520:	eb00003f 	cmp	x1, x0
    5524:	540000c0 	b.eq	553c <deregister_tm_clones+0x2c>  // b.none
    5528:	b0000201 	adrp	x1, 46000 <GCC_except_table137+0x10ca0>
    552c:	f947b421 	ldr	x1, [x1, #3944]
    5530:	b4000061 	cbz	x1, 553c <deregister_tm_clones+0x2c>
    5534:	aa0103f0 	mov	x16, x1
    5538:	d61f0200 	br	x16
    553c:	d65f03c0 	ret

0000000000005540 <register_tm_clones>:
    5540:	d0000200 	adrp	x0, 47000 <_Znam@GLIBCXX_3.4>
    5544:	910c6000 	add	x0, x0, #0x318
    5548:	d0000201 	adrp	x1, 47000 <_Znam@GLIBCXX_3.4>
    554c:	910c6021 	add	x1, x1, #0x318
    5550:	cb000021 	sub	x1, x1, x0
    5554:	d37ffc22 	lsr	x2, x1, #63
    5558:	8b810c41 	add	x1, x2, x1, asr #3
    555c:	9341fc21 	asr	x1, x1, #1
    5560:	b40000c1 	cbz	x1, 5578 <register_tm_clones+0x38>
    5564:	b0000202 	adrp	x2, 46000 <GCC_except_table137+0x10ca0>
    5568:	f947e042 	ldr	x2, [x2, #4032]
    556c:	b4000062 	cbz	x2, 5578 <register_tm_clones+0x38>
    5570:	aa0203f0 	mov	x16, x2
    5574:	d61f0200 	br	x16
    5578:	d65f03c0 	ret
    557c:	d503201f 	nop

0000000000005580 <__do_global_dtors_aux>:
    5580:	a9be7bfd 	stp	x29, x30, [sp, #-32]!
    5584:	910003fd 	mov	x29, sp
    5588:	f9000bf3 	str	x19, [sp, #16]
    558c:	d0000213 	adrp	x19, 47000 <_Znam@GLIBCXX_3.4>
    5590:	394c6260 	ldrb	w0, [x19, #792]
    5594:	35000140 	cbnz	w0, 55bc <__do_global_dtors_aux+0x3c>
    5598:	b0000200 	adrp	x0, 46000 <GCC_except_table137+0x10ca0>
    559c:	f946f000 	ldr	x0, [x0, #3552]
    55a0:	b4000080 	cbz	x0, 55b0 <__do_global_dtors_aux+0x30>
    55a4:	d0000200 	adrp	x0, 47000 <_Znam@GLIBCXX_3.4>
    55a8:	f9417800 	ldr	x0, [x0, #752]
    55ac:	97fffd85 	bl	4bc0 <__cxa_finalize@plt>
    55b0:	97ffffd8 	bl	5510 <deregister_tm_clones>
    55b4:	52800020 	mov	w0, #0x1                   	// #1
    55b8:	390c6260 	strb	w0, [x19, #792]
    55bc:	f9400bf3 	ldr	x19, [sp, #16]
    55c0:	a8c27bfd 	ldp	x29, x30, [sp], #32
    55c4:	d65f03c0 	ret
    55c8:	d503201f 	nop
    55cc:	d503201f 	nop

00000000000055d0 <frame_dummy>:
    55d0:	17ffffdc 	b	5540 <register_tm_clones>

00000000000055d4 <main>:
    55d4:	a9ba7bfd 	stp	x29, x30, [sp, #-96]!
    55d8:	a9016ffc 	stp	x28, x27, [sp, #16]
    55dc:	a90267fa 	stp	x26, x25, [sp, #32]
    55e0:	a9035ff8 	stp	x24, x23, [sp, #48]
    55e4:	a90457f6 	stp	x22, x21, [sp, #64]
    55e8:	a9054ff4 	stp	x20, x19, [sp, #80]
    55ec:	910003fd 	mov	x29, sp
    55f0:	d10c43ff 	sub	sp, sp, #0x310
    55f4:	7100041f 	cmp	w0, #0x1
    55f8:	5400022c 	b.gt	563c <main+0x68>
    55fc:	b0000213 	adrp	x19, 46000 <GCC_except_table137+0x10ca0>
    5600:	b0000121 	adrp	x1, 2a000 <_ZN6google8protobuf18StringPrintfVectorEPKcRKSt6vectorINSt7__cxx1112basic_stringIcSt11char_traitsIcESaIcEEESaIS9_EE+0x2ec>
    5604:	91191021 	add	x1, x1, #0x644
    5608:	52800842 	mov	w2, #0x42                  	// #66
    560c:	f946aa73 	ldr	x19, [x19, #3408]
    5610:	aa1303e0 	mov	x0, x19
    5614:	97fffdd3 	bl	4d60 <_ZSt16__ostream_insertIcSt11char_traitsIcEERSt13basic_ostreamIT_T0_ES6_PKS3_l@plt>
    5618:	f9400268 	ldr	x8, [x19]
    561c:	f85e8108 	ldur	x8, [x8, #-24]
    5620:	8b080268 	add	x8, x19, x8
    5624:	f9407913 	ldr	x19, [x8, #240]
    5628:	b40057f3 	cbz	x19, 6124 <main+0xb50>
    562c:	3940e268 	ldrb	w8, [x19, #56]
    5630:	340003c8 	cbz	w8, 56a8 <main+0xd4>
    5634:	39410e61 	ldrb	w1, [x19, #67]
    5638:	14000024 	b	56c8 <main+0xf4>
    563c:	d100a3a8 	sub	x8, x29, #0x28
    5640:	aa0103f6 	mov	x22, x1
    5644:	f9400433 	ldr	x19, [x1, #8]
    5648:	91004115 	add	x21, x8, #0x10
    564c:	f81d83b5 	stur	x21, [x29, #-40]
    5650:	b4005653 	cbz	x19, 6118 <main+0xb44>
    5654:	2a0003f7 	mov	w23, w0
    5658:	aa1303e0 	mov	x0, x19
    565c:	97fffd09 	bl	4a80 <strlen@plt>
    5660:	aa0003f4 	mov	x20, x0
    5664:	aa1503e0 	mov	x0, x21
    5668:	f100429f 	cmp	x20, #0x10
    566c:	f9001ff4 	str	x20, [sp, #56]
    5670:	54000103 	b.cc	5690 <main+0xbc>  // b.lo, b.ul, b.last
    5674:	d100a3a0 	sub	x0, x29, #0x28
    5678:	9100e3e1 	add	x1, sp, #0x38
    567c:	aa1f03e2 	mov	x2, xzr
    5680:	97fffe24 	bl	4f10 <_ZNSt7__cxx1112basic_stringIcSt11char_traitsIcESaIcEE9_M_createERmm@plt>
    5684:	f9401fe8 	ldr	x8, [sp, #56]
    5688:	f81d83a0 	stur	x0, [x29, #-40]
    568c:	f81e83a8 	stur	x8, [x29, #-24]
    5690:	b40002f4 	cbz	x20, 56ec <main+0x118>
    5694:	f100069f 	cmp	x20, #0x1
    5698:	54000241 	b.ne	56e0 <main+0x10c>  // b.any
    569c:	39400268 	ldrb	w8, [x19]
    56a0:	39000008 	strb	w8, [x0]
    56a4:	14000012 	b	56ec <main+0x118>
    56a8:	aa1303e0 	mov	x0, x19
    56ac:	97fffdb1 	bl	4d70 <_ZNKSt5ctypeIcE13_M_widen_initEv@plt>
    56b0:	f9400268 	ldr	x8, [x19]
    56b4:	f9401908 	ldr	x8, [x8, #48]
    56b8:	aa1303e0 	mov	x0, x19
    56bc:	52800141 	mov	w1, #0xa                   	// #10
    56c0:	d63f0100 	blr	x8
    56c4:	2a0003e1 	mov	w1, w0
    56c8:	b0000200 	adrp	x0, 46000 <GCC_except_table137+0x10ca0>
    56cc:	f946a800 	ldr	x0, [x0, #3408]
    56d0:	97fffcc0 	bl	49d0 <_ZNSo3putEc@plt>
    56d4:	97fffd5b 	bl	4c40 <_ZNSo5flushEv@plt>
    56d8:	12800013 	mov	w19, #0xffffffff            	// #-1
    56dc:	14000276 	b	60b4 <main+0xae0>
    56e0:	aa1303e1 	mov	x1, x19
    56e4:	aa1403e2 	mov	x2, x20
    56e8:	97fffcbe 	bl	49e0 <memcpy@plt>
    56ec:	f9401fe8 	ldr	x8, [sp, #56]
    56f0:	b0000121 	adrp	x1, 2a000 <_ZN6google8protobuf18StringPrintfVectorEPKcRKSt6vectorINSt7__cxx1112basic_stringIcSt11char_traitsIcESaIcEEESaIS9_EE+0x2ec>
    56f4:	911db021 	add	x1, x1, #0x76c
    56f8:	f85d83a9 	ldur	x9, [x29, #-40]
    56fc:	f81e03a8 	stur	x8, [x29, #-32]
    5700:	3828693f 	strb	wzr, [x9, x8]
    5704:	f85d83a0 	ldur	x0, [x29, #-40]
    5708:	97fffdca 	bl	4e30 <fopen@plt>
    570c:	b4001180 	cbz	x0, 593c <main+0x368>
    5710:	aa1f03e1 	mov	x1, xzr
    5714:	52800042 	mov	w2, #0x2                   	// #2
    5718:	aa0003f8 	mov	x24, x0
    571c:	97fffe15 	bl	4f70 <fseek@plt>
    5720:	aa1803e0 	mov	x0, x24
    5724:	97fffce7 	bl	4ac0 <ftell@plt>
    5728:	aa0003f3 	mov	x19, x0
    572c:	aa1803e0 	mov	x0, x24
    5730:	aa1f03e1 	mov	x1, xzr
    5734:	2a1f03e2 	mov	w2, wzr
    5738:	97fffe0e 	bl	4f70 <fseek@plt>
    573c:	71000eff 	cmp	w23, #0x3
    5740:	a90263f5 	stp	x21, x24, [sp, #32]
    5744:	540012e3 	b.cc	59a0 <main+0x3cc>  // b.lo, b.ul, b.last
    5748:	9100e3e8 	add	x8, sp, #0x38
    574c:	2a1f03f4 	mov	w20, wzr
    5750:	91004119 	add	x25, x8, #0x10
    5754:	d102c3a8 	sub	x8, x29, #0xb0
    5758:	9100411a 	add	x26, x8, #0x10
    575c:	2a1703e8 	mov	w8, w23
    5760:	2a1f03fb 	mov	w27, wzr
    5764:	910062dc 	add	x28, x22, #0x18
    5768:	d1000915 	sub	x21, x8, #0x2
    576c:	b0000136 	adrp	x22, 2a000 <_ZN6google8protobuf18StringPrintfVectorEPKcRKSt6vectorINSt7__cxx1112basic_stringIcSt11char_traitsIcESaIcEEESaIS9_EE+0x2ec>
    5770:	911a5ed6 	add	x22, x22, #0x697
    5774:	b0000137 	adrp	x23, 2a000 <_ZN6google8protobuf18StringPrintfVectorEPKcRKSt6vectorINSt7__cxx1112basic_stringIcSt11char_traitsIcESaIcEEESaIS9_EE+0x2ec>
    5778:	911a96f7 	add	x23, x23, #0x6a5
    577c:	f9001bf3 	str	x19, [sp, #48]
    5780:	14000004 	b	5790 <main+0x1bc>
    5784:	9100239c 	add	x28, x28, #0x8
    5788:	f10006b5 	subs	x21, x21, #0x1
    578c:	540014c0 	b.eq	5a24 <main+0x450>  // b.none
    5790:	f85f8393 	ldur	x19, [x28, #-8]
    5794:	f9001ff9 	str	x25, [sp, #56]
    5798:	b4004a93 	cbz	x19, 60e8 <main+0xb14>
    579c:	aa1303e0 	mov	x0, x19
    57a0:	97fffcb8 	bl	4a80 <strlen@plt>
    57a4:	aa0003f8 	mov	x24, x0
    57a8:	aa1903e0 	mov	x0, x25
    57ac:	f100431f 	cmp	x24, #0x10
    57b0:	f81503b8 	stur	x24, [x29, #-176]
    57b4:	54000103 	b.cc	57d4 <main+0x200>  // b.lo, b.ul, b.last
    57b8:	9100e3e0 	add	x0, sp, #0x38
    57bc:	d102c3a1 	sub	x1, x29, #0xb0
    57c0:	aa1f03e2 	mov	x2, xzr
    57c4:	97fffdd3 	bl	4f10 <_ZNSt7__cxx1112basic_stringIcSt11char_traitsIcESaIcEE9_M_createERmm@plt>
    57c8:	f85503a8 	ldur	x8, [x29, #-176]
    57cc:	f9001fe0 	str	x0, [sp, #56]
    57d0:	f90027e8 	str	x8, [sp, #72]
    57d4:	b4000138 	cbz	x24, 57f8 <main+0x224>
    57d8:	f100071f 	cmp	x24, #0x1
    57dc:	54000081 	b.ne	57ec <main+0x218>  // b.any
    57e0:	39400268 	ldrb	w8, [x19]
    57e4:	39000008 	strb	w8, [x0]
    57e8:	14000004 	b	57f8 <main+0x224>
    57ec:	aa1303e1 	mov	x1, x19
    57f0:	aa1803e2 	mov	x2, x24
    57f4:	97fffc7b 	bl	49e0 <memcpy@plt>
    57f8:	f85503a8 	ldur	x8, [x29, #-176]
    57fc:	9100e3e0 	add	x0, sp, #0x38
    5800:	aa1603e1 	mov	x1, x22
    5804:	f9401fe9 	ldr	x9, [sp, #56]
    5808:	f90023e8 	str	x8, [sp, #64]
    580c:	3828693f 	strb	wzr, [x9, x8]
    5810:	97fffc8c 	bl	4a40 <_ZNKSt7__cxx1112basic_stringIcSt11char_traitsIcESaIcEE7compareEPKc@plt>
    5814:	35000720 	cbnz	w0, 58f8 <main+0x324>
    5818:	f9400393 	ldr	x19, [x28]
    581c:	f81503ba 	stur	x26, [x29, #-176]
    5820:	b4004713 	cbz	x19, 6100 <main+0xb2c>
    5824:	aa1303e0 	mov	x0, x19
    5828:	97fffc96 	bl	4a80 <strlen@plt>
    582c:	aa0003f4 	mov	x20, x0
    5830:	aa1a03e0 	mov	x0, x26
    5834:	f100429f 	cmp	x20, #0x10
    5838:	f81b83b4 	stur	x20, [x29, #-72]
    583c:	54000103 	b.cc	585c <main+0x288>  // b.lo, b.ul, b.last
    5840:	d102c3a0 	sub	x0, x29, #0xb0
    5844:	d10123a1 	sub	x1, x29, #0x48
    5848:	aa1f03e2 	mov	x2, xzr
    584c:	97fffdb1 	bl	4f10 <_ZNSt7__cxx1112basic_stringIcSt11char_traitsIcESaIcEE9_M_createERmm@plt>
    5850:	f85b83a8 	ldur	x8, [x29, #-72]
    5854:	f81503a0 	stur	x0, [x29, #-176]
    5858:	f81603a8 	stur	x8, [x29, #-160]
    585c:	b4000134 	cbz	x20, 5880 <main+0x2ac>
    5860:	f100069f 	cmp	x20, #0x1
    5864:	54000081 	b.ne	5874 <main+0x2a0>  // b.any
    5868:	39400268 	ldrb	w8, [x19]
    586c:	39000008 	strb	w8, [x0]
    5870:	14000004 	b	5880 <main+0x2ac>
    5874:	aa1303e1 	mov	x1, x19
    5878:	aa1403e2 	mov	x2, x20
    587c:	97fffc59 	bl	49e0 <memcpy@plt>
    5880:	f85b83a8 	ldur	x8, [x29, #-72]
    5884:	aa1a03f4 	mov	x20, x26
    5888:	f85503a9 	ldur	x9, [x29, #-176]
    588c:	f81583a8 	stur	x8, [x29, #-168]
    5890:	3828693f 	strb	wzr, [x9, x8]
    5894:	f85503b8 	ldur	x24, [x29, #-176]
    5898:	97fffd52 	bl	4de0 <__errno_location@plt>
    589c:	aa0003f3 	mov	x19, x0
    58a0:	b940001a 	ldr	w26, [x0]
    58a4:	b900001f 	str	wzr, [x0]
    58a8:	d10123a1 	sub	x1, x29, #0x48
    58ac:	aa1803e0 	mov	x0, x24
    58b0:	52800142 	mov	w2, #0xa                   	// #10
    58b4:	97fffcab 	bl	4b60 <strtol@plt>
    58b8:	f85b83a8 	ldur	x8, [x29, #-72]
    58bc:	eb18011f 	cmp	x8, x24
    58c0:	54004260 	b.eq	610c <main+0xb38>  // b.none
    58c4:	eb20c01f 	cmp	x0, w0, sxtw
    58c8:	54004161 	b.ne	60f4 <main+0xb20>  // b.any
    58cc:	b9400268 	ldr	w8, [x19]
    58d0:	7100891f 	cmp	w8, #0x22
    58d4:	54004100 	b.eq	60f4 <main+0xb20>  // b.none
    58d8:	aa0003f8 	mov	x24, x0
    58dc:	34000248 	cbz	w8, 5924 <main+0x350>
    58e0:	f85503a0 	ldur	x0, [x29, #-176]
    58e4:	aa1403fa 	mov	x26, x20
    58e8:	eb14001f 	cmp	x0, x20
    58ec:	54000040 	b.eq	58f4 <main+0x320>  // b.none
    58f0:	97fffd04 	bl	4d00 <_ZdlPv@plt>
    58f4:	aa1803f4 	mov	x20, x24
    58f8:	9100e3e0 	add	x0, sp, #0x38
    58fc:	aa1703e1 	mov	x1, x23
    5900:	97fffc50 	bl	4a40 <_ZNKSt7__cxx1112basic_stringIcSt11char_traitsIcESaIcEE7compareEPKc@plt>
    5904:	2a0003e8 	mov	w8, w0
    5908:	f9401fe0 	ldr	x0, [sp, #56]
    590c:	7100011f 	cmp	w8, #0x0
    5910:	1a9f177b 	csinc	w27, w27, wzr, ne  // ne = any
    5914:	eb19001f 	cmp	x0, x25
    5918:	54fff360 	b.eq	5784 <main+0x1b0>  // b.none
    591c:	97fffcf9 	bl	4d00 <_ZdlPv@plt>
    5920:	17ffff99 	b	5784 <main+0x1b0>
    5924:	b900027a 	str	w26, [x19]
    5928:	f85503a0 	ldur	x0, [x29, #-176]
    592c:	aa1403fa 	mov	x26, x20
    5930:	eb14001f 	cmp	x0, x20
    5934:	54fffde1 	b.ne	58f0 <main+0x31c>  // b.any
    5938:	17ffffef 	b	58f4 <main+0x320>
    593c:	b0000128 	adrp	x8, 2a000 <_ZN6google8protobuf18StringPrintfVectorEPKcRKSt6vectorINSt7__cxx1112basic_stringIcSt11char_traitsIcESaIcEEESaIS9_EE+0x2ec>
    5940:	911a1d08 	add	x8, x8, #0x687
    5944:	d102c3aa 	sub	x10, x29, #0xb0
    5948:	3816f3bf 	sturb	wzr, [x29, #-145]
    594c:	a97d8ba1 	ldp	x1, x2, [x29, #-40]
    5950:	91004153 	add	x19, x10, #0x10
    5954:	528001ea 	mov	w10, #0xf                   	// #15
    5958:	f9400109 	ldr	x9, [x8]
    595c:	f8407108 	ldur	x8, [x8, #7]
    5960:	f81503b3 	stur	x19, [x29, #-176]
    5964:	a935a7aa 	stp	x10, x9, [x29, #-168]
    5968:	f81673a8 	stur	x8, [x29, #-153]
    596c:	d102c3a0 	sub	x0, x29, #0xb0
    5970:	97fffc48 	bl	4a90 <_ZNSt7__cxx1112basic_stringIcSt11char_traitsIcESaIcEE9_M_appendEPKcm@plt>
    5974:	9100e3e8 	add	x8, sp, #0x38
    5978:	91004116 	add	x22, x8, #0x10
    597c:	aa0003e8 	mov	x8, x0
    5980:	f9001ff6 	str	x22, [sp, #56]
    5984:	f8410509 	ldr	x9, [x8], #16
    5988:	eb08013f 	cmp	x9, x8
    598c:	54000ac0 	b.eq	5ae4 <main+0x510>  // b.none
    5990:	f940010a 	ldr	x10, [x8]
    5994:	f9001fe9 	str	x9, [sp, #56]
    5998:	f90027ea 	str	x10, [sp, #72]
    599c:	14000054 	b	5aec <main+0x518>
    59a0:	2a1f03f7 	mov	w23, wzr
    59a4:	2a1f03f4 	mov	w20, wzr
    59a8:	b4000453 	cbz	x19, 5a30 <main+0x45c>
    59ac:	aa1803e0 	mov	x0, x24
    59b0:	aa1f03e1 	mov	x1, xzr
    59b4:	2a1f03e2 	mov	w2, wzr
    59b8:	97fffd6e 	bl	4f70 <fseek@plt>
    59bc:	aa1303e0 	mov	x0, x19
    59c0:	97fffc00 	bl	49c0 <_Znam@plt>
    59c4:	aa1303e1 	mov	x1, x19
    59c8:	52800022 	mov	w2, #0x1                   	// #1
    59cc:	aa1803e3 	mov	x3, x24
    59d0:	aa0003f6 	mov	x22, x0
    59d4:	97fffc0b 	bl	4a00 <fread@plt>
    59d8:	f100041f 	cmp	x0, #0x1
    59dc:	54000080 	b.eq	59ec <main+0x418>  // b.none
    59e0:	aa1603e0 	mov	x0, x22
    59e4:	97fffcfb 	bl	4dd0 <_ZdaPv@plt>
    59e8:	aa1f03f6 	mov	x22, xzr
    59ec:	d10123a8 	sub	x8, x29, #0x48
    59f0:	f100427f 	cmp	x19, #0x10
    59f4:	91004119 	add	x25, x8, #0x10
    59f8:	f9001ff3 	str	x19, [sp, #56]
    59fc:	f81b83b9 	stur	x25, [x29, #-72]
    5a00:	54000263 	b.cc	5a4c <main+0x478>  // b.lo, b.ul, b.last
    5a04:	d10123a0 	sub	x0, x29, #0x48
    5a08:	9100e3e1 	add	x1, sp, #0x38
    5a0c:	aa1f03e2 	mov	x2, xzr
    5a10:	97fffd40 	bl	4f10 <_ZNSt7__cxx1112basic_stringIcSt11char_traitsIcESaIcEE9_M_createERmm@plt>
    5a14:	f9401fe8 	ldr	x8, [sp, #56]
    5a18:	f81b83a0 	stur	x0, [x29, #-72]
    5a1c:	f81c83a8 	stur	x8, [x29, #-56]
    5a20:	14000015 	b	5a74 <main+0x4a0>
    5a24:	a942cff8 	ldp	x24, x19, [sp, #40]
    5a28:	12000377 	and	w23, w27, #0x1
    5a2c:	b5fffc13 	cbnz	x19, 59ac <main+0x3d8>
    5a30:	d10123a8 	sub	x8, x29, #0x48
    5a34:	b9000fff 	str	wzr, [sp, #12]
    5a38:	91004119 	add	x25, x8, #0x10
    5a3c:	2a1f03f6 	mov	w22, wzr
    5a40:	381c83bf 	sturb	wzr, [x29, #-56]
    5a44:	a93bffb9 	stp	x25, xzr, [x29, #-72]
    5a48:	1400006e 	b	5c00 <main+0x62c>
    5a4c:	aa1903e0 	mov	x0, x25
    5a50:	f100067f 	cmp	x19, #0x1
    5a54:	54000101 	b.ne	5a74 <main+0x4a0>  // b.any
    5a58:	394002c8 	ldrb	w8, [x22]
    5a5c:	f9401fe9 	ldr	x9, [sp, #56]
    5a60:	f85b83aa 	ldur	x10, [x29, #-72]
    5a64:	381c83a8 	sturb	w8, [x29, #-56]
    5a68:	f81c03a9 	stur	x9, [x29, #-64]
    5a6c:	3829695f 	strb	wzr, [x10, x9]
    5a70:	14000009 	b	5a94 <main+0x4c0>
    5a74:	aa1603e1 	mov	x1, x22
    5a78:	aa1303e2 	mov	x2, x19
    5a7c:	97fffbd9 	bl	49e0 <memcpy@plt>
    5a80:	f9401fe8 	ldr	x8, [sp, #56]
    5a84:	f85b83a9 	ldur	x9, [x29, #-72]
    5a88:	f81c03a8 	stur	x8, [x29, #-64]
    5a8c:	3828693f 	strb	wzr, [x9, x8]
    5a90:	b4000076 	cbz	x22, 5a9c <main+0x4c8>
    5a94:	aa1603e0 	mov	x0, x22
    5a98:	97fffcce 	bl	4dd0 <_ZdaPv@plt>
    5a9c:	f85c03a8 	ldur	x8, [x29, #-64]
    5aa0:	f1000d1f 	cmp	x8, #0x3
    5aa4:	54000703 	b.cc	5b84 <main+0x5b0>  // b.lo, b.ul, b.last
    5aa8:	f85b83a8 	ldur	x8, [x29, #-72]
    5aac:	39400109 	ldrb	w9, [x8]
    5ab0:	71007d3f 	cmp	w9, #0x1f
    5ab4:	540004e0 	b.eq	5b50 <main+0x57c>  // b.none
    5ab8:	7101e13f 	cmp	w9, #0x78
    5abc:	54000641 	b.ne	5b84 <main+0x5b0>  // b.any
    5ac0:	39400508 	ldrb	w8, [x8, #1]
    5ac4:	2a1f03f3 	mov	w19, wzr
    5ac8:	71026d1f 	cmp	w8, #0x9b
    5acc:	5400064c 	b.gt	5b94 <main+0x5c0>
    5ad0:	7100051f 	cmp	w8, #0x1
    5ad4:	54000680 	b.eq	5ba4 <main+0x5d0>  // b.none
    5ad8:	7101791f 	cmp	w8, #0x5e
    5adc:	54000640 	b.eq	5ba4 <main+0x5d0>  // b.none
    5ae0:	1400017e 	b	60d8 <main+0xb04>
    5ae4:	3dc00120 	ldr	q0, [x9]
    5ae8:	3d8002c0 	str	q0, [x22]
    5aec:	f9400409 	ldr	x9, [x0, #8]
    5af0:	3900401f 	strb	wzr, [x0, #16]
    5af4:	f90023e9 	str	x9, [sp, #64]
    5af8:	a9007c08 	stp	x8, xzr, [x0]
    5afc:	a9438be1 	ldp	x1, x2, [sp, #56]
    5b00:	b0000200 	adrp	x0, 46000 <GCC_except_table137+0x10ca0>
    5b04:	f946a800 	ldr	x0, [x0, #3408]
    5b08:	97fffc96 	bl	4d60 <_ZSt16__ostream_insertIcSt11char_traitsIcEERSt13basic_ostreamIT_T0_ES6_PKS3_l@plt>
    5b0c:	b0000121 	adrp	x1, 2a000 <_ZN6google8protobuf18StringPrintfVectorEPKcRKSt6vectorINSt7__cxx1112basic_stringIcSt11char_traitsIcESaIcEEESaIS9_EE+0x2ec>
    5b10:	911b2c21 	add	x1, x1, #0x6cb
    5b14:	52800022 	mov	w2, #0x1                   	// #1
    5b18:	97fffc92 	bl	4d60 <_ZSt16__ostream_insertIcSt11char_traitsIcEERSt13basic_ostreamIT_T0_ES6_PKS3_l@plt>
    5b1c:	f9401fe0 	ldr	x0, [sp, #56]
    5b20:	eb16001f 	cmp	x0, x22
    5b24:	54000040 	b.eq	5b2c <main+0x558>  // b.none
    5b28:	97fffc76 	bl	4d00 <_ZdlPv@plt>
    5b2c:	f85503a0 	ldur	x0, [x29, #-176]
    5b30:	eb13001f 	cmp	x0, x19
    5b34:	54000040 	b.eq	5b3c <main+0x568>  // b.none
    5b38:	97fffc72 	bl	4d00 <_ZdlPv@plt>
    5b3c:	12800013 	mov	w19, #0xffffffff            	// #-1
    5b40:	f85d83a0 	ldur	x0, [x29, #-40]
    5b44:	eb15001f 	cmp	x0, x21
    5b48:	54002b41 	b.ne	60b0 <main+0xadc>  // b.any
    5b4c:	1400015a 	b	60b4 <main+0xae0>
    5b50:	39400508 	ldrb	w8, [x8, #1]
    5b54:	71022d1f 	cmp	w8, #0x8b
    5b58:	54000161 	b.ne	5b84 <main+0x5b0>  // b.any
    5b5c:	b0000200 	adrp	x0, 46000 <GCC_except_table137+0x10ca0>
    5b60:	b0000121 	adrp	x1, 2a000 <_ZN6google8protobuf18StringPrintfVectorEPKcRKSt6vectorINSt7__cxx1112basic_stringIcSt11char_traitsIcESaIcEEESaIS9_EE+0x2ec>
    5b64:	911b3421 	add	x1, x1, #0x6cd
    5b68:	52800322 	mov	w2, #0x19                  	// #25
    5b6c:	f9475c00 	ldr	x0, [x0, #3768]
    5b70:	97fffc7c 	bl	4d60 <_ZSt16__ostream_insertIcSt11char_traitsIcEERSt13basic_ostreamIT_T0_ES6_PKS3_l@plt>
    5b74:	52800028 	mov	w8, #0x1                   	// #1
    5b78:	2a1f03f6 	mov	w22, wzr
    5b7c:	b9000fe8 	str	w8, [sp, #12]
    5b80:	14000011 	b	5bc4 <main+0x5f0>
    5b84:	2a1f03f3 	mov	w19, wzr
    5b88:	b9000fff 	str	wzr, [sp, #12]
    5b8c:	2a1f03f6 	mov	w22, wzr
    5b90:	1400001c 	b	5c00 <main+0x62c>
    5b94:	7102711f 	cmp	w8, #0x9c
    5b98:	54000060 	b.eq	5ba4 <main+0x5d0>  // b.none
    5b9c:	7103691f 	cmp	w8, #0xda
    5ba0:	540029c1 	b.ne	60d8 <main+0xb04>  // b.any
    5ba4:	b0000200 	adrp	x0, 46000 <GCC_except_table137+0x10ca0>
    5ba8:	b0000121 	adrp	x1, 2a000 <_ZN6google8protobuf18StringPrintfVectorEPKcRKSt6vectorINSt7__cxx1112basic_stringIcSt11char_traitsIcESaIcEEESaIS9_EE+0x2ec>
    5bac:	911acc21 	add	x1, x1, #0x6b3
    5bb0:	52800322 	mov	w2, #0x19                  	// #25
    5bb4:	f9475c00 	ldr	x0, [x0, #3768]
    5bb8:	97fffc6a 	bl	4d60 <_ZSt16__ostream_insertIcSt11char_traitsIcEERSt13basic_ostreamIT_T0_ES6_PKS3_l@plt>
    5bbc:	52800036 	mov	w22, #0x1                   	// #1
    5bc0:	b9000fff 	str	wzr, [sp, #12]
    5bc4:	9100e3e8 	add	x8, sp, #0x38
    5bc8:	390123ff 	strb	wzr, [sp, #72]
    5bcc:	91004113 	add	x19, x8, #0x10
    5bd0:	a903fff3 	stp	x19, xzr, [sp, #56]
    5bd4:	d10123a0 	sub	x0, x29, #0x48
    5bd8:	9100e3e1 	add	x1, sp, #0x38
    5bdc:	94000232 	bl	64a4 <_ZN6mapnik16vector_tile_impl15zlib_decompressERKNSt7__cxx1112basic_stringIcSt11char_traitsIcESaIcEEERS6_>
    5be0:	d10123a0 	sub	x0, x29, #0x48
    5be4:	9100e3e1 	add	x1, sp, #0x38
    5be8:	97fffbe6 	bl	4b80 <_ZNSt7__cxx1112basic_stringIcSt11char_traitsIcESaIcEE9_M_assignERKS4_@plt>
    5bec:	f9401fe0 	ldr	x0, [sp, #56]
    5bf0:	eb13001f 	cmp	x0, x19
    5bf4:	54000040 	b.eq	5bfc <main+0x628>  // b.none
    5bf8:	97fffc42 	bl	4d00 <_ZdlPv@plt>
    5bfc:	52800033 	mov	w19, #0x1                   	// #1
    5c00:	d102c3a0 	sub	x0, x29, #0xb0
    5c04:	f9000ff9 	str	x25, [sp, #24]
    5c08:	9400129e 	bl	a680 <_ZN11vector_tile4TileC1Ev>
    5c0c:	d102c3a0 	sub	x0, x29, #0xb0
    5c10:	d10123a1 	sub	x1, x29, #0x48
    5c14:	29025bf3 	stp	w19, w22, [sp, #16]
    5c18:	94007466 	bl	22db0 <_ZN6google8protobuf11MessageLite15ParseFromStringERKNSt7__cxx1112basic_stringIcSt11char_traitsIcESaIcEEE>
    5c1c:	b85a83a8 	ldur	w8, [x29, #-88]
    5c20:	7100051f 	cmp	w8, #0x1
    5c24:	5400170b 	b.lt	5f04 <main+0x930>  // b.tstop
    5c28:	b0000216 	adrp	x22, 46000 <GCC_except_table137+0x10ca0>
    5c2c:	d102c3a8 	sub	x8, x29, #0xb0
    5c30:	2a1f03f5 	mov	w21, wzr
    5c34:	91014108 	add	x8, x8, #0x50
    5c38:	b0000138 	adrp	x24, 2a000 <_ZN6google8protobuf18StringPrintfVectorEPKcRKSt6vectorINSt7__cxx1112basic_stringIcSt11char_traitsIcESaIcEEESaIS9_EE+0x2ec>
    5c3c:	911b9f18 	add	x24, x24, #0x6e7
    5c40:	f946aad6 	ldr	x22, [x22, #3408]
    5c44:	b000013b 	adrp	x27, 2a000 <_ZN6google8protobuf18StringPrintfVectorEPKcRKSt6vectorINSt7__cxx1112basic_stringIcSt11char_traitsIcESaIcEEESaIS9_EE+0x2ec>
    5c48:	911bf77b 	add	x27, x27, #0x6fd
    5c4c:	f9001be8 	str	x8, [sp, #48]
    5c50:	14000006 	b	5c68 <main+0x694>
    5c54:	340013a8 	cbz	w8, 5ec8 <main+0x8f4>
    5c58:	b85a83a8 	ldur	w8, [x29, #-88]
    5c5c:	110006b5 	add	w21, w21, #0x1
    5c60:	6b0802bf 	cmp	w21, w8
    5c64:	5400150a 	b.ge	5f04 <main+0x930>  // b.tcont
    5c68:	f85b03a8 	ldur	x8, [x29, #-80]
    5c6c:	937d7eb9 	sbfiz	x25, x21, #3, #32
    5c70:	8b190108 	add	x8, x8, x25
    5c74:	f940051a 	ldr	x26, [x8, #8]
    5c78:	aa1603e0 	mov	x0, x22
    5c7c:	aa1803e1 	mov	x1, x24
    5c80:	528000e2 	mov	w2, #0x7                   	// #7
    5c84:	97fffc37 	bl	4d60 <_ZSt16__ostream_insertIcSt11char_traitsIcEERSt13basic_ostreamIT_T0_ES6_PKS3_l@plt>
    5c88:	f9404f48 	ldr	x8, [x26, #152]
    5c8c:	a9400901 	ldp	x1, x2, [x8]
    5c90:	aa1603e0 	mov	x0, x22
    5c94:	97fffc33 	bl	4d60 <_ZSt16__ostream_insertIcSt11char_traitsIcEERSt13basic_ostreamIT_T0_ES6_PKS3_l@plt>
    5c98:	f9400008 	ldr	x8, [x0]
    5c9c:	aa0003f3 	mov	x19, x0
    5ca0:	f85e8108 	ldur	x8, [x8, #-24]
    5ca4:	8b080008 	add	x8, x0, x8
    5ca8:	f940791c 	ldr	x28, [x8, #240]
    5cac:	b40021dc 	cbz	x28, 60e4 <main+0xb10>
    5cb0:	3940e388 	ldrb	w8, [x28, #56]
    5cb4:	34000068 	cbz	w8, 5cc0 <main+0x6ec>
    5cb8:	39410f81 	ldrb	w1, [x28, #67]
    5cbc:	14000009 	b	5ce0 <main+0x70c>
    5cc0:	aa1c03e0 	mov	x0, x28
    5cc4:	97fffc2b 	bl	4d70 <_ZNKSt5ctypeIcE13_M_widen_initEv@plt>
    5cc8:	f9400388 	ldr	x8, [x28]
    5ccc:	f9401908 	ldr	x8, [x8, #48]
    5cd0:	aa1c03e0 	mov	x0, x28
    5cd4:	52800141 	mov	w1, #0xa                   	// #10
    5cd8:	d63f0100 	blr	x8
    5cdc:	2a0003e1 	mov	w1, w0
    5ce0:	aa1303e0 	mov	x0, x19
    5ce4:	97fffb3b 	bl	49d0 <_ZNSo3putEc@plt>
    5ce8:	97fffbd6 	bl	4c40 <_ZNSo5flushEv@plt>
    5cec:	34000834 	cbz	w20, 5df0 <main+0x81c>
    5cf0:	aa1603e0 	mov	x0, x22
    5cf4:	b0000121 	adrp	x1, 2a000 <_ZN6google8protobuf18StringPrintfVectorEPKcRKSt6vectorINSt7__cxx1112basic_stringIcSt11char_traitsIcESaIcEEESaIS9_EE+0x2ec>
    5cf8:	911bbc21 	add	x1, x1, #0x6ef
    5cfc:	528001a2 	mov	w2, #0xd                   	// #13
    5d00:	97fffc18 	bl	4d60 <_ZSt16__ostream_insertIcSt11char_traitsIcEERSt13basic_ostreamIT_T0_ES6_PKS3_l@plt>
    5d04:	b940a741 	ldr	w1, [x26, #164]
    5d08:	aa1603e0 	mov	x0, x22
    5d0c:	97fffbc9 	bl	4c30 <_ZNSo9_M_insertImEERSoT_@plt>
    5d10:	f9400008 	ldr	x8, [x0]
    5d14:	aa0003f3 	mov	x19, x0
    5d18:	f85e8108 	ldur	x8, [x8, #-24]
    5d1c:	8b080008 	add	x8, x0, x8
    5d20:	f940791c 	ldr	x28, [x8, #240]
    5d24:	b4001e1c 	cbz	x28, 60e4 <main+0xb10>
    5d28:	3940e388 	ldrb	w8, [x28, #56]
    5d2c:	34000068 	cbz	w8, 5d38 <main+0x764>
    5d30:	39410f81 	ldrb	w1, [x28, #67]
    5d34:	14000009 	b	5d58 <main+0x784>
    5d38:	aa1c03e0 	mov	x0, x28
    5d3c:	97fffc0d 	bl	4d70 <_ZNKSt5ctypeIcE13_M_widen_initEv@plt>
    5d40:	f9400388 	ldr	x8, [x28]
    5d44:	f9401908 	ldr	x8, [x8, #48]
    5d48:	aa1c03e0 	mov	x0, x28
    5d4c:	52800141 	mov	w1, #0xa                   	// #10
    5d50:	d63f0100 	blr	x8
    5d54:	2a0003e1 	mov	w1, w0
    5d58:	aa1303e0 	mov	x0, x19
    5d5c:	97fffb1d 	bl	49d0 <_ZNSo3putEc@plt>
    5d60:	97fffbb8 	bl	4c40 <_ZNSo5flushEv@plt>
    5d64:	b940a748 	ldr	w8, [x26, #164]
    5d68:	6b08029f 	cmp	w20, w8
    5d6c:	540000a0 	b.eq	5d80 <main+0x7ac>  // b.none
    5d70:	b9404b48 	ldr	w8, [x26, #72]
    5d74:	b900a754 	str	w20, [x26, #164]
    5d78:	321e0108 	orr	w8, w8, #0x4
    5d7c:	b9004b48 	str	w8, [x26, #72]
    5d80:	aa1603e0 	mov	x0, x22
    5d84:	aa1b03e1 	mov	x1, x27
    5d88:	528001a2 	mov	w2, #0xd                   	// #13
    5d8c:	97fffbf5 	bl	4d60 <_ZSt16__ostream_insertIcSt11char_traitsIcEERSt13basic_ostreamIT_T0_ES6_PKS3_l@plt>
    5d90:	b940a741 	ldr	w1, [x26, #164]
    5d94:	aa1603e0 	mov	x0, x22
    5d98:	97fffba6 	bl	4c30 <_ZNSo9_M_insertImEERSoT_@plt>
    5d9c:	f9400008 	ldr	x8, [x0]
    5da0:	aa0003f3 	mov	x19, x0
    5da4:	f85e8108 	ldur	x8, [x8, #-24]
    5da8:	8b080008 	add	x8, x0, x8
    5dac:	f940791c 	ldr	x28, [x8, #240]
    5db0:	b40019bc 	cbz	x28, 60e4 <main+0xb10>
    5db4:	3940e388 	ldrb	w8, [x28, #56]
    5db8:	34000068 	cbz	w8, 5dc4 <main+0x7f0>
    5dbc:	39410f81 	ldrb	w1, [x28, #67]
    5dc0:	14000009 	b	5de4 <main+0x810>
    5dc4:	aa1c03e0 	mov	x0, x28
    5dc8:	97fffbea 	bl	4d70 <_ZNKSt5ctypeIcE13_M_widen_initEv@plt>
    5dcc:	f9400388 	ldr	x8, [x28]
    5dd0:	f9401908 	ldr	x8, [x8, #48]
    5dd4:	aa1c03e0 	mov	x0, x28
    5dd8:	52800141 	mov	w1, #0xa                   	// #10
    5ddc:	d63f0100 	blr	x8
    5de0:	2a0003e1 	mov	w1, w0
    5de4:	aa1303e0 	mov	x0, x19
    5de8:	97fffafa 	bl	49d0 <_ZNSo3putEc@plt>
    5dec:	97fffb95 	bl	4c40 <_ZNSo5flushEv@plt>
    5df0:	34fff357 	cbz	w23, 5c58 <main+0x684>
    5df4:	aa1603e0 	mov	x0, x22
    5df8:	b0000121 	adrp	x1, 2a000 <_ZN6google8protobuf18StringPrintfVectorEPKcRKSt6vectorINSt7__cxx1112basic_stringIcSt11char_traitsIcESaIcEEESaIS9_EE+0x2ec>
    5dfc:	911c2c21 	add	x1, x1, #0x70b
    5e00:	528002e2 	mov	w2, #0x17                  	// #23
    5e04:	97fffbd7 	bl	4d60 <_ZSt16__ostream_insertIcSt11char_traitsIcEERSt13basic_ostreamIT_T0_ES6_PKS3_l@plt>
    5e08:	f94002c8 	ldr	x8, [x22]
    5e0c:	f85e8108 	ldur	x8, [x8, #-24]
    5e10:	8b0802c8 	add	x8, x22, x8
    5e14:	f9407913 	ldr	x19, [x8, #240]
    5e18:	b4001673 	cbz	x19, 60e4 <main+0xb10>
    5e1c:	3940e268 	ldrb	w8, [x19, #56]
    5e20:	34000068 	cbz	w8, 5e2c <main+0x858>
    5e24:	39410e61 	ldrb	w1, [x19, #67]
    5e28:	14000009 	b	5e4c <main+0x878>
    5e2c:	aa1303e0 	mov	x0, x19
    5e30:	97fffbd0 	bl	4d70 <_ZNKSt5ctypeIcE13_M_widen_initEv@plt>
    5e34:	f9400268 	ldr	x8, [x19]
    5e38:	f9401908 	ldr	x8, [x8, #48]
    5e3c:	aa1303e0 	mov	x0, x19
    5e40:	52800141 	mov	w1, #0xa                   	// #10
    5e44:	d63f0100 	blr	x8
    5e48:	2a0003e1 	mov	w1, w0
    5e4c:	aa1603e0 	mov	x0, x22
    5e50:	97fffae0 	bl	49d0 <_ZNSo3putEc@plt>
    5e54:	97fffb7b 	bl	4c40 <_ZNSo5flushEv@plt>
    5e58:	b9405b48 	ldr	w8, [x26, #88]
    5e5c:	7100051f 	cmp	w8, #0x1
    5e60:	54ffefab 	b.lt	5c54 <main+0x680>  // b.tstop
    5e64:	2a1f03fc 	mov	w28, wzr
    5e68:	91014353 	add	x19, x26, #0x50
    5e6c:	1400000a 	b	5e94 <main+0x8c0>
    5e70:	aa1303e0 	mov	x0, x19
    5e74:	2a1c03e1 	mov	w1, w28
    5e78:	52800022 	mov	w2, #0x1                   	// #1
    5e7c:	94007755 	bl	23bd0 <_ZN6google8protobuf8internal20RepeatedPtrFieldBase8CloseGapEii>
    5e80:	5100079c 	sub	w28, w28, #0x1
    5e84:	b9405b48 	ldr	w8, [x26, #88]
    5e88:	1100079c 	add	w28, w28, #0x1
    5e8c:	6b08039f 	cmp	w28, w8
    5e90:	54ffee2a 	b.ge	5c54 <main+0x680>  // b.tcont
    5e94:	f9403349 	ldr	x9, [x26, #96]
    5e98:	8b3ccd29 	add	x9, x9, w28, sxtw #3
    5e9c:	f9400520 	ldr	x0, [x9, #8]
    5ea0:	b9403009 	ldr	w9, [x0, #48]
    5ea4:	35ffff29 	cbnz	w9, 5e88 <main+0x8b4>
    5ea8:	39404009 	ldrb	w9, [x0, #16]
    5eac:	3707fee9 	tbnz	w9, #0, 5e88 <main+0x8b4>
    5eb0:	f9400268 	ldr	x8, [x19]
    5eb4:	b5fffde8 	cbnz	x8, 5e70 <main+0x89c>
    5eb8:	f9400008 	ldr	x8, [x0]
    5ebc:	f9400508 	ldr	x8, [x8, #8]
    5ec0:	d63f0100 	blr	x8
    5ec4:	17ffffeb 	b	5e70 <main+0x89c>
    5ec8:	f85b03a8 	ldur	x8, [x29, #-80]
    5ecc:	8b190108 	add	x8, x8, x25
    5ed0:	f9400500 	ldr	x0, [x8, #8]
    5ed4:	b40000c0 	cbz	x0, 5eec <main+0x918>
    5ed8:	f85a03a8 	ldur	x8, [x29, #-96]
    5edc:	b5000088 	cbnz	x8, 5eec <main+0x918>
    5ee0:	f9400008 	ldr	x8, [x0]
    5ee4:	f9400508 	ldr	x8, [x8, #8]
    5ee8:	d63f0100 	blr	x8
    5eec:	f9401be0 	ldr	x0, [sp, #48]
    5ef0:	2a1503e1 	mov	w1, w21
    5ef4:	52800022 	mov	w2, #0x1                   	// #1
    5ef8:	94007736 	bl	23bd0 <_ZN6google8protobuf8internal20RepeatedPtrFieldBase8CloseGapEii>
    5efc:	510006b5 	sub	w21, w21, #0x1
    5f00:	17ffff56 	b	5c58 <main+0x684>
    5f04:	d10343a8 	sub	x8, x29, #0xd0
    5f08:	381403bf 	sturb	wzr, [x29, #-192]
    5f0c:	91004116 	add	x22, x8, #0x10
    5f10:	a9337fb6 	stp	x22, xzr, [x29, #-208]
    5f14:	d102c3a0 	sub	x0, x29, #0xb0
    5f18:	d10343a1 	sub	x1, x29, #0xd0
    5f1c:	94007621 	bl	237a0 <_ZNK6google8protobuf11MessageLite17SerializeToStringEPNSt7__cxx1112basic_stringIcSt11char_traitsIcESaIcEEE>
    5f20:	a9425ff5 	ldp	x21, x23, [sp, #32]
    5f24:	294253e8 	ldp	w8, w20, [sp, #16]
    5f28:	f9400ff8 	ldr	x24, [sp, #24]
    5f2c:	340003e8 	cbz	w8, 5fa8 <main+0x9d4>
    5f30:	b9400fe8 	ldr	w8, [sp, #12]
    5f34:	2a080288 	orr	w8, w20, w8
    5f38:	36000168 	tbz	w8, #0, 5f64 <main+0x990>
    5f3c:	b0000128 	adrp	x8, 2a000 <_ZN6google8protobuf18StringPrintfVectorEPKcRKSt6vectorINSt7__cxx1112basic_stringIcSt11char_traitsIcESaIcEEESaIS9_EE+0x2ec>
    5f40:	911cf908 	add	x8, x8, #0x73e
    5f44:	b0000129 	adrp	x9, 2a000 <_ZN6google8protobuf18StringPrintfVectorEPKcRKSt6vectorINSt7__cxx1112basic_stringIcSt11char_traitsIcESaIcEEESaIS9_EE+0x2ec>
    5f48:	911c8d29 	add	x9, x9, #0x723
    5f4c:	7100029f 	cmp	w20, #0x0
    5f50:	9a881121 	csel	x1, x9, x8, ne  // ne = any
    5f54:	b0000200 	adrp	x0, 46000 <GCC_except_table137+0x10ca0>
    5f58:	52800342 	mov	w2, #0x1a                  	// #26
    5f5c:	f9475c00 	ldr	x0, [x0, #3768]
    5f60:	97fffb80 	bl	4d60 <_ZSt16__ostream_insertIcSt11char_traitsIcEERSt13basic_ostreamIT_T0_ES6_PKS3_l@plt>
    5f64:	9100e3e8 	add	x8, sp, #0x38
    5f68:	52000282 	eor	w2, w20, #0x1
    5f6c:	91004113 	add	x19, x8, #0x10
    5f70:	390123ff 	strb	wzr, [sp, #72]
    5f74:	a903fff3 	stp	x19, xzr, [sp, #56]
    5f78:	d10343a0 	sub	x0, x29, #0xd0
    5f7c:	9100e3e1 	add	x1, sp, #0x38
    5f80:	12800003 	mov	w3, #0xffffffff            	// #-1
    5f84:	2a1f03e4 	mov	w4, wzr
    5f88:	94000196 	bl	65e0 <_ZN6mapnik16vector_tile_impl13zlib_compressERKNSt7__cxx1112basic_stringIcSt11char_traitsIcESaIcEEERS6_bii>
    5f8c:	d10343a0 	sub	x0, x29, #0xd0
    5f90:	9100e3e1 	add	x1, sp, #0x38
    5f94:	97fffafb 	bl	4b80 <_ZNSt7__cxx1112basic_stringIcSt11char_traitsIcESaIcEE9_M_assignERKS4_@plt>
    5f98:	f9401fe0 	ldr	x0, [sp, #56]
    5f9c:	eb13001f 	cmp	x0, x19
    5fa0:	54000040 	b.eq	5fa8 <main+0x9d4>  // b.none
    5fa4:	97fffb57 	bl	4d00 <_ZdlPv@plt>
    5fa8:	9100e3e0 	add	x0, sp, #0x38
    5fac:	d100a3a1 	sub	x1, x29, #0x28
    5fb0:	52800202 	mov	w2, #0x10                  	// #16
    5fb4:	97fffbeb 	bl	4f60 <_ZNSt14basic_ofstreamIcSt11char_traitsIcEEC1ERKNSt7__cxx1112basic_stringIcS1_SaIcEEESt13_Ios_Openmode@plt>
    5fb8:	a9730ba1 	ldp	x1, x2, [x29, #-208]
    5fbc:	9100e3e0 	add	x0, sp, #0x38
    5fc0:	97fffb68 	bl	4d60 <_ZSt16__ostream_insertIcSt11char_traitsIcEERSt13basic_ostreamIT_T0_ES6_PKS3_l@plt>
    5fc4:	b0000200 	adrp	x0, 46000 <GCC_except_table137+0x10ca0>
    5fc8:	b0000121 	adrp	x1, 2a000 <_ZN6google8protobuf18StringPrintfVectorEPKcRKSt6vectorINSt7__cxx1112basic_stringIcSt11char_traitsIcESaIcEEESaIS9_EE+0x2ec>
    5fcc:	911d6421 	add	x1, x1, #0x759
    5fd0:	52800142 	mov	w2, #0xa                   	// #10
    5fd4:	f946a800 	ldr	x0, [x0, #3408]
    5fd8:	97fffb62 	bl	4d60 <_ZSt16__ostream_insertIcSt11char_traitsIcEERSt13basic_ostreamIT_T0_ES6_PKS3_l@plt>
    5fdc:	a97d8ba1 	ldp	x1, x2, [x29, #-40]
    5fe0:	b0000200 	adrp	x0, 46000 <GCC_except_table137+0x10ca0>
    5fe4:	f946a800 	ldr	x0, [x0, #3408]
    5fe8:	97fffb5e 	bl	4d60 <_ZSt16__ostream_insertIcSt11char_traitsIcEERSt13basic_ostreamIT_T0_ES6_PKS3_l@plt>
    5fec:	f9400008 	ldr	x8, [x0]
    5ff0:	aa0003f3 	mov	x19, x0
    5ff4:	f85e8108 	ldur	x8, [x8, #-24]
    5ff8:	8b080008 	add	x8, x0, x8
    5ffc:	f9407914 	ldr	x20, [x8, #240]
    6000:	b4000954 	cbz	x20, 6128 <main+0xb54>
    6004:	3940e288 	ldrb	w8, [x20, #56]
    6008:	34000068 	cbz	w8, 6014 <main+0xa40>
    600c:	39410e81 	ldrb	w1, [x20, #67]
    6010:	14000009 	b	6034 <main+0xa60>
    6014:	aa1403e0 	mov	x0, x20
    6018:	97fffb56 	bl	4d70 <_ZNKSt5ctypeIcE13_M_widen_initEv@plt>
    601c:	f9400288 	ldr	x8, [x20]
    6020:	f9401908 	ldr	x8, [x8, #48]
    6024:	aa1403e0 	mov	x0, x20
    6028:	52800141 	mov	w1, #0xa                   	// #10
    602c:	d63f0100 	blr	x8
    6030:	2a0003e1 	mov	w1, w0
    6034:	aa1303e0 	mov	x0, x19
    6038:	97fffa66 	bl	49d0 <_ZNSo3putEc@plt>
    603c:	97fffb01 	bl	4c40 <_ZNSo5flushEv@plt>
    6040:	90000208 	adrp	x8, 46000 <GCC_except_table137+0x10ca0>
    6044:	9100e3f3 	add	x19, sp, #0x38
    6048:	91002260 	add	x0, x19, #0x8
    604c:	f9470108 	ldr	x8, [x8, #3584]
    6050:	f9400109 	ldr	x9, [x8]
    6054:	f9400d08 	ldr	x8, [x8, #24]
    6058:	f9001fe9 	str	x9, [sp, #56]
    605c:	f85e8129 	ldur	x9, [x9, #-24]
    6060:	f8296a68 	str	x8, [x19, x9]
    6064:	97fffb1f 	bl	4ce0 <_ZNSt13basic_filebufIcSt11char_traitsIcEED2Ev@plt>
    6068:	91040260 	add	x0, x19, #0x100
    606c:	97fffa8d 	bl	4aa0 <_ZNSt8ios_baseD2Ev@plt>
    6070:	f85303a0 	ldur	x0, [x29, #-208]
    6074:	eb16001f 	cmp	x0, x22
    6078:	54000040 	b.eq	6080 <main+0xaac>  // b.none
    607c:	97fffb21 	bl	4d00 <_ZdlPv@plt>
    6080:	d102c3a0 	sub	x0, x29, #0xb0
    6084:	94001210 	bl	a8c4 <_ZN11vector_tile4TileD1Ev>
    6088:	f85b83a0 	ldur	x0, [x29, #-72]
    608c:	eb18001f 	cmp	x0, x24
    6090:	54000040 	b.eq	6098 <main+0xac4>  // b.none
    6094:	97fffb1b 	bl	4d00 <_ZdlPv@plt>
    6098:	aa1703e0 	mov	x0, x23
    609c:	97fffaa5 	bl	4b30 <fclose@plt>
    60a0:	2a1f03f3 	mov	w19, wzr
    60a4:	f85d83a0 	ldur	x0, [x29, #-40]
    60a8:	eb15001f 	cmp	x0, x21
    60ac:	54000040 	b.eq	60b4 <main+0xae0>  // b.none
    60b0:	97fffb14 	bl	4d00 <_ZdlPv@plt>
    60b4:	2a1303e0 	mov	w0, w19
    60b8:	910c43ff 	add	sp, sp, #0x310
    60bc:	a9454ff4 	ldp	x20, x19, [sp, #80]
    60c0:	a94457f6 	ldp	x22, x21, [sp, #64]
    60c4:	a9435ff8 	ldp	x24, x23, [sp, #48]
    60c8:	a94267fa 	ldp	x26, x25, [sp, #32]
    60cc:	a9416ffc 	ldp	x28, x27, [sp, #16]
    60d0:	a8c67bfd 	ldp	x29, x30, [sp], #96
    60d4:	d65f03c0 	ret
    60d8:	b9000ff3 	str	w19, [sp, #12]
    60dc:	2a1303f6 	mov	w22, w19
    60e0:	17fffec8 	b	5c00 <main+0x62c>
    60e4:	97fffb37 	bl	4dc0 <_ZSt16__throw_bad_castv@plt>
    60e8:	90000120 	adrp	x0, 2a000 <_ZN6google8protobuf18StringPrintfVectorEPKcRKSt6vectorINSt7__cxx1112basic_stringIcSt11char_traitsIcESaIcEEESaIS9_EE+0x2ec>
    60ec:	911dd000 	add	x0, x0, #0x774
    60f0:	97fffae4 	bl	4c80 <_ZSt19__throw_logic_errorPKc@plt>
    60f4:	90000120 	adrp	x0, 2a000 <_ZN6google8protobuf18StringPrintfVectorEPKcRKSt6vectorINSt7__cxx1112basic_stringIcSt11char_traitsIcESaIcEEESaIS9_EE+0x2ec>
    60f8:	911dbc00 	add	x0, x0, #0x76f
    60fc:	97fffb51 	bl	4e40 <_ZSt20__throw_out_of_rangePKc@plt>
    6100:	90000120 	adrp	x0, 2a000 <_ZN6google8protobuf18StringPrintfVectorEPKcRKSt6vectorINSt7__cxx1112basic_stringIcSt11char_traitsIcESaIcEEESaIS9_EE+0x2ec>
    6104:	911dd000 	add	x0, x0, #0x774
    6108:	97fffade 	bl	4c80 <_ZSt19__throw_logic_errorPKc@plt>
    610c:	90000120 	adrp	x0, 2a000 <_ZN6google8protobuf18StringPrintfVectorEPKcRKSt6vectorINSt7__cxx1112basic_stringIcSt11char_traitsIcESaIcEEESaIS9_EE+0x2ec>
    6110:	911dbc00 	add	x0, x0, #0x76f
    6114:	97fffabb 	bl	4c00 <_ZSt24__throw_invalid_argumentPKc@plt>
    6118:	90000120 	adrp	x0, 2a000 <_ZN6google8protobuf18StringPrintfVectorEPKcRKSt6vectorINSt7__cxx1112basic_stringIcSt11char_traitsIcESaIcEEESaIS9_EE+0x2ec>
    611c:	911dd000 	add	x0, x0, #0x774
    6120:	97fffad8 	bl	4c80 <_ZSt19__throw_logic_errorPKc@plt>
    6124:	97fffb27 	bl	4dc0 <_ZSt16__throw_bad_castv@plt>
    6128:	97fffb26 	bl	4dc0 <_ZSt16__throw_bad_castv@plt>
    612c:	f9000ff9 	str	x25, [sp, #24]
    6130:	14000023 	b	61bc <main+0xbe8>
    6134:	1400001e 	b	61ac <main+0xbd8>
    6138:	f9401fe8 	ldr	x8, [sp, #56]
    613c:	aa0103f7 	mov	x23, x1
    6140:	aa0003f5 	mov	x21, x0
    6144:	f9000ff9 	str	x25, [sp, #24]
    6148:	eb13011f 	cmp	x8, x19
    614c:	54000a80 	b.eq	629c <main+0xcc8>  // b.none
    6150:	aa0803e0 	mov	x0, x8
    6154:	97fffaeb 	bl	4d00 <_ZdlPv@plt>
    6158:	14000051 	b	629c <main+0xcc8>
    615c:	aa0103f7 	mov	x23, x1
    6160:	aa0003f5 	mov	x21, x0
    6164:	b4000a76 	cbz	x22, 62b0 <main+0xcdc>
    6168:	aa1603e0 	mov	x0, x22
    616c:	97fffb19 	bl	4dd0 <_ZdaPv@plt>
    6170:	14000050 	b	62b0 <main+0xcdc>
    6174:	f90013f5 	str	x21, [sp, #32]
    6178:	aa0103f7 	mov	x23, x1
    617c:	aa0003f5 	mov	x21, x0
    6180:	1400001a 	b	61e8 <main+0xc14>
    6184:	1400003d 	b	6278 <main+0xca4>
    6188:	14000009 	b	61ac <main+0xbd8>
    618c:	f9401fe8 	ldr	x8, [sp, #56]
    6190:	aa0103f7 	mov	x23, x1
    6194:	aa0003f5 	mov	x21, x0
    6198:	eb13011f 	cmp	x8, x19
    619c:	54000420 	b.eq	6220 <main+0xc4c>  // b.none
    61a0:	aa0803e0 	mov	x0, x8
    61a4:	97fffad7 	bl	4d00 <_ZdlPv@plt>
    61a8:	1400001e 	b	6220 <main+0xc4c>
    61ac:	aa0103f7 	mov	x23, x1
    61b0:	aa0003f5 	mov	x21, x0
    61b4:	1400001b 	b	6220 <main+0xc4c>
    61b8:	14000035 	b	628c <main+0xcb8>
    61bc:	aa0103f7 	mov	x23, x1
    61c0:	aa0003f5 	mov	x21, x0
    61c4:	14000036 	b	629c <main+0xcc8>
    61c8:	f9401fe8 	ldr	x8, [sp, #56]
    61cc:	f90013f5 	str	x21, [sp, #32]
    61d0:	aa0103f7 	mov	x23, x1
    61d4:	aa0003f5 	mov	x21, x0
    61d8:	eb16011f 	cmp	x8, x22
    61dc:	54000060 	b.eq	61e8 <main+0xc14>  // b.none
    61e0:	aa0803e0 	mov	x0, x8
    61e4:	97fffac7 	bl	4d00 <_ZdlPv@plt>
    61e8:	f85503a0 	ldur	x0, [x29, #-176]
    61ec:	eb13001f 	cmp	x0, x19
    61f0:	54000640 	b.eq	62b8 <main+0xce4>  // b.none
    61f4:	97fffac3 	bl	4d00 <_ZdlPv@plt>
    61f8:	14000030 	b	62b8 <main+0xce4>
    61fc:	1400000e 	b	6234 <main+0xc60>
    6200:	14000001 	b	6204 <main+0xc30>
    6204:	aa0103f7 	mov	x23, x1
    6208:	aa0003f5 	mov	x21, x0
    620c:	14000017 	b	6268 <main+0xc94>
    6210:	aa0003f5 	mov	x21, x0
    6214:	9100e3e0 	add	x0, sp, #0x38
    6218:	aa0103f7 	mov	x23, x1
    621c:	97fffb11 	bl	4e60 <_ZNSt14basic_ofstreamIcSt11char_traitsIcEED1Ev@plt>
    6220:	f85303a0 	ldur	x0, [x29, #-208]
    6224:	eb16001f 	cmp	x0, x22
    6228:	54000360 	b.eq	6294 <main+0xcc0>  // b.none
    622c:	97fffab5 	bl	4d00 <_ZdlPv@plt>
    6230:	14000019 	b	6294 <main+0xcc0>
    6234:	aa0103f7 	mov	x23, x1
    6238:	aa0003f5 	mov	x21, x0
    623c:	14000024 	b	62cc <main+0xcf8>
    6240:	1400000e 	b	6278 <main+0xca4>
    6244:	aa0103f7 	mov	x23, x1
    6248:	b9400268 	ldr	w8, [x19]
    624c:	aa0003f5 	mov	x21, x0
    6250:	35000048 	cbnz	w8, 6258 <main+0xc84>
    6254:	b900027a 	str	w26, [x19]
    6258:	f85503a0 	ldur	x0, [x29, #-176]
    625c:	eb14001f 	cmp	x0, x20
    6260:	54000040 	b.eq	6268 <main+0xc94>  // b.none
    6264:	97fffaa7 	bl	4d00 <_ZdlPv@plt>
    6268:	f9401fe0 	ldr	x0, [sp, #56]
    626c:	eb19001f 	cmp	x0, x25
    6270:	540001e1 	b.ne	62ac <main+0xcd8>  // b.any
    6274:	1400000f 	b	62b0 <main+0xcdc>
    6278:	aa0103f7 	mov	x23, x1
    627c:	aa0003f5 	mov	x21, x0
    6280:	1400000c 	b	62b0 <main+0xcdc>
    6284:	14000002 	b	628c <main+0xcb8>
    6288:	14000001 	b	628c <main+0xcb8>
    628c:	aa0103f7 	mov	x23, x1
    6290:	aa0003f5 	mov	x21, x0
    6294:	d102c3a0 	sub	x0, x29, #0xb0
    6298:	9400118b 	bl	a8c4 <_ZN11vector_tile4TileD1Ev>
    629c:	f85b83a0 	ldur	x0, [x29, #-72]
    62a0:	f9400fe8 	ldr	x8, [sp, #24]
    62a4:	eb08001f 	cmp	x0, x8
    62a8:	54000040 	b.eq	62b0 <main+0xcdc>  // b.none
    62ac:	97fffa95 	bl	4d00 <_ZdlPv@plt>
    62b0:	f94017e0 	ldr	x0, [sp, #40]
    62b4:	97fffa1f 	bl	4b30 <fclose@plt>
    62b8:	f85d83a0 	ldur	x0, [x29, #-40]
    62bc:	f94013e8 	ldr	x8, [sp, #32]
    62c0:	eb08001f 	cmp	x0, x8
    62c4:	54000040 	b.eq	62cc <main+0xcf8>  // b.none
    62c8:	97fffa8e 	bl	4d00 <_ZdlPv@plt>
    62cc:	710006ff 	cmp	w23, #0x1
    62d0:	54000341 	b.ne	6338 <main+0xd64>  // b.any
    62d4:	aa1503e0 	mov	x0, x21
    62d8:	97fffa0e 	bl	4b10 <__cxa_begin_catch@plt>
    62dc:	aa0003f3 	mov	x19, x0
    62e0:	90000200 	adrp	x0, 46000 <GCC_except_table137+0x10ca0>
    62e4:	90000121 	adrp	x1, 2a000 <_ZN6google8protobuf18StringPrintfVectorEPKcRKSt6vectorINSt7__cxx1112basic_stringIcSt11char_traitsIcESaIcEEESaIS9_EE+0x2ec>
    62e8:	911d9021 	add	x1, x1, #0x764
    62ec:	528000e2 	mov	w2, #0x7                   	// #7
    62f0:	f946a800 	ldr	x0, [x0, #3408]
    62f4:	97fffa9b 	bl	4d60 <_ZSt16__ostream_insertIcSt11char_traitsIcEERSt13basic_ostreamIT_T0_ES6_PKS3_l@plt>
    62f8:	f9400268 	ldr	x8, [x19]
    62fc:	aa1303e0 	mov	x0, x19
    6300:	f9400908 	ldr	x8, [x8, #16]
    6304:	d63f0100 	blr	x8
    6308:	aa0003e1 	mov	x1, x0
    630c:	90000200 	adrp	x0, 46000 <GCC_except_table137+0x10ca0>
    6310:	f946a800 	ldr	x0, [x0, #3408]
    6314:	97fffa7f 	bl	4d10 <_ZStlsISt11char_traitsIcEERSt13basic_ostreamIcT_ES5_PKc@plt>
    6318:	90000121 	adrp	x1, 2a000 <_ZN6google8protobuf18StringPrintfVectorEPKcRKSt6vectorINSt7__cxx1112basic_stringIcSt11char_traitsIcESaIcEEESaIS9_EE+0x2ec>
    631c:	911b2c21 	add	x1, x1, #0x6cb
    6320:	52800022 	mov	w2, #0x1                   	// #1
    6324:	97fffa8f 	bl	4d60 <_ZSt16__ostream_insertIcSt11char_traitsIcEERSt13basic_ostreamIT_T0_ES6_PKS3_l@plt>
    6328:	97fffae6 	bl	4ec0 <__cxa_end_catch@plt>
    632c:	17fffceb 	b	56d8 <main+0x104>
    6330:	aa0003f5 	mov	x21, x0
    6334:	97fffae3 	bl	4ec0 <__cxa_end_catch@plt>
    6338:	aa1503e0 	mov	x0, x21
    633c:	97fffaf1 	bl	4f00 <_Unwind_Resume@plt>
    6340:	94000001 	bl	6344 <__clang_call_terminate>

0000000000006344 <__clang_call_terminate>:
    6344:	f81f0ffe 	str	x30, [sp, #-16]!
    6348:	97fff9f2 	bl	4b10 <__cxa_begin_catch@plt>
    634c:	97fff9b9 	bl	4a30 <_ZSt9terminatev@plt>

0000000000006350 <_ZN6mapnik16vector_tile_impl15zlib_decompressEPKcmRNSt7__cxx1112basic_stringIcSt11char_traitsIcESaIcEEE>:
    6350:	d10343ff 	sub	sp, sp, #0xd0
    6354:	a9097bfd 	stp	x29, x30, [sp, #144]
    6358:	f90053f7 	str	x23, [sp, #160]
    635c:	a90b57f6 	stp	x22, x21, [sp, #176]
    6360:	a90c4ff4 	stp	x20, x19, [sp, #192]
    6364:	910243fd 	add	x29, sp, #0x90
    6368:	aa0203f3 	mov	x19, x2
    636c:	aa0103f5 	mov	x21, x1
    6370:	aa0003f6 	mov	x22, x0
    6374:	90000122 	adrp	x2, 2a000 <_ZN6google8protobuf18StringPrintfVectorEPKcRKSt6vectorINSt7__cxx1112basic_stringIcSt11char_traitsIcESaIcEEESaIS9_EE+0x2ec>
    6378:	911e7842 	add	x2, x2, #0x79e
    637c:	910083e0 	add	x0, sp, #0x20
    6380:	528005e1 	mov	w1, #0x2f                  	// #47
    6384:	52800e03 	mov	w3, #0x70                  	// #112
    6388:	b9002bff 	str	wzr, [sp, #40]
    638c:	f90013ff 	str	xzr, [sp, #32]
    6390:	a906ffff 	stp	xzr, xzr, [sp, #104]
    6394:	f90033ff 	str	xzr, [sp, #96]
    6398:	97fffa56 	bl	4cf0 <inflateInit2_@plt>
    639c:	aa1f03f4 	mov	x20, xzr
    63a0:	d37ffab7 	lsl	x23, x21, #1
    63a4:	f90013f6 	str	x22, [sp, #32]
    63a8:	b9002bf5 	str	w21, [sp, #40]
    63ac:	14000005 	b	63c0 <_ZN6mapnik16vector_tile_impl15zlib_decompressEPKcmRNSt7__cxx1112basic_stringIcSt11char_traitsIcESaIcEEE+0x70>
    63b0:	b94043e8 	ldr	w8, [sp, #64]
    63b4:	cb0802e9 	sub	x9, x23, x8
    63b8:	8b140134 	add	x20, x9, x20
    63bc:	35000428 	cbnz	w8, 6440 <_ZN6mapnik16vector_tile_impl15zlib_decompressEPKcmRNSt7__cxx1112basic_stringIcSt11char_traitsIcESaIcEEE+0xf0>
    63c0:	8b170281 	add	x1, x20, x23
    63c4:	aa1303e0 	mov	x0, x19
    63c8:	2a1f03e2 	mov	w2, wzr
    63cc:	97fff9a9 	bl	4a70 <_ZNSt7__cxx1112basic_stringIcSt11char_traitsIcESaIcEE6resizeEmc@plt>
    63d0:	f9400268 	ldr	x8, [x19]
    63d4:	910083e0 	add	x0, sp, #0x20
    63d8:	52800081 	mov	w1, #0x4                   	// #4
    63dc:	b90043f7 	str	w23, [sp, #64]
    63e0:	8b140108 	add	x8, x8, x20
    63e4:	f9001fe8 	str	x8, [sp, #56]
    63e8:	97fffa3a 	bl	4cd0 <inflate@plt>
    63ec:	7100081f 	cmp	w0, #0x2
    63f0:	54fffe03 	b.cc	63b0 <_ZN6mapnik16vector_tile_impl15zlib_decompressEPKcmRNSt7__cxx1112basic_stringIcSt11char_traitsIcESaIcEEE+0x60>  // b.lo, b.ul, b.last
    63f4:	3100141f 	cmn	w0, #0x5
    63f8:	54fffdc0 	b.eq	63b0 <_ZN6mapnik16vector_tile_impl15zlib_decompressEPKcmRNSt7__cxx1112basic_stringIcSt11char_traitsIcESaIcEEE+0x60>  // b.none
    63fc:	f9402be1 	ldr	x1, [sp, #80]
    6400:	910003e0 	mov	x0, sp
    6404:	910063a2 	add	x2, x29, #0x18
    6408:	97fff9be 	bl	4b00 <_ZNSt7__cxx1112basic_stringIcSt11char_traitsIcESaIcEEC2EPKcRKS3_@plt>
    640c:	910083e0 	add	x0, sp, #0x20
    6410:	97fffa4c 	bl	4d40 <inflateEnd@plt>
    6414:	52800200 	mov	w0, #0x10                  	// #16
    6418:	97fff9ca 	bl	4b40 <__cxa_allocate_exception@plt>
    641c:	aa0003f4 	mov	x20, x0
    6420:	910003e1 	mov	x1, sp
    6424:	97fffaa3 	bl	4eb0 <_ZNSt13runtime_errorC1ERKNSt7__cxx1112basic_stringIcSt11char_traitsIcESaIcEEE@plt>
    6428:	90000201 	adrp	x1, 46000 <GCC_except_table137+0x10ca0>
    642c:	90000202 	adrp	x2, 46000 <GCC_except_table137+0x10ca0>
    6430:	aa1403e0 	mov	x0, x20
    6434:	f947e821 	ldr	x1, [x1, #4048]
    6438:	f9472442 	ldr	x2, [x2, #3656]
    643c:	97fffaad 	bl	4ef0 <__cxa_throw@plt>
    6440:	910083e0 	add	x0, sp, #0x20
    6444:	97fffa3f 	bl	4d40 <inflateEnd@plt>
    6448:	aa1303e0 	mov	x0, x19
    644c:	aa1403e1 	mov	x1, x20
    6450:	2a1f03e2 	mov	w2, wzr
    6454:	97fff987 	bl	4a70 <_ZNSt7__cxx1112basic_stringIcSt11char_traitsIcESaIcEE6resizeEmc@plt>
    6458:	a94c4ff4 	ldp	x20, x19, [sp, #192]
    645c:	a94b57f6 	ldp	x22, x21, [sp, #176]
    6460:	a9497bfd 	ldp	x29, x30, [sp, #144]
    6464:	f94053f7 	ldr	x23, [sp, #160]
    6468:	910343ff 	add	sp, sp, #0xd0
    646c:	d65f03c0 	ret
    6470:	aa0003f3 	mov	x19, x0
    6474:	aa1403e0 	mov	x0, x20
    6478:	97fffa0a 	bl	4ca0 <__cxa_free_exception@plt>
    647c:	14000002 	b	6484 <_ZN6mapnik16vector_tile_impl15zlib_decompressEPKcmRNSt7__cxx1112basic_stringIcSt11char_traitsIcESaIcEEE+0x134>
    6480:	aa0003f3 	mov	x19, x0
    6484:	f94003e0 	ldr	x0, [sp]
    6488:	910003e8 	mov	x8, sp
    648c:	91004108 	add	x8, x8, #0x10
    6490:	eb08001f 	cmp	x0, x8
    6494:	54000040 	b.eq	649c <_ZN6mapnik16vector_tile_impl15zlib_decompressEPKcmRNSt7__cxx1112basic_stringIcSt11char_traitsIcESaIcEEE+0x14c>  // b.none
    6498:	97fffa1a 	bl	4d00 <_ZdlPv@plt>
    649c:	aa1303e0 	mov	x0, x19
    64a0:	97fffa98 	bl	4f00 <_Unwind_Resume@plt>

00000000000064a4 <_ZN6mapnik16vector_tile_impl15zlib_decompressERKNSt7__cxx1112basic_stringIcSt11char_traitsIcESaIcEEERS6_>:
    64a4:	aa0103e2 	mov	x2, x1
    64a8:	a9400408 	ldp	x8, x1, [x0]
    64ac:	aa0803e0 	mov	x0, x8
    64b0:	17ffffa8 	b	6350 <_ZN6mapnik16vector_tile_impl15zlib_decompressEPKcmRNSt7__cxx1112basic_stringIcSt11char_traitsIcESaIcEEE>

00000000000064b4 <_ZN6mapnik16vector_tile_impl13zlib_compressEPKcmRNSt7__cxx1112basic_stringIcSt11char_traitsIcESaIcEEEbii>:
    64b4:	d102c3ff 	sub	sp, sp, #0xb0
    64b8:	a9077bfd 	stp	x29, x30, [sp, #112]
    64bc:	f90043f7 	str	x23, [sp, #128]
    64c0:	a90957f6 	stp	x22, x21, [sp, #144]
    64c4:	a90a4ff4 	stp	x20, x19, [sp, #160]
    64c8:	9101c3fd 	add	x29, sp, #0x70
    64cc:	7200007f 	tst	w3, #0x1
    64d0:	528001e8 	mov	w8, #0xf                   	// #15
    64d4:	528003e9 	mov	w9, #0x1f                  	// #31
    64d8:	aa0203f3 	mov	x19, x2
    64dc:	aa0103f5 	mov	x21, x1
    64e0:	aa0003f6 	mov	x22, x0
    64e4:	1a881123 	csel	w3, w9, w8, ne  // ne = any
    64e8:	90000126 	adrp	x6, 2a000 <_ZN6google8protobuf18StringPrintfVectorEPKcRKSt6vectorINSt7__cxx1112basic_stringIcSt11char_traitsIcESaIcEEESaIS9_EE+0x2ec>
    64ec:	911e78c6 	add	x6, x6, #0x79e
    64f0:	910003e0 	mov	x0, sp
    64f4:	2a0403e1 	mov	w1, w4
    64f8:	52800102 	mov	w2, #0x8                   	// #8
    64fc:	52800104 	mov	w4, #0x8                   	// #8
    6500:	52800e07 	mov	w7, #0x70                  	// #112
    6504:	b9000bff 	str	wzr, [sp, #8]
    6508:	f90003ff 	str	xzr, [sp]
    650c:	a904ffff 	stp	xzr, xzr, [sp, #72]
    6510:	f90023ff 	str	xzr, [sp, #64]
    6514:	97fff937 	bl	49f0 <deflateInit2_@plt>
    6518:	35000420 	cbnz	w0, 659c <_ZN6mapnik16vector_tile_impl13zlib_compressEPKcmRNSt7__cxx1112basic_stringIcSt11char_traitsIcESaIcEEEbii+0xe8>
    651c:	d341fea8 	lsr	x8, x21, #1
    6520:	aa1f03f4 	mov	x20, xzr
    6524:	91100117 	add	x23, x8, #0x400
    6528:	f90003f6 	str	x22, [sp]
    652c:	b9000bf5 	str	w21, [sp, #8]
    6530:	8b170281 	add	x1, x20, x23
    6534:	aa1303e0 	mov	x0, x19
    6538:	2a1f03e2 	mov	w2, wzr
    653c:	97fff94d 	bl	4a70 <_ZNSt7__cxx1112basic_stringIcSt11char_traitsIcESaIcEE6resizeEmc@plt>
    6540:	f9400268 	ldr	x8, [x19]
    6544:	910003e0 	mov	x0, sp
    6548:	52800081 	mov	w1, #0x4                   	// #4
    654c:	b90023f7 	str	w23, [sp, #32]
    6550:	8b140108 	add	x8, x8, x20
    6554:	f9000fe8 	str	x8, [sp, #24]
    6558:	97fff972 	bl	4b20 <deflate@plt>
    655c:	b94023e8 	ldr	w8, [sp, #32]
    6560:	cb0802e9 	sub	x9, x23, x8
    6564:	8b140134 	add	x20, x9, x20
    6568:	34fffe48 	cbz	w8, 6530 <_ZN6mapnik16vector_tile_impl13zlib_compressEPKcmRNSt7__cxx1112basic_stringIcSt11char_traitsIcESaIcEEEbii+0x7c>
    656c:	910003e0 	mov	x0, sp
    6570:	97fff998 	bl	4bd0 <deflateEnd@plt>
    6574:	aa1303e0 	mov	x0, x19
    6578:	aa1403e1 	mov	x1, x20
    657c:	2a1f03e2 	mov	w2, wzr
    6580:	97fff93c 	bl	4a70 <_ZNSt7__cxx1112basic_stringIcSt11char_traitsIcESaIcEE6resizeEmc@plt>
    6584:	a94a4ff4 	ldp	x20, x19, [sp, #160]
    6588:	a94957f6 	ldp	x22, x21, [sp, #144]
    658c:	a9477bfd 	ldp	x29, x30, [sp, #112]
    6590:	f94043f7 	ldr	x23, [sp, #128]
    6594:	9102c3ff 	add	sp, sp, #0xb0
    6598:	d65f03c0 	ret
    659c:	52800200 	mov	w0, #0x10                  	// #16
    65a0:	97fff968 	bl	4b40 <__cxa_allocate_exception@plt>
    65a4:	aa0003f3 	mov	x19, x0
    65a8:	90000121 	adrp	x1, 2a000 <_ZN6google8protobuf18StringPrintfVectorEPKcRKSt6vectorINSt7__cxx1112basic_stringIcSt11char_traitsIcESaIcEEESaIS9_EE+0x2ec>
    65ac:	911e9421 	add	x1, x1, #0x7a5
    65b0:	97fff950 	bl	4af0 <_ZNSt13runtime_errorC1EPKc@plt>
    65b4:	90000201 	adrp	x1, 46000 <GCC_except_table137+0x10ca0>
    65b8:	90000202 	adrp	x2, 46000 <GCC_except_table137+0x10ca0>
    65bc:	aa1303e0 	mov	x0, x19
    65c0:	f947e821 	ldr	x1, [x1, #4048]
    65c4:	f9472442 	ldr	x2, [x2, #3656]
    65c8:	97fffa4a 	bl	4ef0 <__cxa_throw@plt>
    65cc:	aa0003f4 	mov	x20, x0
    65d0:	aa1303e0 	mov	x0, x19
    65d4:	97fff9b3 	bl	4ca0 <__cxa_free_exception@plt>
    65d8:	aa1403e0 	mov	x0, x20
    65dc:	97fffa49 	bl	4f00 <_Unwind_Resume@plt>

00000000000065e0 <_ZN6mapnik16vector_tile_impl13zlib_compressERKNSt7__cxx1112basic_stringIcSt11char_traitsIcESaIcEEERS6_bii>:
    65e0:	a9402809 	ldp	x9, x10, [x0]
    65e4:	2a0203e8 	mov	w8, w2
    65e8:	2a0403e5 	mov	w5, w4
    65ec:	2a0303e4 	mov	w4, w3
    65f0:	aa0103e2 	mov	x2, x1
    65f4:	2a0803e3 	mov	w3, w8
    65f8:	aa0903e0 	mov	x0, x9
    65fc:	aa0a03e1 	mov	x1, x10
    6600:	17ffffad 	b	64b4 <_ZN6mapnik16vector_tile_impl13zlib_compressEPKcmRNSt7__cxx1112basic_stringIcSt11char_traitsIcESaIcEEEbii>

0000000000006604 <_ZN30protobuf_vector_5ftile_2eproto26InitDefaultsTile_ValueImplEv>:
    6604:	a9be7bfd 	stp	x29, x30, [sp, #-32]!
    6608:	f9000bf3 	str	x19, [sp, #16]
    660c:	910003fd 	mov	x29, sp
    6610:	97fff930 	bl	4ad0 <_mcount@plt>
    6614:	529b4908 	mov	w8, #0xda48                	// #55880
    6618:	529b4901 	mov	w1, #0xda48                	// #55880
    661c:	72a005a8 	movk	w8, #0x2d, lsl #16
    6620:	90000122 	adrp	x2, 2a000 <_ZN6google8protobuf18StringPrintfVectorEPKcRKSt6vectorINSt7__cxx1112basic_stringIcSt11char_traitsIcESaIcEEESaIS9_EE+0x2ec>
    6624:	9122dc42 	add	x2, x2, #0x8b7
    6628:	32000100 	orr	w0, w8, #0x1
    662c:	72a005a1 	movk	w1, #0x2d, lsl #16
    6630:	94001ced 	bl	d9e4 <_ZN6google8protobuf8internal13VerifyVersionEiiPKc>
    6634:	9400569b 	bl	1c0a0 <_ZN6google8protobuf8internal20InitProtobufDefaultsEv>
    6638:	b0000213 	adrp	x19, 47000 <_Znam@GLIBCXX_3.4>
    663c:	910ca273 	add	x19, x19, #0x328
    6640:	90000208 	adrp	x8, 46000 <GCC_except_table137+0x10ca0>
    6644:	91088108 	add	x8, x8, #0x220
    6648:	91002260 	add	x0, x19, #0x8
    664c:	f9000268 	str	x8, [x19]
    6650:	94002b40 	bl	11350 <_ZN6google8protobuf8internal12ExtensionSetC1Ev>
    6654:	90000208 	adrp	x8, 46000 <GCC_except_table137+0x10ca0>
    6658:	aa1303e0 	mov	x0, x19
    665c:	6f00e400 	movi	v0.2d, #0x0
    6660:	f946a108 	ldr	x8, [x8, #3392]
    6664:	a9047e7f 	stp	xzr, xzr, [x19, #64]
    6668:	3c858260 	stur	q0, [x19, #88]
    666c:	f9002a68 	str	x8, [x19, #80]
    6670:	3c868260 	stur	q0, [x19, #104]
    6674:	f9003e7f 	str	xzr, [x19, #120]
    6678:	f9400bf3 	ldr	x19, [sp, #16]
    667c:	a8c27bfd 	ldp	x29, x30, [sp], #32
    6680:	14001f6c 	b	e430 <_ZN6google8protobuf8internal24OnShutdownDestroyMessageEPKv>

0000000000006684 <_ZN11vector_tile10Tile_Value21InitAsDefaultInstanceEv>:
    6684:	a9bf7bfd 	stp	x29, x30, [sp, #-16]!
    6688:	910003fd 	mov	x29, sp
    668c:	97fff911 	bl	4ad0 <_mcount@plt>
    6690:	a8c17bfd 	ldp	x29, x30, [sp], #16
    6694:	d65f03c0 	ret

0000000000006698 <_ZN30protobuf_vector_5ftile_2eproto22InitDefaultsTile_ValueEv>:
    6698:	d10103ff 	sub	sp, sp, #0x40
    669c:	a9027bfd 	stp	x29, x30, [sp, #32]
    66a0:	f9001bf3 	str	x19, [sp, #48]
    66a4:	910083fd 	add	x29, sp, #0x20
    66a8:	97fff90a 	bl	4ad0 <_mcount@plt>
    66ac:	b0000208 	adrp	x8, 47000 <_Znam@GLIBCXX_3.4>
    66b0:	9114a108 	add	x8, x8, #0x528
    66b4:	c8dffd08 	ldar	x8, [x8]
    66b8:	f100091f 	cmp	x8, #0x2
    66bc:	540001c0 	b.eq	66f4 <_ZN30protobuf_vector_5ftile_2eproto22InitDefaultsTile_ValueEv+0x5c>  // b.none
    66c0:	90000208 	adrp	x8, 46000 <GCC_except_table137+0x10ca0>
    66c4:	90000009 	adrp	x9, 6000 <main+0xa2c>
    66c8:	91181129 	add	x9, x9, #0x604
    66cc:	f9471108 	ldr	x8, [x8, #3616]
    66d0:	390063ff 	strb	wzr, [sp, #24]
    66d4:	91004108 	add	x8, x8, #0x10
    66d8:	a900a7e8 	stp	x8, x9, [sp, #8]
    66dc:	b0000200 	adrp	x0, 47000 <_Znam@GLIBCXX_3.4>
    66e0:	9114a000 	add	x0, x0, #0x528
    66e4:	910023e1 	add	x1, sp, #0x8
    66e8:	94002396 	bl	f540 <_ZN6google8protobuf18GoogleOnceInitImplEPlPNS0_7ClosureE>
    66ec:	910023e0 	add	x0, sp, #0x8
    66f0:	94001b49 	bl	d414 <_ZN6google8protobuf8internal16FunctionClosure0D1Ev>
    66f4:	a9427bfd 	ldp	x29, x30, [sp, #32]
    66f8:	f9401bf3 	ldr	x19, [sp, #48]
    66fc:	910103ff 	add	sp, sp, #0x40
    6700:	d65f03c0 	ret
    6704:	aa0003f3 	mov	x19, x0
    6708:	910023e0 	add	x0, sp, #0x8
    670c:	94001b42 	bl	d414 <_ZN6google8protobuf8internal16FunctionClosure0D1Ev>
    6710:	aa1303e0 	mov	x0, x19
    6714:	97fff9fb 	bl	4f00 <_Unwind_Resume@plt>

0000000000006718 <_ZN30protobuf_vector_5ftile_2eproto28InitDefaultsTile_FeatureImplEv>:
    6718:	a9bf7bfd 	stp	x29, x30, [sp, #-16]!
    671c:	910003fd 	mov	x29, sp
    6720:	97fff8ec 	bl	4ad0 <_mcount@plt>
    6724:	529b4908 	mov	w8, #0xda48                	// #55880
    6728:	529b4901 	mov	w1, #0xda48                	// #55880
    672c:	72a005a8 	movk	w8, #0x2d, lsl #16
    6730:	90000122 	adrp	x2, 2a000 <_ZN6google8protobuf18StringPrintfVectorEPKcRKSt6vectorINSt7__cxx1112basic_stringIcSt11char_traitsIcESaIcEEESaIS9_EE+0x2ec>
    6734:	9122dc42 	add	x2, x2, #0x8b7
    6738:	32000100 	orr	w0, w8, #0x1
    673c:	72a005a1 	movk	w1, #0x2d, lsl #16
    6740:	94001ca9 	bl	d9e4 <_ZN6google8protobuf8internal13VerifyVersionEiiPKc>
    6744:	94005657 	bl	1c0a0 <_ZN6google8protobuf8internal20InitProtobufDefaultsEv>
    6748:	b0000200 	adrp	x0, 47000 <_Znam@GLIBCXX_3.4>
    674c:	910ea000 	add	x0, x0, #0x3a8
    6750:	90000208 	adrp	x8, 46000 <GCC_except_table137+0x10ca0>
    6754:	910b0108 	add	x8, x8, #0x2c0
    6758:	6f00e400 	movi	v0.2d, #0x0
    675c:	a9037c1f 	stp	xzr, xzr, [x0, #48]
    6760:	f9000008 	str	x8, [x0]
    6764:	90000208 	adrp	x8, 46000 <GCC_except_table137+0x10ca0>
    6768:	f946a108 	ldr	x8, [x8, #3392]
    676c:	3c808000 	stur	q0, [x0, #8]
    6770:	3c818000 	stur	q0, [x0, #24]
    6774:	a904fc08 	stp	x8, xzr, [x0, #72]
    6778:	b900581f 	str	wzr, [x0, #88]
    677c:	a8c17bfd 	ldp	x29, x30, [sp], #16
    6780:	14001f2c 	b	e430 <_ZN6google8protobuf8internal24OnShutdownDestroyMessageEPKv>

0000000000006784 <_ZN11vector_tile12Tile_Feature21InitAsDefaultInstanceEv>:
    6784:	a9bf7bfd 	stp	x29, x30, [sp, #-16]!
    6788:	910003fd 	mov	x29, sp
    678c:	97fff8d1 	bl	4ad0 <_mcount@plt>
    6790:	a8c17bfd 	ldp	x29, x30, [sp], #16
    6794:	d65f03c0 	ret

0000000000006798 <_ZN30protobuf_vector_5ftile_2eproto24InitDefaultsTile_FeatureEv>:
    6798:	d10103ff 	sub	sp, sp, #0x40
    679c:	a9027bfd 	stp	x29, x30, [sp, #32]
    67a0:	f9001bf3 	str	x19, [sp, #48]
    67a4:	910083fd 	add	x29, sp, #0x20
    67a8:	97fff8ca 	bl	4ad0 <_mcount@plt>
    67ac:	b0000208 	adrp	x8, 47000 <_Znam@GLIBCXX_3.4>
    67b0:	9114c108 	add	x8, x8, #0x530
    67b4:	c8dffd08 	ldar	x8, [x8]
    67b8:	f100091f 	cmp	x8, #0x2
    67bc:	540001c0 	b.eq	67f4 <_ZN30protobuf_vector_5ftile_2eproto24InitDefaultsTile_FeatureEv+0x5c>  // b.none
    67c0:	90000208 	adrp	x8, 46000 <GCC_except_table137+0x10ca0>
    67c4:	90000009 	adrp	x9, 6000 <main+0xa2c>
    67c8:	911c6129 	add	x9, x9, #0x718
    67cc:	f9471108 	ldr	x8, [x8, #3616]
    67d0:	390063ff 	strb	wzr, [sp, #24]
    67d4:	91004108 	add	x8, x8, #0x10
    67d8:	a900a7e8 	stp	x8, x9, [sp, #8]
    67dc:	b0000200 	adrp	x0, 47000 <_Znam@GLIBCXX_3.4>
    67e0:	9114c000 	add	x0, x0, #0x530
    67e4:	910023e1 	add	x1, sp, #0x8
    67e8:	94002356 	bl	f540 <_ZN6google8protobuf18GoogleOnceInitImplEPlPNS0_7ClosureE>
    67ec:	910023e0 	add	x0, sp, #0x8
    67f0:	94001b09 	bl	d414 <_ZN6google8protobuf8internal16FunctionClosure0D1Ev>
    67f4:	a9427bfd 	ldp	x29, x30, [sp, #32]
    67f8:	f9401bf3 	ldr	x19, [sp, #48]
    67fc:	910103ff 	add	sp, sp, #0x40
    6800:	d65f03c0 	ret
    6804:	aa0003f3 	mov	x19, x0
    6808:	910023e0 	add	x0, sp, #0x8
    680c:	94001b02 	bl	d414 <_ZN6google8protobuf8internal16FunctionClosure0D1Ev>
    6810:	aa1303e0 	mov	x0, x19
    6814:	97fff9bb 	bl	4f00 <_Unwind_Resume@plt>

0000000000006818 <_ZN30protobuf_vector_5ftile_2eproto26InitDefaultsTile_LayerImplEv>:
    6818:	d10103ff 	sub	sp, sp, #0x40
    681c:	a9027bfd 	stp	x29, x30, [sp, #32]
    6820:	f9001bf3 	str	x19, [sp, #48]
    6824:	910083fd 	add	x29, sp, #0x20
    6828:	97fff8aa 	bl	4ad0 <_mcount@plt>
    682c:	529b4908 	mov	w8, #0xda48                	// #55880
    6830:	529b4901 	mov	w1, #0xda48                	// #55880
    6834:	72a005a8 	movk	w8, #0x2d, lsl #16
    6838:	90000122 	adrp	x2, 2a000 <_ZN6google8protobuf18StringPrintfVectorEPKcRKSt6vectorINSt7__cxx1112basic_stringIcSt11char_traitsIcESaIcEEESaIS9_EE+0x2ec>
    683c:	9122dc42 	add	x2, x2, #0x8b7
    6840:	32000100 	orr	w0, w8, #0x1
    6844:	72a005a1 	movk	w1, #0x2d, lsl #16
    6848:	94001c67 	bl	d9e4 <_ZN6google8protobuf8internal13VerifyVersionEiiPKc>
    684c:	94005615 	bl	1c0a0 <_ZN6google8protobuf8internal20InitProtobufDefaultsEv>
    6850:	b0000208 	adrp	x8, 47000 <_Znam@GLIBCXX_3.4>
    6854:	9114c108 	add	x8, x8, #0x530
    6858:	c8dffd08 	ldar	x8, [x8]
    685c:	f100091f 	cmp	x8, #0x2
    6860:	540001c0 	b.eq	6898 <_ZN30protobuf_vector_5ftile_2eproto26InitDefaultsTile_LayerImplEv+0x80>  // b.none
    6864:	90000208 	adrp	x8, 46000 <GCC_except_table137+0x10ca0>
    6868:	90000009 	adrp	x9, 6000 <main+0xa2c>
    686c:	911c6129 	add	x9, x9, #0x718
    6870:	f9471108 	ldr	x8, [x8, #3616]
    6874:	390063ff 	strb	wzr, [sp, #24]
    6878:	91004108 	add	x8, x8, #0x10
    687c:	a900a7e8 	stp	x8, x9, [sp, #8]
    6880:	b0000200 	adrp	x0, 47000 <_Znam@GLIBCXX_3.4>
    6884:	9114c000 	add	x0, x0, #0x530
    6888:	910023e1 	add	x1, sp, #0x8
    688c:	9400232d 	bl	f540 <_ZN6google8protobuf18GoogleOnceInitImplEPlPNS0_7ClosureE>
    6890:	910023e0 	add	x0, sp, #0x8
    6894:	94001ae0 	bl	d414 <_ZN6google8protobuf8internal16FunctionClosure0D1Ev>
    6898:	b0000208 	adrp	x8, 47000 <_Znam@GLIBCXX_3.4>
    689c:	9114a108 	add	x8, x8, #0x528
    68a0:	c8dffd08 	ldar	x8, [x8]
    68a4:	f100091f 	cmp	x8, #0x2
    68a8:	540001c0 	b.eq	68e0 <_ZN30protobuf_vector_5ftile_2eproto26InitDefaultsTile_LayerImplEv+0xc8>  // b.none
    68ac:	90000208 	adrp	x8, 46000 <GCC_except_table137+0x10ca0>
    68b0:	90000009 	adrp	x9, 6000 <main+0xa2c>
    68b4:	91181129 	add	x9, x9, #0x604
    68b8:	f9471108 	ldr	x8, [x8, #3616]
    68bc:	390063ff 	strb	wzr, [sp, #24]
    68c0:	91004108 	add	x8, x8, #0x10
    68c4:	a900a7e8 	stp	x8, x9, [sp, #8]
    68c8:	b0000200 	adrp	x0, 47000 <_Znam@GLIBCXX_3.4>
    68cc:	9114a000 	add	x0, x0, #0x528
    68d0:	910023e1 	add	x1, sp, #0x8
    68d4:	9400231b 	bl	f540 <_ZN6google8protobuf18GoogleOnceInitImplEPlPNS0_7ClosureE>
    68d8:	910023e0 	add	x0, sp, #0x8
    68dc:	94001ace 	bl	d414 <_ZN6google8protobuf8internal16FunctionClosure0D1Ev>
    68e0:	b0000213 	adrp	x19, 47000 <_Znam@GLIBCXX_3.4>
    68e4:	91102273 	add	x19, x19, #0x408
    68e8:	90000208 	adrp	x8, 46000 <GCC_except_table137+0x10ca0>
    68ec:	910d8108 	add	x8, x8, #0x360
    68f0:	91002260 	add	x0, x19, #0x8
    68f4:	f9000268 	str	x8, [x19]
    68f8:	94002a96 	bl	11350 <_ZN6google8protobuf8internal12ExtensionSetC1Ev>
    68fc:	90000208 	adrp	x8, 46000 <GCC_except_table137+0x10ca0>
    6900:	90000129 	adrp	x9, 2a000 <_ZN6google8protobuf18StringPrintfVectorEPKcRKSt6vectorINSt7__cxx1112basic_stringIcSt11char_traitsIcESaIcEEESaIS9_EE+0x2ec>
    6904:	6f00e400 	movi	v0.2d, #0x0
    6908:	aa1303e0 	mov	x0, x19
    690c:	f946a108 	ldr	x8, [x8, #3392]
    6910:	fd43e121 	ldr	d1, [x9, #1984]
    6914:	ad028260 	stp	q0, q0, [x19, #80]
    6918:	ad038260 	stp	q0, q0, [x19, #112]
    691c:	3d801260 	str	q0, [x19, #64]
    6920:	a909227f 	stp	xzr, x8, [x19, #144]
    6924:	fd005261 	str	d1, [x19, #160]
    6928:	94001ec2 	bl	e430 <_ZN6google8protobuf8internal24OnShutdownDestroyMessageEPKv>
    692c:	a9427bfd 	ldp	x29, x30, [sp, #32]
    6930:	f9401bf3 	ldr	x19, [sp, #48]
    6934:	910103ff 	add	sp, sp, #0x40
    6938:	d65f03c0 	ret
    693c:	14000001 	b	6940 <_ZN30protobuf_vector_5ftile_2eproto26InitDefaultsTile_LayerImplEv+0x128>
    6940:	aa0003f3 	mov	x19, x0
    6944:	910023e0 	add	x0, sp, #0x8
    6948:	94001ab3 	bl	d414 <_ZN6google8protobuf8internal16FunctionClosure0D1Ev>
    694c:	aa1303e0 	mov	x0, x19
    6950:	97fff96c 	bl	4f00 <_Unwind_Resume@plt>

0000000000006954 <_ZN11vector_tile10Tile_Layer21InitAsDefaultInstanceEv>:
    6954:	a9bf7bfd 	stp	x29, x30, [sp, #-16]!
    6958:	910003fd 	mov	x29, sp
    695c:	97fff85d 	bl	4ad0 <_mcount@plt>
    6960:	a8c17bfd 	ldp	x29, x30, [sp], #16
    6964:	d65f03c0 	ret

0000000000006968 <_ZN30protobuf_vector_5ftile_2eproto22InitDefaultsTile_LayerEv>:
    6968:	d10103ff 	sub	sp, sp, #0x40
    696c:	a9027bfd 	stp	x29, x30, [sp, #32]
    6970:	f9001bf3 	str	x19, [sp, #48]
    6974:	910083fd 	add	x29, sp, #0x20
    6978:	97fff856 	bl	4ad0 <_mcount@plt>
    697c:	b0000208 	adrp	x8, 47000 <_Znam@GLIBCXX_3.4>
    6980:	91146108 	add	x8, x8, #0x518
    6984:	c8dffd08 	ldar	x8, [x8]
    6988:	f100091f 	cmp	x8, #0x2
    698c:	540001c0 	b.eq	69c4 <_ZN30protobuf_vector_5ftile_2eproto22InitDefaultsTile_LayerEv+0x5c>  // b.none
    6990:	90000208 	adrp	x8, 46000 <GCC_except_table137+0x10ca0>
    6994:	90000009 	adrp	x9, 6000 <main+0xa2c>
    6998:	91206129 	add	x9, x9, #0x818
    699c:	f9471108 	ldr	x8, [x8, #3616]
    69a0:	390063ff 	strb	wzr, [sp, #24]
    69a4:	91004108 	add	x8, x8, #0x10
    69a8:	a900a7e8 	stp	x8, x9, [sp, #8]
    69ac:	b0000200 	adrp	x0, 47000 <_Znam@GLIBCXX_3.4>
    69b0:	91146000 	add	x0, x0, #0x518
    69b4:	910023e1 	add	x1, sp, #0x8
    69b8:	940022e2 	bl	f540 <_ZN6google8protobuf18GoogleOnceInitImplEPlPNS0_7ClosureE>
    69bc:	910023e0 	add	x0, sp, #0x8
    69c0:	94001a95 	bl	d414 <_ZN6google8protobuf8internal16FunctionClosure0D1Ev>
    69c4:	a9427bfd 	ldp	x29, x30, [sp, #32]
    69c8:	f9401bf3 	ldr	x19, [sp, #48]
    69cc:	910103ff 	add	sp, sp, #0x40
    69d0:	d65f03c0 	ret
    69d4:	aa0003f3 	mov	x19, x0
    69d8:	910023e0 	add	x0, sp, #0x8
    69dc:	94001a8e 	bl	d414 <_ZN6google8protobuf8internal16FunctionClosure0D1Ev>
    69e0:	aa1303e0 	mov	x0, x19
    69e4:	97fff947 	bl	4f00 <_Unwind_Resume@plt>

00000000000069e8 <_ZN30protobuf_vector_5ftile_2eproto20InitDefaultsTileImplEv>:
    69e8:	d10103ff 	sub	sp, sp, #0x40
    69ec:	a9027bfd 	stp	x29, x30, [sp, #32]
    69f0:	f9001bf3 	str	x19, [sp, #48]
    69f4:	910083fd 	add	x29, sp, #0x20
    69f8:	97fff836 	bl	4ad0 <_mcount@plt>
    69fc:	529b4908 	mov	w8, #0xda48                	// #55880
    6a00:	529b4901 	mov	w1, #0xda48                	// #55880
    6a04:	72a005a8 	movk	w8, #0x2d, lsl #16
    6a08:	90000122 	adrp	x2, 2a000 <_ZN6google8protobuf18StringPrintfVectorEPKcRKSt6vectorINSt7__cxx1112basic_stringIcSt11char_traitsIcESaIcEEESaIS9_EE+0x2ec>
    6a0c:	9122dc42 	add	x2, x2, #0x8b7
    6a10:	32000100 	orr	w0, w8, #0x1
    6a14:	72a005a1 	movk	w1, #0x2d, lsl #16
    6a18:	94001bf3 	bl	d9e4 <_ZN6google8protobuf8internal13VerifyVersionEiiPKc>
    6a1c:	940055a1 	bl	1c0a0 <_ZN6google8protobuf8internal20InitProtobufDefaultsEv>
    6a20:	b0000208 	adrp	x8, 47000 <_Znam@GLIBCXX_3.4>
    6a24:	91146108 	add	x8, x8, #0x518
    6a28:	c8dffd08 	ldar	x8, [x8]
    6a2c:	f100091f 	cmp	x8, #0x2
    6a30:	540001c0 	b.eq	6a68 <_ZN30protobuf_vector_5ftile_2eproto20InitDefaultsTileImplEv+0x80>  // b.none
    6a34:	90000208 	adrp	x8, 46000 <GCC_except_table137+0x10ca0>
    6a38:	90000009 	adrp	x9, 6000 <main+0xa2c>
    6a3c:	91206129 	add	x9, x9, #0x818
    6a40:	f9471108 	ldr	x8, [x8, #3616]
    6a44:	390063ff 	strb	wzr, [sp, #24]
    6a48:	91004108 	add	x8, x8, #0x10
    6a4c:	a900a7e8 	stp	x8, x9, [sp, #8]
    6a50:	b0000200 	adrp	x0, 47000 <_Znam@GLIBCXX_3.4>
    6a54:	91146000 	add	x0, x0, #0x518
    6a58:	910023e1 	add	x1, sp, #0x8
    6a5c:	940022b9 	bl	f540 <_ZN6google8protobuf18GoogleOnceInitImplEPlPNS0_7ClosureE>
    6a60:	910023e0 	add	x0, sp, #0x8
    6a64:	94001a6c 	bl	d414 <_ZN6google8protobuf8internal16FunctionClosure0D1Ev>
    6a68:	b0000213 	adrp	x19, 47000 <_Znam@GLIBCXX_3.4>
    6a6c:	9112c273 	add	x19, x19, #0x4b0
    6a70:	90000208 	adrp	x8, 46000 <GCC_except_table137+0x10ca0>
    6a74:	91100108 	add	x8, x8, #0x400
    6a78:	91002260 	add	x0, x19, #0x8
    6a7c:	f9000268 	str	x8, [x19]
    6a80:	94002a34 	bl	11350 <_ZN6google8protobuf8internal12ExtensionSetC1Ev>
    6a84:	6f00e400 	movi	v0.2d, #0x0
    6a88:	aa1303e0 	mov	x0, x19
    6a8c:	f900327f 	str	xzr, [x19, #96]
    6a90:	ad020260 	stp	q0, q0, [x19, #64]
    6a94:	94001e67 	bl	e430 <_ZN6google8protobuf8internal24OnShutdownDestroyMessageEPKv>
    6a98:	a9427bfd 	ldp	x29, x30, [sp, #32]
    6a9c:	f9401bf3 	ldr	x19, [sp, #48]
    6aa0:	910103ff 	add	sp, sp, #0x40
    6aa4:	d65f03c0 	ret
    6aa8:	aa0003f3 	mov	x19, x0
    6aac:	910023e0 	add	x0, sp, #0x8
    6ab0:	94001a59 	bl	d414 <_ZN6google8protobuf8internal16FunctionClosure0D1Ev>
    6ab4:	aa1303e0 	mov	x0, x19
    6ab8:	97fff912 	bl	4f00 <_Unwind_Resume@plt>

0000000000006abc <_ZN11vector_tile4Tile21InitAsDefaultInstanceEv>:
    6abc:	a9bf7bfd 	stp	x29, x30, [sp, #-16]!
    6ac0:	910003fd 	mov	x29, sp
    6ac4:	97fff803 	bl	4ad0 <_mcount@plt>
    6ac8:	a8c17bfd 	ldp	x29, x30, [sp], #16
    6acc:	d65f03c0 	ret

0000000000006ad0 <_ZN30protobuf_vector_5ftile_2eproto16InitDefaultsTileEv>:
    6ad0:	d10103ff 	sub	sp, sp, #0x40
    6ad4:	a9027bfd 	stp	x29, x30, [sp, #32]
    6ad8:	f9001bf3 	str	x19, [sp, #48]
    6adc:	910083fd 	add	x29, sp, #0x20
    6ae0:	97fff7fc 	bl	4ad0 <_mcount@plt>
    6ae4:	b0000208 	adrp	x8, 47000 <_Znam@GLIBCXX_3.4>
    6ae8:	91148108 	add	x8, x8, #0x520
    6aec:	c8dffd08 	ldar	x8, [x8]
    6af0:	f100091f 	cmp	x8, #0x2
    6af4:	540001c0 	b.eq	6b2c <_ZN30protobuf_vector_5ftile_2eproto16InitDefaultsTileEv+0x5c>  // b.none
    6af8:	90000208 	adrp	x8, 46000 <GCC_except_table137+0x10ca0>
    6afc:	90000009 	adrp	x9, 6000 <main+0xa2c>
    6b00:	9127a129 	add	x9, x9, #0x9e8
    6b04:	f9471108 	ldr	x8, [x8, #3616]
    6b08:	390063ff 	strb	wzr, [sp, #24]
    6b0c:	91004108 	add	x8, x8, #0x10
    6b10:	a900a7e8 	stp	x8, x9, [sp, #8]
    6b14:	b0000200 	adrp	x0, 47000 <_Znam@GLIBCXX_3.4>
    6b18:	91148000 	add	x0, x0, #0x520
    6b1c:	910023e1 	add	x1, sp, #0x8
    6b20:	94002288 	bl	f540 <_ZN6google8protobuf18GoogleOnceInitImplEPlPNS0_7ClosureE>
    6b24:	910023e0 	add	x0, sp, #0x8
    6b28:	94001a3b 	bl	d414 <_ZN6google8protobuf8internal16FunctionClosure0D1Ev>
    6b2c:	a9427bfd 	ldp	x29, x30, [sp, #32]
    6b30:	f9401bf3 	ldr	x19, [sp, #48]
    6b34:	910103ff 	add	sp, sp, #0x40
    6b38:	d65f03c0 	ret
    6b3c:	aa0003f3 	mov	x19, x0
    6b40:	910023e0 	add	x0, sp, #0x8
    6b44:	94001a34 	bl	d414 <_ZN6google8protobuf8internal16FunctionClosure0D1Ev>
    6b48:	aa1303e0 	mov	x0, x19
    6b4c:	97fff8ed 	bl	4f00 <_Unwind_Resume@plt>

0000000000006b50 <_ZN11vector_tile21Tile_GeomType_IsValidEi>:
    6b50:	a9be7bfd 	stp	x29, x30, [sp, #-32]!
    6b54:	f9000bf3 	str	x19, [sp, #16]
    6b58:	910003fd 	mov	x29, sp
    6b5c:	2a0003f3 	mov	w19, w0
    6b60:	97fff7dc 	bl	4ad0 <_mcount@plt>
    6b64:	7100127f 	cmp	w19, #0x4
    6b68:	1a9f27e0 	cset	w0, cc  // cc = lo, ul, last
    6b6c:	f9400bf3 	ldr	x19, [sp, #16]
    6b70:	a8c27bfd 	ldp	x29, x30, [sp], #32
    6b74:	d65f03c0 	ret

0000000000006b78 <_ZN11vector_tile10Tile_ValueC1Ev>:
    6b78:	d10143ff 	sub	sp, sp, #0x50
    6b7c:	a9027bfd 	stp	x29, x30, [sp, #32]
    6b80:	f9001bf5 	str	x21, [sp, #48]
    6b84:	a9044ff4 	stp	x20, x19, [sp, #64]
    6b88:	910083fd 	add	x29, sp, #0x20
    6b8c:	aa0003f3 	mov	x19, x0
    6b90:	97fff7d0 	bl	4ad0 <_mcount@plt>
    6b94:	91002274 	add	x20, x19, #0x8
    6b98:	90000208 	adrp	x8, 46000 <GCC_except_table137+0x10ca0>
    6b9c:	91088108 	add	x8, x8, #0x220
    6ba0:	aa1403e0 	mov	x0, x20
    6ba4:	f9000268 	str	x8, [x19]
    6ba8:	940029ea 	bl	11350 <_ZN6google8protobuf8internal12ExtensionSetC1Ev>
    6bac:	aa1303f5 	mov	x21, x19
    6bb0:	b0000208 	adrp	x8, 47000 <_Znam@GLIBCXX_3.4>
    6bb4:	910ca108 	add	x8, x8, #0x328
    6bb8:	b9004a7f 	str	wzr, [x19, #72]
    6bbc:	eb08027f 	cmp	x19, x8
    6bc0:	f8040ebf 	str	xzr, [x21, #64]!
    6bc4:	54000260 	b.eq	6c10 <_ZN11vector_tile10Tile_ValueC1Ev+0x98>  // b.none
    6bc8:	b0000208 	adrp	x8, 47000 <_Znam@GLIBCXX_3.4>
    6bcc:	9114a108 	add	x8, x8, #0x528
    6bd0:	c8dffd08 	ldar	x8, [x8]
    6bd4:	f100091f 	cmp	x8, #0x2
    6bd8:	540001c0 	b.eq	6c10 <_ZN11vector_tile10Tile_ValueC1Ev+0x98>  // b.none
    6bdc:	90000208 	adrp	x8, 46000 <GCC_except_table137+0x10ca0>
    6be0:	90000009 	adrp	x9, 6000 <main+0xa2c>
    6be4:	91181129 	add	x9, x9, #0x604
    6be8:	f9471108 	ldr	x8, [x8, #3616]
    6bec:	390063ff 	strb	wzr, [sp, #24]
    6bf0:	91004108 	add	x8, x8, #0x10
    6bf4:	a900a7e8 	stp	x8, x9, [sp, #8]
    6bf8:	b0000200 	adrp	x0, 47000 <_Znam@GLIBCXX_3.4>
    6bfc:	9114a000 	add	x0, x0, #0x528
    6c00:	910023e1 	add	x1, sp, #0x8
    6c04:	9400224f 	bl	f540 <_ZN6google8protobuf18GoogleOnceInitImplEPlPNS0_7ClosureE>
    6c08:	910023e0 	add	x0, sp, #0x8
    6c0c:	94001a02 	bl	d414 <_ZN6google8protobuf8internal16FunctionClosure0D1Ev>
    6c10:	90000208 	adrp	x8, 46000 <GCC_except_table137+0x10ca0>
    6c14:	6f00e400 	movi	v0.2d, #0x0
    6c18:	f946a108 	ldr	x8, [x8, #3392]
    6c1c:	b9004e7f 	str	wzr, [x19, #76]
    6c20:	3c858260 	stur	q0, [x19, #88]
    6c24:	f9002a68 	str	x8, [x19, #80]
    6c28:	3c868260 	stur	q0, [x19, #104]
    6c2c:	f9003e7f 	str	xzr, [x19, #120]
    6c30:	a9444ff4 	ldp	x20, x19, [sp, #64]
    6c34:	a9427bfd 	ldp	x29, x30, [sp, #32]
    6c38:	f9401bf5 	ldr	x21, [sp, #48]
    6c3c:	910143ff 	add	sp, sp, #0x50
    6c40:	d65f03c0 	ret
    6c44:	aa0003f3 	mov	x19, x0
    6c48:	910023e0 	add	x0, sp, #0x8
    6c4c:	940019f2 	bl	d414 <_ZN6google8protobuf8internal16FunctionClosure0D1Ev>
    6c50:	aa1503e0 	mov	x0, x21
    6c54:	9400119f 	bl	b2d0 <_ZN6google8protobuf8internal29InternalMetadataWithArenaBaseINSt7__cxx1112basic_stringIcSt11char_traitsIcESaIcEEENS1_29InternalMetadataWithArenaLiteEED2Ev>
    6c58:	aa1403e0 	mov	x0, x20
    6c5c:	94003ea1 	bl	166e0 <_ZN6google8protobuf8internal12ExtensionSetD1Ev>
    6c60:	aa1303e0 	mov	x0, x19
    6c64:	97fff8a7 	bl	4f00 <_Unwind_Resume@plt>

0000000000006c68 <_ZN11vector_tile10Tile_Value10SharedCtorEv>:
    6c68:	a9be7bfd 	stp	x29, x30, [sp, #-32]!
    6c6c:	f9000bf3 	str	x19, [sp, #16]
    6c70:	910003fd 	mov	x29, sp
    6c74:	aa0003f3 	mov	x19, x0
    6c78:	97fff796 	bl	4ad0 <_mcount@plt>
    6c7c:	90000208 	adrp	x8, 46000 <GCC_except_table137+0x10ca0>
    6c80:	6f00e400 	movi	v0.2d, #0x0
    6c84:	f946a108 	ldr	x8, [x8, #3392]
    6c88:	b9004e7f 	str	wzr, [x19, #76]
    6c8c:	3c858260 	stur	q0, [x19, #88]
    6c90:	f9002a68 	str	x8, [x19, #80]
    6c94:	3c868260 	stur	q0, [x19, #104]
    6c98:	f9003e7f 	str	xzr, [x19, #120]
    6c9c:	f9400bf3 	ldr	x19, [sp, #16]
    6ca0:	a8c27bfd 	ldp	x29, x30, [sp], #32
    6ca4:	d65f03c0 	ret

0000000000006ca8 <_ZN11vector_tile10Tile_ValueC1ERKS0_>:
    6ca8:	a9bc7bfd 	stp	x29, x30, [sp, #-64]!
    6cac:	f9000bf7 	str	x23, [sp, #16]
    6cb0:	a90257f6 	stp	x22, x21, [sp, #32]
    6cb4:	a9034ff4 	stp	x20, x19, [sp, #48]
    6cb8:	910003fd 	mov	x29, sp
    6cbc:	aa0103f4 	mov	x20, x1
    6cc0:	aa0003f3 	mov	x19, x0
    6cc4:	97fff783 	bl	4ad0 <_mcount@plt>
    6cc8:	aa1303f5 	mov	x21, x19
    6ccc:	90000208 	adrp	x8, 46000 <GCC_except_table137+0x10ca0>
    6cd0:	91088108 	add	x8, x8, #0x220
    6cd4:	f80086a8 	str	x8, [x21], #8
    6cd8:	aa1503e0 	mov	x0, x21
    6cdc:	9400299d 	bl	11350 <_ZN6google8protobuf8internal12ExtensionSetC1Ev>
    6ce0:	aa1303f6 	mov	x22, x19
    6ce4:	f8040edf 	str	xzr, [x22, #64]!
    6ce8:	b9404a88 	ldr	w8, [x20, #72]
    6cec:	29017ec8 	stp	w8, wzr, [x22, #8]
    6cf0:	f9402297 	ldr	x23, [x20, #64]
    6cf4:	360000d7 	tbz	w23, #0, 6d0c <_ZN11vector_tile10Tile_ValueC1ERKS0_+0x64>
    6cf8:	aa1603e0 	mov	x0, x22
    6cfc:	9400139f 	bl	bb78 <_ZN6google8protobuf8internal29InternalMetadataWithArenaBaseINSt7__cxx1112basic_stringIcSt11char_traitsIcESaIcEEENS1_29InternalMetadataWithArenaLiteEE27mutable_unknown_fields_slowEv>
    6d00:	927ffae8 	and	x8, x23, #0xfffffffffffffffe
    6d04:	a9400901 	ldp	x1, x2, [x8]
    6d08:	97fff762 	bl	4a90 <_ZNSt7__cxx1112basic_stringIcSt11char_traitsIcESaIcEE9_M_appendEPKcm@plt>
    6d0c:	91002281 	add	x1, x20, #0x8
    6d10:	aa1503e0 	mov	x0, x21
    6d14:	94004917 	bl	19170 <_ZN6google8protobuf8internal12ExtensionSet9MergeFromERKS2_>
    6d18:	90000208 	adrp	x8, 46000 <GCC_except_table137+0x10ca0>
    6d1c:	aa1303e0 	mov	x0, x19
    6d20:	f946a108 	ldr	x8, [x8, #3392]
    6d24:	f8050c08 	str	x8, [x0, #80]!
    6d28:	39412289 	ldrb	w9, [x20, #72]
    6d2c:	360000a9 	tbz	w9, #0, 6d40 <_ZN11vector_tile10Tile_ValueC1ERKS0_+0x98>
    6d30:	f9402a81 	ldr	x1, [x20, #80]
    6d34:	eb08003f 	cmp	x1, x8
    6d38:	54000040 	b.eq	6d40 <_ZN11vector_tile10Tile_ValueC1ERKS0_+0x98>  // b.none
    6d3c:	9400135f 	bl	bab8 <_ZN6google8protobuf8internal14ArenaStringPtr21CreateInstanceNoArenaEPKNSt7__cxx1112basic_stringIcSt11char_traitsIcESaIcEEE>
    6d40:	f9403e88 	ldr	x8, [x20, #120]
    6d44:	3cc68280 	ldur	q0, [x20, #104]
    6d48:	3cc58281 	ldur	q1, [x20, #88]
    6d4c:	f9003e68 	str	x8, [x19, #120]
    6d50:	3c868260 	stur	q0, [x19, #104]
    6d54:	3c858261 	stur	q1, [x19, #88]
    6d58:	a9434ff4 	ldp	x20, x19, [sp, #48]
    6d5c:	a94257f6 	ldp	x22, x21, [sp, #32]
    6d60:	f9400bf7 	ldr	x23, [sp, #16]
    6d64:	a8c47bfd 	ldp	x29, x30, [sp], #64
    6d68:	d65f03c0 	ret
    6d6c:	aa0003f3 	mov	x19, x0
    6d70:	aa1603e0 	mov	x0, x22
    6d74:	94001157 	bl	b2d0 <_ZN6google8protobuf8internal29InternalMetadataWithArenaBaseINSt7__cxx1112basic_stringIcSt11char_traitsIcESaIcEEENS1_29InternalMetadataWithArenaLiteEED2Ev>
    6d78:	aa1503e0 	mov	x0, x21
    6d7c:	94003e59 	bl	166e0 <_ZN6google8protobuf8internal12ExtensionSetD1Ev>
    6d80:	aa1303e0 	mov	x0, x19
    6d84:	97fff85f 	bl	4f00 <_Unwind_Resume@plt>

0000000000006d88 <_ZN11vector_tile10Tile_ValueD1Ev>:
    6d88:	a9be7bfd 	stp	x29, x30, [sp, #-32]!
    6d8c:	a9014ff4 	stp	x20, x19, [sp, #16]
    6d90:	910003fd 	mov	x29, sp
    6d94:	aa0003f3 	mov	x19, x0
    6d98:	97fff74e 	bl	4ad0 <_mcount@plt>
    6d9c:	90000208 	adrp	x8, 46000 <GCC_except_table137+0x10ca0>
    6da0:	f9402a74 	ldr	x20, [x19, #80]
    6da4:	90000209 	adrp	x9, 46000 <GCC_except_table137+0x10ca0>
    6da8:	91088129 	add	x9, x9, #0x220
    6dac:	f946a108 	ldr	x8, [x8, #3392]
    6db0:	f9000269 	str	x9, [x19]
    6db4:	eb08029f 	cmp	x20, x8
    6db8:	54000120 	b.eq	6ddc <_ZN11vector_tile10Tile_ValueD1Ev+0x54>  // b.none
    6dbc:	b4000114 	cbz	x20, 6ddc <_ZN11vector_tile10Tile_ValueD1Ev+0x54>
    6dc0:	aa1403e8 	mov	x8, x20
    6dc4:	f8410500 	ldr	x0, [x8], #16
    6dc8:	eb08001f 	cmp	x0, x8
    6dcc:	54000040 	b.eq	6dd4 <_ZN11vector_tile10Tile_ValueD1Ev+0x4c>  // b.none
    6dd0:	97fff7cc 	bl	4d00 <_ZdlPv@plt>
    6dd4:	aa1403e0 	mov	x0, x20
    6dd8:	97fff7ca 	bl	4d00 <_ZdlPv@plt>
    6ddc:	f9402268 	ldr	x8, [x19, #64]
    6de0:	360001a8 	tbz	w8, #0, 6e14 <_ZN11vector_tile10Tile_ValueD1Ev+0x8c>
    6de4:	927ff914 	and	x20, x8, #0xfffffffffffffffe
    6de8:	f9401288 	ldr	x8, [x20, #32]
    6dec:	f100011f 	cmp	x8, #0x0
    6df0:	fa400a84 	ccmp	x20, #0x0, #0x4, eq  // eq = none
    6df4:	54000100 	b.eq	6e14 <_ZN11vector_tile10Tile_ValueD1Ev+0x8c>  // b.none
    6df8:	aa1403e8 	mov	x8, x20
    6dfc:	f8410500 	ldr	x0, [x8], #16
    6e00:	eb08001f 	cmp	x0, x8
    6e04:	54000040 	b.eq	6e0c <_ZN11vector_tile10Tile_ValueD1Ev+0x84>  // b.none
    6e08:	97fff7be 	bl	4d00 <_ZdlPv@plt>
    6e0c:	aa1403e0 	mov	x0, x20
    6e10:	97fff7bc 	bl	4d00 <_ZdlPv@plt>
    6e14:	91002260 	add	x0, x19, #0x8
    6e18:	f900227f 	str	xzr, [x19, #64]
    6e1c:	a9414ff4 	ldp	x20, x19, [sp, #16]
    6e20:	a8c27bfd 	ldp	x29, x30, [sp], #32
    6e24:	14003e2f 	b	166e0 <_ZN6google8protobuf8internal12ExtensionSetD1Ev>

0000000000006e28 <_ZN11vector_tile10Tile_Value10SharedDtorEv>:
    6e28:	a9be7bfd 	stp	x29, x30, [sp, #-32]!
    6e2c:	f9000bf3 	str	x19, [sp, #16]
    6e30:	910003fd 	mov	x29, sp
    6e34:	aa0003f3 	mov	x19, x0
    6e38:	97fff726 	bl	4ad0 <_mcount@plt>
    6e3c:	90000208 	adrp	x8, 46000 <GCC_except_table137+0x10ca0>
    6e40:	f9402a73 	ldr	x19, [x19, #80]
    6e44:	f946a108 	ldr	x8, [x8, #3392]
    6e48:	eb08027f 	cmp	x19, x8
    6e4c:	54000160 	b.eq	6e78 <_ZN11vector_tile10Tile_Value10SharedDtorEv+0x50>  // b.none
    6e50:	b4000153 	cbz	x19, 6e78 <_ZN11vector_tile10Tile_Value10SharedDtorEv+0x50>
    6e54:	aa1303e8 	mov	x8, x19
    6e58:	f8410500 	ldr	x0, [x8], #16
    6e5c:	eb08001f 	cmp	x0, x8
    6e60:	54000040 	b.eq	6e68 <_ZN11vector_tile10Tile_Value10SharedDtorEv+0x40>  // b.none
    6e64:	97fff7a7 	bl	4d00 <_ZdlPv@plt>
    6e68:	aa1303e0 	mov	x0, x19
    6e6c:	f9400bf3 	ldr	x19, [sp, #16]
    6e70:	a8c27bfd 	ldp	x29, x30, [sp], #32
    6e74:	17fff7a3 	b	4d00 <_ZdlPv@plt>
    6e78:	f9400bf3 	ldr	x19, [sp, #16]
    6e7c:	a8c27bfd 	ldp	x29, x30, [sp], #32
    6e80:	d65f03c0 	ret

0000000000006e84 <_ZN11vector_tile10Tile_ValueD0Ev>:
    6e84:	a9be7bfd 	stp	x29, x30, [sp, #-32]!
    6e88:	f9000bf3 	str	x19, [sp, #16]
    6e8c:	910003fd 	mov	x29, sp
    6e90:	aa0003f3 	mov	x19, x0
    6e94:	97fff70f 	bl	4ad0 <_mcount@plt>
    6e98:	aa1303e0 	mov	x0, x19
    6e9c:	97ffffbb 	bl	6d88 <_ZN11vector_tile10Tile_ValueD1Ev>
    6ea0:	aa1303e0 	mov	x0, x19
    6ea4:	f9400bf3 	ldr	x19, [sp, #16]
    6ea8:	a8c27bfd 	ldp	x29, x30, [sp], #32
    6eac:	17fff795 	b	4d00 <_ZdlPv@plt>

0000000000006eb0 <_ZNK11vector_tile10Tile_Value13SetCachedSizeEi>:
    6eb0:	a9be7bfd 	stp	x29, x30, [sp, #-32]!
    6eb4:	a9014ff4 	stp	x20, x19, [sp, #16]
    6eb8:	910003fd 	mov	x29, sp
    6ebc:	2a0103f3 	mov	w19, w1
    6ec0:	aa0003f4 	mov	x20, x0
    6ec4:	97fff703 	bl	4ad0 <_mcount@plt>
    6ec8:	b9004e93 	str	w19, [x20, #76]
    6ecc:	a9414ff4 	ldp	x20, x19, [sp, #16]
    6ed0:	a8c27bfd 	ldp	x29, x30, [sp], #32
    6ed4:	d65f03c0 	ret

0000000000006ed8 <_ZN11vector_tile10Tile_Value16default_instanceEv>:
    6ed8:	d10103ff 	sub	sp, sp, #0x40
    6edc:	a9027bfd 	stp	x29, x30, [sp, #32]
    6ee0:	f9001bf3 	str	x19, [sp, #48]
    6ee4:	910083fd 	add	x29, sp, #0x20
    6ee8:	97fff6fa 	bl	4ad0 <_mcount@plt>
    6eec:	b0000208 	adrp	x8, 47000 <_Znam@GLIBCXX_3.4>
    6ef0:	9114a108 	add	x8, x8, #0x528
    6ef4:	c8dffd08 	ldar	x8, [x8]
    6ef8:	f100091f 	cmp	x8, #0x2
    6efc:	540001c0 	b.eq	6f34 <_ZN11vector_tile10Tile_Value16default_instanceEv+0x5c>  // b.none
    6f00:	90000208 	adrp	x8, 46000 <GCC_except_table137+0x10ca0>
    6f04:	90000009 	adrp	x9, 6000 <main+0xa2c>
    6f08:	91181129 	add	x9, x9, #0x604
    6f0c:	f9471108 	ldr	x8, [x8, #3616]
    6f10:	390063ff 	strb	wzr, [sp, #24]
    6f14:	91004108 	add	x8, x8, #0x10
    6f18:	a900a7e8 	stp	x8, x9, [sp, #8]
    6f1c:	b0000200 	adrp	x0, 47000 <_Znam@GLIBCXX_3.4>
    6f20:	9114a000 	add	x0, x0, #0x528
    6f24:	910023e1 	add	x1, sp, #0x8
    6f28:	94002186 	bl	f540 <_ZN6google8protobuf18GoogleOnceInitImplEPlPNS0_7ClosureE>
    6f2c:	910023e0 	add	x0, sp, #0x8
    6f30:	94001939 	bl	d414 <_ZN6google8protobuf8internal16FunctionClosure0D1Ev>
    6f34:	b0000200 	adrp	x0, 47000 <_Znam@GLIBCXX_3.4>
    6f38:	910ca000 	add	x0, x0, #0x328
    6f3c:	a9427bfd 	ldp	x29, x30, [sp, #32]
    6f40:	f9401bf3 	ldr	x19, [sp, #48]
    6f44:	910103ff 	add	sp, sp, #0x40
    6f48:	d65f03c0 	ret
    6f4c:	aa0003f3 	mov	x19, x0
    6f50:	910023e0 	add	x0, sp, #0x8
    6f54:	94001930 	bl	d414 <_ZN6google8protobuf8internal16FunctionClosure0D1Ev>
    6f58:	aa1303e0 	mov	x0, x19
    6f5c:	97fff7e9 	bl	4f00 <_Unwind_Resume@plt>

0000000000006f60 <_ZNK11vector_tile10Tile_Value3NewEPN6google8protobuf5ArenaE>:
    6f60:	a9be7bfd 	stp	x29, x30, [sp, #-32]!
    6f64:	a9014ff4 	stp	x20, x19, [sp, #16]
    6f68:	910003fd 	mov	x29, sp
    6f6c:	aa0103f4 	mov	x20, x1
    6f70:	97fff6d8 	bl	4ad0 <_mcount@plt>
    6f74:	52801000 	mov	w0, #0x80                  	// #128
    6f78:	97fff76a 	bl	4d20 <_Znwm@plt>
    6f7c:	aa0003f3 	mov	x19, x0
    6f80:	97fffefe 	bl	6b78 <_ZN11vector_tile10Tile_ValueC1Ev>
    6f84:	b4000094 	cbz	x20, 6f94 <_ZNK11vector_tile10Tile_Value3NewEPN6google8protobuf5ArenaE+0x34>
    6f88:	aa1403e0 	mov	x0, x20
    6f8c:	aa1303e1 	mov	x1, x19
    6f90:	940010e7 	bl	b32c <_ZN6google8protobuf5Arena3OwnIN11vector_tile10Tile_ValueEEEvPT_>
    6f94:	aa1303e0 	mov	x0, x19
    6f98:	a9414ff4 	ldp	x20, x19, [sp, #16]
    6f9c:	a8c27bfd 	ldp	x29, x30, [sp], #32
    6fa0:	d65f03c0 	ret
    6fa4:	aa0003f4 	mov	x20, x0
    6fa8:	aa1303e0 	mov	x0, x19
    6fac:	97fff755 	bl	4d00 <_ZdlPv@plt>
    6fb0:	aa1403e0 	mov	x0, x20
    6fb4:	97fff7d3 	bl	4f00 <_Unwind_Resume@plt>

0000000000006fb8 <_ZN11vector_tile10Tile_Value5ClearEv>:
    6fb8:	a9be7bfd 	stp	x29, x30, [sp, #-32]!
    6fbc:	f9000bf3 	str	x19, [sp, #16]
    6fc0:	910003fd 	mov	x29, sp
    6fc4:	aa0003f3 	mov	x19, x0
    6fc8:	97fff6c2 	bl	4ad0 <_mcount@plt>
    6fcc:	91002260 	add	x0, x19, #0x8
    6fd0:	94003414 	bl	14020 <_ZN6google8protobuf8internal12ExtensionSet5ClearEv>
    6fd4:	b9404a68 	ldr	w8, [x19, #72]
    6fd8:	360000a8 	tbz	w8, #0, 6fec <_ZN11vector_tile10Tile_Value5ClearEv+0x34>
    6fdc:	f9402a69 	ldr	x9, [x19, #80]
    6fe0:	f940012a 	ldr	x10, [x9]
    6fe4:	f900053f 	str	xzr, [x9, #8]
    6fe8:	3900015f 	strb	wzr, [x10]
    6fec:	721f151f 	tst	w8, #0x7e
    6ff0:	540000a0 	b.eq	7004 <_ZN11vector_tile10Tile_Value5ClearEv+0x4c>  // b.none
    6ff4:	6f00e400 	movi	v0.2d, #0x0
    6ff8:	f9003e7f 	str	xzr, [x19, #120]
    6ffc:	3c868260 	stur	q0, [x19, #104]
    7000:	3c858260 	stur	q0, [x19, #88]
    7004:	f9402268 	ldr	x8, [x19, #64]
    7008:	b9004a7f 	str	wzr, [x19, #72]
    700c:	360000a8 	tbz	w8, #0, 7020 <_ZN11vector_tile10Tile_Value5ClearEv+0x68>
    7010:	927ff908 	and	x8, x8, #0xfffffffffffffffe
    7014:	f9400109 	ldr	x9, [x8]
    7018:	f900051f 	str	xzr, [x8, #8]
    701c:	3900013f 	strb	wzr, [x9]
    7020:	f9400bf3 	ldr	x19, [sp, #16]
    7024:	a8c27bfd 	ldp	x29, x30, [sp], #32
    7028:	d65f03c0 	ret

000000000000702c <_ZN11vector_tile10Tile_Value27MergePartialFromCodedStreamEPN6google8protobuf2io16CodedInputStreamE>:
    702c:	d10303ff 	sub	sp, sp, #0xc0
    7030:	a9067bfd 	stp	x29, x30, [sp, #96]
    7034:	f9003bfb 	str	x27, [sp, #112]
    7038:	a90867fa 	stp	x26, x25, [sp, #128]
    703c:	a9095ff8 	stp	x24, x23, [sp, #144]
    7040:	a90a57f6 	stp	x22, x21, [sp, #160]
    7044:	a90b4ff4 	stp	x20, x19, [sp, #176]
    7048:	910183fd 	add	x29, sp, #0x60
    704c:	aa0103f4 	mov	x20, x1
    7050:	aa0003f5 	mov	x21, x0
    7054:	97fff69f 	bl	4ad0 <_mcount@plt>
    7058:	aa1503e9 	mov	x9, x21
    705c:	d100a3aa 	sub	x10, x29, #0x28
    7060:	9100615a 	add	x26, x10, #0x18
    7064:	91002153 	add	x19, x10, #0x8
    7068:	f81e83bf 	stur	xzr, [x29, #-24]
    706c:	f8440d28 	ldr	x8, [x9, #64]!
    7070:	a93deba9 	stp	x9, x26, [x29, #-40]
    7074:	381f03bf 	sturb	wzr, [x29, #-16]
    7078:	36000088 	tbz	w8, #0, 7088 <_ZN11vector_tile10Tile_Value27MergePartialFromCodedStreamEPN6google8protobuf2io16CodedInputStreamE+0x5c>
    707c:	927ff901 	and	x1, x8, #0xfffffffffffffffe
    7080:	aa1303e0 	mov	x0, x19
    7084:	97fff703 	bl	4c90 <_ZNSt7__cxx1112basic_stringIcSt11char_traitsIcESaIcEE4swapERS4_@plt>
    7088:	9100a3e0 	add	x0, sp, #0x28
    708c:	aa1303e1 	mov	x1, x19
    7090:	940088e4 	bl	29420 <_ZN6google8protobuf2io18StringOutputStreamC1EPNSt7__cxx1112basic_stringIcSt11char_traitsIcESaIcEEE>
    7094:	910023e0 	add	x0, sp, #0x8
    7098:	9100a3e1 	add	x1, sp, #0x28
    709c:	2a1f03e2 	mov	w2, wzr
    70a0:	94008409 	bl	280c4 <_ZN6google8protobuf2io17CodedOutputStreamC1EPNS1_20ZeroCopyOutputStreamEb>
    70a4:	f00001f8 	adrp	x24, 46000 <GCC_except_table137+0x10ca0>
    70a8:	910142b6 	add	x22, x21, #0x50
    70ac:	910022b7 	add	x23, x21, #0x8
    70b0:	90000219 	adrp	x25, 47000 <_Znam@GLIBCXX_3.4>
    70b4:	910ca339 	add	x25, x25, #0x328
    70b8:	f000011b 	adrp	x27, 2a000 <_ZN6google8protobuf18StringPrintfVectorEPKcRKSt6vectorINSt7__cxx1112basic_stringIcSt11char_traitsIcESaIcEEESaIS9_EE+0x2ec>
    70bc:	911f237b 	add	x27, x27, #0x7c8
    70c0:	f946a318 	ldr	x24, [x24, #3392]
    70c4:	a9402688 	ldp	x8, x9, [x20]
    70c8:	eb09011f 	cmp	x8, x9
    70cc:	54000142 	b.cs	70f4 <_ZN11vector_tile10Tile_Value27MergePartialFromCodedStreamEPN6google8protobuf2io16CodedInputStreamE+0xc8>  // b.hs, b.nlast
    70d0:	39c00109 	ldrsb	w9, [x8]
    70d4:	12001d21 	and	w1, w9, #0xff
    70d8:	7100053f 	cmp	w9, #0x1
    70dc:	540000eb 	b.lt	70f8 <_ZN11vector_tile10Tile_Value27MergePartialFromCodedStreamEPN6google8protobuf2io16CodedInputStreamE+0xcc>  // b.tstop
    70e0:	91000509 	add	x9, x8, #0x1
    70e4:	b2600028 	orr	x8, x1, #0x100000000
    70e8:	f9000289 	str	x9, [x20]
    70ec:	b7000168 	tbnz	x8, #32, 7118 <_ZN11vector_tile10Tile_Value27MergePartialFromCodedStreamEPN6google8protobuf2io16CodedInputStreamE+0xec>
    70f0:	1400007f 	b	72ec <_ZN11vector_tile10Tile_Value27MergePartialFromCodedStreamEPN6google8protobuf2io16CodedInputStreamE+0x2c0>
    70f4:	2a1f03e1 	mov	w1, wzr
    70f8:	aa1403e0 	mov	x0, x20
    70fc:	940082cd 	bl	27c30 <_ZN6google8protobuf2io16CodedInputStream15ReadTagFallbackEj>
    7100:	51000408 	sub	w8, w0, #0x1
    7104:	7101fd1f 	cmp	w8, #0x7f
    7108:	2a0003e8 	mov	w8, w0
    710c:	1a9f27e9 	cset	w9, cc  // cc = lo, ul, last
    7110:	b3600128 	bfi	x8, x9, #32, #1
    7114:	b6000ec8 	tbz	x8, #32, 72ec <_ZN11vector_tile10Tile_Value27MergePartialFromCodedStreamEPN6google8protobuf2io16CodedInputStreamE+0x2c0>
    7118:	53037d09 	lsr	w9, w8, #3
    711c:	51000529 	sub	w9, w9, #0x1
    7120:	7100193f 	cmp	w9, #0x6
    7124:	54000e48 	b.hi	72ec <_ZN11vector_tile10Tile_Value27MergePartialFromCodedStreamEPN6google8protobuf2io16CodedInputStreamE+0x2c0>  // b.pmore
    7128:	1000008a 	adr	x10, 7138 <_ZN11vector_tile10Tile_Value27MergePartialFromCodedStreamEPN6google8protobuf2io16CodedInputStreamE+0x10c>
    712c:	38696b6b 	ldrb	w11, [x27, x9]
    7130:	8b0b094a 	add	x10, x10, x11, lsl #2
    7134:	d61f0140 	br	x10
    7138:	92401d09 	and	x9, x8, #0xff
    713c:	f100293f 	cmp	x9, #0xa
    7140:	54000d61 	b.ne	72ec <_ZN11vector_tile10Tile_Value27MergePartialFromCodedStreamEPN6google8protobuf2io16CodedInputStreamE+0x2c0>  // b.any
    7144:	b9404aa8 	ldr	w8, [x21, #72]
    7148:	f9402aa1 	ldr	x1, [x21, #80]
    714c:	32000108 	orr	w8, w8, #0x1
    7150:	eb18003f 	cmp	x1, x24
    7154:	b9004aa8 	str	w8, [x21, #72]
    7158:	540000a1 	b.ne	716c <_ZN11vector_tile10Tile_Value27MergePartialFromCodedStreamEPN6google8protobuf2io16CodedInputStreamE+0x140>  // b.any
    715c:	aa1603e0 	mov	x0, x22
    7160:	aa1803e1 	mov	x1, x24
    7164:	94001255 	bl	bab8 <_ZN6google8protobuf8internal14ArenaStringPtr21CreateInstanceNoArenaEPKNSt7__cxx1112basic_stringIcSt11char_traitsIcESaIcEEE>
    7168:	f94002c1 	ldr	x1, [x22]
    716c:	aa1403e0 	mov	x0, x20
    7170:	94007b8d 	bl	25fa4 <_ZN6google8protobuf8internal14WireFormatLite9ReadBytesEPNS0_2io16CodedInputStreamEPNSt7__cxx1112basic_stringIcSt11char_traitsIcESaIcEEE>
    7174:	3707fa80 	tbnz	w0, #0, 70c4 <_ZN11vector_tile10Tile_Value27MergePartialFromCodedStreamEPN6google8protobuf2io16CodedInputStreamE+0x98>
    7178:	1400009b 	b	73e4 <_ZN11vector_tile10Tile_Value27MergePartialFromCodedStreamEPN6google8protobuf2io16CodedInputStreamE+0x3b8>
    717c:	92401d09 	and	x9, x8, #0xff
    7180:	f100a13f 	cmp	x9, #0x28
    7184:	54000b41 	b.ne	72ec <_ZN11vector_tile10Tile_Value27MergePartialFromCodedStreamEPN6google8protobuf2io16CodedInputStreamE+0x2c0>  // b.any
    7188:	b9404aa8 	ldr	w8, [x21, #72]
    718c:	321b0108 	orr	w8, w8, #0x20
    7190:	b9004aa8 	str	w8, [x21, #72]
    7194:	a9402688 	ldp	x8, x9, [x20]
    7198:	eb09011f 	cmp	x8, x9
    719c:	54000ca2 	b.cs	7330 <_ZN11vector_tile10Tile_Value27MergePartialFromCodedStreamEPN6google8protobuf2io16CodedInputStreamE+0x304>  // b.hs, b.nlast
    71a0:	39c00109 	ldrsb	w9, [x8]
    71a4:	37f80c69 	tbnz	w9, #31, 7330 <_ZN11vector_tile10Tile_Value27MergePartialFromCodedStreamEPN6google8protobuf2io16CodedInputStreamE+0x304>
    71a8:	92401d29 	and	x9, x9, #0xff
    71ac:	91000508 	add	x8, x8, #0x1
    71b0:	f9003aa9 	str	x9, [x21, #112]
    71b4:	f9000288 	str	x8, [x20]
    71b8:	17ffffc3 	b	70c4 <_ZN11vector_tile10Tile_Value27MergePartialFromCodedStreamEPN6google8protobuf2io16CodedInputStreamE+0x98>
    71bc:	92401d09 	and	x9, x8, #0xff
    71c0:	f100653f 	cmp	x9, #0x19
    71c4:	54000941 	b.ne	72ec <_ZN11vector_tile10Tile_Value27MergePartialFromCodedStreamEPN6google8protobuf2io16CodedInputStreamE+0x2c0>  // b.any
    71c8:	b9404aa8 	ldr	w8, [x21, #72]
    71cc:	321f0108 	orr	w8, w8, #0x2
    71d0:	b9004aa8 	str	w8, [x21, #72]
    71d4:	b9400a89 	ldr	w9, [x20, #8]
    71d8:	f9400288 	ldr	x8, [x20]
    71dc:	4b080129 	sub	w9, w9, w8
    71e0:	7100213f 	cmp	w9, #0x8
    71e4:	54000d8b 	b.lt	7394 <_ZN11vector_tile10Tile_Value27MergePartialFromCodedStreamEPN6google8protobuf2io16CodedInputStreamE+0x368>  // b.tstop
    71e8:	fc408500 	ldr	d0, [x8], #8
    71ec:	f9000288 	str	x8, [x20]
    71f0:	fd002ea0 	str	d0, [x21, #88]
    71f4:	17ffffb4 	b	70c4 <_ZN11vector_tile10Tile_Value27MergePartialFromCodedStreamEPN6google8protobuf2io16CodedInputStreamE+0x98>
    71f8:	92401d09 	and	x9, x8, #0xff
    71fc:	f100813f 	cmp	x9, #0x20
    7200:	54000761 	b.ne	72ec <_ZN11vector_tile10Tile_Value27MergePartialFromCodedStreamEPN6google8protobuf2io16CodedInputStreamE+0x2c0>  // b.any
    7204:	b9404aa8 	ldr	w8, [x21, #72]
    7208:	321e0108 	orr	w8, w8, #0x4
    720c:	b9004aa8 	str	w8, [x21, #72]
    7210:	a9402688 	ldp	x8, x9, [x20]
    7214:	eb09011f 	cmp	x8, x9
    7218:	54000962 	b.cs	7344 <_ZN11vector_tile10Tile_Value27MergePartialFromCodedStreamEPN6google8protobuf2io16CodedInputStreamE+0x318>  // b.hs, b.nlast
    721c:	39c00109 	ldrsb	w9, [x8]
    7220:	37f80929 	tbnz	w9, #31, 7344 <_ZN11vector_tile10Tile_Value27MergePartialFromCodedStreamEPN6google8protobuf2io16CodedInputStreamE+0x318>
    7224:	91000508 	add	x8, x8, #0x1
    7228:	92401d20 	and	x0, x9, #0xff
    722c:	f9000288 	str	x8, [x20]
    7230:	f90032a0 	str	x0, [x21, #96]
    7234:	17ffffa4 	b	70c4 <_ZN11vector_tile10Tile_Value27MergePartialFromCodedStreamEPN6google8protobuf2io16CodedInputStreamE+0x98>
    7238:	92401d09 	and	x9, x8, #0xff
    723c:	f100553f 	cmp	x9, #0x15
    7240:	54000561 	b.ne	72ec <_ZN11vector_tile10Tile_Value27MergePartialFromCodedStreamEPN6google8protobuf2io16CodedInputStreamE+0x2c0>  // b.any
    7244:	b9404aa8 	ldr	w8, [x21, #72]
    7248:	321d0108 	orr	w8, w8, #0x8
    724c:	b9004aa8 	str	w8, [x21, #72]
    7250:	b9400a89 	ldr	w9, [x20, #8]
    7254:	f9400288 	ldr	x8, [x20]
    7258:	4b080129 	sub	w9, w9, w8
    725c:	7100113f 	cmp	w9, #0x4
    7260:	54000a8b 	b.lt	73b0 <_ZN11vector_tile10Tile_Value27MergePartialFromCodedStreamEPN6google8protobuf2io16CodedInputStreamE+0x384>  // b.tstop
    7264:	bc404500 	ldr	s0, [x8], #4
    7268:	f9000288 	str	x8, [x20]
    726c:	bd006aa0 	str	s0, [x21, #104]
    7270:	17ffff95 	b	70c4 <_ZN11vector_tile10Tile_Value27MergePartialFromCodedStreamEPN6google8protobuf2io16CodedInputStreamE+0x98>
    7274:	92401d09 	and	x9, x8, #0xff
    7278:	f100c13f 	cmp	x9, #0x30
    727c:	54000381 	b.ne	72ec <_ZN11vector_tile10Tile_Value27MergePartialFromCodedStreamEPN6google8protobuf2io16CodedInputStreamE+0x2c0>  // b.any
    7280:	b9404aa8 	ldr	w8, [x21, #72]
    7284:	321a0108 	orr	w8, w8, #0x40
    7288:	b9004aa8 	str	w8, [x21, #72]
    728c:	a9402688 	ldp	x8, x9, [x20]
    7290:	eb09011f 	cmp	x8, x9
    7294:	54000622 	b.cs	7358 <_ZN11vector_tile10Tile_Value27MergePartialFromCodedStreamEPN6google8protobuf2io16CodedInputStreamE+0x32c>  // b.hs, b.nlast
    7298:	39c00109 	ldrsb	w9, [x8]
    729c:	37f805e9 	tbnz	w9, #31, 7358 <_ZN11vector_tile10Tile_Value27MergePartialFromCodedStreamEPN6google8protobuf2io16CodedInputStreamE+0x32c>
    72a0:	91000508 	add	x8, x8, #0x1
    72a4:	92401d20 	and	x0, x9, #0xff
    72a8:	f9000288 	str	x8, [x20]
    72ac:	1400002e 	b	7364 <_ZN11vector_tile10Tile_Value27MergePartialFromCodedStreamEPN6google8protobuf2io16CodedInputStreamE+0x338>
    72b0:	92401d09 	and	x9, x8, #0xff
    72b4:	f100e13f 	cmp	x9, #0x38
    72b8:	540001a1 	b.ne	72ec <_ZN11vector_tile10Tile_Value27MergePartialFromCodedStreamEPN6google8protobuf2io16CodedInputStreamE+0x2c0>  // b.any
    72bc:	b9404aa8 	ldr	w8, [x21, #72]
    72c0:	321c0108 	orr	w8, w8, #0x10
    72c4:	b9004aa8 	str	w8, [x21, #72]
    72c8:	a9402688 	ldp	x8, x9, [x20]
    72cc:	eb09011f 	cmp	x8, x9
    72d0:	54000542 	b.cs	7378 <_ZN11vector_tile10Tile_Value27MergePartialFromCodedStreamEPN6google8protobuf2io16CodedInputStreamE+0x34c>  // b.hs, b.nlast
    72d4:	39c00109 	ldrsb	w9, [x8]
    72d8:	37f80509 	tbnz	w9, #31, 7378 <_ZN11vector_tile10Tile_Value27MergePartialFromCodedStreamEPN6google8protobuf2io16CodedInputStreamE+0x34c>
    72dc:	91000508 	add	x8, x8, #0x1
    72e0:	92401d20 	and	x0, x9, #0xff
    72e4:	f9000288 	str	x8, [x20]
    72e8:	14000027 	b	7384 <_ZN11vector_tile10Tile_Value27MergePartialFromCodedStreamEPN6google8protobuf2io16CodedInputStreamE+0x358>
    72ec:	34000708 	cbz	w8, 73cc <_ZN11vector_tile10Tile_Value27MergePartialFromCodedStreamEPN6google8protobuf2io16CodedInputStreamE+0x3a0>
    72f0:	7101011f 	cmp	w8, #0x40
    72f4:	54000123 	b.cc	7318 <_ZN11vector_tile10Tile_Value27MergePartialFromCodedStreamEPN6google8protobuf2io16CodedInputStreamE+0x2ec>  // b.lo, b.ul, b.last
    72f8:	910023e4 	add	x4, sp, #0x8
    72fc:	aa1703e0 	mov	x0, x23
    7300:	2a0803e1 	mov	w1, w8
    7304:	aa1403e2 	mov	x2, x20
    7308:	aa1903e3 	mov	x3, x25
    730c:	94004d29 	bl	1a7b0 <_ZN6google8protobuf8internal12ExtensionSet10ParseFieldEjPNS0_2io16CodedInputStreamEPKNS0_11MessageLiteEPNS3_17CodedOutputStreamE>
    7310:	3707eda0 	tbnz	w0, #0, 70c4 <_ZN11vector_tile10Tile_Value27MergePartialFromCodedStreamEPN6google8protobuf2io16CodedInputStreamE+0x98>
    7314:	14000034 	b	73e4 <_ZN11vector_tile10Tile_Value27MergePartialFromCodedStreamEPN6google8protobuf2io16CodedInputStreamE+0x3b8>
    7318:	910023e2 	add	x2, sp, #0x8
    731c:	aa1403e0 	mov	x0, x20
    7320:	2a0803e1 	mov	w1, w8
    7324:	940073a7 	bl	241c0 <_ZN6google8protobuf8internal14WireFormatLite9SkipFieldEPNS0_2io16CodedInputStreamEjPNS3_17CodedOutputStreamE>
    7328:	3707ece0 	tbnz	w0, #0, 70c4 <_ZN11vector_tile10Tile_Value27MergePartialFromCodedStreamEPN6google8protobuf2io16CodedInputStreamE+0x98>
    732c:	1400002e 	b	73e4 <_ZN11vector_tile10Tile_Value27MergePartialFromCodedStreamEPN6google8protobuf2io16CodedInputStreamE+0x3b8>
    7330:	aa1403e0 	mov	x0, x20
    7334:	940080c8 	bl	27654 <_ZN6google8protobuf2io16CodedInputStream20ReadVarint64FallbackEv>
    7338:	f9003aa0 	str	x0, [x21, #112]
    733c:	3707ec41 	tbnz	w1, #0, 70c4 <_ZN11vector_tile10Tile_Value27MergePartialFromCodedStreamEPN6google8protobuf2io16CodedInputStreamE+0x98>
    7340:	14000029 	b	73e4 <_ZN11vector_tile10Tile_Value27MergePartialFromCodedStreamEPN6google8protobuf2io16CodedInputStreamE+0x3b8>
    7344:	aa1403e0 	mov	x0, x20
    7348:	940080c3 	bl	27654 <_ZN6google8protobuf2io16CodedInputStream20ReadVarint64FallbackEv>
    734c:	360004c1 	tbz	w1, #0, 73e4 <_ZN11vector_tile10Tile_Value27MergePartialFromCodedStreamEPN6google8protobuf2io16CodedInputStreamE+0x3b8>
    7350:	f90032a0 	str	x0, [x21, #96]
    7354:	17ffff5c 	b	70c4 <_ZN11vector_tile10Tile_Value27MergePartialFromCodedStreamEPN6google8protobuf2io16CodedInputStreamE+0x98>
    7358:	aa1403e0 	mov	x0, x20
    735c:	940080be 	bl	27654 <_ZN6google8protobuf2io16CodedInputStream20ReadVarint64FallbackEv>
    7360:	36000421 	tbz	w1, #0, 73e4 <_ZN11vector_tile10Tile_Value27MergePartialFromCodedStreamEPN6google8protobuf2io16CodedInputStreamE+0x3b8>
    7364:	92400008 	and	x8, x0, #0x1
    7368:	cb0803e8 	neg	x8, x8
    736c:	ca400508 	eor	x8, x8, x0, lsr #1
    7370:	f9003ea8 	str	x8, [x21, #120]
    7374:	17ffff54 	b	70c4 <_ZN11vector_tile10Tile_Value27MergePartialFromCodedStreamEPN6google8protobuf2io16CodedInputStreamE+0x98>
    7378:	aa1403e0 	mov	x0, x20
    737c:	940080b6 	bl	27654 <_ZN6google8protobuf2io16CodedInputStream20ReadVarint64FallbackEv>
    7380:	36000321 	tbz	w1, #0, 73e4 <_ZN11vector_tile10Tile_Value27MergePartialFromCodedStreamEPN6google8protobuf2io16CodedInputStreamE+0x3b8>
    7384:	f100001f 	cmp	x0, #0x0
    7388:	1a9f07e8 	cset	w8, ne  // ne = any
    738c:	3901b2a8 	strb	w8, [x21, #108]
    7390:	17ffff4d 	b	70c4 <_ZN11vector_tile10Tile_Value27MergePartialFromCodedStreamEPN6google8protobuf2io16CodedInputStreamE+0x98>
    7394:	910063a1 	add	x1, x29, #0x18
    7398:	aa1403e0 	mov	x0, x20
    739c:	94008049 	bl	274c0 <_ZN6google8protobuf2io16CodedInputStream26ReadLittleEndian64FallbackEPm>
    73a0:	36000220 	tbz	w0, #0, 73e4 <_ZN11vector_tile10Tile_Value27MergePartialFromCodedStreamEPN6google8protobuf2io16CodedInputStreamE+0x3b8>
    73a4:	fd400fa0 	ldr	d0, [x29, #24]
    73a8:	fd002ea0 	str	d0, [x21, #88]
    73ac:	17ffff46 	b	70c4 <_ZN11vector_tile10Tile_Value27MergePartialFromCodedStreamEPN6google8protobuf2io16CodedInputStreamE+0x98>
    73b0:	910063a1 	add	x1, x29, #0x18
    73b4:	aa1403e0 	mov	x0, x20
    73b8:	9400801b 	bl	27424 <_ZN6google8protobuf2io16CodedInputStream26ReadLittleEndian32FallbackEPj>
    73bc:	36000140 	tbz	w0, #0, 73e4 <_ZN11vector_tile10Tile_Value27MergePartialFromCodedStreamEPN6google8protobuf2io16CodedInputStreamE+0x3b8>
    73c0:	bd401ba0 	ldr	s0, [x29, #24]
    73c4:	bd006aa0 	str	s0, [x21, #104]
    73c8:	17ffff3f 	b	70c4 <_ZN11vector_tile10Tile_Value27MergePartialFromCodedStreamEPN6google8protobuf2io16CodedInputStreamE+0x98>
    73cc:	52800034 	mov	w20, #0x1                   	// #1
    73d0:	910023e0 	add	x0, sp, #0x8
    73d4:	940082f3 	bl	27fa0 <_ZN6google8protobuf2io17CodedOutputStreamD1Ev>
    73d8:	f85e83a8 	ldur	x8, [x29, #-24]
    73dc:	b50000e8 	cbnz	x8, 73f8 <_ZN11vector_tile10Tile_Value27MergePartialFromCodedStreamEPN6google8protobuf2io16CodedInputStreamE+0x3cc>
    73e0:	1400000c 	b	7410 <_ZN11vector_tile10Tile_Value27MergePartialFromCodedStreamEPN6google8protobuf2io16CodedInputStreamE+0x3e4>
    73e4:	2a1f03f4 	mov	w20, wzr
    73e8:	910023e0 	add	x0, sp, #0x8
    73ec:	940082ed 	bl	27fa0 <_ZN6google8protobuf2io17CodedOutputStreamD1Ev>
    73f0:	f85e83a8 	ldur	x8, [x29, #-24]
    73f4:	b40000e8 	cbz	x8, 7410 <_ZN11vector_tile10Tile_Value27MergePartialFromCodedStreamEPN6google8protobuf2io16CodedInputStreamE+0x3e4>
    73f8:	f85d83a0 	ldur	x0, [x29, #-40]
    73fc:	f9400008 	ldr	x8, [x0]
    7400:	36000228 	tbz	w8, #0, 7444 <_ZN11vector_tile10Tile_Value27MergePartialFromCodedStreamEPN6google8protobuf2io16CodedInputStreamE+0x418>
    7404:	927ff900 	and	x0, x8, #0xfffffffffffffffe
    7408:	aa1303e1 	mov	x1, x19
    740c:	97fff621 	bl	4c90 <_ZNSt7__cxx1112basic_stringIcSt11char_traitsIcESaIcEE4swapERS4_@plt>
    7410:	f85e03a0 	ldur	x0, [x29, #-32]
    7414:	eb1a001f 	cmp	x0, x26
    7418:	54000040 	b.eq	7420 <_ZN11vector_tile10Tile_Value27MergePartialFromCodedStreamEPN6google8protobuf2io16CodedInputStreamE+0x3f4>  // b.none
    741c:	97fff639 	bl	4d00 <_ZdlPv@plt>
    7420:	2a1403e0 	mov	w0, w20
    7424:	a94b4ff4 	ldp	x20, x19, [sp, #176]
    7428:	a94a57f6 	ldp	x22, x21, [sp, #160]
    742c:	a9495ff8 	ldp	x24, x23, [sp, #144]
    7430:	a94867fa 	ldp	x26, x25, [sp, #128]
    7434:	a9467bfd 	ldp	x29, x30, [sp, #96]
    7438:	f9403bfb 	ldr	x27, [sp, #112]
    743c:	910303ff 	add	sp, sp, #0xc0
    7440:	d65f03c0 	ret
    7444:	940011cd 	bl	bb78 <_ZN6google8protobuf8internal29InternalMetadataWithArenaBaseINSt7__cxx1112basic_stringIcSt11char_traitsIcESaIcEEENS1_29InternalMetadataWithArenaLiteEE27mutable_unknown_fields_slowEv>
    7448:	17fffff0 	b	7408 <_ZN11vector_tile10Tile_Value27MergePartialFromCodedStreamEPN6google8protobuf2io16CodedInputStreamE+0x3dc>
    744c:	97fffbbe 	bl	6344 <__clang_call_terminate>
    7450:	14000001 	b	7454 <_ZN11vector_tile10Tile_Value27MergePartialFromCodedStreamEPN6google8protobuf2io16CodedInputStreamE+0x428>
    7454:	aa0003f3 	mov	x19, x0
    7458:	14000004 	b	7468 <_ZN11vector_tile10Tile_Value27MergePartialFromCodedStreamEPN6google8protobuf2io16CodedInputStreamE+0x43c>
    745c:	aa0003f3 	mov	x19, x0
    7460:	910023e0 	add	x0, sp, #0x8
    7464:	940082cf 	bl	27fa0 <_ZN6google8protobuf2io17CodedOutputStreamD1Ev>
    7468:	d100a3a0 	sub	x0, x29, #0x28
    746c:	94000fc1 	bl	b370 <_ZN6google8protobuf8internal22LiteUnknownFieldSetterD2Ev>
    7470:	aa1303e0 	mov	x0, x19
    7474:	97fff6a3 	bl	4f00 <_Unwind_Resume@plt>

0000000000007478 <_ZNK11vector_tile10Tile_Value24SerializeWithCachedSizesEPN6google8protobuf2io17CodedOutputStreamE>:
    7478:	a9bd7bfd 	stp	x29, x30, [sp, #-48]!
    747c:	f9000bf5 	str	x21, [sp, #16]
    7480:	a9024ff4 	stp	x20, x19, [sp, #32]
    7484:	910003fd 	mov	x29, sp
    7488:	aa0103f3 	mov	x19, x1
    748c:	aa0003f4 	mov	x20, x0
    7490:	97fff590 	bl	4ad0 <_mcount@plt>
    7494:	b9404a95 	ldr	w21, [x20, #72]
    7498:	37000375 	tbnz	w21, #0, 7504 <_ZNK11vector_tile10Tile_Value24SerializeWithCachedSizesEPN6google8protobuf2io17CodedOutputStreamE+0x8c>
    749c:	371803f5 	tbnz	w21, #3, 7518 <_ZNK11vector_tile10Tile_Value24SerializeWithCachedSizesEPN6google8protobuf2io17CodedOutputStreamE+0xa0>
    74a0:	37080475 	tbnz	w21, #1, 752c <_ZNK11vector_tile10Tile_Value24SerializeWithCachedSizesEPN6google8protobuf2io17CodedOutputStreamE+0xb4>
    74a4:	371004f5 	tbnz	w21, #2, 7540 <_ZNK11vector_tile10Tile_Value24SerializeWithCachedSizesEPN6google8protobuf2io17CodedOutputStreamE+0xc8>
    74a8:	37280575 	tbnz	w21, #5, 7554 <_ZNK11vector_tile10Tile_Value24SerializeWithCachedSizesEPN6google8protobuf2io17CodedOutputStreamE+0xdc>
    74ac:	373005f5 	tbnz	w21, #6, 7568 <_ZNK11vector_tile10Tile_Value24SerializeWithCachedSizesEPN6google8protobuf2io17CodedOutputStreamE+0xf0>
    74b0:	362000b5 	tbz	w21, #4, 74c4 <_ZNK11vector_tile10Tile_Value24SerializeWithCachedSizesEPN6google8protobuf2io17CodedOutputStreamE+0x4c>
    74b4:	3941b281 	ldrb	w1, [x20, #108]
    74b8:	528000e0 	mov	w0, #0x7                   	// #7
    74bc:	aa1303e2 	mov	x2, x19
    74c0:	94007735 	bl	25194 <_ZN6google8protobuf8internal14WireFormatLite9WriteBoolEibPNS0_2io17CodedOutputStreamE>
    74c4:	91002280 	add	x0, x20, #0x8
    74c8:	52800101 	mov	w1, #0x8                   	// #8
    74cc:	52a40002 	mov	w2, #0x20000000            	// #536870912
    74d0:	aa1303e3 	mov	x3, x19
    74d4:	94003787 	bl	152f0 <_ZNK6google8protobuf8internal12ExtensionSet24SerializeWithCachedSizesEiiPNS0_2io17CodedOutputStreamE>
    74d8:	f9402288 	ldr	x8, [x20, #64]
    74dc:	37000528 	tbnz	w8, #0, 7580 <_ZNK11vector_tile10Tile_Value24SerializeWithCachedSizesEPN6google8protobuf2io17CodedOutputStreamE+0x108>
    74e0:	f00001e8 	adrp	x8, 46000 <GCC_except_table137+0x10ca0>
    74e4:	f946a108 	ldr	x8, [x8, #3392]
    74e8:	f9400101 	ldr	x1, [x8]
    74ec:	b9400902 	ldr	w2, [x8, #8]
    74f0:	aa1303e0 	mov	x0, x19
    74f4:	a9424ff4 	ldp	x20, x19, [sp, #32]
    74f8:	f9400bf5 	ldr	x21, [sp, #16]
    74fc:	a8c37bfd 	ldp	x29, x30, [sp], #48
    7500:	14008338 	b	281e0 <_ZN6google8protobuf2io17CodedOutputStream8WriteRawEPKvi>
    7504:	f9402a81 	ldr	x1, [x20, #80]
    7508:	52800020 	mov	w0, #0x1                   	// #1
    750c:	aa1303e2 	mov	x2, x19
    7510:	940077f8 	bl	254f0 <_ZN6google8protobuf8internal14WireFormatLite23WriteStringMaybeAliasedEiRKNSt7__cxx1112basic_stringIcSt11char_traitsIcESaIcEEEPNS0_2io17CodedOutputStreamE>
    7514:	361ffc75 	tbz	w21, #3, 74a0 <_ZNK11vector_tile10Tile_Value24SerializeWithCachedSizesEPN6google8protobuf2io17CodedOutputStreamE+0x28>
    7518:	bd406a80 	ldr	s0, [x20, #104]
    751c:	52800040 	mov	w0, #0x2                   	// #2
    7520:	aa1303e1 	mov	x1, x19
    7524:	940076cc 	bl	25054 <_ZN6google8protobuf8internal14WireFormatLite10WriteFloatEifPNS0_2io17CodedOutputStreamE>
    7528:	360ffbf5 	tbz	w21, #1, 74a4 <_ZNK11vector_tile10Tile_Value24SerializeWithCachedSizesEPN6google8protobuf2io17CodedOutputStreamE+0x2c>
    752c:	fd402e80 	ldr	d0, [x20, #88]
    7530:	52800060 	mov	w0, #0x3                   	// #3
    7534:	aa1303e1 	mov	x1, x19
    7538:	940076ef 	bl	250f4 <_ZN6google8protobuf8internal14WireFormatLite11WriteDoubleEidPNS0_2io17CodedOutputStreamE>
    753c:	3617fb75 	tbz	w21, #2, 74a8 <_ZNK11vector_tile10Tile_Value24SerializeWithCachedSizesEPN6google8protobuf2io17CodedOutputStreamE+0x30>
    7540:	f9403281 	ldr	x1, [x20, #96]
    7544:	52800080 	mov	w0, #0x4                   	// #4
    7548:	aa1303e2 	mov	x2, x19
    754c:	940074ea 	bl	248f4 <_ZN6google8protobuf8internal14WireFormatLite10WriteInt64EilPNS0_2io17CodedOutputStreamE>
    7550:	362ffaf5 	tbz	w21, #5, 74ac <_ZNK11vector_tile10Tile_Value24SerializeWithCachedSizesEPN6google8protobuf2io17CodedOutputStreamE+0x34>
    7554:	f9403a81 	ldr	x1, [x20, #112]
    7558:	528000a0 	mov	w0, #0x5                   	// #5
    755c:	aa1303e2 	mov	x2, x19
    7560:	94007561 	bl	24ae4 <_ZN6google8protobuf8internal14WireFormatLite11WriteUInt64EimPNS0_2io17CodedOutputStreamE>
    7564:	3637fa75 	tbz	w21, #6, 74b0 <_ZNK11vector_tile10Tile_Value24SerializeWithCachedSizesEPN6google8protobuf2io17CodedOutputStreamE+0x38>
    7568:	f9403e81 	ldr	x1, [x20, #120]
    756c:	528000c0 	mov	w0, #0x6                   	// #6
    7570:	aa1303e2 	mov	x2, x19
    7574:	940075d7 	bl	24cd0 <_ZN6google8protobuf8internal14WireFormatLite11WriteSInt64EilPNS0_2io17CodedOutputStreamE>
    7578:	3727f9f5 	tbnz	w21, #4, 74b4 <_ZNK11vector_tile10Tile_Value24SerializeWithCachedSizesEPN6google8protobuf2io17CodedOutputStreamE+0x3c>
    757c:	17ffffd2 	b	74c4 <_ZNK11vector_tile10Tile_Value24SerializeWithCachedSizesEPN6google8protobuf2io17CodedOutputStreamE+0x4c>
    7580:	927ff908 	and	x8, x8, #0xfffffffffffffffe
    7584:	17ffffd9 	b	74e8 <_ZNK11vector_tile10Tile_Value24SerializeWithCachedSizesEPN6google8protobuf2io17CodedOutputStreamE+0x70>

0000000000007588 <_ZNK11vector_tile10Tile_Value12ByteSizeLongEv>:
    7588:	a9be7bfd 	stp	x29, x30, [sp, #-32]!
    758c:	f9000bf3 	str	x19, [sp, #16]
    7590:	910003fd 	mov	x29, sp
    7594:	aa0003f3 	mov	x19, x0
    7598:	97fff54e 	bl	4ad0 <_mcount@plt>
    759c:	91002260 	add	x0, x19, #0x8
    75a0:	94003b54 	bl	162f0 <_ZNK6google8protobuf8internal12ExtensionSet8ByteSizeEv>
    75a4:	f9402268 	ldr	x8, [x19, #64]
    75a8:	370007c8 	tbnz	w8, #0, 76a0 <_ZNK11vector_tile10Tile_Value12ByteSizeLongEv+0x118>
    75ac:	f00001e8 	adrp	x8, 46000 <GCC_except_table137+0x10ca0>
    75b0:	f946a108 	ldr	x8, [x8, #3392]
    75b4:	f9400509 	ldr	x9, [x8, #8]
    75b8:	b9404a68 	ldr	w8, [x19, #72]
    75bc:	8b000120 	add	x0, x9, x0
    75c0:	7200191f 	tst	w8, #0x7f
    75c4:	54000660 	b.eq	7690 <_ZNK11vector_tile10Tile_Value12ByteSizeLongEv+0x108>  // b.none
    75c8:	36000188 	tbz	w8, #0, 75f8 <_ZNK11vector_tile10Tile_Value12ByteSizeLongEv+0x70>
    75cc:	f9402a69 	ldr	x9, [x19, #80]
    75d0:	f9400529 	ldr	x9, [x9, #8]
    75d4:	3200012a 	orr	w10, w9, #0x1
    75d8:	8b090009 	add	x9, x0, x9
    75dc:	5ac0114a 	clz	w10, w10
    75e0:	5200114a 	eor	w10, w10, #0x1f
    75e4:	0b0a0d4a 	add	w10, w10, w10, lsl #3
    75e8:	1101254a 	add	w10, w10, #0x49
    75ec:	53067d4a 	lsr	w10, w10, #6
    75f0:	8b0a0129 	add	x9, x9, x10
    75f4:	91000520 	add	x0, x9, #0x1
    75f8:	91002409 	add	x9, x0, #0x9
    75fc:	721f011f 	tst	w8, #0x2
    7600:	9a890009 	csel	x9, x0, x9, eq  // eq = none
    7604:	36100128 	tbz	w8, #2, 7628 <_ZNK11vector_tile10Tile_Value12ByteSizeLongEv+0xa0>
    7608:	f940326a 	ldr	x10, [x19, #96]
    760c:	b240014a 	orr	x10, x10, #0x1
    7610:	dac0114a 	clz	x10, x10
    7614:	d240154a 	eor	x10, x10, #0x3f
    7618:	8b0a0d4a 	add	x10, x10, x10, lsl #3
    761c:	9101254a 	add	x10, x10, #0x49
    7620:	8b4a1929 	add	x9, x9, x10, lsr #6
    7624:	91000529 	add	x9, x9, #0x1
    7628:	9100152a 	add	x10, x9, #0x5
    762c:	721d011f 	tst	w8, #0x8
    7630:	9a8a0129 	csel	x9, x9, x10, eq  // eq = none
    7634:	721c011f 	tst	w8, #0x10
    7638:	9100092a 	add	x10, x9, #0x2
    763c:	9a8a0120 	csel	x0, x9, x10, eq  // eq = none
    7640:	36280128 	tbz	w8, #5, 7664 <_ZNK11vector_tile10Tile_Value12ByteSizeLongEv+0xdc>
    7644:	f9403a69 	ldr	x9, [x19, #112]
    7648:	b2400129 	orr	x9, x9, #0x1
    764c:	dac01129 	clz	x9, x9
    7650:	d2401529 	eor	x9, x9, #0x3f
    7654:	8b090d29 	add	x9, x9, x9, lsl #3
    7658:	91012529 	add	x9, x9, #0x49
    765c:	8b491809 	add	x9, x0, x9, lsr #6
    7660:	91000520 	add	x0, x9, #0x1
    7664:	36300168 	tbz	w8, #6, 7690 <_ZNK11vector_tile10Tile_Value12ByteSizeLongEv+0x108>
    7668:	f9403e68 	ldr	x8, [x19, #120]
    766c:	d37ff909 	lsl	x9, x8, #1
    7670:	ca88fd28 	eor	x8, x9, x8, asr #63
    7674:	b2400108 	orr	x8, x8, #0x1
    7678:	dac01108 	clz	x8, x8
    767c:	d2401508 	eor	x8, x8, #0x3f
    7680:	8b080d08 	add	x8, x8, x8, lsl #3
    7684:	91012508 	add	x8, x8, #0x49
    7688:	8b481808 	add	x8, x0, x8, lsr #6
    768c:	91000500 	add	x0, x8, #0x1
    7690:	b9004e60 	str	w0, [x19, #76]
    7694:	f9400bf3 	ldr	x19, [sp, #16]
    7698:	a8c27bfd 	ldp	x29, x30, [sp], #32
    769c:	d65f03c0 	ret
    76a0:	927ff908 	and	x8, x8, #0xfffffffffffffffe
    76a4:	f9400509 	ldr	x9, [x8, #8]
    76a8:	b9404a68 	ldr	w8, [x19, #72]
    76ac:	8b000120 	add	x0, x9, x0
    76b0:	7200191f 	tst	w8, #0x7f
    76b4:	54fff8a1 	b.ne	75c8 <_ZNK11vector_tile10Tile_Value12ByteSizeLongEv+0x40>  // b.any
    76b8:	17fffff6 	b	7690 <_ZNK11vector_tile10Tile_Value12ByteSizeLongEv+0x108>

00000000000076bc <_ZN11vector_tile10Tile_Value21CheckTypeAndMergeFromERKN6google8protobuf11MessageLiteE>:
    76bc:	a9be7bfd 	stp	x29, x30, [sp, #-32]!
    76c0:	a9014ff4 	stp	x20, x19, [sp, #16]
    76c4:	910003fd 	mov	x29, sp
    76c8:	aa0103f3 	mov	x19, x1
    76cc:	aa0003f4 	mov	x20, x0
    76d0:	97fff500 	bl	4ad0 <_mcount@plt>
    76d4:	aa1403e0 	mov	x0, x20
    76d8:	aa1303e1 	mov	x1, x19
    76dc:	a9414ff4 	ldp	x20, x19, [sp, #16]
    76e0:	a8c27bfd 	ldp	x29, x30, [sp], #32
    76e4:	14000001 	b	76e8 <_ZN11vector_tile10Tile_Value9MergeFromERKS0_>

00000000000076e8 <_ZN11vector_tile10Tile_Value9MergeFromERKS0_>:
    76e8:	a9bd7bfd 	stp	x29, x30, [sp, #-48]!
    76ec:	f9000bf5 	str	x21, [sp, #16]
    76f0:	a9024ff4 	stp	x20, x19, [sp, #32]
    76f4:	910003fd 	mov	x29, sp
    76f8:	aa0103f4 	mov	x20, x1
    76fc:	aa0003f3 	mov	x19, x0
    7700:	97fff4f4 	bl	4ad0 <_mcount@plt>
    7704:	91002260 	add	x0, x19, #0x8
    7708:	91002281 	add	x1, x20, #0x8
    770c:	94004699 	bl	19170 <_ZN6google8protobuf8internal12ExtensionSet9MergeFromERKS2_>
    7710:	f9402288 	ldr	x8, [x20, #64]
    7714:	36000108 	tbz	w8, #0, 7734 <_ZN11vector_tile10Tile_Value9MergeFromERKS0_+0x4c>
    7718:	91010260 	add	x0, x19, #0x40
    771c:	927ff915 	and	x21, x8, #0xfffffffffffffffe
    7720:	f9400009 	ldr	x9, [x0]
    7724:	360006e9 	tbz	w9, #0, 7800 <_ZN11vector_tile10Tile_Value9MergeFromERKS0_+0x118>
    7728:	927ff920 	and	x0, x9, #0xfffffffffffffffe
    772c:	a9400aa1 	ldp	x1, x2, [x21]
    7730:	97fff4d8 	bl	4a90 <_ZNSt7__cxx1112basic_stringIcSt11char_traitsIcESaIcEE9_M_appendEPKcm@plt>
    7734:	b9404a95 	ldr	w21, [x20, #72]
    7738:	72001abf 	tst	w21, #0x7f
    773c:	54000360 	b.eq	77a8 <_ZN11vector_tile10Tile_Value9MergeFromERKS0_+0xc0>  // b.none
    7740:	360001f5 	tbz	w21, #0, 777c <_ZN11vector_tile10Tile_Value9MergeFromERKS0_+0x94>
    7744:	aa1303e0 	mov	x0, x19
    7748:	f8450c08 	ldr	x8, [x0, #80]!
    774c:	b85f8009 	ldur	w9, [x0, #-8]
    7750:	32000129 	orr	w9, w9, #0x1
    7754:	b81f8009 	stur	w9, [x0, #-8]
    7758:	f9402a81 	ldr	x1, [x20, #80]
    775c:	eb01011f 	cmp	x8, x1
    7760:	540000e0 	b.eq	777c <_ZN11vector_tile10Tile_Value9MergeFromERKS0_+0x94>  // b.none
    7764:	f00001e9 	adrp	x9, 46000 <GCC_except_table137+0x10ca0>
    7768:	f946a129 	ldr	x9, [x9, #3392]
    776c:	eb09011f 	cmp	x8, x9
    7770:	54000240 	b.eq	77b8 <_ZN11vector_tile10Tile_Value9MergeFromERKS0_+0xd0>  // b.none
    7774:	aa0803e0 	mov	x0, x8
    7778:	97fff502 	bl	4b80 <_ZNSt7__cxx1112basic_stringIcSt11char_traitsIcESaIcEE9_M_assignERKS4_@plt>
    777c:	37080235 	tbnz	w21, #1, 77c0 <_ZN11vector_tile10Tile_Value9MergeFromERKS0_+0xd8>
    7780:	37100275 	tbnz	w21, #2, 77cc <_ZN11vector_tile10Tile_Value9MergeFromERKS0_+0xe4>
    7784:	371802b5 	tbnz	w21, #3, 77d8 <_ZN11vector_tile10Tile_Value9MergeFromERKS0_+0xf0>
    7788:	372002f5 	tbnz	w21, #4, 77e4 <_ZN11vector_tile10Tile_Value9MergeFromERKS0_+0xfc>
    778c:	37280335 	tbnz	w21, #5, 77f0 <_ZN11vector_tile10Tile_Value9MergeFromERKS0_+0x108>
    7790:	36300075 	tbz	w21, #6, 779c <_ZN11vector_tile10Tile_Value9MergeFromERKS0_+0xb4>
    7794:	f9403e88 	ldr	x8, [x20, #120]
    7798:	f9003e68 	str	x8, [x19, #120]
    779c:	b9404a68 	ldr	w8, [x19, #72]
    77a0:	2a150108 	orr	w8, w8, w21
    77a4:	b9004a68 	str	w8, [x19, #72]
    77a8:	a9424ff4 	ldp	x20, x19, [sp, #32]
    77ac:	f9400bf5 	ldr	x21, [sp, #16]
    77b0:	a8c37bfd 	ldp	x29, x30, [sp], #48
    77b4:	d65f03c0 	ret
    77b8:	940010c0 	bl	bab8 <_ZN6google8protobuf8internal14ArenaStringPtr21CreateInstanceNoArenaEPKNSt7__cxx1112basic_stringIcSt11char_traitsIcESaIcEEE>
    77bc:	360ffe35 	tbz	w21, #1, 7780 <_ZN11vector_tile10Tile_Value9MergeFromERKS0_+0x98>
    77c0:	fd402e80 	ldr	d0, [x20, #88]
    77c4:	fd002e60 	str	d0, [x19, #88]
    77c8:	3617fdf5 	tbz	w21, #2, 7784 <_ZN11vector_tile10Tile_Value9MergeFromERKS0_+0x9c>
    77cc:	f9403288 	ldr	x8, [x20, #96]
    77d0:	f9003268 	str	x8, [x19, #96]
    77d4:	361ffdb5 	tbz	w21, #3, 7788 <_ZN11vector_tile10Tile_Value9MergeFromERKS0_+0xa0>
    77d8:	bd406a80 	ldr	s0, [x20, #104]
    77dc:	bd006a60 	str	s0, [x19, #104]
    77e0:	3627fd75 	tbz	w21, #4, 778c <_ZN11vector_tile10Tile_Value9MergeFromERKS0_+0xa4>
    77e4:	3941b288 	ldrb	w8, [x20, #108]
    77e8:	3901b268 	strb	w8, [x19, #108]
    77ec:	362ffd35 	tbz	w21, #5, 7790 <_ZN11vector_tile10Tile_Value9MergeFromERKS0_+0xa8>
    77f0:	f9403a88 	ldr	x8, [x20, #112]
    77f4:	f9003a68 	str	x8, [x19, #112]
    77f8:	3737fcf5 	tbnz	w21, #6, 7794 <_ZN11vector_tile10Tile_Value9MergeFromERKS0_+0xac>
    77fc:	17ffffe8 	b	779c <_ZN11vector_tile10Tile_Value9MergeFromERKS0_+0xb4>
    7800:	940010de 	bl	bb78 <_ZN6google8protobuf8internal29InternalMetadataWithArenaBaseINSt7__cxx1112basic_stringIcSt11char_traitsIcESaIcEEENS1_29InternalMetadataWithArenaLiteEE27mutable_unknown_fields_slowEv>
    7804:	17ffffca 	b	772c <_ZN11vector_tile10Tile_Value9MergeFromERKS0_+0x44>

0000000000007808 <_ZN11vector_tile10Tile_Value8CopyFromERKS0_>:
    7808:	a9be7bfd 	stp	x29, x30, [sp, #-32]!
    780c:	a9014ff4 	stp	x20, x19, [sp, #16]
    7810:	910003fd 	mov	x29, sp
    7814:	aa0103f3 	mov	x19, x1
    7818:	aa0003f4 	mov	x20, x0
    781c:	97fff4ad 	bl	4ad0 <_mcount@plt>
    7820:	eb14027f 	cmp	x19, x20
    7824:	54000360 	b.eq	7890 <_ZN11vector_tile10Tile_Value8CopyFromERKS0_+0x88>  // b.none
    7828:	91002280 	add	x0, x20, #0x8
    782c:	940031fd 	bl	14020 <_ZN6google8protobuf8internal12ExtensionSet5ClearEv>
    7830:	b9404a88 	ldr	w8, [x20, #72]
    7834:	360000a8 	tbz	w8, #0, 7848 <_ZN11vector_tile10Tile_Value8CopyFromERKS0_+0x40>
    7838:	f9402a89 	ldr	x9, [x20, #80]
    783c:	f940012a 	ldr	x10, [x9]
    7840:	f900053f 	str	xzr, [x9, #8]
    7844:	3900015f 	strb	wzr, [x10]
    7848:	721f151f 	tst	w8, #0x7e
    784c:	540000a0 	b.eq	7860 <_ZN11vector_tile10Tile_Value8CopyFromERKS0_+0x58>  // b.none
    7850:	6f00e400 	movi	v0.2d, #0x0
    7854:	f9003e9f 	str	xzr, [x20, #120]
    7858:	3c868280 	stur	q0, [x20, #104]
    785c:	3c858280 	stur	q0, [x20, #88]
    7860:	f9402288 	ldr	x8, [x20, #64]
    7864:	b9004a9f 	str	wzr, [x20, #72]
    7868:	360000a8 	tbz	w8, #0, 787c <_ZN11vector_tile10Tile_Value8CopyFromERKS0_+0x74>
    786c:	927ff908 	and	x8, x8, #0xfffffffffffffffe
    7870:	f9400109 	ldr	x9, [x8]
    7874:	f900051f 	str	xzr, [x8, #8]
    7878:	3900013f 	strb	wzr, [x9]
    787c:	aa1403e0 	mov	x0, x20
    7880:	aa1303e1 	mov	x1, x19
    7884:	a9414ff4 	ldp	x20, x19, [sp, #16]
    7888:	a8c27bfd 	ldp	x29, x30, [sp], #32
    788c:	17ffff97 	b	76e8 <_ZN11vector_tile10Tile_Value9MergeFromERKS0_>
    7890:	a9414ff4 	ldp	x20, x19, [sp, #16]
    7894:	a8c27bfd 	ldp	x29, x30, [sp], #32
    7898:	d65f03c0 	ret

000000000000789c <_ZNK11vector_tile10Tile_Value13IsInitializedEv>:
    789c:	a9be7bfd 	stp	x29, x30, [sp, #-32]!
    78a0:	f9000bf3 	str	x19, [sp, #16]
    78a4:	910003fd 	mov	x29, sp
    78a8:	aa0003f3 	mov	x19, x0
    78ac:	97fff489 	bl	4ad0 <_mcount@plt>
    78b0:	91002260 	add	x0, x19, #0x8
    78b4:	f9400bf3 	ldr	x19, [sp, #16]
    78b8:	a8c27bfd 	ldp	x29, x30, [sp], #32
    78bc:	140030a5 	b	13b50 <_ZNK6google8protobuf8internal12ExtensionSet13IsInitializedEv>

00000000000078c0 <_ZN11vector_tile10Tile_Value4SwapEPS0_>:
    78c0:	a9be7bfd 	stp	x29, x30, [sp, #-32]!
    78c4:	a9014ff4 	stp	x20, x19, [sp, #16]
    78c8:	910003fd 	mov	x29, sp
    78cc:	aa0103f3 	mov	x19, x1
    78d0:	aa0003f4 	mov	x20, x0
    78d4:	97fff47f 	bl	4ad0 <_mcount@plt>
    78d8:	eb14027f 	cmp	x19, x20
    78dc:	540000c0 	b.eq	78f4 <_ZN11vector_tile10Tile_Value4SwapEPS0_+0x34>  // b.none
    78e0:	aa1403e0 	mov	x0, x20
    78e4:	aa1303e1 	mov	x1, x19
    78e8:	a9414ff4 	ldp	x20, x19, [sp, #16]
    78ec:	a8c27bfd 	ldp	x29, x30, [sp], #32
    78f0:	14000004 	b	7900 <_ZN11vector_tile10Tile_Value12InternalSwapEPS0_>
    78f4:	a9414ff4 	ldp	x20, x19, [sp, #16]
    78f8:	a8c27bfd 	ldp	x29, x30, [sp], #32
    78fc:	d65f03c0 	ret

0000000000007900 <_ZN11vector_tile10Tile_Value12InternalSwapEPS0_>:
    7900:	a9bd7bfd 	stp	x29, x30, [sp, #-48]!
    7904:	a90157f6 	stp	x22, x21, [sp, #16]
    7908:	a9024ff4 	stp	x20, x19, [sp, #32]
    790c:	910003fd 	mov	x29, sp
    7910:	aa0103f3 	mov	x19, x1
    7914:	aa0003f4 	mov	x20, x0
    7918:	97fff46e 	bl	4ad0 <_mcount@plt>
    791c:	f9402a68 	ldr	x8, [x19, #80]
    7920:	aa1403f5 	mov	x21, x20
    7924:	f940326a 	ldr	x10, [x19, #96]
    7928:	aa1303e0 	mov	x0, x19
    792c:	f9402a89 	ldr	x9, [x20, #80]
    7930:	f9002a88 	str	x8, [x20, #80]
    7934:	f9403288 	ldr	x8, [x20, #96]
    7938:	f900328a 	str	x10, [x20, #96]
    793c:	fd402e60 	ldr	d0, [x19, #88]
    7940:	f9002a69 	str	x9, [x19, #80]
    7944:	3941b269 	ldrb	w9, [x19, #108]
    7948:	f9403a6a 	ldr	x10, [x19, #112]
    794c:	f9003268 	str	x8, [x19, #96]
    7950:	3941b288 	ldrb	w8, [x20, #108]
    7954:	3901b289 	strb	w9, [x20, #108]
    7958:	f9403a89 	ldr	x9, [x20, #112]
    795c:	f9003a8a 	str	x10, [x20, #112]
    7960:	fd402e81 	ldr	d1, [x20, #88]
    7964:	3901b268 	strb	w8, [x19, #108]
    7968:	f9403e68 	ldr	x8, [x19, #120]
    796c:	f9003a69 	str	x9, [x19, #112]
    7970:	b9404a6b 	ldr	w11, [x19, #72]
    7974:	f9403e8a 	ldr	x10, [x20, #120]
    7978:	fd002e80 	str	d0, [x20, #88]
    797c:	f9003e88 	str	x8, [x20, #120]
    7980:	bd406a60 	ldr	s0, [x19, #104]
    7984:	f8440ea8 	ldr	x8, [x21, #64]!
    7988:	f8440c09 	ldr	x9, [x0, #64]!
    798c:	fd002e61 	str	d1, [x19, #88]
    7990:	bd406a81 	ldr	s1, [x20, #104]
    7994:	f9003e6a 	str	x10, [x19, #120]
    7998:	b9404a8a 	ldr	w10, [x20, #72]
    799c:	b9004a8b 	str	w11, [x20, #72]
    79a0:	2a09010b 	orr	w11, w8, w9
    79a4:	bd006a80 	str	s0, [x20, #104]
    79a8:	b9004a6a 	str	w10, [x19, #72]
    79ac:	bd006a61 	str	s1, [x19, #104]
    79b0:	360000eb 	tbz	w11, #0, 79cc <_ZN11vector_tile10Tile_Value12InternalSwapEPS0_+0xcc>
    79b4:	36000209 	tbz	w9, #0, 79f4 <_ZN11vector_tile10Tile_Value12InternalSwapEPS0_+0xf4>
    79b8:	927ff936 	and	x22, x9, #0xfffffffffffffffe
    79bc:	36000248 	tbz	w8, #0, 7a04 <_ZN11vector_tile10Tile_Value12InternalSwapEPS0_+0x104>
    79c0:	927ff900 	and	x0, x8, #0xfffffffffffffffe
    79c4:	aa1603e1 	mov	x1, x22
    79c8:	97fff4b2 	bl	4c90 <_ZNSt7__cxx1112basic_stringIcSt11char_traitsIcESaIcEE4swapERS4_@plt>
    79cc:	b9404e88 	ldr	w8, [x20, #76]
    79d0:	91002280 	add	x0, x20, #0x8
    79d4:	b9404e69 	ldr	w9, [x19, #76]
    79d8:	91002261 	add	x1, x19, #0x8
    79dc:	b9004e89 	str	w9, [x20, #76]
    79e0:	b9004e68 	str	w8, [x19, #76]
    79e4:	a9424ff4 	ldp	x20, x19, [sp, #32]
    79e8:	a94157f6 	ldp	x22, x21, [sp, #16]
    79ec:	a8c37bfd 	ldp	x29, x30, [sp], #48
    79f0:	140045f8 	b	191d0 <_ZN6google8protobuf8internal12ExtensionSet4SwapEPS2_>
    79f4:	94001061 	bl	bb78 <_ZN6google8protobuf8internal29InternalMetadataWithArenaBaseINSt7__cxx1112basic_stringIcSt11char_traitsIcESaIcEEENS1_29InternalMetadataWithArenaLiteEE27mutable_unknown_fields_slowEv>
    79f8:	aa0003f6 	mov	x22, x0
    79fc:	f94002a8 	ldr	x8, [x21]
    7a00:	3707fe08 	tbnz	w8, #0, 79c0 <_ZN11vector_tile10Tile_Value12InternalSwapEPS0_+0xc0>
    7a04:	aa1503e0 	mov	x0, x21
    7a08:	9400105c 	bl	bb78 <_ZN6google8protobuf8internal29InternalMetadataWithArenaBaseINSt7__cxx1112basic_stringIcSt11char_traitsIcESaIcEEENS1_29InternalMetadataWithArenaLiteEE27mutable_unknown_fields_slowEv>
    7a0c:	17ffffee 	b	79c4 <_ZN11vector_tile10Tile_Value12InternalSwapEPS0_+0xc4>

0000000000007a10 <_ZNK11vector_tile10Tile_Value11GetTypeNameB5cxx11Ev>:
    7a10:	a9be7bfd 	stp	x29, x30, [sp, #-32]!
    7a14:	f9000bf3 	str	x19, [sp, #16]
    7a18:	910003fd 	mov	x29, sp
    7a1c:	aa0803f3 	mov	x19, x8
    7a20:	97fff42c 	bl	4ad0 <_mcount@plt>
    7a24:	91004268 	add	x8, x19, #0x10
    7a28:	528002c9 	mov	w9, #0x16                  	// #22
    7a2c:	910063a1 	add	x1, x29, #0x18
    7a30:	aa1303e0 	mov	x0, x19
    7a34:	aa1f03e2 	mov	x2, xzr
    7a38:	f9000268 	str	x8, [x19]
    7a3c:	f9000fa9 	str	x9, [x29, #24]
    7a40:	97fff534 	bl	4f10 <_ZNSt7__cxx1112basic_stringIcSt11char_traitsIcESaIcEE9_M_createERmm@plt>
    7a44:	f0000109 	adrp	x9, 2a000 <_ZN6google8protobuf18StringPrintfVectorEPKcRKSt6vectorINSt7__cxx1112basic_stringIcSt11char_traitsIcESaIcEEESaIS9_EE+0x2ec>
    7a48:	91236529 	add	x9, x9, #0x8d9
    7a4c:	f9400fa8 	ldr	x8, [x29, #24]
    7a50:	f9000260 	str	x0, [x19]
    7a54:	f840e12a 	ldur	x10, [x9, #14]
    7a58:	3dc00120 	ldr	q0, [x9]
    7a5c:	f9000a68 	str	x8, [x19, #16]
    7a60:	f800e00a 	stur	x10, [x0, #14]
    7a64:	3d800000 	str	q0, [x0]
    7a68:	f9400269 	ldr	x9, [x19]
    7a6c:	f9000668 	str	x8, [x19, #8]
    7a70:	3828693f 	strb	wzr, [x9, x8]
    7a74:	f9400bf3 	ldr	x19, [sp, #16]
    7a78:	a8c27bfd 	ldp	x29, x30, [sp], #32
    7a7c:	d65f03c0 	ret

0000000000007a80 <_ZN11vector_tile12Tile_FeatureC1Ev>:
    7a80:	d10143ff 	sub	sp, sp, #0x50
    7a84:	a9027bfd 	stp	x29, x30, [sp, #32]
    7a88:	f9001bf5 	str	x21, [sp, #48]
    7a8c:	a9044ff4 	stp	x20, x19, [sp, #64]
    7a90:	910083fd 	add	x29, sp, #0x20
    7a94:	aa0003f3 	mov	x19, x0
    7a98:	97fff40e 	bl	4ad0 <_mcount@plt>
    7a9c:	f00001e8 	adrp	x8, 46000 <GCC_except_table137+0x10ca0>
    7aa0:	910b0108 	add	x8, x8, #0x2c0
    7aa4:	aa1303f4 	mov	x20, x19
    7aa8:	b900127f 	str	wzr, [x19, #16]
    7aac:	a901fe7f 	stp	xzr, xzr, [x19, #24]
    7ab0:	f9000268 	str	x8, [x19]
    7ab4:	90000208 	adrp	x8, 47000 <_Znam@GLIBCXX_3.4>
    7ab8:	910ea108 	add	x8, x8, #0x3a8
    7abc:	a9037e7f 	stp	xzr, xzr, [x19, #48]
    7ac0:	eb08027f 	cmp	x19, x8
    7ac4:	f8008e9f 	str	xzr, [x20, #8]!
    7ac8:	54000260 	b.eq	7b14 <_ZN11vector_tile12Tile_FeatureC1Ev+0x94>  // b.none
    7acc:	90000208 	adrp	x8, 47000 <_Znam@GLIBCXX_3.4>
    7ad0:	9114c108 	add	x8, x8, #0x530
    7ad4:	c8dffd08 	ldar	x8, [x8]
    7ad8:	f100091f 	cmp	x8, #0x2
    7adc:	540001c0 	b.eq	7b14 <_ZN11vector_tile12Tile_FeatureC1Ev+0x94>  // b.none
    7ae0:	f00001e8 	adrp	x8, 46000 <GCC_except_table137+0x10ca0>
    7ae4:	f0ffffe9 	adrp	x9, 6000 <main+0xa2c>
    7ae8:	911c6129 	add	x9, x9, #0x718
    7aec:	f9471108 	ldr	x8, [x8, #3616]
    7af0:	390063ff 	strb	wzr, [sp, #24]
    7af4:	91004108 	add	x8, x8, #0x10
    7af8:	a900a7e8 	stp	x8, x9, [sp, #8]
    7afc:	90000200 	adrp	x0, 47000 <_Znam@GLIBCXX_3.4>
    7b00:	9114c000 	add	x0, x0, #0x530
    7b04:	910023e1 	add	x1, sp, #0x8
    7b08:	94001e8e 	bl	f540 <_ZN6google8protobuf18GoogleOnceInitImplEPlPNS0_7ClosureE>
    7b0c:	910023e0 	add	x0, sp, #0x8
    7b10:	94001641 	bl	d414 <_ZN6google8protobuf8internal16FunctionClosure0D1Ev>
    7b14:	f00001e8 	adrp	x8, 46000 <GCC_except_table137+0x10ca0>
    7b18:	f946a108 	ldr	x8, [x8, #3392]
    7b1c:	b900167f 	str	wzr, [x19, #20]
    7b20:	a904fe68 	stp	x8, xzr, [x19, #72]
    7b24:	b9005a7f 	str	wzr, [x19, #88]
    7b28:	a9444ff4 	ldp	x20, x19, [sp, #64]
    7b2c:	a9427bfd 	ldp	x29, x30, [sp, #32]
    7b30:	f9401bf5 	ldr	x21, [sp, #48]
    7b34:	910143ff 	add	sp, sp, #0x50
    7b38:	d65f03c0 	ret
    7b3c:	aa0003f5 	mov	x21, x0
    7b40:	910023e0 	add	x0, sp, #0x8
    7b44:	94001634 	bl	d414 <_ZN6google8protobuf8internal16FunctionClosure0D1Ev>
    7b48:	f9401e60 	ldr	x0, [x19, #56]
    7b4c:	b4000080 	cbz	x0, 7b5c <_ZN11vector_tile12Tile_FeatureC1Ev+0xdc>
    7b50:	f9400008 	ldr	x8, [x0]
    7b54:	b5000048 	cbnz	x8, 7b5c <_ZN11vector_tile12Tile_FeatureC1Ev+0xdc>
    7b58:	97fff46a 	bl	4d00 <_ZdlPv@plt>
    7b5c:	f9401260 	ldr	x0, [x19, #32]
    7b60:	b4000080 	cbz	x0, 7b70 <_ZN11vector_tile12Tile_FeatureC1Ev+0xf0>
    7b64:	f9400008 	ldr	x8, [x0]
    7b68:	b5000048 	cbnz	x8, 7b70 <_ZN11vector_tile12Tile_FeatureC1Ev+0xf0>
    7b6c:	97fff465 	bl	4d00 <_ZdlPv@plt>
    7b70:	aa1403e0 	mov	x0, x20
    7b74:	94000dd7 	bl	b2d0 <_ZN6google8protobuf8internal29InternalMetadataWithArenaBaseINSt7__cxx1112basic_stringIcSt11char_traitsIcESaIcEEENS1_29InternalMetadataWithArenaLiteEED2Ev>
    7b78:	aa1503e0 	mov	x0, x21
    7b7c:	97fff4e1 	bl	4f00 <_Unwind_Resume@plt>

0000000000007b80 <_ZN11vector_tile12Tile_Feature10SharedCtorEv>:
    7b80:	a9be7bfd 	stp	x29, x30, [sp, #-32]!
    7b84:	f9000bf3 	str	x19, [sp, #16]
    7b88:	910003fd 	mov	x29, sp
    7b8c:	aa0003f3 	mov	x19, x0
    7b90:	97fff3d0 	bl	4ad0 <_mcount@plt>
    7b94:	f00001e8 	adrp	x8, 46000 <GCC_except_table137+0x10ca0>
    7b98:	f946a108 	ldr	x8, [x8, #3392]
    7b9c:	b900167f 	str	wzr, [x19, #20]
    7ba0:	a904fe68 	stp	x8, xzr, [x19, #72]
    7ba4:	b9005a7f 	str	wzr, [x19, #88]
    7ba8:	f9400bf3 	ldr	x19, [sp, #16]
    7bac:	a8c27bfd 	ldp	x29, x30, [sp], #32
    7bb0:	d65f03c0 	ret

0000000000007bb4 <_ZN11vector_tile12Tile_FeatureC1ERKS0_>:
    7bb4:	a9bd7bfd 	stp	x29, x30, [sp, #-48]!
    7bb8:	a90157f6 	stp	x22, x21, [sp, #16]
    7bbc:	a9024ff4 	stp	x20, x19, [sp, #32]
    7bc0:	910003fd 	mov	x29, sp
    7bc4:	aa0103f5 	mov	x21, x1
    7bc8:	aa0003f4 	mov	x20, x0
    7bcc:	97fff3c1 	bl	4ad0 <_mcount@plt>
    7bd0:	aa1403f3 	mov	x19, x20
    7bd4:	f8008e7f 	str	xzr, [x19, #8]!
    7bd8:	b94012a8 	ldr	w8, [x21, #16]
    7bdc:	f801c29f 	stur	xzr, [x20, #28]
    7be0:	f801429f 	stur	xzr, [x20, #20]
    7be4:	b900269f 	str	wzr, [x20, #36]
    7be8:	b9001288 	str	w8, [x20, #16]
    7bec:	f00001e8 	adrp	x8, 46000 <GCC_except_table137+0x10ca0>
    7bf0:	910b0108 	add	x8, x8, #0x2c0
    7bf4:	b9401aa1 	ldr	w1, [x21, #24]
    7bf8:	f9000288 	str	x8, [x20]
    7bfc:	34000181 	cbz	w1, 7c2c <_ZN11vector_tile12Tile_FeatureC1ERKS0_+0x78>
    7c00:	91006280 	add	x0, x20, #0x18
    7c04:	9400111a 	bl	c06c <_ZN6google8protobuf13RepeatedFieldIjE7ReserveEi>
    7c08:	f9401288 	ldr	x8, [x20, #32]
    7c0c:	f94012a9 	ldr	x9, [x21, #32]
    7c10:	b9801aaa 	ldrsw	x10, [x21, #24]
    7c14:	91002100 	add	x0, x8, #0x8
    7c18:	91002121 	add	x1, x9, #0x8
    7c1c:	d37ef542 	lsl	x2, x10, #2
    7c20:	97fff370 	bl	49e0 <memcpy@plt>
    7c24:	b9401aa8 	ldr	w8, [x21, #24]
    7c28:	b9001a88 	str	w8, [x20, #24]
    7c2c:	aa1403e0 	mov	x0, x20
    7c30:	a9837c1f 	stp	xzr, xzr, [x0, #48]!
    7c34:	b94032a1 	ldr	w1, [x21, #48]
    7c38:	34000161 	cbz	w1, 7c64 <_ZN11vector_tile12Tile_FeatureC1ERKS0_+0xb0>
    7c3c:	9400110c 	bl	c06c <_ZN6google8protobuf13RepeatedFieldIjE7ReserveEi>
    7c40:	f9401e88 	ldr	x8, [x20, #56]
    7c44:	f9401ea9 	ldr	x9, [x21, #56]
    7c48:	b98032aa 	ldrsw	x10, [x21, #48]
    7c4c:	91002100 	add	x0, x8, #0x8
    7c50:	91002121 	add	x1, x9, #0x8
    7c54:	d37ef542 	lsl	x2, x10, #2
    7c58:	97fff362 	bl	49e0 <memcpy@plt>
    7c5c:	b94032a8 	ldr	w8, [x21, #48]
    7c60:	b9003288 	str	w8, [x20, #48]
    7c64:	f94006b6 	ldr	x22, [x21, #8]
    7c68:	360000f6 	tbz	w22, #0, 7c84 <_ZN11vector_tile12Tile_FeatureC1ERKS0_+0xd0>
    7c6c:	f9400268 	ldr	x8, [x19]
    7c70:	360002e8 	tbz	w8, #0, 7ccc <_ZN11vector_tile12Tile_FeatureC1ERKS0_+0x118>
    7c74:	927ff900 	and	x0, x8, #0xfffffffffffffffe
    7c78:	927ffac8 	and	x8, x22, #0xfffffffffffffffe
    7c7c:	a9400901 	ldp	x1, x2, [x8]
    7c80:	97fff384 	bl	4a90 <_ZNSt7__cxx1112basic_stringIcSt11char_traitsIcESaIcEE9_M_appendEPKcm@plt>
    7c84:	f00001e8 	adrp	x8, 46000 <GCC_except_table137+0x10ca0>
    7c88:	aa1403e0 	mov	x0, x20
    7c8c:	f946a108 	ldr	x8, [x8, #3392]
    7c90:	f8048c08 	str	x8, [x0, #72]!
    7c94:	394042a9 	ldrb	w9, [x21, #16]
    7c98:	360000a9 	tbz	w9, #0, 7cac <_ZN11vector_tile12Tile_FeatureC1ERKS0_+0xf8>
    7c9c:	f94026a1 	ldr	x1, [x21, #72]
    7ca0:	eb08003f 	cmp	x1, x8
    7ca4:	54000040 	b.eq	7cac <_ZN11vector_tile12Tile_FeatureC1ERKS0_+0xf8>  // b.none
    7ca8:	94000f84 	bl	bab8 <_ZN6google8protobuf8internal14ArenaStringPtr21CreateInstanceNoArenaEPKNSt7__cxx1112basic_stringIcSt11char_traitsIcESaIcEEE>
    7cac:	b9405aa8 	ldr	w8, [x21, #88]
    7cb0:	f9402aa9 	ldr	x9, [x21, #80]
    7cb4:	b9005a88 	str	w8, [x20, #88]
    7cb8:	f9002a89 	str	x9, [x20, #80]
    7cbc:	a9424ff4 	ldp	x20, x19, [sp, #32]
    7cc0:	a94157f6 	ldp	x22, x21, [sp, #16]
    7cc4:	a8c37bfd 	ldp	x29, x30, [sp], #48
    7cc8:	d65f03c0 	ret
    7ccc:	aa1303e0 	mov	x0, x19
    7cd0:	94000faa 	bl	bb78 <_ZN6google8protobuf8internal29InternalMetadataWithArenaBaseINSt7__cxx1112basic_stringIcSt11char_traitsIcESaIcEEENS1_29InternalMetadataWithArenaLiteEE27mutable_unknown_fields_slowEv>
    7cd4:	17ffffe9 	b	7c78 <_ZN11vector_tile12Tile_FeatureC1ERKS0_+0xc4>
    7cd8:	aa0003f5 	mov	x21, x0
    7cdc:	1400000a 	b	7d04 <_ZN11vector_tile12Tile_FeatureC1ERKS0_+0x150>
    7ce0:	aa0003f5 	mov	x21, x0
    7ce4:	1400000d 	b	7d18 <_ZN11vector_tile12Tile_FeatureC1ERKS0_+0x164>
    7ce8:	f9401e88 	ldr	x8, [x20, #56]
    7cec:	aa0003f5 	mov	x21, x0
    7cf0:	b40000a8 	cbz	x8, 7d04 <_ZN11vector_tile12Tile_FeatureC1ERKS0_+0x150>
    7cf4:	f9400109 	ldr	x9, [x8]
    7cf8:	b5000069 	cbnz	x9, 7d04 <_ZN11vector_tile12Tile_FeatureC1ERKS0_+0x150>
    7cfc:	aa0803e0 	mov	x0, x8
    7d00:	97fff400 	bl	4d00 <_ZdlPv@plt>
    7d04:	f9401280 	ldr	x0, [x20, #32]
    7d08:	b4000080 	cbz	x0, 7d18 <_ZN11vector_tile12Tile_FeatureC1ERKS0_+0x164>
    7d0c:	f9400008 	ldr	x8, [x0]
    7d10:	b5000048 	cbnz	x8, 7d18 <_ZN11vector_tile12Tile_FeatureC1ERKS0_+0x164>
    7d14:	97fff3fb 	bl	4d00 <_ZdlPv@plt>
    7d18:	aa1303e0 	mov	x0, x19
    7d1c:	94000d6d 	bl	b2d0 <_ZN6google8protobuf8internal29InternalMetadataWithArenaBaseINSt7__cxx1112basic_stringIcSt11char_traitsIcESaIcEEENS1_29InternalMetadataWithArenaLiteEED2Ev>
    7d20:	aa1503e0 	mov	x0, x21
    7d24:	97fff477 	bl	4f00 <_Unwind_Resume@plt>

0000000000007d28 <_ZN11vector_tile12Tile_FeatureD1Ev>:
    7d28:	a9be7bfd 	stp	x29, x30, [sp, #-32]!
    7d2c:	a9014ff4 	stp	x20, x19, [sp, #16]
    7d30:	910003fd 	mov	x29, sp
    7d34:	aa0003f3 	mov	x19, x0
    7d38:	97fff366 	bl	4ad0 <_mcount@plt>
    7d3c:	f00001e8 	adrp	x8, 46000 <GCC_except_table137+0x10ca0>
    7d40:	f9402674 	ldr	x20, [x19, #72]
    7d44:	f00001e9 	adrp	x9, 46000 <GCC_except_table137+0x10ca0>
    7d48:	910b0129 	add	x9, x9, #0x2c0
    7d4c:	f946a108 	ldr	x8, [x8, #3392]
    7d50:	f9000269 	str	x9, [x19]
    7d54:	eb08029f 	cmp	x20, x8
    7d58:	54000120 	b.eq	7d7c <_ZN11vector_tile12Tile_FeatureD1Ev+0x54>  // b.none
    7d5c:	b4000114 	cbz	x20, 7d7c <_ZN11vector_tile12Tile_FeatureD1Ev+0x54>
    7d60:	aa1403e8 	mov	x8, x20
    7d64:	f8410500 	ldr	x0, [x8], #16
    7d68:	eb08001f 	cmp	x0, x8
    7d6c:	54000040 	b.eq	7d74 <_ZN11vector_tile12Tile_FeatureD1Ev+0x4c>  // b.none
    7d70:	97fff3e4 	bl	4d00 <_ZdlPv@plt>
    7d74:	aa1403e0 	mov	x0, x20
    7d78:	97fff3e2 	bl	4d00 <_ZdlPv@plt>
    7d7c:	f9401e60 	ldr	x0, [x19, #56]
    7d80:	b4000080 	cbz	x0, 7d90 <_ZN11vector_tile12Tile_FeatureD1Ev+0x68>
    7d84:	f9400008 	ldr	x8, [x0]
    7d88:	b5000048 	cbnz	x8, 7d90 <_ZN11vector_tile12Tile_FeatureD1Ev+0x68>
    7d8c:	97fff3dd 	bl	4d00 <_ZdlPv@plt>
    7d90:	f9401260 	ldr	x0, [x19, #32]
    7d94:	b4000060 	cbz	x0, 7da0 <_ZN11vector_tile12Tile_FeatureD1Ev+0x78>
    7d98:	f9400008 	ldr	x8, [x0]
    7d9c:	b40001e8 	cbz	x8, 7dd8 <_ZN11vector_tile12Tile_FeatureD1Ev+0xb0>
    7da0:	f9400668 	ldr	x8, [x19, #8]
    7da4:	36000208 	tbz	w8, #0, 7de4 <_ZN11vector_tile12Tile_FeatureD1Ev+0xbc>
    7da8:	927ff914 	and	x20, x8, #0xfffffffffffffffe
    7dac:	f9401288 	ldr	x8, [x20, #32]
    7db0:	b50001a8 	cbnz	x8, 7de4 <_ZN11vector_tile12Tile_FeatureD1Ev+0xbc>
    7db4:	b4000194 	cbz	x20, 7de4 <_ZN11vector_tile12Tile_FeatureD1Ev+0xbc>
    7db8:	aa1403e8 	mov	x8, x20
    7dbc:	f8410500 	ldr	x0, [x8], #16
    7dc0:	eb08001f 	cmp	x0, x8
    7dc4:	54000040 	b.eq	7dcc <_ZN11vector_tile12Tile_FeatureD1Ev+0xa4>  // b.none
    7dc8:	97fff3ce 	bl	4d00 <_ZdlPv@plt>
    7dcc:	aa1403e0 	mov	x0, x20
    7dd0:	97fff3cc 	bl	4d00 <_ZdlPv@plt>
    7dd4:	14000004 	b	7de4 <_ZN11vector_tile12Tile_FeatureD1Ev+0xbc>
    7dd8:	97fff3ca 	bl	4d00 <_ZdlPv@plt>
    7ddc:	f9400668 	ldr	x8, [x19, #8]
    7de0:	3707fe48 	tbnz	w8, #0, 7da8 <_ZN11vector_tile12Tile_FeatureD1Ev+0x80>
    7de4:	f900067f 	str	xzr, [x19, #8]
    7de8:	a9414ff4 	ldp	x20, x19, [sp, #16]
    7dec:	a8c27bfd 	ldp	x29, x30, [sp], #32
    7df0:	d65f03c0 	ret

0000000000007df4 <_ZN11vector_tile12Tile_Feature10SharedDtorEv>:
    7df4:	a9be7bfd 	stp	x29, x30, [sp, #-32]!
    7df8:	f9000bf3 	str	x19, [sp, #16]
    7dfc:	910003fd 	mov	x29, sp
    7e00:	aa0003f3 	mov	x19, x0
    7e04:	97fff333 	bl	4ad0 <_mcount@plt>
    7e08:	f00001e8 	adrp	x8, 46000 <GCC_except_table137+0x10ca0>
    7e0c:	f9402673 	ldr	x19, [x19, #72]
    7e10:	f946a108 	ldr	x8, [x8, #3392]
    7e14:	eb08027f 	cmp	x19, x8
    7e18:	54000160 	b.eq	7e44 <_ZN11vector_tile12Tile_Feature10SharedDtorEv+0x50>  // b.none
    7e1c:	b4000153 	cbz	x19, 7e44 <_ZN11vector_tile12Tile_Feature10SharedDtorEv+0x50>
    7e20:	aa1303e8 	mov	x8, x19
    7e24:	f8410500 	ldr	x0, [x8], #16
    7e28:	eb08001f 	cmp	x0, x8
    7e2c:	54000040 	b.eq	7e34 <_ZN11vector_tile12Tile_Feature10SharedDtorEv+0x40>  // b.none
    7e30:	97fff3b4 	bl	4d00 <_ZdlPv@plt>
    7e34:	aa1303e0 	mov	x0, x19
    7e38:	f9400bf3 	ldr	x19, [sp, #16]
    7e3c:	a8c27bfd 	ldp	x29, x30, [sp], #32
    7e40:	17fff3b0 	b	4d00 <_ZdlPv@plt>
    7e44:	f9400bf3 	ldr	x19, [sp, #16]
    7e48:	a8c27bfd 	ldp	x29, x30, [sp], #32
    7e4c:	d65f03c0 	ret

0000000000007e50 <_ZN11vector_tile12Tile_FeatureD0Ev>:
    7e50:	a9be7bfd 	stp	x29, x30, [sp, #-32]!
    7e54:	f9000bf3 	str	x19, [sp, #16]
    7e58:	910003fd 	mov	x29, sp
    7e5c:	aa0003f3 	mov	x19, x0
    7e60:	97fff31c 	bl	4ad0 <_mcount@plt>
    7e64:	aa1303e0 	mov	x0, x19
    7e68:	97ffffb0 	bl	7d28 <_ZN11vector_tile12Tile_FeatureD1Ev>
    7e6c:	aa1303e0 	mov	x0, x19
    7e70:	f9400bf3 	ldr	x19, [sp, #16]
    7e74:	a8c27bfd 	ldp	x29, x30, [sp], #32
    7e78:	17fff3a2 	b	4d00 <_ZdlPv@plt>

0000000000007e7c <_ZNK11vector_tile12Tile_Feature13SetCachedSizeEi>:
    7e7c:	a9be7bfd 	stp	x29, x30, [sp, #-32]!
    7e80:	a9014ff4 	stp	x20, x19, [sp, #16]
    7e84:	910003fd 	mov	x29, sp
    7e88:	2a0103f3 	mov	w19, w1
    7e8c:	aa0003f4 	mov	x20, x0
    7e90:	97fff310 	bl	4ad0 <_mcount@plt>
    7e94:	b9001693 	str	w19, [x20, #20]
    7e98:	a9414ff4 	ldp	x20, x19, [sp, #16]
    7e9c:	a8c27bfd 	ldp	x29, x30, [sp], #32
    7ea0:	d65f03c0 	ret

0000000000007ea4 <_ZN11vector_tile12Tile_Feature16default_instanceEv>:
    7ea4:	d10103ff 	sub	sp, sp, #0x40
    7ea8:	a9027bfd 	stp	x29, x30, [sp, #32]
    7eac:	f9001bf3 	str	x19, [sp, #48]
    7eb0:	910083fd 	add	x29, sp, #0x20
    7eb4:	97fff307 	bl	4ad0 <_mcount@plt>
    7eb8:	90000208 	adrp	x8, 47000 <_Znam@GLIBCXX_3.4>
    7ebc:	9114c108 	add	x8, x8, #0x530
    7ec0:	c8dffd08 	ldar	x8, [x8]
    7ec4:	f100091f 	cmp	x8, #0x2
    7ec8:	540001c0 	b.eq	7f00 <_ZN11vector_tile12Tile_Feature16default_instanceEv+0x5c>  // b.none
    7ecc:	f00001e8 	adrp	x8, 46000 <GCC_except_table137+0x10ca0>
    7ed0:	f0ffffe9 	adrp	x9, 6000 <main+0xa2c>
    7ed4:	911c6129 	add	x9, x9, #0x718
    7ed8:	f9471108 	ldr	x8, [x8, #3616]
    7edc:	390063ff 	strb	wzr, [sp, #24]
    7ee0:	91004108 	add	x8, x8, #0x10
    7ee4:	a900a7e8 	stp	x8, x9, [sp, #8]
    7ee8:	90000200 	adrp	x0, 47000 <_Znam@GLIBCXX_3.4>
    7eec:	9114c000 	add	x0, x0, #0x530
    7ef0:	910023e1 	add	x1, sp, #0x8
    7ef4:	94001d93 	bl	f540 <_ZN6google8protobuf18GoogleOnceInitImplEPlPNS0_7ClosureE>
    7ef8:	910023e0 	add	x0, sp, #0x8
    7efc:	94001546 	bl	d414 <_ZN6google8protobuf8internal16FunctionClosure0D1Ev>
    7f00:	90000200 	adrp	x0, 47000 <_Znam@GLIBCXX_3.4>
    7f04:	910ea000 	add	x0, x0, #0x3a8
    7f08:	a9427bfd 	ldp	x29, x30, [sp, #32]
    7f0c:	f9401bf3 	ldr	x19, [sp, #48]
    7f10:	910103ff 	add	sp, sp, #0x40
    7f14:	d65f03c0 	ret
    7f18:	aa0003f3 	mov	x19, x0
    7f1c:	910023e0 	add	x0, sp, #0x8
    7f20:	9400153d 	bl	d414 <_ZN6google8protobuf8internal16FunctionClosure0D1Ev>
    7f24:	aa1303e0 	mov	x0, x19
    7f28:	97fff3f6 	bl	4f00 <_Unwind_Resume@plt>

0000000000007f2c <_ZNK11vector_tile12Tile_Feature3NewEPN6google8protobuf5ArenaE>:
    7f2c:	a9be7bfd 	stp	x29, x30, [sp, #-32]!
    7f30:	a9014ff4 	stp	x20, x19, [sp, #16]
    7f34:	910003fd 	mov	x29, sp
    7f38:	aa0103f4 	mov	x20, x1
    7f3c:	97fff2e5 	bl	4ad0 <_mcount@plt>
    7f40:	52800c00 	mov	w0, #0x60                  	// #96
    7f44:	97fff377 	bl	4d20 <_Znwm@plt>
    7f48:	aa0003f3 	mov	x19, x0
    7f4c:	97fffecd 	bl	7a80 <_ZN11vector_tile12Tile_FeatureC1Ev>
    7f50:	b4000094 	cbz	x20, 7f60 <_ZNK11vector_tile12Tile_Feature3NewEPN6google8protobuf5ArenaE+0x34>
    7f54:	aa1403e0 	mov	x0, x20
    7f58:	aa1303e1 	mov	x1, x19
    7f5c:	94000d1f 	bl	b3d8 <_ZN6google8protobuf5Arena3OwnIN11vector_tile12Tile_FeatureEEEvPT_>
    7f60:	aa1303e0 	mov	x0, x19
    7f64:	a9414ff4 	ldp	x20, x19, [sp, #16]
    7f68:	a8c27bfd 	ldp	x29, x30, [sp], #32
    7f6c:	d65f03c0 	ret
    7f70:	aa0003f4 	mov	x20, x0
    7f74:	aa1303e0 	mov	x0, x19
    7f78:	97fff362 	bl	4d00 <_ZdlPv@plt>
    7f7c:	aa1403e0 	mov	x0, x20
    7f80:	97fff3e0 	bl	4f00 <_Unwind_Resume@plt>

0000000000007f84 <_ZN11vector_tile12Tile_Feature5ClearEv>:
    7f84:	a9be7bfd 	stp	x29, x30, [sp, #-32]!
    7f88:	f9000bf3 	str	x19, [sp, #16]
    7f8c:	910003fd 	mov	x29, sp
    7f90:	aa0003f3 	mov	x19, x0
    7f94:	97fff2cf 	bl	4ad0 <_mcount@plt>
    7f98:	b9401268 	ldr	w8, [x19, #16]
    7f9c:	b9001a7f 	str	wzr, [x19, #24]
    7fa0:	b900327f 	str	wzr, [x19, #48]
    7fa4:	360000a8 	tbz	w8, #0, 7fb8 <_ZN11vector_tile12Tile_Feature5ClearEv+0x34>
    7fa8:	f9402669 	ldr	x9, [x19, #72]
    7fac:	f940012a 	ldr	x10, [x9]
    7fb0:	f900053f 	str	xzr, [x9, #8]
    7fb4:	3900015f 	strb	wzr, [x10]
    7fb8:	721f051f 	tst	w8, #0x6
    7fbc:	54000060 	b.eq	7fc8 <_ZN11vector_tile12Tile_Feature5ClearEv+0x44>  // b.none
    7fc0:	b9005a7f 	str	wzr, [x19, #88]
    7fc4:	f9002a7f 	str	xzr, [x19, #80]
    7fc8:	f9400668 	ldr	x8, [x19, #8]
    7fcc:	b900127f 	str	wzr, [x19, #16]
    7fd0:	360000a8 	tbz	w8, #0, 7fe4 <_ZN11vector_tile12Tile_Feature5ClearEv+0x60>
    7fd4:	927ff908 	and	x8, x8, #0xfffffffffffffffe
    7fd8:	f9400109 	ldr	x9, [x8]
    7fdc:	f900051f 	str	xzr, [x8, #8]
    7fe0:	3900013f 	strb	wzr, [x9]
    7fe4:	f9400bf3 	ldr	x19, [sp, #16]
    7fe8:	a8c27bfd 	ldp	x29, x30, [sp], #32
    7fec:	d65f03c0 	ret

0000000000007ff0 <_ZN11vector_tile12Tile_Feature27MergePartialFromCodedStreamEPN6google8protobuf2io16CodedInputStreamE>:
    7ff0:	d10303ff 	sub	sp, sp, #0xc0
    7ff4:	a9067bfd 	stp	x29, x30, [sp, #96]
    7ff8:	a9076ffc 	stp	x28, x27, [sp, #112]
    7ffc:	a90867fa 	stp	x26, x25, [sp, #128]
    8000:	a9095ff8 	stp	x24, x23, [sp, #144]
    8004:	a90a57f6 	stp	x22, x21, [sp, #160]
    8008:	a90b4ff4 	stp	x20, x19, [sp, #176]
    800c:	910183fd 	add	x29, sp, #0x60
    8010:	aa0103f4 	mov	x20, x1
    8014:	aa0003f5 	mov	x21, x0
    8018:	97fff2ae 	bl	4ad0 <_mcount@plt>
    801c:	aa1503e9 	mov	x9, x21
    8020:	d100a3aa 	sub	x10, x29, #0x28
    8024:	9100615c 	add	x28, x10, #0x18
    8028:	91002153 	add	x19, x10, #0x8
    802c:	f81e83bf 	stur	xzr, [x29, #-24]
    8030:	f8408d28 	ldr	x8, [x9, #8]!
    8034:	a93df3a9 	stp	x9, x28, [x29, #-40]
    8038:	381f03bf 	sturb	wzr, [x29, #-16]
    803c:	36000088 	tbz	w8, #0, 804c <_ZN11vector_tile12Tile_Feature27MergePartialFromCodedStreamEPN6google8protobuf2io16CodedInputStreamE+0x5c>
    8040:	927ff901 	and	x1, x8, #0xfffffffffffffffe
    8044:	aa1303e0 	mov	x0, x19
    8048:	97fff312 	bl	4c90 <_ZNSt7__cxx1112basic_stringIcSt11char_traitsIcESaIcEE4swapERS4_@plt>
    804c:	9100a3e0 	add	x0, sp, #0x28
    8050:	aa1303e1 	mov	x1, x19
    8054:	940084f3 	bl	29420 <_ZN6google8protobuf2io18StringOutputStreamC1EPNSt7__cxx1112basic_stringIcSt11char_traitsIcESaIcEEE>
    8058:	910023e0 	add	x0, sp, #0x8
    805c:	9100a3e1 	add	x1, sp, #0x28
    8060:	2a1f03e2 	mov	w2, wzr
    8064:	94008018 	bl	280c4 <_ZN6google8protobuf2io17CodedOutputStreamC1EPNS1_20ZeroCopyOutputStreamEb>
    8068:	910122b6 	add	x22, x21, #0x48
    806c:	9100c2b7 	add	x23, x21, #0x30
    8070:	910062b8 	add	x24, x21, #0x18
    8074:	d0000119 	adrp	x25, 2a000 <_ZN6google8protobuf18StringPrintfVectorEPKcRKSt6vectorINSt7__cxx1112basic_stringIcSt11char_traitsIcESaIcEEESaIS9_EE+0x2ec>
    8078:	911f3f39 	add	x25, x25, #0x7cf
    807c:	14000004 	b	808c <_ZN11vector_tile12Tile_Feature27MergePartialFromCodedStreamEPN6google8protobuf2io16CodedInputStreamE+0x9c>
    8080:	aa1403e0 	mov	x0, x20
    8084:	2a1a03e1 	mov	w1, w26
    8088:	94007b7a 	bl	26e70 <_ZN6google8protobuf2io16CodedInputStream8PopLimitEi>
    808c:	a9402688 	ldp	x8, x9, [x20]
    8090:	eb09011f 	cmp	x8, x9
    8094:	54000142 	b.cs	80bc <_ZN11vector_tile12Tile_Feature27MergePartialFromCodedStreamEPN6google8protobuf2io16CodedInputStreamE+0xcc>  // b.hs, b.nlast
    8098:	39c00109 	ldrsb	w9, [x8]
    809c:	12001d21 	and	w1, w9, #0xff
    80a0:	7100053f 	cmp	w9, #0x1
    80a4:	540000eb 	b.lt	80c0 <_ZN11vector_tile12Tile_Feature27MergePartialFromCodedStreamEPN6google8protobuf2io16CodedInputStreamE+0xd0>  // b.tstop
    80a8:	91000509 	add	x9, x8, #0x1
    80ac:	b2600028 	orr	x8, x1, #0x100000000
    80b0:	f9000289 	str	x9, [x20]
    80b4:	b7000168 	tbnz	x8, #32, 80e0 <_ZN11vector_tile12Tile_Feature27MergePartialFromCodedStreamEPN6google8protobuf2io16CodedInputStreamE+0xf0>
    80b8:	1400005e 	b	8230 <_ZN11vector_tile12Tile_Feature27MergePartialFromCodedStreamEPN6google8protobuf2io16CodedInputStreamE+0x240>
    80bc:	2a1f03e1 	mov	w1, wzr
    80c0:	aa1403e0 	mov	x0, x20
    80c4:	94007edb 	bl	27c30 <_ZN6google8protobuf2io16CodedInputStream15ReadTagFallbackEj>
    80c8:	51000408 	sub	w8, w0, #0x1
    80cc:	7101fd1f 	cmp	w8, #0x7f
    80d0:	2a0003e8 	mov	w8, w0
    80d4:	1a9f27e9 	cset	w9, cc  // cc = lo, ul, last
    80d8:	b3600128 	bfi	x8, x9, #32, #1
    80dc:	b6000aa8 	tbz	x8, #32, 8230 <_ZN11vector_tile12Tile_Feature27MergePartialFromCodedStreamEPN6google8protobuf2io16CodedInputStreamE+0x240>
    80e0:	53037d09 	lsr	w9, w8, #3
    80e4:	51000529 	sub	w9, w9, #0x1
    80e8:	7100113f 	cmp	w9, #0x4
    80ec:	54000a28 	b.hi	8230 <_ZN11vector_tile12Tile_Feature27MergePartialFromCodedStreamEPN6google8protobuf2io16CodedInputStreamE+0x240>  // b.pmore
    80f0:	1000008a 	adr	x10, 8100 <_ZN11vector_tile12Tile_Feature27MergePartialFromCodedStreamEPN6google8protobuf2io16CodedInputStreamE+0x110>
    80f4:	38696b2b 	ldrb	w11, [x25, x9]
    80f8:	8b0b094a 	add	x10, x10, x11, lsl #2
    80fc:	d61f0140 	br	x10
    8100:	92401d09 	and	x9, x8, #0xff
    8104:	f100213f 	cmp	x9, #0x8
    8108:	54000941 	b.ne	8230 <_ZN11vector_tile12Tile_Feature27MergePartialFromCodedStreamEPN6google8protobuf2io16CodedInputStreamE+0x240>  // b.any
    810c:	b94012a8 	ldr	w8, [x21, #16]
    8110:	321f0108 	orr	w8, w8, #0x2
    8114:	b90012a8 	str	w8, [x21, #16]
    8118:	a9402688 	ldp	x8, x9, [x20]
    811c:	eb09011f 	cmp	x8, x9
    8120:	54000b22 	b.cs	8284 <_ZN11vector_tile12Tile_Feature27MergePartialFromCodedStreamEPN6google8protobuf2io16CodedInputStreamE+0x294>  // b.hs, b.nlast
    8124:	39c00109 	ldrsb	w9, [x8]
    8128:	37f80ae9 	tbnz	w9, #31, 8284 <_ZN11vector_tile12Tile_Feature27MergePartialFromCodedStreamEPN6google8protobuf2io16CodedInputStreamE+0x294>
    812c:	92401d29 	and	x9, x9, #0xff
    8130:	91000508 	add	x8, x8, #0x1
    8134:	f9002aa9 	str	x9, [x21, #80]
    8138:	f9000288 	str	x8, [x20]
    813c:	17ffffd4 	b	808c <_ZN11vector_tile12Tile_Feature27MergePartialFromCodedStreamEPN6google8protobuf2io16CodedInputStreamE+0x9c>
    8140:	92401d09 	and	x9, x8, #0xff
    8144:	f100a93f 	cmp	x9, #0x2a
    8148:	54000741 	b.ne	8230 <_ZN11vector_tile12Tile_Feature27MergePartialFromCodedStreamEPN6google8protobuf2io16CodedInputStreamE+0x240>  // b.any
    814c:	d00001e9 	adrp	x9, 46000 <GCC_except_table137+0x10ca0>
    8150:	b94012a8 	ldr	w8, [x21, #16]
    8154:	f94026a1 	ldr	x1, [x21, #72]
    8158:	f946a129 	ldr	x9, [x9, #3392]
    815c:	32000108 	orr	w8, w8, #0x1
    8160:	eb09003f 	cmp	x1, x9
    8164:	b90012a8 	str	w8, [x21, #16]
    8168:	540000c1 	b.ne	8180 <_ZN11vector_tile12Tile_Feature27MergePartialFromCodedStreamEPN6google8protobuf2io16CodedInputStreamE+0x190>  // b.any
    816c:	d00001e1 	adrp	x1, 46000 <GCC_except_table137+0x10ca0>
    8170:	aa1603e0 	mov	x0, x22
    8174:	f946a021 	ldr	x1, [x1, #3392]
    8178:	94000e50 	bl	bab8 <_ZN6google8protobuf8internal14ArenaStringPtr21CreateInstanceNoArenaEPKNSt7__cxx1112basic_stringIcSt11char_traitsIcESaIcEEE>
    817c:	f94002c1 	ldr	x1, [x22]
    8180:	aa1403e0 	mov	x0, x20
    8184:	94007788 	bl	25fa4 <_ZN6google8protobuf8internal14WireFormatLite9ReadBytesEPNS0_2io16CodedInputStreamEPNSt7__cxx1112basic_stringIcSt11char_traitsIcESaIcEEE>
    8188:	3707f820 	tbnz	w0, #0, 808c <_ZN11vector_tile12Tile_Feature27MergePartialFromCodedStreamEPN6google8protobuf2io16CodedInputStreamE+0x9c>
    818c:	140000ed 	b	8540 <_ZN11vector_tile12Tile_Feature27MergePartialFromCodedStreamEPN6google8protobuf2io16CodedInputStreamE+0x550>
    8190:	92401d09 	and	x9, x8, #0xff
    8194:	f100613f 	cmp	x9, #0x18
    8198:	540004c1 	b.ne	8230 <_ZN11vector_tile12Tile_Feature27MergePartialFromCodedStreamEPN6google8protobuf2io16CodedInputStreamE+0x240>  // b.any
    819c:	a9402688 	ldp	x8, x9, [x20]
    81a0:	eb09011f 	cmp	x8, x9
    81a4:	54001262 	b.cs	83f0 <_ZN11vector_tile12Tile_Feature27MergePartialFromCodedStreamEPN6google8protobuf2io16CodedInputStreamE+0x400>  // b.hs, b.nlast
    81a8:	39c00109 	ldrsb	w9, [x8]
    81ac:	12001d3a 	and	w26, w9, #0xff
    81b0:	37f81229 	tbnz	w9, #31, 83f4 <_ZN11vector_tile12Tile_Feature27MergePartialFromCodedStreamEPN6google8protobuf2io16CodedInputStreamE+0x404>
    81b4:	91000508 	add	x8, x8, #0x1
    81b8:	f9000288 	str	x8, [x20]
    81bc:	14000093 	b	8408 <_ZN11vector_tile12Tile_Feature27MergePartialFromCodedStreamEPN6google8protobuf2io16CodedInputStreamE+0x418>
    81c0:	12001d09 	and	w9, w8, #0xff
    81c4:	7100813f 	cmp	w9, #0x20
    81c8:	54000420 	b.eq	824c <_ZN11vector_tile12Tile_Feature27MergePartialFromCodedStreamEPN6google8protobuf2io16CodedInputStreamE+0x25c>  // b.none
    81cc:	7100893f 	cmp	w9, #0x22
    81d0:	54000301 	b.ne	8230 <_ZN11vector_tile12Tile_Feature27MergePartialFromCodedStreamEPN6google8protobuf2io16CodedInputStreamE+0x240>  // b.any
    81d4:	a9402688 	ldp	x8, x9, [x20]
    81d8:	eb09011f 	cmp	x8, x9
    81dc:	540005e2 	b.cs	8298 <_ZN11vector_tile12Tile_Feature27MergePartialFromCodedStreamEPN6google8protobuf2io16CodedInputStreamE+0x2a8>  // b.hs, b.nlast
    81e0:	39c00109 	ldrsb	w9, [x8]
    81e4:	37f805a9 	tbnz	w9, #31, 8298 <_ZN11vector_tile12Tile_Feature27MergePartialFromCodedStreamEPN6google8protobuf2io16CodedInputStreamE+0x2a8>
    81e8:	91000508 	add	x8, x8, #0x1
    81ec:	12001d21 	and	w1, w9, #0xff
    81f0:	f9000288 	str	x8, [x20]
    81f4:	1400002d 	b	82a8 <_ZN11vector_tile12Tile_Feature27MergePartialFromCodedStreamEPN6google8protobuf2io16CodedInputStreamE+0x2b8>
    81f8:	12001d09 	and	w9, w8, #0xff
    81fc:	7100413f 	cmp	w9, #0x10
    8200:	54000340 	b.eq	8268 <_ZN11vector_tile12Tile_Feature27MergePartialFromCodedStreamEPN6google8protobuf2io16CodedInputStreamE+0x278>  // b.none
    8204:	7100493f 	cmp	w9, #0x12
    8208:	54000141 	b.ne	8230 <_ZN11vector_tile12Tile_Feature27MergePartialFromCodedStreamEPN6google8protobuf2io16CodedInputStreamE+0x240>  // b.any
    820c:	a9402688 	ldp	x8, x9, [x20]
    8210:	eb09011f 	cmp	x8, x9
    8214:	54000982 	b.cs	8344 <_ZN11vector_tile12Tile_Feature27MergePartialFromCodedStreamEPN6google8protobuf2io16CodedInputStreamE+0x354>  // b.hs, b.nlast
    8218:	39c00109 	ldrsb	w9, [x8]
    821c:	37f80949 	tbnz	w9, #31, 8344 <_ZN11vector_tile12Tile_Feature27MergePartialFromCodedStreamEPN6google8protobuf2io16CodedInputStreamE+0x354>
    8220:	91000508 	add	x8, x8, #0x1
    8224:	12001d21 	and	w1, w9, #0xff
    8228:	f9000288 	str	x8, [x20]
    822c:	1400004a 	b	8354 <_ZN11vector_tile12Tile_Feature27MergePartialFromCodedStreamEPN6google8protobuf2io16CodedInputStreamE+0x364>
    8230:	34001588 	cbz	w8, 84e0 <_ZN11vector_tile12Tile_Feature27MergePartialFromCodedStreamEPN6google8protobuf2io16CodedInputStreamE+0x4f0>
    8234:	910023e2 	add	x2, sp, #0x8
    8238:	aa1403e0 	mov	x0, x20
    823c:	2a0803e1 	mov	w1, w8
    8240:	94006fe0 	bl	241c0 <_ZN6google8protobuf8internal14WireFormatLite9SkipFieldEPNS0_2io16CodedInputStreamEjPNS3_17CodedOutputStreamE>
    8244:	3707f240 	tbnz	w0, #0, 808c <_ZN11vector_tile12Tile_Feature27MergePartialFromCodedStreamEPN6google8protobuf2io16CodedInputStreamE+0x9c>
    8248:	140000be 	b	8540 <_ZN11vector_tile12Tile_Feature27MergePartialFromCodedStreamEPN6google8protobuf2io16CodedInputStreamE+0x550>
    824c:	52800020 	mov	w0, #0x1                   	// #1
    8250:	52800441 	mov	w1, #0x22                  	// #34
    8254:	aa1403e2 	mov	x2, x20
    8258:	aa1703e3 	mov	x3, x23
    825c:	94000c70 	bl	b41c <_ZN6google8protobuf8internal14WireFormatLite29ReadRepeatedPrimitiveNoInlineIjLNS2_9FieldTypeE13EEEbijPNS0_2io16CodedInputStreamEPNS0_13RepeatedFieldIT_EE>
    8260:	3707f160 	tbnz	w0, #0, 808c <_ZN11vector_tile12Tile_Feature27MergePartialFromCodedStreamEPN6google8protobuf2io16CodedInputStreamE+0x9c>
    8264:	140000b7 	b	8540 <_ZN11vector_tile12Tile_Feature27MergePartialFromCodedStreamEPN6google8protobuf2io16CodedInputStreamE+0x550>
    8268:	52800020 	mov	w0, #0x1                   	// #1
    826c:	52800241 	mov	w1, #0x12                  	// #18
    8270:	aa1403e2 	mov	x2, x20
    8274:	aa1803e3 	mov	x3, x24
    8278:	94000c69 	bl	b41c <_ZN6google8protobuf8internal14WireFormatLite29ReadRepeatedPrimitiveNoInlineIjLNS2_9FieldTypeE13EEEbijPNS0_2io16CodedInputStreamEPNS0_13RepeatedFieldIT_EE>
    827c:	3707f080 	tbnz	w0, #0, 808c <_ZN11vector_tile12Tile_Feature27MergePartialFromCodedStreamEPN6google8protobuf2io16CodedInputStreamE+0x9c>
    8280:	140000b0 	b	8540 <_ZN11vector_tile12Tile_Feature27MergePartialFromCodedStreamEPN6google8protobuf2io16CodedInputStreamE+0x550>
    8284:	aa1403e0 	mov	x0, x20
    8288:	94007cf3 	bl	27654 <_ZN6google8protobuf2io16CodedInputStream20ReadVarint64FallbackEv>
    828c:	f9002aa0 	str	x0, [x21, #80]
    8290:	3707efe1 	tbnz	w1, #0, 808c <_ZN11vector_tile12Tile_Feature27MergePartialFromCodedStreamEPN6google8protobuf2io16CodedInputStreamE+0x9c>
    8294:	140000ab 	b	8540 <_ZN11vector_tile12Tile_Feature27MergePartialFromCodedStreamEPN6google8protobuf2io16CodedInputStreamE+0x550>
    8298:	aa1403e0 	mov	x0, x20
    829c:	94007dde 	bl	27a14 <_ZN6google8protobuf2io16CodedInputStream27ReadVarintSizeAsIntFallbackEv>
    82a0:	2a0003e1 	mov	w1, w0
    82a4:	37f814e1 	tbnz	w1, #31, 8540 <_ZN11vector_tile12Tile_Feature27MergePartialFromCodedStreamEPN6google8protobuf2io16CodedInputStreamE+0x550>
    82a8:	aa1403e0 	mov	x0, x20
    82ac:	94007ad2 	bl	26df4 <_ZN6google8protobuf2io16CodedInputStream9PushLimitEi>
    82b0:	2a0003fa 	mov	w26, w0
    82b4:	aa1403e0 	mov	x0, x20
    82b8:	94007b27 	bl	26f54 <_ZNK6google8protobuf2io16CodedInputStream15BytesUntilLimitEv>
    82bc:	7100041f 	cmp	w0, #0x1
    82c0:	54ffee0b 	b.lt	8080 <_ZN11vector_tile12Tile_Feature27MergePartialFromCodedStreamEPN6google8protobuf2io16CodedInputStreamE+0x90>  // b.tstop
    82c4:	a9402688 	ldp	x8, x9, [x20]
    82c8:	eb09011f 	cmp	x8, x9
    82cc:	540000e2 	b.cs	82e8 <_ZN11vector_tile12Tile_Feature27MergePartialFromCodedStreamEPN6google8protobuf2io16CodedInputStreamE+0x2f8>  // b.hs, b.nlast
    82d0:	39c00109 	ldrsb	w9, [x8]
    82d4:	12001d3b 	and	w27, w9, #0xff
    82d8:	37f800a9 	tbnz	w9, #31, 82ec <_ZN11vector_tile12Tile_Feature27MergePartialFromCodedStreamEPN6google8protobuf2io16CodedInputStreamE+0x2fc>
    82dc:	91000508 	add	x8, x8, #0x1
    82e0:	f9000288 	str	x8, [x20]
    82e4:	14000007 	b	8300 <_ZN11vector_tile12Tile_Feature27MergePartialFromCodedStreamEPN6google8protobuf2io16CodedInputStreamE+0x310>
    82e8:	2a1f03fb 	mov	w27, wzr
    82ec:	aa1403e0 	mov	x0, x20
    82f0:	2a1b03e1 	mov	w1, w27
    82f4:	94007d53 	bl	27840 <_ZN6google8protobuf2io16CodedInputStream20ReadVarint32FallbackEj>
    82f8:	aa0003fb 	mov	x27, x0
    82fc:	b7f81220 	tbnz	x0, #63, 8540 <_ZN11vector_tile12Tile_Feature27MergePartialFromCodedStreamEPN6google8protobuf2io16CodedInputStreamE+0x550>
    8300:	294626a8 	ldp	w8, w9, [x21, #48]
    8304:	6b09011f 	cmp	w8, w9
    8308:	540000a1 	b.ne	831c <_ZN11vector_tile12Tile_Feature27MergePartialFromCodedStreamEPN6google8protobuf2io16CodedInputStreamE+0x32c>  // b.any
    830c:	11000501 	add	w1, w8, #0x1
    8310:	aa1703e0 	mov	x0, x23
    8314:	94000f56 	bl	c06c <_ZN6google8protobuf13RepeatedFieldIjE7ReserveEi>
    8318:	b94002e8 	ldr	w8, [x23]
    831c:	f9401ea9 	ldr	x9, [x21, #56]
    8320:	1100050a 	add	w10, w8, #0x1
    8324:	8b28c928 	add	x8, x9, w8, sxtw #2
    8328:	b90032aa 	str	w10, [x21, #48]
    832c:	b900091b 	str	w27, [x8, #8]
    8330:	aa1403e0 	mov	x0, x20
    8334:	94007b08 	bl	26f54 <_ZNK6google8protobuf2io16CodedInputStream15BytesUntilLimitEv>
    8338:	7100001f 	cmp	w0, #0x0
    833c:	54fffc4c 	b.gt	82c4 <_ZN11vector_tile12Tile_Feature27MergePartialFromCodedStreamEPN6google8protobuf2io16CodedInputStreamE+0x2d4>
    8340:	17ffff50 	b	8080 <_ZN11vector_tile12Tile_Feature27MergePartialFromCodedStreamEPN6google8protobuf2io16CodedInputStreamE+0x90>
    8344:	aa1403e0 	mov	x0, x20
    8348:	94007db3 	bl	27a14 <_ZN6google8protobuf2io16CodedInputStream27ReadVarintSizeAsIntFallbackEv>
    834c:	2a0003e1 	mov	w1, w0
    8350:	37f80f81 	tbnz	w1, #31, 8540 <_ZN11vector_tile12Tile_Feature27MergePartialFromCodedStreamEPN6google8protobuf2io16CodedInputStreamE+0x550>
    8354:	aa1403e0 	mov	x0, x20
    8358:	94007aa7 	bl	26df4 <_ZN6google8protobuf2io16CodedInputStream9PushLimitEi>
    835c:	2a0003fa 	mov	w26, w0
    8360:	aa1403e0 	mov	x0, x20
    8364:	94007afc 	bl	26f54 <_ZNK6google8protobuf2io16CodedInputStream15BytesUntilLimitEv>
    8368:	7100041f 	cmp	w0, #0x1
    836c:	54ffe8ab 	b.lt	8080 <_ZN11vector_tile12Tile_Feature27MergePartialFromCodedStreamEPN6google8protobuf2io16CodedInputStreamE+0x90>  // b.tstop
    8370:	a9402688 	ldp	x8, x9, [x20]
    8374:	eb09011f 	cmp	x8, x9
    8378:	540000e2 	b.cs	8394 <_ZN11vector_tile12Tile_Feature27MergePartialFromCodedStreamEPN6google8protobuf2io16CodedInputStreamE+0x3a4>  // b.hs, b.nlast
    837c:	39c00109 	ldrsb	w9, [x8]
    8380:	12001d3b 	and	w27, w9, #0xff
    8384:	37f800a9 	tbnz	w9, #31, 8398 <_ZN11vector_tile12Tile_Feature27MergePartialFromCodedStreamEPN6google8protobuf2io16CodedInputStreamE+0x3a8>
    8388:	91000508 	add	x8, x8, #0x1
    838c:	f9000288 	str	x8, [x20]
    8390:	14000007 	b	83ac <_ZN11vector_tile12Tile_Feature27MergePartialFromCodedStreamEPN6google8protobuf2io16CodedInputStreamE+0x3bc>
    8394:	2a1f03fb 	mov	w27, wzr
    8398:	aa1403e0 	mov	x0, x20
    839c:	2a1b03e1 	mov	w1, w27
    83a0:	94007d28 	bl	27840 <_ZN6google8protobuf2io16CodedInputStream20ReadVarint32FallbackEj>
    83a4:	aa0003fb 	mov	x27, x0
    83a8:	b7f80cc0 	tbnz	x0, #63, 8540 <_ZN11vector_tile12Tile_Feature27MergePartialFromCodedStreamEPN6google8protobuf2io16CodedInputStreamE+0x550>
    83ac:	294326a8 	ldp	w8, w9, [x21, #24]
    83b0:	6b09011f 	cmp	w8, w9
    83b4:	540000a1 	b.ne	83c8 <_ZN11vector_tile12Tile_Feature27MergePartialFromCodedStreamEPN6google8protobuf2io16CodedInputStreamE+0x3d8>  // b.any
    83b8:	11000501 	add	w1, w8, #0x1
    83bc:	aa1803e0 	mov	x0, x24
    83c0:	94000f2b 	bl	c06c <_ZN6google8protobuf13RepeatedFieldIjE7ReserveEi>
    83c4:	b9400308 	ldr	w8, [x24]
    83c8:	f94012a9 	ldr	x9, [x21, #32]
    83cc:	1100050a 	add	w10, w8, #0x1
    83d0:	8b28c928 	add	x8, x9, w8, sxtw #2
    83d4:	b9001aaa 	str	w10, [x21, #24]
    83d8:	b900091b 	str	w27, [x8, #8]
    83dc:	aa1403e0 	mov	x0, x20
    83e0:	94007add 	bl	26f54 <_ZNK6google8protobuf2io16CodedInputStream15BytesUntilLimitEv>
    83e4:	7100001f 	cmp	w0, #0x0
    83e8:	54fffc4c 	b.gt	8370 <_ZN11vector_tile12Tile_Feature27MergePartialFromCodedStreamEPN6google8protobuf2io16CodedInputStreamE+0x380>
    83ec:	17ffff25 	b	8080 <_ZN11vector_tile12Tile_Feature27MergePartialFromCodedStreamEPN6google8protobuf2io16CodedInputStreamE+0x90>
    83f0:	2a1f03fa 	mov	w26, wzr
    83f4:	aa1403e0 	mov	x0, x20
    83f8:	2a1a03e1 	mov	w1, w26
    83fc:	94007d11 	bl	27840 <_ZN6google8protobuf2io16CodedInputStream20ReadVarint32FallbackEj>
    8400:	aa0003fa 	mov	x26, x0
    8404:	b7f809e0 	tbnz	x0, #63, 8540 <_ZN11vector_tile12Tile_Feature27MergePartialFromCodedStreamEPN6google8protobuf2io16CodedInputStreamE+0x550>
    8408:	71000f5f 	cmp	w26, #0x3
    840c:	540000c8 	b.hi	8424 <_ZN11vector_tile12Tile_Feature27MergePartialFromCodedStreamEPN6google8protobuf2io16CodedInputStreamE+0x434>  // b.pmore
    8410:	b94012a8 	ldr	w8, [x21, #16]
    8414:	b9005aba 	str	w26, [x21, #88]
    8418:	321e0108 	orr	w8, w8, #0x4
    841c:	b90012a8 	str	w8, [x21, #16]
    8420:	17ffff1b 	b	808c <_ZN11vector_tile12Tile_Feature27MergePartialFromCodedStreamEPN6google8protobuf2io16CodedInputStreamE+0x9c>
    8424:	b9401be8 	ldr	w8, [sp, #24]
    8428:	7100151f 	cmp	w8, #0x5
    842c:	540002eb 	b.lt	8488 <_ZN11vector_tile12Tile_Feature27MergePartialFromCodedStreamEPN6google8protobuf2io16CodedInputStreamE+0x498>  // b.tstop
    8430:	f9400be8 	ldr	x8, [sp, #16]
    8434:	52800309 	mov	w9, #0x18                  	// #24
    8438:	39000109 	strb	w9, [x8]
    843c:	f9400be8 	ldr	x8, [sp, #16]
    8440:	b9401be9 	ldr	w9, [sp, #24]
    8444:	9100050a 	add	x10, x8, #0x1
    8448:	51000528 	sub	w8, w9, #0x1
    844c:	f9000bea 	str	x10, [sp, #16]
    8450:	b9001be8 	str	w8, [sp, #24]
    8454:	7100151f 	cmp	w8, #0x5
    8458:	5400024b 	b.lt	84a0 <_ZN11vector_tile12Tile_Feature27MergePartialFromCodedStreamEPN6google8protobuf2io16CodedInputStreamE+0x4b0>  // b.tstop
    845c:	f9400be8 	ldr	x8, [sp, #16]
    8460:	7102035f 	cmp	w26, #0x80
    8464:	54000263 	b.cc	84b0 <_ZN11vector_tile12Tile_Feature27MergePartialFromCodedStreamEPN6google8protobuf2io16CodedInputStreamE+0x4c0>  // b.lo, b.ul, b.last
    8468:	aa0803e9 	mov	x9, x8
    846c:	53077f4a 	lsr	w10, w26, #7
    8470:	3219034b 	orr	w11, w26, #0x80
    8474:	530e7f4c 	lsr	w12, w26, #14
    8478:	2a0a03fa 	mov	w26, w10
    847c:	3800152b 	strb	w11, [x9], #1
    8480:	35ffff6c 	cbnz	w12, 846c <_ZN11vector_tile12Tile_Feature27MergePartialFromCodedStreamEPN6google8protobuf2io16CodedInputStreamE+0x47c>
    8484:	1400000d 	b	84b8 <_ZN11vector_tile12Tile_Feature27MergePartialFromCodedStreamEPN6google8protobuf2io16CodedInputStreamE+0x4c8>
    8488:	910023e0 	add	x0, sp, #0x8
    848c:	52800301 	mov	w1, #0x18                  	// #24
    8490:	94007fe0 	bl	28410 <_ZN6google8protobuf2io17CodedOutputStream21WriteVarint32SlowPathEj>
    8494:	b9401be8 	ldr	w8, [sp, #24]
    8498:	7100151f 	cmp	w8, #0x5
    849c:	54fffe0a 	b.ge	845c <_ZN11vector_tile12Tile_Feature27MergePartialFromCodedStreamEPN6google8protobuf2io16CodedInputStreamE+0x46c>  // b.tcont
    84a0:	910023e0 	add	x0, sp, #0x8
    84a4:	2a1a03e1 	mov	w1, w26
    84a8:	94007fda 	bl	28410 <_ZN6google8protobuf2io17CodedOutputStream21WriteVarint32SlowPathEj>
    84ac:	17fffef8 	b	808c <_ZN11vector_tile12Tile_Feature27MergePartialFromCodedStreamEPN6google8protobuf2io16CodedInputStreamE+0x9c>
    84b0:	2a1a03ea 	mov	w10, w26
    84b4:	aa0803e9 	mov	x9, x8
    84b8:	3900012a 	strb	w10, [x9]
    84bc:	cb080128 	sub	x8, x9, x8
    84c0:	f9400be9 	ldr	x9, [sp, #16]
    84c4:	91000508 	add	x8, x8, #0x1
    84c8:	b9401bea 	ldr	w10, [sp, #24]
    84cc:	8b28c129 	add	x9, x9, w8, sxtw
    84d0:	4b080148 	sub	w8, w10, w8
    84d4:	f9000be9 	str	x9, [sp, #16]
    84d8:	b9001be8 	str	w8, [sp, #24]
    84dc:	17fffeec 	b	808c <_ZN11vector_tile12Tile_Feature27MergePartialFromCodedStreamEPN6google8protobuf2io16CodedInputStreamE+0x9c>
    84e0:	52800034 	mov	w20, #0x1                   	// #1
    84e4:	910023e0 	add	x0, sp, #0x8
    84e8:	94007eae 	bl	27fa0 <_ZN6google8protobuf2io17CodedOutputStreamD1Ev>
    84ec:	f85e83a8 	ldur	x8, [x29, #-24]
    84f0:	b40000e8 	cbz	x8, 850c <_ZN11vector_tile12Tile_Feature27MergePartialFromCodedStreamEPN6google8protobuf2io16CodedInputStreamE+0x51c>
    84f4:	f85d83a0 	ldur	x0, [x29, #-40]
    84f8:	f9400008 	ldr	x8, [x0]
    84fc:	360002e8 	tbz	w8, #0, 8558 <_ZN11vector_tile12Tile_Feature27MergePartialFromCodedStreamEPN6google8protobuf2io16CodedInputStreamE+0x568>
    8500:	927ff900 	and	x0, x8, #0xfffffffffffffffe
    8504:	aa1303e1 	mov	x1, x19
    8508:	97fff1e2 	bl	4c90 <_ZNSt7__cxx1112basic_stringIcSt11char_traitsIcESaIcEE4swapERS4_@plt>
    850c:	f85e03a0 	ldur	x0, [x29, #-32]
    8510:	eb1c001f 	cmp	x0, x28
    8514:	54000040 	b.eq	851c <_ZN11vector_tile12Tile_Feature27MergePartialFromCodedStreamEPN6google8protobuf2io16CodedInputStreamE+0x52c>  // b.none
    8518:	97fff1fa 	bl	4d00 <_ZdlPv@plt>
    851c:	2a1403e0 	mov	w0, w20
    8520:	a94b4ff4 	ldp	x20, x19, [sp, #176]
    8524:	a94a57f6 	ldp	x22, x21, [sp, #160]
    8528:	a9495ff8 	ldp	x24, x23, [sp, #144]
    852c:	a94867fa 	ldp	x26, x25, [sp, #128]
    8530:	a9476ffc 	ldp	x28, x27, [sp, #112]
    8534:	a9467bfd 	ldp	x29, x30, [sp, #96]
    8538:	910303ff 	add	sp, sp, #0xc0
    853c:	d65f03c0 	ret
    8540:	2a1f03f4 	mov	w20, wzr
    8544:	910023e0 	add	x0, sp, #0x8
    8548:	94007e96 	bl	27fa0 <_ZN6google8protobuf2io17CodedOutputStreamD1Ev>
    854c:	f85e83a8 	ldur	x8, [x29, #-24]
    8550:	b5fffd28 	cbnz	x8, 84f4 <_ZN11vector_tile12Tile_Feature27MergePartialFromCodedStreamEPN6google8protobuf2io16CodedInputStreamE+0x504>
    8554:	17ffffee 	b	850c <_ZN11vector_tile12Tile_Feature27MergePartialFromCodedStreamEPN6google8protobuf2io16CodedInputStreamE+0x51c>
    8558:	94000d88 	bl	bb78 <_ZN6google8protobuf8internal29InternalMetadataWithArenaBaseINSt7__cxx1112basic_stringIcSt11char_traitsIcESaIcEEENS1_29InternalMetadataWithArenaLiteEE27mutable_unknown_fields_slowEv>
    855c:	17ffffea 	b	8504 <_ZN11vector_tile12Tile_Feature27MergePartialFromCodedStreamEPN6google8protobuf2io16CodedInputStreamE+0x514>
    8560:	97fff779 	bl	6344 <__clang_call_terminate>
    8564:	14000001 	b	8568 <_ZN11vector_tile12Tile_Feature27MergePartialFromCodedStreamEPN6google8protobuf2io16CodedInputStreamE+0x578>
    8568:	aa0003f3 	mov	x19, x0
    856c:	14000007 	b	8588 <_ZN11vector_tile12Tile_Feature27MergePartialFromCodedStreamEPN6google8protobuf2io16CodedInputStreamE+0x598>
    8570:	14000003 	b	857c <_ZN11vector_tile12Tile_Feature27MergePartialFromCodedStreamEPN6google8protobuf2io16CodedInputStreamE+0x58c>
    8574:	14000002 	b	857c <_ZN11vector_tile12Tile_Feature27MergePartialFromCodedStreamEPN6google8protobuf2io16CodedInputStreamE+0x58c>
    8578:	14000001 	b	857c <_ZN11vector_tile12Tile_Feature27MergePartialFromCodedStreamEPN6google8protobuf2io16CodedInputStreamE+0x58c>
    857c:	aa0003f3 	mov	x19, x0
    8580:	910023e0 	add	x0, sp, #0x8
    8584:	94007e87 	bl	27fa0 <_ZN6google8protobuf2io17CodedOutputStreamD1Ev>
    8588:	d100a3a0 	sub	x0, x29, #0x28
    858c:	94000b79 	bl	b370 <_ZN6google8protobuf8internal22LiteUnknownFieldSetterD2Ev>
    8590:	aa1303e0 	mov	x0, x19
    8594:	97fff25b 	bl	4f00 <_Unwind_Resume@plt>

0000000000008598 <_ZNK11vector_tile12Tile_Feature24SerializeWithCachedSizesEPN6google8protobuf2io17CodedOutputStreamE>:
    8598:	a9bc7bfd 	stp	x29, x30, [sp, #-64]!
    859c:	f9000bf7 	str	x23, [sp, #16]
    85a0:	a90257f6 	stp	x22, x21, [sp, #32]
    85a4:	a9034ff4 	stp	x20, x19, [sp, #48]
    85a8:	910003fd 	mov	x29, sp
    85ac:	aa0103f3 	mov	x19, x1
    85b0:	aa0003f4 	mov	x20, x0
    85b4:	97fff147 	bl	4ad0 <_mcount@plt>
    85b8:	b9401295 	ldr	w21, [x20, #16]
    85bc:	360800b5 	tbz	w21, #1, 85d0 <_ZNK11vector_tile12Tile_Feature24SerializeWithCachedSizesEPN6google8protobuf2io17CodedOutputStreamE+0x38>
    85c0:	f9402a81 	ldr	x1, [x20, #80]
    85c4:	52800020 	mov	w0, #0x1                   	// #1
    85c8:	aa1303e2 	mov	x2, x19
    85cc:	94007146 	bl	24ae4 <_ZN6google8protobuf8internal14WireFormatLite11WriteUInt64EimPNS0_2io17CodedOutputStreamE>
    85d0:	b9401a88 	ldr	w8, [x20, #24]
    85d4:	7100051f 	cmp	w8, #0x1
    85d8:	54000b8b 	b.lt	8748 <_ZNK11vector_tile12Tile_Feature24SerializeWithCachedSizesEPN6google8protobuf2io17CodedOutputStreamE+0x1b0>  // b.tstop
    85dc:	b9401268 	ldr	w8, [x19, #16]
    85e0:	7100151f 	cmp	w8, #0x5
    85e4:	5400026b 	b.lt	8630 <_ZNK11vector_tile12Tile_Feature24SerializeWithCachedSizesEPN6google8protobuf2io17CodedOutputStreamE+0x98>  // b.tstop
    85e8:	f9400668 	ldr	x8, [x19, #8]
    85ec:	52800249 	mov	w9, #0x12                  	// #18
    85f0:	39000109 	strb	w9, [x8]
    85f4:	f9400668 	ldr	x8, [x19, #8]
    85f8:	b9401269 	ldr	w9, [x19, #16]
    85fc:	9100050a 	add	x10, x8, #0x1
    8600:	51000528 	sub	w8, w9, #0x1
    8604:	f900066a 	str	x10, [x19, #8]
    8608:	b9001268 	str	w8, [x19, #16]
    860c:	b9402a81 	ldr	w1, [x20, #40]
    8610:	7100151f 	cmp	w8, #0x5
    8614:	540001ca 	b.ge	864c <_ZNK11vector_tile12Tile_Feature24SerializeWithCachedSizesEPN6google8protobuf2io17CodedOutputStreamE+0xb4>  // b.tcont
    8618:	aa1303e0 	mov	x0, x19
    861c:	94007f7d 	bl	28410 <_ZN6google8protobuf2io17CodedOutputStream21WriteVarint32SlowPathEj>
    8620:	b9401a96 	ldr	w22, [x20, #24]
    8624:	710006df 	cmp	w22, #0x1
    8628:	5400044a 	b.ge	86b0 <_ZNK11vector_tile12Tile_Feature24SerializeWithCachedSizesEPN6google8protobuf2io17CodedOutputStreamE+0x118>  // b.tcont
    862c:	14000047 	b	8748 <_ZNK11vector_tile12Tile_Feature24SerializeWithCachedSizesEPN6google8protobuf2io17CodedOutputStreamE+0x1b0>
    8630:	aa1303e0 	mov	x0, x19
    8634:	52800241 	mov	w1, #0x12                  	// #18
    8638:	94007f76 	bl	28410 <_ZN6google8protobuf2io17CodedOutputStream21WriteVarint32SlowPathEj>
    863c:	b9401268 	ldr	w8, [x19, #16]
    8640:	b9402a81 	ldr	w1, [x20, #40]
    8644:	7100151f 	cmp	w8, #0x5
    8648:	54fffe8b 	b.lt	8618 <_ZNK11vector_tile12Tile_Feature24SerializeWithCachedSizesEPN6google8protobuf2io17CodedOutputStreamE+0x80>  // b.tstop
    864c:	f9400668 	ldr	x8, [x19, #8]
    8650:	7102003f 	cmp	w1, #0x80
    8654:	54000123 	b.cc	8678 <_ZNK11vector_tile12Tile_Feature24SerializeWithCachedSizesEPN6google8protobuf2io17CodedOutputStreamE+0xe0>  // b.lo, b.ul, b.last
    8658:	aa0803e9 	mov	x9, x8
    865c:	53077c2a 	lsr	w10, w1, #7
    8660:	3219002b 	orr	w11, w1, #0x80
    8664:	530e7c2c 	lsr	w12, w1, #14
    8668:	2a0a03e1 	mov	w1, w10
    866c:	3800152b 	strb	w11, [x9], #1
    8670:	35ffff6c 	cbnz	w12, 865c <_ZNK11vector_tile12Tile_Feature24SerializeWithCachedSizesEPN6google8protobuf2io17CodedOutputStreamE+0xc4>
    8674:	14000003 	b	8680 <_ZNK11vector_tile12Tile_Feature24SerializeWithCachedSizesEPN6google8protobuf2io17CodedOutputStreamE+0xe8>
    8678:	2a0103ea 	mov	w10, w1
    867c:	aa0803e9 	mov	x9, x8
    8680:	3900012a 	strb	w10, [x9]
    8684:	cb080128 	sub	x8, x9, x8
    8688:	f9400669 	ldr	x9, [x19, #8]
    868c:	91000508 	add	x8, x8, #0x1
    8690:	b940126a 	ldr	w10, [x19, #16]
    8694:	8b28c129 	add	x9, x9, w8, sxtw
    8698:	4b080148 	sub	w8, w10, w8
    869c:	f9000669 	str	x9, [x19, #8]
    86a0:	b9001268 	str	w8, [x19, #16]
    86a4:	b9401a96 	ldr	w22, [x20, #24]
    86a8:	710006df 	cmp	w22, #0x1
    86ac:	540004eb 	b.lt	8748 <_ZNK11vector_tile12Tile_Feature24SerializeWithCachedSizesEPN6google8protobuf2io17CodedOutputStreamE+0x1b0>  // b.tstop
    86b0:	aa1f03f7 	mov	x23, xzr
    86b4:	14000006 	b	86cc <_ZNK11vector_tile12Tile_Feature24SerializeWithCachedSizesEPN6google8protobuf2io17CodedOutputStreamE+0x134>
    86b8:	aa1303e0 	mov	x0, x19
    86bc:	94007f55 	bl	28410 <_ZN6google8protobuf2io17CodedOutputStream21WriteVarint32SlowPathEj>
    86c0:	910006f7 	add	x23, x23, #0x1
    86c4:	eb1602ff 	cmp	x23, x22
    86c8:	54000400 	b.eq	8748 <_ZNK11vector_tile12Tile_Feature24SerializeWithCachedSizesEPN6google8protobuf2io17CodedOutputStreamE+0x1b0>  // b.none
    86cc:	f9401288 	ldr	x8, [x20, #32]
    86d0:	b9401269 	ldr	w9, [x19, #16]
    86d4:	8b170908 	add	x8, x8, x23, lsl #2
    86d8:	7100153f 	cmp	w9, #0x5
    86dc:	b9400901 	ldr	w1, [x8, #8]
    86e0:	54fffecb 	b.lt	86b8 <_ZNK11vector_tile12Tile_Feature24SerializeWithCachedSizesEPN6google8protobuf2io17CodedOutputStreamE+0x120>  // b.tstop
    86e4:	f9400668 	ldr	x8, [x19, #8]
    86e8:	7102003f 	cmp	w1, #0x80
    86ec:	54000123 	b.cc	8710 <_ZNK11vector_tile12Tile_Feature24SerializeWithCachedSizesEPN6google8protobuf2io17CodedOutputStreamE+0x178>  // b.lo, b.ul, b.last
    86f0:	aa0803e9 	mov	x9, x8
    86f4:	53077c2a 	lsr	w10, w1, #7
    86f8:	3219002b 	orr	w11, w1, #0x80
    86fc:	530e7c2c 	lsr	w12, w1, #14
    8700:	2a0a03e1 	mov	w1, w10
    8704:	3800152b 	strb	w11, [x9], #1
    8708:	35ffff6c 	cbnz	w12, 86f4 <_ZNK11vector_tile12Tile_Feature24SerializeWithCachedSizesEPN6google8protobuf2io17CodedOutputStreamE+0x15c>
    870c:	14000003 	b	8718 <_ZNK11vector_tile12Tile_Feature24SerializeWithCachedSizesEPN6google8protobuf2io17CodedOutputStreamE+0x180>
    8710:	2a0103ea 	mov	w10, w1
    8714:	aa0803e9 	mov	x9, x8
    8718:	3900012a 	strb	w10, [x9]
    871c:	cb080128 	sub	x8, x9, x8
    8720:	f9400669 	ldr	x9, [x19, #8]
    8724:	91000508 	add	x8, x8, #0x1
    8728:	b940126a 	ldr	w10, [x19, #16]
    872c:	8b28c129 	add	x9, x9, w8, sxtw
    8730:	4b080148 	sub	w8, w10, w8
    8734:	f9000669 	str	x9, [x19, #8]
    8738:	b9001268 	str	w8, [x19, #16]
    873c:	910006f7 	add	x23, x23, #0x1
    8740:	eb1602ff 	cmp	x23, x22
    8744:	54fffc41 	b.ne	86cc <_ZNK11vector_tile12Tile_Feature24SerializeWithCachedSizesEPN6google8protobuf2io17CodedOutputStreamE+0x134>  // b.any
    8748:	361000b5 	tbz	w21, #2, 875c <_ZNK11vector_tile12Tile_Feature24SerializeWithCachedSizesEPN6google8protobuf2io17CodedOutputStreamE+0x1c4>
    874c:	b9405a81 	ldr	w1, [x20, #88]
    8750:	52800060 	mov	w0, #0x3                   	// #3
    8754:	aa1303e2 	mov	x2, x19
    8758:	940072c2 	bl	25260 <_ZN6google8protobuf8internal14WireFormatLite9WriteEnumEiiPNS0_2io17CodedOutputStreamE>
    875c:	b9403288 	ldr	w8, [x20, #48]
    8760:	7100051f 	cmp	w8, #0x1
    8764:	54000b8b 	b.lt	88d4 <_ZNK11vector_tile12Tile_Feature24SerializeWithCachedSizesEPN6google8protobuf2io17CodedOutputStreamE+0x33c>  // b.tstop
    8768:	b9401268 	ldr	w8, [x19, #16]
    876c:	7100151f 	cmp	w8, #0x5
    8770:	5400026b 	b.lt	87bc <_ZNK11vector_tile12Tile_Feature24SerializeWithCachedSizesEPN6google8protobuf2io17CodedOutputStreamE+0x224>  // b.tstop
    8774:	f9400668 	ldr	x8, [x19, #8]
    8778:	52800449 	mov	w9, #0x22                  	// #34
    877c:	39000109 	strb	w9, [x8]
    8780:	f9400668 	ldr	x8, [x19, #8]
    8784:	b9401269 	ldr	w9, [x19, #16]
    8788:	9100050a 	add	x10, x8, #0x1
    878c:	51000528 	sub	w8, w9, #0x1
    8790:	f900066a 	str	x10, [x19, #8]
    8794:	b9001268 	str	w8, [x19, #16]
    8798:	b9404281 	ldr	w1, [x20, #64]
    879c:	7100151f 	cmp	w8, #0x5
    87a0:	540001ca 	b.ge	87d8 <_ZNK11vector_tile12Tile_Feature24SerializeWithCachedSizesEPN6google8protobuf2io17CodedOutputStreamE+0x240>  // b.tcont
    87a4:	aa1303e0 	mov	x0, x19
    87a8:	94007f1a 	bl	28410 <_ZN6google8protobuf2io17CodedOutputStream21WriteVarint32SlowPathEj>
    87ac:	b9403296 	ldr	w22, [x20, #48]
    87b0:	710006df 	cmp	w22, #0x1
    87b4:	5400044a 	b.ge	883c <_ZNK11vector_tile12Tile_Feature24SerializeWithCachedSizesEPN6google8protobuf2io17CodedOutputStreamE+0x2a4>  // b.tcont
    87b8:	14000047 	b	88d4 <_ZNK11vector_tile12Tile_Feature24SerializeWithCachedSizesEPN6google8protobuf2io17CodedOutputStreamE+0x33c>
    87bc:	aa1303e0 	mov	x0, x19
    87c0:	52800441 	mov	w1, #0x22                  	// #34
    87c4:	94007f13 	bl	28410 <_ZN6google8protobuf2io17CodedOutputStream21WriteVarint32SlowPathEj>
    87c8:	b9401268 	ldr	w8, [x19, #16]
    87cc:	b9404281 	ldr	w1, [x20, #64]
    87d0:	7100151f 	cmp	w8, #0x5
    87d4:	54fffe8b 	b.lt	87a4 <_ZNK11vector_tile12Tile_Feature24SerializeWithCachedSizesEPN6google8protobuf2io17CodedOutputStreamE+0x20c>  // b.tstop
    87d8:	f9400668 	ldr	x8, [x19, #8]
    87dc:	7102003f 	cmp	w1, #0x80
    87e0:	54000123 	b.cc	8804 <_ZNK11vector_tile12Tile_Feature24SerializeWithCachedSizesEPN6google8protobuf2io17CodedOutputStreamE+0x26c>  // b.lo, b.ul, b.last
    87e4:	aa0803e9 	mov	x9, x8
    87e8:	53077c2a 	lsr	w10, w1, #7
    87ec:	3219002b 	orr	w11, w1, #0x80
    87f0:	530e7c2c 	lsr	w12, w1, #14
    87f4:	2a0a03e1 	mov	w1, w10
    87f8:	3800152b 	strb	w11, [x9], #1
    87fc:	35ffff6c 	cbnz	w12, 87e8 <_ZNK11vector_tile12Tile_Feature24SerializeWithCachedSizesEPN6google8protobuf2io17CodedOutputStreamE+0x250>
    8800:	14000003 	b	880c <_ZNK11vector_tile12Tile_Feature24SerializeWithCachedSizesEPN6google8protobuf2io17CodedOutputStreamE+0x274>
    8804:	2a0103ea 	mov	w10, w1
    8808:	aa0803e9 	mov	x9, x8
    880c:	3900012a 	strb	w10, [x9]
    8810:	cb080128 	sub	x8, x9, x8
    8814:	f9400669 	ldr	x9, [x19, #8]
    8818:	91000508 	add	x8, x8, #0x1
    881c:	b940126a 	ldr	w10, [x19, #16]
    8820:	8b28c129 	add	x9, x9, w8, sxtw
    8824:	4b080148 	sub	w8, w10, w8
    8828:	f9000669 	str	x9, [x19, #8]
    882c:	b9001268 	str	w8, [x19, #16]
    8830:	b9403296 	ldr	w22, [x20, #48]
    8834:	710006df 	cmp	w22, #0x1
    8838:	540004eb 	b.lt	88d4 <_ZNK11vector_tile12Tile_Feature24SerializeWithCachedSizesEPN6google8protobuf2io17CodedOutputStreamE+0x33c>  // b.tstop
    883c:	aa1f03f7 	mov	x23, xzr
    8840:	14000006 	b	8858 <_ZNK11vector_tile12Tile_Feature24SerializeWithCachedSizesEPN6google8protobuf2io17CodedOutputStreamE+0x2c0>
    8844:	aa1303e0 	mov	x0, x19
    8848:	94007ef2 	bl	28410 <_ZN6google8protobuf2io17CodedOutputStream21WriteVarint32SlowPathEj>
    884c:	910006f7 	add	x23, x23, #0x1
    8850:	eb1602ff 	cmp	x23, x22
    8854:	54000400 	b.eq	88d4 <_ZNK11vector_tile12Tile_Feature24SerializeWithCachedSizesEPN6google8protobuf2io17CodedOutputStreamE+0x33c>  // b.none
    8858:	f9401e88 	ldr	x8, [x20, #56]
    885c:	b9401269 	ldr	w9, [x19, #16]
    8860:	8b170908 	add	x8, x8, x23, lsl #2
    8864:	7100153f 	cmp	w9, #0x5
    8868:	b9400901 	ldr	w1, [x8, #8]
    886c:	54fffecb 	b.lt	8844 <_ZNK11vector_tile12Tile_Feature24SerializeWithCachedSizesEPN6google8protobuf2io17CodedOutputStreamE+0x2ac>  // b.tstop
    8870:	f9400668 	ldr	x8, [x19, #8]
    8874:	7102003f 	cmp	w1, #0x80
    8878:	54000123 	b.cc	889c <_ZNK11vector_tile12Tile_Feature24SerializeWithCachedSizesEPN6google8protobuf2io17CodedOutputStreamE+0x304>  // b.lo, b.ul, b.last
    887c:	aa0803e9 	mov	x9, x8
    8880:	53077c2a 	lsr	w10, w1, #7
    8884:	3219002b 	orr	w11, w1, #0x80
    8888:	530e7c2c 	lsr	w12, w1, #14
    888c:	2a0a03e1 	mov	w1, w10
    8890:	3800152b 	strb	w11, [x9], #1
    8894:	35ffff6c 	cbnz	w12, 8880 <_ZNK11vector_tile12Tile_Feature24SerializeWithCachedSizesEPN6google8protobuf2io17CodedOutputStreamE+0x2e8>
    8898:	14000003 	b	88a4 <_ZNK11vector_tile12Tile_Feature24SerializeWithCachedSizesEPN6google8protobuf2io17CodedOutputStreamE+0x30c>
    889c:	2a0103ea 	mov	w10, w1
    88a0:	aa0803e9 	mov	x9, x8
    88a4:	3900012a 	strb	w10, [x9]
    88a8:	cb080128 	sub	x8, x9, x8
    88ac:	f9400669 	ldr	x9, [x19, #8]
    88b0:	91000508 	add	x8, x8, #0x1
    88b4:	b940126a 	ldr	w10, [x19, #16]
    88b8:	8b28c129 	add	x9, x9, w8, sxtw
    88bc:	4b080148 	sub	w8, w10, w8
    88c0:	f9000669 	str	x9, [x19, #8]
    88c4:	b9001268 	str	w8, [x19, #16]
    88c8:	910006f7 	add	x23, x23, #0x1
    88cc:	eb1602ff 	cmp	x23, x22
    88d0:	54fffc41 	b.ne	8858 <_ZNK11vector_tile12Tile_Feature24SerializeWithCachedSizesEPN6google8protobuf2io17CodedOutputStreamE+0x2c0>  // b.any
    88d4:	360000b5 	tbz	w21, #0, 88e8 <_ZNK11vector_tile12Tile_Feature24SerializeWithCachedSizesEPN6google8protobuf2io17CodedOutputStreamE+0x350>
    88d8:	f9402681 	ldr	x1, [x20, #72]
    88dc:	528000a0 	mov	w0, #0x5                   	// #5
    88e0:	aa1303e2 	mov	x2, x19
    88e4:	940073df 	bl	25860 <_ZN6google8protobuf8internal14WireFormatLite22WriteBytesMaybeAliasedEiRKNSt7__cxx1112basic_stringIcSt11char_traitsIcESaIcEEEPNS0_2io17CodedOutputStreamE>
    88e8:	f9400688 	ldr	x8, [x20, #8]
    88ec:	37000168 	tbnz	w8, #0, 8918 <_ZNK11vector_tile12Tile_Feature24SerializeWithCachedSizesEPN6google8protobuf2io17CodedOutputStreamE+0x380>
    88f0:	d00001e8 	adrp	x8, 46000 <GCC_except_table137+0x10ca0>
    88f4:	f946a108 	ldr	x8, [x8, #3392]
    88f8:	f9400101 	ldr	x1, [x8]
    88fc:	b9400902 	ldr	w2, [x8, #8]
    8900:	aa1303e0 	mov	x0, x19
    8904:	a9434ff4 	ldp	x20, x19, [sp, #48]
    8908:	a94257f6 	ldp	x22, x21, [sp, #32]
    890c:	f9400bf7 	ldr	x23, [sp, #16]
    8910:	a8c47bfd 	ldp	x29, x30, [sp], #64
    8914:	14007e33 	b	281e0 <_ZN6google8protobuf2io17CodedOutputStream8WriteRawEPKvi>
    8918:	927ff908 	and	x8, x8, #0xfffffffffffffffe
    891c:	17fffff7 	b	88f8 <_ZNK11vector_tile12Tile_Feature24SerializeWithCachedSizesEPN6google8protobuf2io17CodedOutputStreamE+0x360>

0000000000008920 <_ZNK11vector_tile12Tile_Feature12ByteSizeLongEv>:
    8920:	a9be7bfd 	stp	x29, x30, [sp, #-32]!
    8924:	a9014ff4 	stp	x20, x19, [sp, #16]
    8928:	910003fd 	mov	x29, sp
    892c:	aa0003f3 	mov	x19, x0
    8930:	97fff068 	bl	4ad0 <_mcount@plt>
    8934:	f9400668 	ldr	x8, [x19, #8]
    8938:	370005a8 	tbnz	w8, #0, 89ec <_ZNK11vector_tile12Tile_Feature12ByteSizeLongEv+0xcc>
    893c:	d00001e8 	adrp	x8, 46000 <GCC_except_table137+0x10ca0>
    8940:	f946a108 	ldr	x8, [x8, #3392]
    8944:	91006260 	add	x0, x19, #0x18
    8948:	f9400514 	ldr	x20, [x8, #8]
    894c:	940076f9 	bl	26530 <_ZN6google8protobuf8internal14WireFormatLite10UInt32SizeERKNS0_13RepeatedFieldIjEE>
    8950:	b4000580 	cbz	x0, 8a00 <_ZNK11vector_tile12Tile_Feature12ByteSizeLongEv+0xe0>
    8954:	2a0003e8 	mov	w8, w0
    8958:	37f80120 	tbnz	w0, #31, 897c <_ZNK11vector_tile12Tile_Feature12ByteSizeLongEv+0x5c>
    895c:	32000109 	orr	w9, w8, #0x1
    8960:	5ac01129 	clz	w9, w9
    8964:	52001129 	eor	w9, w9, #0x1f
    8968:	0b090d29 	add	w9, w9, w9, lsl #3
    896c:	11012529 	add	w9, w9, #0x49
    8970:	53067d29 	lsr	w9, w9, #6
    8974:	11000529 	add	w9, w9, #0x1
    8978:	14000002 	b	8980 <_ZNK11vector_tile12Tile_Feature12ByteSizeLongEv+0x60>
    897c:	52800169 	mov	w9, #0xb                   	// #11
    8980:	8b140134 	add	x20, x9, x20
    8984:	8b000294 	add	x20, x20, x0
    8988:	9100c260 	add	x0, x19, #0x30
    898c:	b9002a68 	str	w8, [x19, #40]
    8990:	940076e8 	bl	26530 <_ZN6google8protobuf8internal14WireFormatLite10UInt32SizeERKNS0_13RepeatedFieldIjEE>
    8994:	b4000400 	cbz	x0, 8a14 <_ZNK11vector_tile12Tile_Feature12ByteSizeLongEv+0xf4>
    8998:	2a0003e9 	mov	w9, w0
    899c:	37f80120 	tbnz	w0, #31, 89c0 <_ZNK11vector_tile12Tile_Feature12ByteSizeLongEv+0xa0>
    89a0:	32000128 	orr	w8, w9, #0x1
    89a4:	5ac01108 	clz	w8, w8
    89a8:	52001108 	eor	w8, w8, #0x1f
    89ac:	0b080d08 	add	w8, w8, w8, lsl #3
    89b0:	11012508 	add	w8, w8, #0x49
    89b4:	53067d08 	lsr	w8, w8, #6
    89b8:	11000508 	add	w8, w8, #0x1
    89bc:	14000002 	b	89c4 <_ZNK11vector_tile12Tile_Feature12ByteSizeLongEv+0xa4>
    89c0:	52800168 	mov	w8, #0xb                   	// #11
    89c4:	8b140114 	add	x20, x8, x20
    89c8:	b9401268 	ldr	w8, [x19, #16]
    89cc:	8b000280 	add	x0, x20, x0
    89d0:	b9004269 	str	w9, [x19, #64]
    89d4:	7200091f 	tst	w8, #0x7
    89d8:	540002a1 	b.ne	8a2c <_ZNK11vector_tile12Tile_Feature12ByteSizeLongEv+0x10c>  // b.any
    89dc:	b9001660 	str	w0, [x19, #20]
    89e0:	a9414ff4 	ldp	x20, x19, [sp, #16]
    89e4:	a8c27bfd 	ldp	x29, x30, [sp], #32
    89e8:	d65f03c0 	ret
    89ec:	927ff908 	and	x8, x8, #0xfffffffffffffffe
    89f0:	91006260 	add	x0, x19, #0x18
    89f4:	f9400514 	ldr	x20, [x8, #8]
    89f8:	940076ce 	bl	26530 <_ZN6google8protobuf8internal14WireFormatLite10UInt32SizeERKNS0_13RepeatedFieldIjEE>
    89fc:	b5fffac0 	cbnz	x0, 8954 <_ZNK11vector_tile12Tile_Feature12ByteSizeLongEv+0x34>
    8a00:	8b000294 	add	x20, x20, x0
    8a04:	9100c260 	add	x0, x19, #0x30
    8a08:	b9002a7f 	str	wzr, [x19, #40]
    8a0c:	940076c9 	bl	26530 <_ZN6google8protobuf8internal14WireFormatLite10UInt32SizeERKNS0_13RepeatedFieldIjEE>
    8a10:	b5fffc40 	cbnz	x0, 8998 <_ZNK11vector_tile12Tile_Feature12ByteSizeLongEv+0x78>
    8a14:	2a1f03e9 	mov	w9, wzr
    8a18:	b9401268 	ldr	w8, [x19, #16]
    8a1c:	8b000280 	add	x0, x20, x0
    8a20:	b900427f 	str	wzr, [x19, #64]
    8a24:	7200091f 	tst	w8, #0x7
    8a28:	54fffda0 	b.eq	89dc <_ZNK11vector_tile12Tile_Feature12ByteSizeLongEv+0xbc>  // b.none
    8a2c:	37000088 	tbnz	w8, #0, 8a3c <_ZNK11vector_tile12Tile_Feature12ByteSizeLongEv+0x11c>
    8a30:	370801e8 	tbnz	w8, #1, 8a6c <_ZNK11vector_tile12Tile_Feature12ByteSizeLongEv+0x14c>
    8a34:	3617fd48 	tbz	w8, #2, 89dc <_ZNK11vector_tile12Tile_Feature12ByteSizeLongEv+0xbc>
    8a38:	14000016 	b	8a90 <_ZNK11vector_tile12Tile_Feature12ByteSizeLongEv+0x170>
    8a3c:	f9402669 	ldr	x9, [x19, #72]
    8a40:	f9400529 	ldr	x9, [x9, #8]
    8a44:	3200012a 	orr	w10, w9, #0x1
    8a48:	8b090009 	add	x9, x0, x9
    8a4c:	5ac0114a 	clz	w10, w10
    8a50:	5200114a 	eor	w10, w10, #0x1f
    8a54:	0b0a0d4a 	add	w10, w10, w10, lsl #3
    8a58:	1101254a 	add	w10, w10, #0x49
    8a5c:	53067d4a 	lsr	w10, w10, #6
    8a60:	8b0a0129 	add	x9, x9, x10
    8a64:	91000520 	add	x0, x9, #0x1
    8a68:	360ffe68 	tbz	w8, #1, 8a34 <_ZNK11vector_tile12Tile_Feature12ByteSizeLongEv+0x114>
    8a6c:	f9402a69 	ldr	x9, [x19, #80]
    8a70:	b2400129 	orr	x9, x9, #0x1
    8a74:	dac01129 	clz	x9, x9
    8a78:	d2401529 	eor	x9, x9, #0x3f
    8a7c:	8b090d29 	add	x9, x9, x9, lsl #3
    8a80:	91012529 	add	x9, x9, #0x49
    8a84:	8b491809 	add	x9, x0, x9, lsr #6
    8a88:	91000520 	add	x0, x9, #0x1
    8a8c:	3617fa88 	tbz	w8, #2, 89dc <_ZNK11vector_tile12Tile_Feature12ByteSizeLongEv+0xbc>
    8a90:	b9405a68 	ldr	w8, [x19, #88]
    8a94:	37f801a8 	tbnz	w8, #31, 8ac8 <_ZNK11vector_tile12Tile_Feature12ByteSizeLongEv+0x1a8>
    8a98:	32000108 	orr	w8, w8, #0x1
    8a9c:	5ac01108 	clz	w8, w8
    8aa0:	52001108 	eor	w8, w8, #0x1f
    8aa4:	0b080d08 	add	w8, w8, w8, lsl #3
    8aa8:	11012508 	add	w8, w8, #0x49
    8aac:	53067d08 	lsr	w8, w8, #6
    8ab0:	11000508 	add	w8, w8, #0x1
    8ab4:	8b000100 	add	x0, x8, x0
    8ab8:	b9001660 	str	w0, [x19, #20]
    8abc:	a9414ff4 	ldp	x20, x19, [sp, #16]
    8ac0:	a8c27bfd 	ldp	x29, x30, [sp], #32
    8ac4:	d65f03c0 	ret
    8ac8:	52800168 	mov	w8, #0xb                   	// #11
    8acc:	8b000100 	add	x0, x8, x0
    8ad0:	b9001660 	str	w0, [x19, #20]
    8ad4:	a9414ff4 	ldp	x20, x19, [sp, #16]
    8ad8:	a8c27bfd 	ldp	x29, x30, [sp], #32
    8adc:	d65f03c0 	ret

0000000000008ae0 <_ZN11vector_tile12Tile_Feature21CheckTypeAndMergeFromERKN6google8protobuf11MessageLiteE>:
    8ae0:	a9be7bfd 	stp	x29, x30, [sp, #-32]!
    8ae4:	a9014ff4 	stp	x20, x19, [sp, #16]
    8ae8:	910003fd 	mov	x29, sp
    8aec:	aa0103f3 	mov	x19, x1
    8af0:	aa0003f4 	mov	x20, x0
    8af4:	97ffeff7 	bl	4ad0 <_mcount@plt>
    8af8:	aa1403e0 	mov	x0, x20
    8afc:	aa1303e1 	mov	x1, x19
    8b00:	a9414ff4 	ldp	x20, x19, [sp, #16]
    8b04:	a8c27bfd 	ldp	x29, x30, [sp], #32
    8b08:	14000001 	b	8b0c <_ZN11vector_tile12Tile_Feature9MergeFromERKS0_>

0000000000008b0c <_ZN11vector_tile12Tile_Feature9MergeFromERKS0_>:
    8b0c:	a9bd7bfd 	stp	x29, x30, [sp, #-48]!
    8b10:	f9000bf5 	str	x21, [sp, #16]
    8b14:	a9024ff4 	stp	x20, x19, [sp, #32]
    8b18:	910003fd 	mov	x29, sp
    8b1c:	aa0103f4 	mov	x20, x1
    8b20:	aa0003f3 	mov	x19, x0
    8b24:	97ffefeb 	bl	4ad0 <_mcount@plt>
    8b28:	f9400688 	ldr	x8, [x20, #8]
    8b2c:	36000108 	tbz	w8, #0, 8b4c <_ZN11vector_tile12Tile_Feature9MergeFromERKS0_+0x40>
    8b30:	91002260 	add	x0, x19, #0x8
    8b34:	927ff915 	and	x21, x8, #0xfffffffffffffffe
    8b38:	f9400009 	ldr	x9, [x0]
    8b3c:	360009c9 	tbz	w9, #0, 8c74 <_ZN11vector_tile12Tile_Feature9MergeFromERKS0_+0x168>
    8b40:	927ff920 	and	x0, x9, #0xfffffffffffffffe
    8b44:	a9400aa1 	ldp	x1, x2, [x21]
    8b48:	97ffefd2 	bl	4a90 <_ZNSt7__cxx1112basic_stringIcSt11char_traitsIcESaIcEE9_M_appendEPKcm@plt>
    8b4c:	b9401a88 	ldr	w8, [x20, #24]
    8b50:	34000268 	cbz	w8, 8b9c <_ZN11vector_tile12Tile_Feature9MergeFromERKS0_+0x90>
    8b54:	aa1303f5 	mov	x21, x19
    8b58:	b8418ea9 	ldr	w9, [x21, #24]!
    8b5c:	aa1503e0 	mov	x0, x21
    8b60:	0b080121 	add	w1, w9, w8
    8b64:	94000d42 	bl	c06c <_ZN6google8protobuf13RepeatedFieldIjE7ReserveEi>
    8b68:	f94006a8 	ldr	x8, [x21, #8]
    8b6c:	b98002a9 	ldrsw	x9, [x21]
    8b70:	f940128a 	ldr	x10, [x20, #32]
    8b74:	b9801a8b 	ldrsw	x11, [x20, #24]
    8b78:	8b090908 	add	x8, x8, x9, lsl #2
    8b7c:	91002100 	add	x0, x8, #0x8
    8b80:	91002141 	add	x1, x10, #0x8
    8b84:	d37ef562 	lsl	x2, x11, #2
    8b88:	97ffef96 	bl	49e0 <memcpy@plt>
    8b8c:	b9401a88 	ldr	w8, [x20, #24]
    8b90:	b94002a9 	ldr	w9, [x21]
    8b94:	0b080128 	add	w8, w9, w8
    8b98:	b90002a8 	str	w8, [x21]
    8b9c:	b9403288 	ldr	w8, [x20, #48]
    8ba0:	34000268 	cbz	w8, 8bec <_ZN11vector_tile12Tile_Feature9MergeFromERKS0_+0xe0>
    8ba4:	aa1303f5 	mov	x21, x19
    8ba8:	b8430ea9 	ldr	w9, [x21, #48]!
    8bac:	aa1503e0 	mov	x0, x21
    8bb0:	0b080121 	add	w1, w9, w8
    8bb4:	94000d2e 	bl	c06c <_ZN6google8protobuf13RepeatedFieldIjE7ReserveEi>
    8bb8:	f94006a8 	ldr	x8, [x21, #8]
    8bbc:	b98002a9 	ldrsw	x9, [x21]
    8bc0:	f9401e8a 	ldr	x10, [x20, #56]
    8bc4:	b980328b 	ldrsw	x11, [x20, #48]
    8bc8:	8b090908 	add	x8, x8, x9, lsl #2
    8bcc:	91002100 	add	x0, x8, #0x8
    8bd0:	91002141 	add	x1, x10, #0x8
    8bd4:	d37ef562 	lsl	x2, x11, #2
    8bd8:	97ffef82 	bl	49e0 <memcpy@plt>
    8bdc:	b9403288 	ldr	w8, [x20, #48]
    8be0:	b94002a9 	ldr	w9, [x21]
    8be4:	0b080128 	add	w8, w9, w8
    8be8:	b90002a8 	str	w8, [x21]
    8bec:	b9401295 	ldr	w21, [x20, #16]
    8bf0:	72000abf 	tst	w21, #0x7
    8bf4:	54000320 	b.eq	8c58 <_ZN11vector_tile12Tile_Feature9MergeFromERKS0_+0x14c>  // b.none
    8bf8:	360001f5 	tbz	w21, #0, 8c34 <_ZN11vector_tile12Tile_Feature9MergeFromERKS0_+0x128>
    8bfc:	aa1303e0 	mov	x0, x19
    8c00:	f8448c08 	ldr	x8, [x0, #72]!
    8c04:	b85c8009 	ldur	w9, [x0, #-56]
    8c08:	32000129 	orr	w9, w9, #0x1
    8c0c:	b81c8009 	stur	w9, [x0, #-56]
    8c10:	f9402681 	ldr	x1, [x20, #72]
    8c14:	eb01011f 	cmp	x8, x1
    8c18:	540000e0 	b.eq	8c34 <_ZN11vector_tile12Tile_Feature9MergeFromERKS0_+0x128>  // b.none
    8c1c:	d00001e9 	adrp	x9, 46000 <GCC_except_table137+0x10ca0>
    8c20:	f946a129 	ldr	x9, [x9, #3392]
    8c24:	eb09011f 	cmp	x8, x9
    8c28:	54000200 	b.eq	8c68 <_ZN11vector_tile12Tile_Feature9MergeFromERKS0_+0x15c>  // b.none
    8c2c:	aa0803e0 	mov	x0, x8
    8c30:	97ffefd4 	bl	4b80 <_ZNSt7__cxx1112basic_stringIcSt11char_traitsIcESaIcEE9_M_assignERKS4_@plt>
    8c34:	36080075 	tbz	w21, #1, 8c40 <_ZN11vector_tile12Tile_Feature9MergeFromERKS0_+0x134>
    8c38:	f9402a88 	ldr	x8, [x20, #80]
    8c3c:	f9002a68 	str	x8, [x19, #80]
    8c40:	36100075 	tbz	w21, #2, 8c4c <_ZN11vector_tile12Tile_Feature9MergeFromERKS0_+0x140>
    8c44:	b9405a88 	ldr	w8, [x20, #88]
    8c48:	b9005a68 	str	w8, [x19, #88]
    8c4c:	b9401268 	ldr	w8, [x19, #16]
    8c50:	2a150108 	orr	w8, w8, w21
    8c54:	b9001268 	str	w8, [x19, #16]
    8c58:	a9424ff4 	ldp	x20, x19, [sp, #32]
    8c5c:	f9400bf5 	ldr	x21, [sp, #16]
    8c60:	a8c37bfd 	ldp	x29, x30, [sp], #48
    8c64:	d65f03c0 	ret
    8c68:	94000b94 	bl	bab8 <_ZN6google8protobuf8internal14ArenaStringPtr21CreateInstanceNoArenaEPKNSt7__cxx1112basic_stringIcSt11char_traitsIcESaIcEEE>
    8c6c:	370ffe75 	tbnz	w21, #1, 8c38 <_ZN11vector_tile12Tile_Feature9MergeFromERKS0_+0x12c>
    8c70:	17fffff4 	b	8c40 <_ZN11vector_tile12Tile_Feature9MergeFromERKS0_+0x134>
    8c74:	94000bc1 	bl	bb78 <_ZN6google8protobuf8internal29InternalMetadataWithArenaBaseINSt7__cxx1112basic_stringIcSt11char_traitsIcESaIcEEENS1_29InternalMetadataWithArenaLiteEE27mutable_unknown_fields_slowEv>
    8c78:	17ffffb3 	b	8b44 <_ZN11vector_tile12Tile_Feature9MergeFromERKS0_+0x38>

0000000000008c7c <_ZN11vector_tile12Tile_Feature8CopyFromERKS0_>:
    8c7c:	a9be7bfd 	stp	x29, x30, [sp, #-32]!
    8c80:	a9014ff4 	stp	x20, x19, [sp, #16]
    8c84:	910003fd 	mov	x29, sp
    8c88:	aa0103f3 	mov	x19, x1
    8c8c:	aa0003f4 	mov	x20, x0
    8c90:	97ffef90 	bl	4ad0 <_mcount@plt>
    8c94:	eb14027f 	cmp	x19, x20
    8c98:	54000320 	b.eq	8cfc <_ZN11vector_tile12Tile_Feature8CopyFromERKS0_+0x80>  // b.none
    8c9c:	b9401288 	ldr	w8, [x20, #16]
    8ca0:	b9001a9f 	str	wzr, [x20, #24]
    8ca4:	b900329f 	str	wzr, [x20, #48]
    8ca8:	360000a8 	tbz	w8, #0, 8cbc <_ZN11vector_tile12Tile_Feature8CopyFromERKS0_+0x40>
    8cac:	f9402689 	ldr	x9, [x20, #72]
    8cb0:	f940012a 	ldr	x10, [x9]
    8cb4:	f900053f 	str	xzr, [x9, #8]
    8cb8:	3900015f 	strb	wzr, [x10]
    8cbc:	721f051f 	tst	w8, #0x6
    8cc0:	54000060 	b.eq	8ccc <_ZN11vector_tile12Tile_Feature8CopyFromERKS0_+0x50>  // b.none
    8cc4:	b9005a9f 	str	wzr, [x20, #88]
    8cc8:	f9002a9f 	str	xzr, [x20, #80]
    8ccc:	f9400688 	ldr	x8, [x20, #8]
    8cd0:	b900129f 	str	wzr, [x20, #16]
    8cd4:	360000a8 	tbz	w8, #0, 8ce8 <_ZN11vector_tile12Tile_Feature8CopyFromERKS0_+0x6c>
    8cd8:	927ff908 	and	x8, x8, #0xfffffffffffffffe
    8cdc:	f9400109 	ldr	x9, [x8]
    8ce0:	f900051f 	str	xzr, [x8, #8]
    8ce4:	3900013f 	strb	wzr, [x9]
    8ce8:	aa1403e0 	mov	x0, x20
    8cec:	aa1303e1 	mov	x1, x19
    8cf0:	a9414ff4 	ldp	x20, x19, [sp, #16]
    8cf4:	a8c27bfd 	ldp	x29, x30, [sp], #32
    8cf8:	17ffff85 	b	8b0c <_ZN11vector_tile12Tile_Feature9MergeFromERKS0_>
    8cfc:	a9414ff4 	ldp	x20, x19, [sp, #16]
    8d00:	a8c27bfd 	ldp	x29, x30, [sp], #32
    8d04:	d65f03c0 	ret

0000000000008d08 <_ZNK11vector_tile12Tile_Feature13IsInitializedEv>:
    8d08:	a9bf7bfd 	stp	x29, x30, [sp, #-16]!
    8d0c:	910003fd 	mov	x29, sp
    8d10:	97ffef70 	bl	4ad0 <_mcount@plt>
    8d14:	52800020 	mov	w0, #0x1                   	// #1
    8d18:	a8c17bfd 	ldp	x29, x30, [sp], #16
    8d1c:	d65f03c0 	ret

0000000000008d20 <_ZN11vector_tile12Tile_Feature4SwapEPS0_>:
    8d20:	a9be7bfd 	stp	x29, x30, [sp, #-32]!
    8d24:	a9014ff4 	stp	x20, x19, [sp, #16]
    8d28:	910003fd 	mov	x29, sp
    8d2c:	aa0103f3 	mov	x19, x1
    8d30:	aa0003f4 	mov	x20, x0
    8d34:	97ffef67 	bl	4ad0 <_mcount@plt>
    8d38:	eb14027f 	cmp	x19, x20
    8d3c:	540000c0 	b.eq	8d54 <_ZN11vector_tile12Tile_Feature4SwapEPS0_+0x34>  // b.none
    8d40:	aa1403e0 	mov	x0, x20
    8d44:	aa1303e1 	mov	x1, x19
    8d48:	a9414ff4 	ldp	x20, x19, [sp, #16]
    8d4c:	a8c27bfd 	ldp	x29, x30, [sp], #32
    8d50:	14000004 	b	8d60 <_ZN11vector_tile12Tile_Feature12InternalSwapEPS0_>
    8d54:	a9414ff4 	ldp	x20, x19, [sp, #16]
    8d58:	a8c27bfd 	ldp	x29, x30, [sp], #32
    8d5c:	d65f03c0 	ret

0000000000008d60 <_ZN11vector_tile12Tile_Feature12InternalSwapEPS0_>:
    8d60:	a9bd7bfd 	stp	x29, x30, [sp, #-48]!
    8d64:	a90157f6 	stp	x22, x21, [sp, #16]
    8d68:	a9024ff4 	stp	x20, x19, [sp, #32]
    8d6c:	910003fd 	mov	x29, sp
    8d70:	aa0103f3 	mov	x19, x1
    8d74:	aa0003f4 	mov	x20, x0
    8d78:	97ffef56 	bl	4ad0 <_mcount@plt>
    8d7c:	f9401268 	ldr	x8, [x19, #32]
    8d80:	aa1403f5 	mov	x21, x20
    8d84:	f9401289 	ldr	x9, [x20, #32]
    8d88:	aa1303e0 	mov	x0, x19
    8d8c:	f9001288 	str	x8, [x20, #32]
    8d90:	f9001269 	str	x9, [x19, #32]
    8d94:	f9401e68 	ldr	x8, [x19, #56]
    8d98:	f9401e89 	ldr	x9, [x20, #56]
    8d9c:	f9001e88 	str	x8, [x20, #56]
    8da0:	f9001e69 	str	x9, [x19, #56]
    8da4:	f9402668 	ldr	x8, [x19, #72]
    8da8:	f9402689 	ldr	x9, [x20, #72]
    8dac:	f9002688 	str	x8, [x20, #72]
    8db0:	f9002669 	str	x9, [x19, #72]
    8db4:	f8408ea8 	ldr	x8, [x21, #8]!
    8db8:	f8408c09 	ldr	x9, [x0, #8]!
    8dbc:	b940100a 	ldr	w10, [x0, #16]
    8dc0:	b94012ab 	ldr	w11, [x21, #16]
    8dc4:	f940240c 	ldr	x12, [x0, #72]
    8dc8:	b90012aa 	str	w10, [x21, #16]
    8dcc:	f94026ad 	ldr	x13, [x21, #72]
    8dd0:	b900100b 	str	w11, [x0, #16]
    8dd4:	b940140a 	ldr	w10, [x0, #20]
    8dd8:	b94016ab 	ldr	w11, [x21, #20]
    8ddc:	f90026ac 	str	x12, [x21, #72]
    8de0:	f900240d 	str	x13, [x0, #72]
    8de4:	b90016aa 	str	w10, [x21, #20]
    8de8:	b900140b 	str	w11, [x0, #20]
    8dec:	b940280a 	ldr	w10, [x0, #40]
    8df0:	b9402aab 	ldr	w11, [x21, #40]
    8df4:	b9002aaa 	str	w10, [x21, #40]
    8df8:	b900280b 	str	w11, [x0, #40]
    8dfc:	b9402c0a 	ldr	w10, [x0, #44]
    8e00:	b9402eab 	ldr	w11, [x21, #44]
    8e04:	b9002eaa 	str	w10, [x21, #44]
    8e08:	b9002c0b 	str	w11, [x0, #44]
    8e0c:	b940500a 	ldr	w10, [x0, #80]
    8e10:	b94052ab 	ldr	w11, [x21, #80]
    8e14:	b90052aa 	str	w10, [x21, #80]
    8e18:	b900500b 	str	w11, [x0, #80]
    8e1c:	b940080a 	ldr	w10, [x0, #8]
    8e20:	2a09010b 	orr	w11, w8, w9
    8e24:	b9400aac 	ldr	w12, [x21, #8]
    8e28:	b9000aaa 	str	w10, [x21, #8]
    8e2c:	b900080c 	str	w12, [x0, #8]
    8e30:	360000eb 	tbz	w11, #0, 8e4c <_ZN11vector_tile12Tile_Feature12InternalSwapEPS0_+0xec>
    8e34:	360001c9 	tbz	w9, #0, 8e6c <_ZN11vector_tile12Tile_Feature12InternalSwapEPS0_+0x10c>
    8e38:	927ff936 	and	x22, x9, #0xfffffffffffffffe
    8e3c:	36000208 	tbz	w8, #0, 8e7c <_ZN11vector_tile12Tile_Feature12InternalSwapEPS0_+0x11c>
    8e40:	927ff900 	and	x0, x8, #0xfffffffffffffffe
    8e44:	aa1603e1 	mov	x1, x22
    8e48:	97ffef92 	bl	4c90 <_ZNSt7__cxx1112basic_stringIcSt11char_traitsIcESaIcEE4swapERS4_@plt>
    8e4c:	b9401668 	ldr	w8, [x19, #20]
    8e50:	b9401689 	ldr	w9, [x20, #20]
    8e54:	b9001688 	str	w8, [x20, #20]
    8e58:	b9001669 	str	w9, [x19, #20]
    8e5c:	a9424ff4 	ldp	x20, x19, [sp, #32]
    8e60:	a94157f6 	ldp	x22, x21, [sp, #16]
    8e64:	a8c37bfd 	ldp	x29, x30, [sp], #48
    8e68:	d65f03c0 	ret
    8e6c:	94000b43 	bl	bb78 <_ZN6google8protobuf8internal29InternalMetadataWithArenaBaseINSt7__cxx1112basic_stringIcSt11char_traitsIcESaIcEEENS1_29InternalMetadataWithArenaLiteEE27mutable_unknown_fields_slowEv>
    8e70:	aa0003f6 	mov	x22, x0
    8e74:	f94002a8 	ldr	x8, [x21]
    8e78:	3707fe48 	tbnz	w8, #0, 8e40 <_ZN11vector_tile12Tile_Feature12InternalSwapEPS0_+0xe0>
    8e7c:	aa1503e0 	mov	x0, x21
    8e80:	94000b3e 	bl	bb78 <_ZN6google8protobuf8internal29InternalMetadataWithArenaBaseINSt7__cxx1112basic_stringIcSt11char_traitsIcESaIcEEENS1_29InternalMetadataWithArenaLiteEE27mutable_unknown_fields_slowEv>
    8e84:	17fffff0 	b	8e44 <_ZN11vector_tile12Tile_Feature12InternalSwapEPS0_+0xe4>

0000000000008e88 <_ZNK11vector_tile12Tile_Feature11GetTypeNameB5cxx11Ev>:
    8e88:	a9be7bfd 	stp	x29, x30, [sp, #-32]!
    8e8c:	f9000bf3 	str	x19, [sp, #16]
    8e90:	910003fd 	mov	x29, sp
    8e94:	aa0803f3 	mov	x19, x8
    8e98:	97ffef0e 	bl	4ad0 <_mcount@plt>
    8e9c:	91004268 	add	x8, x19, #0x10
    8ea0:	52800309 	mov	w9, #0x18                  	// #24
    8ea4:	910063a1 	add	x1, x29, #0x18
    8ea8:	aa1303e0 	mov	x0, x19
    8eac:	aa1f03e2 	mov	x2, xzr
    8eb0:	f9000268 	str	x8, [x19]
    8eb4:	f9000fa9 	str	x9, [x29, #24]
    8eb8:	97fff016 	bl	4f10 <_ZNSt7__cxx1112basic_stringIcSt11char_traitsIcESaIcEE9_M_createERmm@plt>
    8ebc:	d0000109 	adrp	x9, 2a000 <_ZN6google8protobuf18StringPrintfVectorEPKcRKSt6vectorINSt7__cxx1112basic_stringIcSt11char_traitsIcESaIcEEESaIS9_EE+0x2ec>
    8ec0:	9123c129 	add	x9, x9, #0x8f0
    8ec4:	f9400fa8 	ldr	x8, [x29, #24]
    8ec8:	f9000260 	str	x0, [x19]
    8ecc:	f940092a 	ldr	x10, [x9, #16]
    8ed0:	3dc00120 	ldr	q0, [x9]
    8ed4:	f9000a68 	str	x8, [x19, #16]
    8ed8:	f900080a 	str	x10, [x0, #16]
    8edc:	3d800000 	str	q0, [x0]
    8ee0:	f9400269 	ldr	x9, [x19]
    8ee4:	f9000668 	str	x8, [x19, #8]
    8ee8:	3828693f 	strb	wzr, [x9, x8]
    8eec:	f9400bf3 	ldr	x19, [sp, #16]
    8ef0:	a8c27bfd 	ldp	x29, x30, [sp], #32
    8ef4:	d65f03c0 	ret

0000000000008ef8 <_ZN11vector_tile10Tile_LayerC1Ev>:
    8ef8:	d10183ff 	sub	sp, sp, #0x60
    8efc:	a9027bfd 	stp	x29, x30, [sp, #32]
    8f00:	a9035ff8 	stp	x24, x23, [sp, #48]
    8f04:	a90457f6 	stp	x22, x21, [sp, #64]
    8f08:	a9054ff4 	stp	x20, x19, [sp, #80]
    8f0c:	910083fd 	add	x29, sp, #0x20
    8f10:	aa0003f4 	mov	x20, x0
    8f14:	97ffeeef 	bl	4ad0 <_mcount@plt>
    8f18:	91002293 	add	x19, x20, #0x8
    8f1c:	d00001e8 	adrp	x8, 46000 <GCC_except_table137+0x10ca0>
    8f20:	910d8108 	add	x8, x8, #0x360
    8f24:	aa1303e0 	mov	x0, x19
    8f28:	f9000288 	str	x8, [x20]
    8f2c:	94002109 	bl	11350 <_ZN6google8protobuf8internal12ExtensionSetC1Ev>
    8f30:	6f00e400 	movi	v0.2d, #0x0
    8f34:	aa1403f5 	mov	x21, x20
    8f38:	aa1403f6 	mov	x22, x20
    8f3c:	f00001e8 	adrp	x8, 47000 <_Znam@GLIBCXX_3.4>
    8f40:	91102108 	add	x8, x8, #0x408
    8f44:	b9004a9f 	str	wzr, [x20, #72]
    8f48:	eb08029f 	cmp	x20, x8
    8f4c:	f9004a9f 	str	xzr, [x20, #144]
    8f50:	f8040ebf 	str	xzr, [x21, #64]!
    8f54:	3c850ec0 	str	q0, [x22, #80]!
    8f58:	ad030280 	stp	q0, q0, [x20, #96]
    8f5c:	3d802280 	str	q0, [x20, #128]
    8f60:	54000260 	b.eq	8fac <_ZN11vector_tile10Tile_LayerC1Ev+0xb4>  // b.none
    8f64:	f00001e8 	adrp	x8, 47000 <_Znam@GLIBCXX_3.4>
    8f68:	91146108 	add	x8, x8, #0x518
    8f6c:	c8dffd08 	ldar	x8, [x8]
    8f70:	f100091f 	cmp	x8, #0x2
    8f74:	540001c0 	b.eq	8fac <_ZN11vector_tile10Tile_LayerC1Ev+0xb4>  // b.none
    8f78:	d00001e8 	adrp	x8, 46000 <GCC_except_table137+0x10ca0>
    8f7c:	d0ffffe9 	adrp	x9, 6000 <main+0xa2c>
    8f80:	91206129 	add	x9, x9, #0x818
    8f84:	f9471108 	ldr	x8, [x8, #3616]
    8f88:	390063ff 	strb	wzr, [sp, #24]
    8f8c:	91004108 	add	x8, x8, #0x10
    8f90:	a900a7e8 	stp	x8, x9, [sp, #8]
    8f94:	f00001e0 	adrp	x0, 47000 <_Znam@GLIBCXX_3.4>
    8f98:	91146000 	add	x0, x0, #0x518
    8f9c:	910023e1 	add	x1, sp, #0x8
    8fa0:	94001968 	bl	f540 <_ZN6google8protobuf18GoogleOnceInitImplEPlPNS0_7ClosureE>
    8fa4:	910023e0 	add	x0, sp, #0x8
    8fa8:	9400111b 	bl	d414 <_ZN6google8protobuf8internal16FunctionClosure0D1Ev>
    8fac:	d0000108 	adrp	x8, 2a000 <_ZN6google8protobuf18StringPrintfVectorEPKcRKSt6vectorINSt7__cxx1112basic_stringIcSt11char_traitsIcESaIcEEESaIS9_EE+0x2ec>
    8fb0:	d00001e9 	adrp	x9, 46000 <GCC_except_table137+0x10ca0>
    8fb4:	f946a129 	ldr	x9, [x9, #3392]
    8fb8:	b9004e9f 	str	wzr, [x20, #76]
    8fbc:	fd43e100 	ldr	d0, [x8, #1984]
    8fc0:	f9004e89 	str	x9, [x20, #152]
    8fc4:	fd005280 	str	d0, [x20, #160]
    8fc8:	a9454ff4 	ldp	x20, x19, [sp, #80]
    8fcc:	a94457f6 	ldp	x22, x21, [sp, #64]
    8fd0:	a9435ff8 	ldp	x24, x23, [sp, #48]
    8fd4:	a9427bfd 	ldp	x29, x30, [sp, #32]
    8fd8:	910183ff 	add	sp, sp, #0x60
    8fdc:	d65f03c0 	ret
    8fe0:	aa0003f7 	mov	x23, x0
    8fe4:	910023e0 	add	x0, sp, #0x8
    8fe8:	91020298 	add	x24, x20, #0x80
    8fec:	9101a294 	add	x20, x20, #0x68
    8ff0:	94001109 	bl	d414 <_ZN6google8protobuf8internal16FunctionClosure0D1Ev>
    8ff4:	aa1803e0 	mov	x0, x24
    8ff8:	9400098f 	bl	b634 <_ZN6google8protobuf16RepeatedPtrFieldIN11vector_tile10Tile_ValueEED2Ev>
    8ffc:	aa1403e0 	mov	x0, x20
    9000:	940009ac 	bl	b6b0 <_ZN6google8protobuf16RepeatedPtrFieldINSt7__cxx1112basic_stringIcSt11char_traitsIcESaIcEEEED2Ev>
    9004:	aa1603e0 	mov	x0, x22
    9008:	940009cd 	bl	b73c <_ZN6google8protobuf16RepeatedPtrFieldIN11vector_tile12Tile_FeatureEED2Ev>
    900c:	aa1503e0 	mov	x0, x21
    9010:	940008b0 	bl	b2d0 <_ZN6google8protobuf8internal29InternalMetadataWithArenaBaseINSt7__cxx1112basic_stringIcSt11char_traitsIcESaIcEEENS1_29InternalMetadataWithArenaLiteEED2Ev>
    9014:	aa1303e0 	mov	x0, x19
    9018:	940035b2 	bl	166e0 <_ZN6google8protobuf8internal12ExtensionSetD1Ev>
    901c:	aa1703e0 	mov	x0, x23
    9020:	97ffefb8 	bl	4f00 <_Unwind_Resume@plt>

0000000000009024 <_ZN11vector_tile10Tile_Layer10SharedCtorEv>:
    9024:	a9be7bfd 	stp	x29, x30, [sp, #-32]!
    9028:	f9000bf3 	str	x19, [sp, #16]
    902c:	910003fd 	mov	x29, sp
    9030:	aa0003f3 	mov	x19, x0
    9034:	97ffeea7 	bl	4ad0 <_mcount@plt>
    9038:	b0000108 	adrp	x8, 2a000 <_ZN6google8protobuf18StringPrintfVectorEPKcRKSt6vectorINSt7__cxx1112basic_stringIcSt11char_traitsIcESaIcEEESaIS9_EE+0x2ec>
    903c:	b00001e9 	adrp	x9, 46000 <GCC_except_table137+0x10ca0>
    9040:	f946a129 	ldr	x9, [x9, #3392]
    9044:	b9004e7f 	str	wzr, [x19, #76]
    9048:	fd43e100 	ldr	d0, [x8, #1984]
    904c:	f9004e69 	str	x9, [x19, #152]
    9050:	fd005260 	str	d0, [x19, #160]
    9054:	f9400bf3 	ldr	x19, [sp, #16]
    9058:	a8c27bfd 	ldp	x29, x30, [sp], #32
    905c:	d65f03c0 	ret

0000000000009060 <_ZN11vector_tile10Tile_LayerC1ERKS0_>:
    9060:	a9ba7bfd 	stp	x29, x30, [sp, #-96]!
    9064:	f9000bfb 	str	x27, [sp, #16]
    9068:	a90267fa 	stp	x26, x25, [sp, #32]
    906c:	a9035ff8 	stp	x24, x23, [sp, #48]
    9070:	a90457f6 	stp	x22, x21, [sp, #64]
    9074:	a9054ff4 	stp	x20, x19, [sp, #80]
    9078:	910003fd 	mov	x29, sp
    907c:	aa0103f7 	mov	x23, x1
    9080:	aa0003f6 	mov	x22, x0
    9084:	97ffee93 	bl	4ad0 <_mcount@plt>
    9088:	aa1603f3 	mov	x19, x22
    908c:	b00001e8 	adrp	x8, 46000 <GCC_except_table137+0x10ca0>
    9090:	910d8108 	add	x8, x8, #0x360
    9094:	f8008668 	str	x8, [x19], #8
    9098:	aa1303e0 	mov	x0, x19
    909c:	940020ad 	bl	11350 <_ZN6google8protobuf8internal12ExtensionSetC1Ev>
    90a0:	aa1603f4 	mov	x20, x22
    90a4:	f8040e9f 	str	xzr, [x20, #64]!
    90a8:	b9404ae8 	ldr	w8, [x23, #72]
    90ac:	f800c29f 	stur	xzr, [x20, #12]
    90b0:	f801c29f 	stur	xzr, [x20, #28]
    90b4:	91004295 	add	x21, x20, #0x10
    90b8:	f801429f 	stur	xzr, [x20, #20]
    90bc:	b9000a88 	str	w8, [x20, #8]
    90c0:	b900269f 	str	wzr, [x20, #36]
    90c4:	b9405af8 	ldr	w24, [x23, #88]
    90c8:	340002d8 	cbz	w24, 9120 <_ZN11vector_tile10Tile_LayerC1ERKS0_+0xc0>
    90cc:	f94032f9 	ldr	x25, [x23, #96]
    90d0:	aa1503e0 	mov	x0, x21
    90d4:	2a1803e1 	mov	w1, w24
    90d8:	94006a6e 	bl	23a90 <_ZN6google8protobuf8internal20RepeatedPtrFieldBase14InternalExtendEi>
    90dc:	aa0003e1 	mov	x1, x0
    90e0:	f94032c8 	ldr	x8, [x22, #96]
    90e4:	91002322 	add	x2, x25, #0x8
    90e8:	b9405ac9 	ldr	w9, [x22, #88]
    90ec:	b9400108 	ldr	w8, [x8]
    90f0:	4b090104 	sub	w4, w8, w9
    90f4:	aa1503e0 	mov	x0, x21
    90f8:	2a1803e3 	mov	w3, w24
    90fc:	94000c40 	bl	c1fc <_ZN6google8protobuf8internal20RepeatedPtrFieldBase18MergeFromInnerLoopINS0_16RepeatedPtrFieldIN11vector_tile12Tile_FeatureEE11TypeHandlerEEEvPPvSA_ii>
    9100:	f94032c8 	ldr	x8, [x22, #96]
    9104:	b9405ac9 	ldr	w9, [x22, #88]
    9108:	b940010a 	ldr	w10, [x8]
    910c:	0b180129 	add	w9, w9, w24
    9110:	6b09015f 	cmp	w10, w9
    9114:	b9005ac9 	str	w9, [x22, #88]
    9118:	5400004a 	b.ge	9120 <_ZN11vector_tile10Tile_LayerC1ERKS0_+0xc0>  // b.tcont
    911c:	b9000109 	str	w9, [x8]
    9120:	aa1603f8 	mov	x24, x22
    9124:	f8068f1f 	str	xzr, [x24, #104]!
    9128:	a900ff1f 	stp	xzr, xzr, [x24, #8]
    912c:	b94072f9 	ldr	w25, [x23, #112]
    9130:	340002d9 	cbz	w25, 9188 <_ZN11vector_tile10Tile_LayerC1ERKS0_+0x128>
    9134:	f9403efa 	ldr	x26, [x23, #120]
    9138:	aa1803e0 	mov	x0, x24
    913c:	2a1903e1 	mov	w1, w25
    9140:	94006a54 	bl	23a90 <_ZN6google8protobuf8internal20RepeatedPtrFieldBase14InternalExtendEi>
    9144:	aa0003e1 	mov	x1, x0
    9148:	f9403ec8 	ldr	x8, [x22, #120]
    914c:	91002342 	add	x2, x26, #0x8
    9150:	b94072c9 	ldr	w9, [x22, #112]
    9154:	b9400108 	ldr	w8, [x8]
    9158:	4b090104 	sub	w4, w8, w9
    915c:	aa1803e0 	mov	x0, x24
    9160:	2a1903e3 	mov	w3, w25
    9164:	94000c8a 	bl	c38c <_ZN6google8protobuf8internal20RepeatedPtrFieldBase18MergeFromInnerLoopINS0_16RepeatedPtrFieldINSt7__cxx1112basic_stringIcSt11char_traitsIcESaIcEEEE11TypeHandlerEEEvPPvSE_ii>
    9168:	f9403ec8 	ldr	x8, [x22, #120]
    916c:	b94072c9 	ldr	w9, [x22, #112]
    9170:	b940010a 	ldr	w10, [x8]
    9174:	0b190129 	add	w9, w9, w25
    9178:	6b09015f 	cmp	w10, w9
    917c:	b90072c9 	str	w9, [x22, #112]
    9180:	5400004a 	b.ge	9188 <_ZN11vector_tile10Tile_LayerC1ERKS0_+0x128>  // b.tcont
    9184:	b9000109 	str	w9, [x8]
    9188:	aa1603f9 	mov	x25, x22
    918c:	f8080f3f 	str	xzr, [x25, #128]!
    9190:	a900ff3f 	stp	xzr, xzr, [x25, #8]
    9194:	b9408afa 	ldr	w26, [x23, #136]
    9198:	340002da 	cbz	w26, 91f0 <_ZN11vector_tile10Tile_LayerC1ERKS0_+0x190>
    919c:	f9404afb 	ldr	x27, [x23, #144]
    91a0:	aa1903e0 	mov	x0, x25
    91a4:	2a1a03e1 	mov	w1, w26
    91a8:	94006a3a 	bl	23a90 <_ZN6google8protobuf8internal20RepeatedPtrFieldBase14InternalExtendEi>
    91ac:	aa0003e1 	mov	x1, x0
    91b0:	f9404ac8 	ldr	x8, [x22, #144]
    91b4:	91002362 	add	x2, x27, #0x8
    91b8:	b9408ac9 	ldr	w9, [x22, #136]
    91bc:	b9400108 	ldr	w8, [x8]
    91c0:	4b090104 	sub	w4, w8, w9
    91c4:	aa1903e0 	mov	x0, x25
    91c8:	2a1a03e3 	mov	w3, w26
    91cc:	94000cc5 	bl	c4e0 <_ZN6google8protobuf8internal20RepeatedPtrFieldBase18MergeFromInnerLoopINS0_16RepeatedPtrFieldIN11vector_tile10Tile_ValueEE11TypeHandlerEEEvPPvSA_ii>
    91d0:	f9404ac8 	ldr	x8, [x22, #144]
    91d4:	b9408ac9 	ldr	w9, [x22, #136]
    91d8:	b940010a 	ldr	w10, [x8]
    91dc:	0b1a0129 	add	w9, w9, w26
    91e0:	6b09015f 	cmp	w10, w9
    91e4:	b9008ac9 	str	w9, [x22, #136]
    91e8:	5400004a 	b.ge	91f0 <_ZN11vector_tile10Tile_LayerC1ERKS0_+0x190>  // b.tcont
    91ec:	b9000109 	str	w9, [x8]
    91f0:	f94022fa 	ldr	x26, [x23, #64]
    91f4:	360000fa 	tbz	w26, #0, 9210 <_ZN11vector_tile10Tile_LayerC1ERKS0_+0x1b0>
    91f8:	f9400288 	ldr	x8, [x20]
    91fc:	36000368 	tbz	w8, #0, 9268 <_ZN11vector_tile10Tile_LayerC1ERKS0_+0x208>
    9200:	927ff900 	and	x0, x8, #0xfffffffffffffffe
    9204:	927ffb48 	and	x8, x26, #0xfffffffffffffffe
    9208:	a9400901 	ldp	x1, x2, [x8]
    920c:	97ffee21 	bl	4a90 <_ZNSt7__cxx1112basic_stringIcSt11char_traitsIcESaIcEE9_M_appendEPKcm@plt>
    9210:	910022e1 	add	x1, x23, #0x8
    9214:	aa1303e0 	mov	x0, x19
    9218:	94003fd6 	bl	19170 <_ZN6google8protobuf8internal12ExtensionSet9MergeFromERKS2_>
    921c:	b00001e8 	adrp	x8, 46000 <GCC_except_table137+0x10ca0>
    9220:	aa1603e0 	mov	x0, x22
    9224:	f946a108 	ldr	x8, [x8, #3392]
    9228:	f8098c08 	str	x8, [x0, #152]!
    922c:	394122e9 	ldrb	w9, [x23, #72]
    9230:	360000a9 	tbz	w9, #0, 9244 <_ZN11vector_tile10Tile_LayerC1ERKS0_+0x1e4>
    9234:	f9404ee1 	ldr	x1, [x23, #152]
    9238:	eb08003f 	cmp	x1, x8
    923c:	54000040 	b.eq	9244 <_ZN11vector_tile10Tile_LayerC1ERKS0_+0x1e4>  // b.none
    9240:	94000a1e 	bl	bab8 <_ZN6google8protobuf8internal14ArenaStringPtr21CreateInstanceNoArenaEPKNSt7__cxx1112basic_stringIcSt11char_traitsIcESaIcEEE>
    9244:	f94052e8 	ldr	x8, [x23, #160]
    9248:	f90052c8 	str	x8, [x22, #160]
    924c:	a9454ff4 	ldp	x20, x19, [sp, #80]
    9250:	a94457f6 	ldp	x22, x21, [sp, #64]
    9254:	a9435ff8 	ldp	x24, x23, [sp, #48]
    9258:	a94267fa 	ldp	x26, x25, [sp, #32]
    925c:	f9400bfb 	ldr	x27, [sp, #16]
    9260:	a8c67bfd 	ldp	x29, x30, [sp], #96
    9264:	d65f03c0 	ret
    9268:	aa1403e0 	mov	x0, x20
    926c:	94000a43 	bl	bb78 <_ZN6google8protobuf8internal29InternalMetadataWithArenaBaseINSt7__cxx1112basic_stringIcSt11char_traitsIcESaIcEEENS1_29InternalMetadataWithArenaLiteEE27mutable_unknown_fields_slowEv>
    9270:	17ffffe5 	b	9204 <_ZN11vector_tile10Tile_LayerC1ERKS0_+0x1a4>
    9274:	aa0003f6 	mov	x22, x0
    9278:	14000008 	b	9298 <_ZN11vector_tile10Tile_LayerC1ERKS0_+0x238>
    927c:	aa0003f6 	mov	x22, x0
    9280:	14000008 	b	92a0 <_ZN11vector_tile10Tile_LayerC1ERKS0_+0x240>
    9284:	aa0003f6 	mov	x22, x0
    9288:	14000008 	b	92a8 <_ZN11vector_tile10Tile_LayerC1ERKS0_+0x248>
    928c:	aa0003f6 	mov	x22, x0
    9290:	aa1903e0 	mov	x0, x25
    9294:	940008e8 	bl	b634 <_ZN6google8protobuf16RepeatedPtrFieldIN11vector_tile10Tile_ValueEED2Ev>
    9298:	aa1803e0 	mov	x0, x24
    929c:	94000905 	bl	b6b0 <_ZN6google8protobuf16RepeatedPtrFieldINSt7__cxx1112basic_stringIcSt11char_traitsIcESaIcEEEED2Ev>
    92a0:	aa1503e0 	mov	x0, x21
    92a4:	94000926 	bl	b73c <_ZN6google8protobuf16RepeatedPtrFieldIN11vector_tile12Tile_FeatureEED2Ev>
    92a8:	aa1403e0 	mov	x0, x20
    92ac:	94000809 	bl	b2d0 <_ZN6google8protobuf8internal29InternalMetadataWithArenaBaseINSt7__cxx1112basic_stringIcSt11char_traitsIcESaIcEEENS1_29InternalMetadataWithArenaLiteEED2Ev>
    92b0:	aa1303e0 	mov	x0, x19
    92b4:	9400350b 	bl	166e0 <_ZN6google8protobuf8internal12ExtensionSetD1Ev>
    92b8:	aa1603e0 	mov	x0, x22
    92bc:	97ffef11 	bl	4f00 <_Unwind_Resume@plt>

00000000000092c0 <_ZN11vector_tile10Tile_LayerD1Ev>:
    92c0:	a9bd7bfd 	stp	x29, x30, [sp, #-48]!
    92c4:	a90157f6 	stp	x22, x21, [sp, #16]
    92c8:	a9024ff4 	stp	x20, x19, [sp, #32]
    92cc:	910003fd 	mov	x29, sp
    92d0:	aa0003f3 	mov	x19, x0
    92d4:	97ffedff 	bl	4ad0 <_mcount@plt>
    92d8:	b00001e8 	adrp	x8, 46000 <GCC_except_table137+0x10ca0>
    92dc:	f9404e74 	ldr	x20, [x19, #152]
    92e0:	b00001e9 	adrp	x9, 46000 <GCC_except_table137+0x10ca0>
    92e4:	910d8129 	add	x9, x9, #0x360
    92e8:	f946a108 	ldr	x8, [x8, #3392]
    92ec:	f9000269 	str	x9, [x19]
    92f0:	eb08029f 	cmp	x20, x8
    92f4:	54000120 	b.eq	9318 <_ZN11vector_tile10Tile_LayerD1Ev+0x58>  // b.none
    92f8:	b4000114 	cbz	x20, 9318 <_ZN11vector_tile10Tile_LayerD1Ev+0x58>
    92fc:	aa1403e8 	mov	x8, x20
    9300:	f8410500 	ldr	x0, [x8], #16
    9304:	eb08001f 	cmp	x0, x8
    9308:	54000040 	b.eq	9310 <_ZN11vector_tile10Tile_LayerD1Ev+0x50>  // b.none
    930c:	97ffee7d 	bl	4d00 <_ZdlPv@plt>
    9310:	aa1403e0 	mov	x0, x20
    9314:	97ffee7b 	bl	4d00 <_ZdlPv@plt>
    9318:	f9404a60 	ldr	x0, [x19, #144]
    931c:	b4000260 	cbz	x0, 9368 <_ZN11vector_tile10Tile_LayerD1Ev+0xa8>
    9320:	f9404268 	ldr	x8, [x19, #128]
    9324:	b5000228 	cbnz	x8, 9368 <_ZN11vector_tile10Tile_LayerD1Ev+0xa8>
    9328:	aa0003f4 	mov	x20, x0
    932c:	b8408695 	ldr	w21, [x20], #8
    9330:	710006bf 	cmp	w21, #0x1
    9334:	540000aa 	b.ge	9348 <_ZN11vector_tile10Tile_LayerD1Ev+0x88>  // b.tcont
    9338:	1400000b 	b	9364 <_ZN11vector_tile10Tile_LayerD1Ev+0xa4>
    933c:	f10006b5 	subs	x21, x21, #0x1
    9340:	91002294 	add	x20, x20, #0x8
    9344:	540000e0 	b.eq	9360 <_ZN11vector_tile10Tile_LayerD1Ev+0xa0>  // b.none
    9348:	f9400280 	ldr	x0, [x20]
    934c:	b4ffff80 	cbz	x0, 933c <_ZN11vector_tile10Tile_LayerD1Ev+0x7c>
    9350:	f9400008 	ldr	x8, [x0]
    9354:	f9400508 	ldr	x8, [x8, #8]
    9358:	d63f0100 	blr	x8
    935c:	17fffff8 	b	933c <_ZN11vector_tile10Tile_LayerD1Ev+0x7c>
    9360:	f9404a60 	ldr	x0, [x19, #144]
    9364:	97ffee67 	bl	4d00 <_ZdlPv@plt>
    9368:	f9403e60 	ldr	x0, [x19, #120]
    936c:	f9004a7f 	str	xzr, [x19, #144]
    9370:	b40002e0 	cbz	x0, 93cc <_ZN11vector_tile10Tile_LayerD1Ev+0x10c>
    9374:	f9403668 	ldr	x8, [x19, #104]
    9378:	b50002a8 	cbnz	x8, 93cc <_ZN11vector_tile10Tile_LayerD1Ev+0x10c>
    937c:	aa0003f5 	mov	x21, x0
    9380:	b84086b6 	ldr	w22, [x21], #8
