
vtile-decode:     file format elf64-littleaarch64


Disassembly of section .init:

00000000000044b8 <_init>:
    44b8:	d503201f 	nop
    44bc:	a9bf7bfd 	stp	x29, x30, [sp, #-16]!
    44c0:	910003fd 	mov	x29, sp
    44c4:	9400024c 	bl	4df4 <call_weak_fn>
    44c8:	a8c17bfd 	ldp	x29, x30, [sp], #16
    44cc:	d65f03c0 	ret

Disassembly of section .plt:

00000000000044d0 <.plt>:
    44d0:	a9bf7bf0 	stp	x16, x30, [sp, #-16]!
    44d4:	f0000130 	adrp	x16, 2b000 <GCC_except_table25+0xfe4c>
    44d8:	f947fe11 	ldr	x17, [x16, #4088]
    44dc:	913fe210 	add	x16, x16, #0xff8
    44e0:	d61f0220 	br	x17
    44e4:	d503201f 	nop
    44e8:	d503201f 	nop
    44ec:	d503201f 	nop

00000000000044f0 <_Znam@plt>:
    44f0:	90000150 	adrp	x16, 2c000 <_Znam@GLIBCXX_3.4>
    44f4:	f9400211 	ldr	x17, [x16]
    44f8:	91000210 	add	x16, x16, #0x0
    44fc:	d61f0220 	br	x17

0000000000004500 <memcpy@plt>:
    4500:	90000150 	adrp	x16, 2c000 <_Znam@GLIBCXX_3.4>
    4504:	f9400611 	ldr	x17, [x16, #8]
    4508:	91002210 	add	x16, x16, #0x8
    450c:	d61f0220 	br	x17

0000000000004510 <deflateInit2_@plt>:
    4510:	90000150 	adrp	x16, 2c000 <_Znam@GLIBCXX_3.4>
    4514:	f9400a11 	ldr	x17, [x16, #16]
    4518:	91004210 	add	x16, x16, #0x10
    451c:	d61f0220 	br	x17

0000000000004520 <_ZN6mapnik5imageINS_9gray32f_tEEC1EOS2_@plt>:
    4520:	90000150 	adrp	x16, 2c000 <_Znam@GLIBCXX_3.4>
    4524:	f9400e11 	ldr	x17, [x16, #24]
    4528:	91006210 	add	x16, x16, #0x18
    452c:	d61f0220 	br	x17

0000000000004530 <_ZNK6mapnik5box2dIdE6heightEv@plt>:
    4530:	90000150 	adrp	x16, 2c000 <_Znam@GLIBCXX_3.4>
    4534:	f9401211 	ldr	x17, [x16, #32]
    4538:	91008210 	add	x16, x16, #0x20
    453c:	d61f0220 	br	x17

0000000000004540 <fread@plt>:
    4540:	90000150 	adrp	x16, 2c000 <_Znam@GLIBCXX_3.4>
    4544:	f9401611 	ldr	x17, [x16, #40]
    4548:	9100a210 	add	x16, x16, #0x28
    454c:	d61f0220 	br	x17

0000000000004550 <_ZN6mapnik5imageINS_7gray8_tEEC1EOS2_@plt>:
    4550:	90000150 	adrp	x16, 2c000 <_Znam@GLIBCXX_3.4>
    4554:	f9401a11 	ldr	x17, [x16, #48]
    4558:	9100c210 	add	x16, x16, #0x30
    455c:	d61f0220 	br	x17

0000000000004560 <_ZSt29_Rb_tree_insert_and_rebalancebPSt18_Rb_tree_node_baseS0_RS_@plt>:
    4560:	90000150 	adrp	x16, 2c000 <_Znam@GLIBCXX_3.4>
    4564:	f9401e11 	ldr	x17, [x16, #56]
    4568:	9100e210 	add	x16, x16, #0x38
    456c:	d61f0220 	br	x17

0000000000004570 <_ZN6mapnik5box2dIdE17expand_to_includeEdd@plt>:
    4570:	90000150 	adrp	x16, 2c000 <_Znam@GLIBCXX_3.4>
    4574:	f9402211 	ldr	x17, [x16, #64]
    4578:	91010210 	add	x16, x16, #0x40
    457c:	d61f0220 	br	x17

0000000000004580 <_ZN6mapnik5box2dIdEC1ERKS1_@plt>:
    4580:	90000150 	adrp	x16, 2c000 <_Znam@GLIBCXX_3.4>
    4584:	f9402611 	ldr	x17, [x16, #72]
    4588:	91012210 	add	x16, x16, #0x48
    458c:	d61f0220 	br	x17

0000000000004590 <_ZNSt7__cxx1119basic_ostringstreamIcSt11char_traitsIcESaIcEED1Ev@plt>:
    4590:	90000150 	adrp	x16, 2c000 <_Znam@GLIBCXX_3.4>
    4594:	f9402a11 	ldr	x17, [x16, #80]
    4598:	91014210 	add	x16, x16, #0x50
    459c:	d61f0220 	br	x17

00000000000045a0 <_ZSt9terminatev@plt>:
    45a0:	90000150 	adrp	x16, 2c000 <_Znam@GLIBCXX_3.4>
    45a4:	f9402e11 	ldr	x17, [x16, #88]
    45a8:	91016210 	add	x16, x16, #0x58
    45ac:	d61f0220 	br	x17

00000000000045b0 <_ZN6icu_5813UnicodeStringC1ERKS0_@plt>:
    45b0:	90000150 	adrp	x16, 2c000 <_Znam@GLIBCXX_3.4>
    45b4:	f9403211 	ldr	x17, [x16, #96]
    45b8:	91018210 	add	x16, x16, #0x60
    45bc:	d61f0220 	br	x17

00000000000045c0 <_ZN6mapnik5imageINS_7rgba8_tEEC1EOS2_@plt>:
    45c0:	90000150 	adrp	x16, 2c000 <_Znam@GLIBCXX_3.4>
    45c4:	f9403611 	ldr	x17, [x16, #104]
    45c8:	9101a210 	add	x16, x16, #0x68
    45cc:	d61f0220 	br	x17

00000000000045d0 <_ZN6mapnik5imageINS_9gray64s_tEEC1EOS2_@plt>:
    45d0:	90000150 	adrp	x16, 2c000 <_Znam@GLIBCXX_3.4>
    45d4:	f9403a11 	ldr	x17, [x16, #112]
    45d8:	9101c210 	add	x16, x16, #0x70
    45dc:	d61f0220 	br	x17

00000000000045e0 <_ZNK6mapnik5box2dIdE4maxyEv@plt>:
    45e0:	90000150 	adrp	x16, 2c000 <_Znam@GLIBCXX_3.4>
    45e4:	f9403e11 	ldr	x17, [x16, #120]
    45e8:	9101e210 	add	x16, x16, #0x78
    45ec:	d61f0220 	br	x17

00000000000045f0 <_ZNSt7__cxx1112basic_stringIcSt11char_traitsIcESaIcEE6resizeEmc@plt>:
    45f0:	90000150 	adrp	x16, 2c000 <_Znam@GLIBCXX_3.4>
    45f4:	f9404211 	ldr	x17, [x16, #128]
    45f8:	91020210 	add	x16, x16, #0x80
    45fc:	d61f0220 	br	x17

0000000000004600 <strlen@plt>:
    4600:	90000150 	adrp	x16, 2c000 <_Znam@GLIBCXX_3.4>
    4604:	f9404611 	ldr	x17, [x16, #136]
    4608:	91022210 	add	x16, x16, #0x88
    460c:	d61f0220 	br	x17

0000000000004610 <_ZNSt7__cxx1112basic_stringIcSt11char_traitsIcESaIcEE9_M_appendEPKcm@plt>:
    4610:	90000150 	adrp	x16, 2c000 <_Znam@GLIBCXX_3.4>
    4614:	f9404a11 	ldr	x17, [x16, #144]
    4618:	91024210 	add	x16, x16, #0x90
    461c:	d61f0220 	br	x17

0000000000004620 <_ZNSt8ios_baseD2Ev@plt>:
    4620:	90000150 	adrp	x16, 2c000 <_Znam@GLIBCXX_3.4>
    4624:	f9404e11 	ldr	x17, [x16, #152]
    4628:	91026210 	add	x16, x16, #0x98
    462c:	d61f0220 	br	x17

0000000000004630 <ftell@plt>:
    4630:	90000150 	adrp	x16, 2c000 <_Znam@GLIBCXX_3.4>
    4634:	f9405211 	ldr	x17, [x16, #160]
    4638:	91028210 	add	x16, x16, #0xa0
    463c:	d61f0220 	br	x17

0000000000004640 <_ZNSt13runtime_errorC1EPKc@plt>:
    4640:	90000150 	adrp	x16, 2c000 <_Znam@GLIBCXX_3.4>
    4644:	f9405611 	ldr	x17, [x16, #168]
    4648:	9102a210 	add	x16, x16, #0xa8
    464c:	d61f0220 	br	x17

0000000000004650 <_ZNSt7__cxx1112basic_stringIcSt11char_traitsIcESaIcEEC2EPKcRKS3_@plt>:
    4650:	90000150 	adrp	x16, 2c000 <_Znam@GLIBCXX_3.4>
    4654:	f9405a11 	ldr	x17, [x16, #176]
    4658:	9102c210 	add	x16, x16, #0xb0
    465c:	d61f0220 	br	x17

0000000000004660 <__cxa_begin_catch@plt>:
    4660:	90000150 	adrp	x16, 2c000 <_Znam@GLIBCXX_3.4>
    4664:	f9405e11 	ldr	x17, [x16, #184]
    4668:	9102e210 	add	x16, x16, #0xb8
    466c:	d61f0220 	br	x17

0000000000004670 <_ZN6mapnik5imageINS_9gray32s_tEEC1EOS2_@plt>:
    4670:	90000150 	adrp	x16, 2c000 <_Znam@GLIBCXX_3.4>
    4674:	f9406211 	ldr	x17, [x16, #192]
    4678:	91030210 	add	x16, x16, #0xc0
    467c:	d61f0220 	br	x17

0000000000004680 <deflate@plt>:
    4680:	90000150 	adrp	x16, 2c000 <_Znam@GLIBCXX_3.4>
    4684:	f9406611 	ldr	x17, [x16, #200]
    4688:	91032210 	add	x16, x16, #0xc8
    468c:	d61f0220 	br	x17

0000000000004690 <fclose@plt>:
    4690:	90000150 	adrp	x16, 2c000 <_Znam@GLIBCXX_3.4>
    4694:	f9406a11 	ldr	x17, [x16, #208]
    4698:	91034210 	add	x16, x16, #0xd0
    469c:	d61f0220 	br	x17

00000000000046a0 <__cxa_allocate_exception@plt>:
    46a0:	90000150 	adrp	x16, 2c000 <_Znam@GLIBCXX_3.4>
    46a4:	f9406e11 	ldr	x17, [x16, #216]
    46a8:	91036210 	add	x16, x16, #0xd8
    46ac:	d61f0220 	br	x17

00000000000046b0 <memcmp@plt>:
    46b0:	90000150 	adrp	x16, 2c000 <_Znam@GLIBCXX_3.4>
    46b4:	f9407211 	ldr	x17, [x16, #224]
    46b8:	91038210 	add	x16, x16, #0xe0
    46bc:	d61f0220 	br	x17

00000000000046c0 <strtol@plt>:
    46c0:	90000150 	adrp	x16, 2c000 <_Znam@GLIBCXX_3.4>
    46c4:	f9407611 	ldr	x17, [x16, #232]
    46c8:	9103a210 	add	x16, x16, #0xe8
    46cc:	d61f0220 	br	x17

00000000000046d0 <_ZNK6mapnik5box2dIdE10intersectsEdd@plt>:
    46d0:	90000150 	adrp	x16, 2c000 <_Znam@GLIBCXX_3.4>
    46d4:	f9407a11 	ldr	x17, [x16, #240]
    46d8:	9103c210 	add	x16, x16, #0xf0
    46dc:	d61f0220 	br	x17

00000000000046e0 <_ZSt20__throw_length_errorPKc@plt>:
    46e0:	90000150 	adrp	x16, 2c000 <_Znam@GLIBCXX_3.4>
    46e4:	f9407e11 	ldr	x17, [x16, #248]
    46e8:	9103e210 	add	x16, x16, #0xf8
    46ec:	d61f0220 	br	x17

00000000000046f0 <_ZNSt7__cxx1112basic_stringIcSt11char_traitsIcESaIcEE9_M_assignERKS4_@plt>:
    46f0:	90000150 	adrp	x16, 2c000 <_Znam@GLIBCXX_3.4>
    46f4:	f9408211 	ldr	x17, [x16, #256]
    46f8:	91040210 	add	x16, x16, #0x100
    46fc:	d61f0220 	br	x17

0000000000004700 <memset@plt>:
    4700:	90000150 	adrp	x16, 2c000 <_Znam@GLIBCXX_3.4>
    4704:	f9408611 	ldr	x17, [x16, #264]
    4708:	91042210 	add	x16, x16, #0x108
    470c:	d61f0220 	br	x17

0000000000004710 <__cxa_finalize@plt>:
    4710:	90000150 	adrp	x16, 2c000 <_Znam@GLIBCXX_3.4>
    4714:	f9408a11 	ldr	x17, [x16, #272]
    4718:	91044210 	add	x16, x16, #0x110
    471c:	d61f0220 	br	x17

0000000000004720 <deflateEnd@plt>:
    4720:	90000150 	adrp	x16, 2c000 <_Znam@GLIBCXX_3.4>
    4724:	f9408e11 	ldr	x17, [x16, #280]
    4728:	91046210 	add	x16, x16, #0x118
    472c:	d61f0220 	br	x17

0000000000004730 <_ZSt24__throw_invalid_argumentPKc@plt>:
    4730:	90000150 	adrp	x16, 2c000 <_Znam@GLIBCXX_3.4>
    4734:	f9409211 	ldr	x17, [x16, #288]
    4738:	91048210 	add	x16, x16, #0x120
    473c:	d61f0220 	br	x17

0000000000004740 <_ZNK6mapnik10transcoder9transcodeEPKci@plt>:
    4740:	90000150 	adrp	x16, 2c000 <_Znam@GLIBCXX_3.4>
    4744:	f9409611 	ldr	x17, [x16, #296]
    4748:	9104a210 	add	x16, x16, #0x128
    474c:	d61f0220 	br	x17

0000000000004750 <_ZNK6mapnik5box2dIdE4minyEv@plt>:
    4750:	90000150 	adrp	x16, 2c000 <_Znam@GLIBCXX_3.4>
    4754:	f9409a11 	ldr	x17, [x16, #304]
    4758:	9104c210 	add	x16, x16, #0x130
    475c:	d61f0220 	br	x17

0000000000004760 <_ZNSo9_M_insertImEERSoT_@plt>:
    4760:	90000150 	adrp	x16, 2c000 <_Znam@GLIBCXX_3.4>
    4764:	f9409e11 	ldr	x17, [x16, #312]
    4768:	9104e210 	add	x16, x16, #0x138
    476c:	d61f0220 	br	x17

0000000000004770 <_ZSt18_Rb_tree_incrementPSt18_Rb_tree_node_base@plt>:
    4770:	90000150 	adrp	x16, 2c000 <_Znam@GLIBCXX_3.4>
    4774:	f940a211 	ldr	x17, [x16, #320]
    4778:	91050210 	add	x16, x16, #0x140
    477c:	d61f0220 	br	x17

0000000000004780 <_ZSt19__throw_logic_errorPKc@plt>:
    4780:	90000150 	adrp	x16, 2c000 <_Znam@GLIBCXX_3.4>
    4784:	f940a611 	ldr	x17, [x16, #328]
    4788:	91052210 	add	x16, x16, #0x148
    478c:	d61f0220 	br	x17

0000000000004790 <__cxa_free_exception@plt>:
    4790:	90000150 	adrp	x16, 2c000 <_Znam@GLIBCXX_3.4>
    4794:	f940aa11 	ldr	x17, [x16, #336]
    4798:	91054210 	add	x16, x16, #0x150
    479c:	d61f0220 	br	x17

00000000000047a0 <__libc_start_main@plt>:
    47a0:	90000150 	adrp	x16, 2c000 <_Znam@GLIBCXX_3.4>
    47a4:	f940ae11 	ldr	x17, [x16, #344]
    47a8:	91056210 	add	x16, x16, #0x158
    47ac:	d61f0220 	br	x17

00000000000047b0 <gettimeofday@plt>:
    47b0:	90000150 	adrp	x16, 2c000 <_Znam@GLIBCXX_3.4>
    47b4:	f940b211 	ldr	x17, [x16, #352]
    47b8:	91058210 	add	x16, x16, #0x160
    47bc:	d61f0220 	br	x17

00000000000047c0 <_ZSt28__throw_bad_array_new_lengthv@plt>:
    47c0:	90000150 	adrp	x16, 2c000 <_Znam@GLIBCXX_3.4>
    47c4:	f940b611 	ldr	x17, [x16, #360]
    47c8:	9105a210 	add	x16, x16, #0x168
    47cc:	d61f0220 	br	x17

00000000000047d0 <_ZN6mapnik6detail6bufferD1Ev@plt>:
    47d0:	90000150 	adrp	x16, 2c000 <_Znam@GLIBCXX_3.4>
    47d4:	f940ba11 	ldr	x17, [x16, #368]
    47d8:	9105c210 	add	x16, x16, #0x170
    47dc:	d61f0220 	br	x17

00000000000047e0 <inflate@plt>:
    47e0:	90000150 	adrp	x16, 2c000 <_Znam@GLIBCXX_3.4>
    47e4:	f940be11 	ldr	x17, [x16, #376]
    47e8:	9105e210 	add	x16, x16, #0x178
    47ec:	d61f0220 	br	x17

00000000000047f0 <_ZNK6mapnik5box2dIdE10intersectsERKS1_@plt>:
    47f0:	90000150 	adrp	x16, 2c000 <_Znam@GLIBCXX_3.4>
    47f4:	f940c211 	ldr	x17, [x16, #384]
    47f8:	91060210 	add	x16, x16, #0x180
    47fc:	d61f0220 	br	x17

0000000000004800 <_ZNSo5tellpEv@plt>:
    4800:	90000150 	adrp	x16, 2c000 <_Znam@GLIBCXX_3.4>
    4804:	f940c611 	ldr	x17, [x16, #392]
    4808:	91062210 	add	x16, x16, #0x188
    480c:	d61f0220 	br	x17

0000000000004810 <inflateInit2_@plt>:
    4810:	90000150 	adrp	x16, 2c000 <_Znam@GLIBCXX_3.4>
    4814:	f940ca11 	ldr	x17, [x16, #400]
    4818:	91064210 	add	x16, x16, #0x190
    481c:	d61f0220 	br	x17

0000000000004820 <_ZdlPv@plt>:
    4820:	90000150 	adrp	x16, 2c000 <_Znam@GLIBCXX_3.4>
    4824:	f940ce11 	ldr	x17, [x16, #408]
    4828:	91066210 	add	x16, x16, #0x198
    482c:	d61f0220 	br	x17

0000000000004830 <_ZN6mapnik10transcoderD1Ev@plt>:
    4830:	90000150 	adrp	x16, 2c000 <_Znam@GLIBCXX_3.4>
    4834:	f940d211 	ldr	x17, [x16, #416]
    4838:	91068210 	add	x16, x16, #0x1a0
    483c:	d61f0220 	br	x17

0000000000004840 <clock@plt>:
    4840:	90000150 	adrp	x16, 2c000 <_Znam@GLIBCXX_3.4>
    4844:	f940d611 	ldr	x17, [x16, #424]
    4848:	9106a210 	add	x16, x16, #0x1a8
    484c:	d61f0220 	br	x17

0000000000004850 <_ZStlsISt11char_traitsIcEERSt13basic_ostreamIcT_ES5_PKc@plt>:
    4850:	90000150 	adrp	x16, 2c000 <_Znam@GLIBCXX_3.4>
    4854:	f940da11 	ldr	x17, [x16, #432]
    4858:	9106c210 	add	x16, x16, #0x1b0
    485c:	d61f0220 	br	x17

0000000000004860 <_Znwm@plt>:
    4860:	90000150 	adrp	x16, 2c000 <_Znam@GLIBCXX_3.4>
    4864:	f940de11 	ldr	x17, [x16, #440]
    4868:	9106e210 	add	x16, x16, #0x1b8
    486c:	d61f0220 	br	x17

0000000000004870 <_ZNK6mapnik5box2dIdE4minxEv@plt>:
    4870:	90000150 	adrp	x16, 2c000 <_Znam@GLIBCXX_3.4>
    4874:	f940e211 	ldr	x17, [x16, #448]
    4878:	91070210 	add	x16, x16, #0x1c0
    487c:	d61f0220 	br	x17

0000000000004880 <_ZNK6mapnik5box2dIdE5widthEv@plt>:
    4880:	90000150 	adrp	x16, 2c000 <_Znam@GLIBCXX_3.4>
    4884:	f940e611 	ldr	x17, [x16, #456]
    4888:	91072210 	add	x16, x16, #0x1c8
    488c:	d61f0220 	br	x17

0000000000004890 <_ZN6mapnik5imageINS_8gray32_tEEC1EOS2_@plt>:
    4890:	90000150 	adrp	x16, 2c000 <_Znam@GLIBCXX_3.4>
    4894:	f940ea11 	ldr	x17, [x16, #464]
    4898:	91074210 	add	x16, x16, #0x1d0
    489c:	d61f0220 	br	x17

00000000000048a0 <_ZSt18_Rb_tree_decrementPSt18_Rb_tree_node_base@plt>:
    48a0:	90000150 	adrp	x16, 2c000 <_Znam@GLIBCXX_3.4>
    48a4:	f940ee11 	ldr	x17, [x16, #472]
    48a8:	91076210 	add	x16, x16, #0x1d8
    48ac:	d61f0220 	br	x17

00000000000048b0 <inflateEnd@plt>:
    48b0:	90000150 	adrp	x16, 2c000 <_Znam@GLIBCXX_3.4>
    48b4:	f940f211 	ldr	x17, [x16, #480]
    48b8:	91078210 	add	x16, x16, #0x1e0
    48bc:	d61f0220 	br	x17

00000000000048c0 <_ZN6mapnik5imageINS_9gray64f_tEEC1EOS2_@plt>:
    48c0:	90000150 	adrp	x16, 2c000 <_Znam@GLIBCXX_3.4>
    48c4:	f940f611 	ldr	x17, [x16, #488]
    48c8:	9107a210 	add	x16, x16, #0x1e8
    48cc:	d61f0220 	br	x17

00000000000048d0 <_ZN6mapnik5box2dIdEC1Edddd@plt>:
    48d0:	90000150 	adrp	x16, 2c000 <_Znam@GLIBCXX_3.4>
    48d4:	f940fa11 	ldr	x17, [x16, #496]
    48d8:	9107c210 	add	x16, x16, #0x1f0
    48dc:	d61f0220 	br	x17

00000000000048e0 <__cxa_atexit@plt>:
    48e0:	90000150 	adrp	x16, 2c000 <_Znam@GLIBCXX_3.4>
    48e4:	f940fe11 	ldr	x17, [x16, #504]
    48e8:	9107e210 	add	x16, x16, #0x1f8
    48ec:	d61f0220 	br	x17

00000000000048f0 <_ZSt16__ostream_insertIcSt11char_traitsIcEERSt13basic_ostreamIT_T0_ES6_PKS3_l@plt>:
    48f0:	90000150 	adrp	x16, 2c000 <_Znam@GLIBCXX_3.4>
    48f4:	f9410211 	ldr	x17, [x16, #512]
    48f8:	91080210 	add	x16, x16, #0x200
    48fc:	d61f0220 	br	x17

0000000000004900 <_ZSt18_Rb_tree_incrementPKSt18_Rb_tree_node_base@plt>:
    4900:	90000150 	adrp	x16, 2c000 <_Znam@GLIBCXX_3.4>
    4904:	f9410611 	ldr	x17, [x16, #520]
    4908:	91082210 	add	x16, x16, #0x208
    490c:	d61f0220 	br	x17

0000000000004910 <_ZNSt7__cxx1112basic_stringIcSt11char_traitsIcESaIcEE12_M_constructEmc@plt>:
    4910:	90000150 	adrp	x16, 2c000 <_Znam@GLIBCXX_3.4>
    4914:	f9410a11 	ldr	x17, [x16, #528]
    4918:	91084210 	add	x16, x16, #0x210
    491c:	d61f0220 	br	x17

0000000000004920 <_ZN6icu_5813UnicodeStringC1EOS0_@plt>:
    4920:	90000150 	adrp	x16, 2c000 <_Znam@GLIBCXX_3.4>
    4924:	f9410e11 	ldr	x17, [x16, #536]
    4928:	91086210 	add	x16, x16, #0x218
    492c:	d61f0220 	br	x17

0000000000004930 <memmove@plt>:
    4930:	90000150 	adrp	x16, 2c000 <_Znam@GLIBCXX_3.4>
    4934:	f9411211 	ldr	x17, [x16, #544]
    4938:	91088210 	add	x16, x16, #0x220
    493c:	d61f0220 	br	x17

0000000000004940 <_ZdaPv@plt>:
    4940:	90000150 	adrp	x16, 2c000 <_Znam@GLIBCXX_3.4>
    4944:	f9411611 	ldr	x17, [x16, #552]
    4948:	9108a210 	add	x16, x16, #0x228
    494c:	d61f0220 	br	x17

0000000000004950 <_ZN6mapnik16get_image_readerEPKcm@plt>:
    4950:	90000150 	adrp	x16, 2c000 <_Znam@GLIBCXX_3.4>
    4954:	f9411a11 	ldr	x17, [x16, #560]
    4958:	9108c210 	add	x16, x16, #0x230
    495c:	d61f0220 	br	x17

0000000000004960 <__errno_location@plt>:
    4960:	90000150 	adrp	x16, 2c000 <_Znam@GLIBCXX_3.4>
    4964:	f9411e11 	ldr	x17, [x16, #568]
    4968:	9108e210 	add	x16, x16, #0x238
    496c:	d61f0220 	br	x17

0000000000004970 <_ZNK6mapnik5box2dIdE9intersectERKS1_@plt>:
    4970:	90000150 	adrp	x16, 2c000 <_Znam@GLIBCXX_3.4>
    4974:	f9412211 	ldr	x17, [x16, #576]
    4978:	91090210 	add	x16, x16, #0x240
    497c:	d61f0220 	br	x17

0000000000004980 <_ZN6mapnik5box2dIdE4initEdddd@plt>:
    4980:	90000150 	adrp	x16, 2c000 <_Znam@GLIBCXX_3.4>
    4984:	f9412611 	ldr	x17, [x16, #584]
    4988:	91092210 	add	x16, x16, #0x248
    498c:	d61f0220 	br	x17

0000000000004990 <_ZN6mapnik5imageINS_8gray64_tEEC1EOS2_@plt>:
    4990:	90000150 	adrp	x16, 2c000 <_Znam@GLIBCXX_3.4>
    4994:	f9412a11 	ldr	x17, [x16, #592]
    4998:	91094210 	add	x16, x16, #0x250
    499c:	d61f0220 	br	x17

00000000000049a0 <_ZNSt7__cxx1119basic_ostringstreamIcSt11char_traitsIcESaIcEEC1Ev@plt>:
    49a0:	90000150 	adrp	x16, 2c000 <_Znam@GLIBCXX_3.4>
    49a4:	f9412e11 	ldr	x17, [x16, #600]
    49a8:	91096210 	add	x16, x16, #0x258
    49ac:	d61f0220 	br	x17

00000000000049b0 <_ZN6mapnik5imageINS_8gray8s_tEEC1EOS2_@plt>:
    49b0:	90000150 	adrp	x16, 2c000 <_Znam@GLIBCXX_3.4>
    49b4:	f9413211 	ldr	x17, [x16, #608]
    49b8:	91098210 	add	x16, x16, #0x260
    49bc:	d61f0220 	br	x17

00000000000049c0 <_ZNSt6localeD1Ev@plt>:
    49c0:	90000150 	adrp	x16, 2c000 <_Znam@GLIBCXX_3.4>
    49c4:	f9413611 	ldr	x17, [x16, #616]
    49c8:	9109a210 	add	x16, x16, #0x268
    49cc:	d61f0220 	br	x17

00000000000049d0 <fopen@plt>:
    49d0:	90000150 	adrp	x16, 2c000 <_Znam@GLIBCXX_3.4>
    49d4:	f9413a11 	ldr	x17, [x16, #624]
    49d8:	9109c210 	add	x16, x16, #0x270
    49dc:	d61f0220 	br	x17

00000000000049e0 <__getauxval@plt>:
    49e0:	90000150 	adrp	x16, 2c000 <_Znam@GLIBCXX_3.4>
    49e4:	f9413e11 	ldr	x17, [x16, #632]
    49e8:	9109e210 	add	x16, x16, #0x278
    49ec:	d61f0220 	br	x17

00000000000049f0 <_ZN6mapnik10transcoderC1ERKNSt7__cxx1112basic_stringIcSt11char_traitsIcESaIcEEE@plt>:
    49f0:	90000150 	adrp	x16, 2c000 <_Znam@GLIBCXX_3.4>
    49f4:	f9414211 	ldr	x17, [x16, #640]
    49f8:	910a0210 	add	x16, x16, #0x280
    49fc:	d61f0220 	br	x17

0000000000004a00 <_ZSt20__throw_out_of_rangePKc@plt>:
    4a00:	90000150 	adrp	x16, 2c000 <_Znam@GLIBCXX_3.4>
    4a04:	f9414611 	ldr	x17, [x16, #648]
    4a08:	910a2210 	add	x16, x16, #0x288
    4a0c:	d61f0220 	br	x17

0000000000004a10 <strcmp@plt>:
    4a10:	90000150 	adrp	x16, 2c000 <_Znam@GLIBCXX_3.4>
    4a14:	f9414a11 	ldr	x17, [x16, #656]
    4a18:	910a4210 	add	x16, x16, #0x290
    4a1c:	d61f0220 	br	x17

0000000000004a20 <__cxa_rethrow@plt>:
    4a20:	90000150 	adrp	x16, 2c000 <_Znam@GLIBCXX_3.4>
    4a24:	f9414e11 	ldr	x17, [x16, #664]
    4a28:	910a6210 	add	x16, x16, #0x298
    4a2c:	d61f0220 	br	x17

0000000000004a30 <_ZN6mapnik5imageINS_9gray16s_tEEC1EOS2_@plt>:
    4a30:	90000150 	adrp	x16, 2c000 <_Znam@GLIBCXX_3.4>
    4a34:	f9415211 	ldr	x17, [x16, #672]
    4a38:	910a8210 	add	x16, x16, #0x2a0
    4a3c:	d61f0220 	br	x17

0000000000004a40 <_ZSt24__throw_out_of_range_fmtPKcz@plt>:
    4a40:	90000150 	adrp	x16, 2c000 <_Znam@GLIBCXX_3.4>
    4a44:	f9415611 	ldr	x17, [x16, #680]
    4a48:	910aa210 	add	x16, x16, #0x2a8
    4a4c:	d61f0220 	br	x17

0000000000004a50 <_ZNSt12out_of_rangeC1ERKNSt7__cxx1112basic_stringIcSt11char_traitsIcESaIcEEE@plt>:
    4a50:	90000150 	adrp	x16, 2c000 <_Znam@GLIBCXX_3.4>
    4a54:	f9415a11 	ldr	x17, [x16, #688]
    4a58:	910ac210 	add	x16, x16, #0x2b0
    4a5c:	d61f0220 	br	x17

0000000000004a60 <_ZNSt8ios_base4InitC1Ev@plt>:
    4a60:	90000150 	adrp	x16, 2c000 <_Znam@GLIBCXX_3.4>
    4a64:	f9415e11 	ldr	x17, [x16, #696]
    4a68:	910ae210 	add	x16, x16, #0x2b8
    4a6c:	d61f0220 	br	x17

0000000000004a70 <_ZNSt7__cxx1112basic_stringIcSt11char_traitsIcESaIcEE10_M_replaceEmmPKcm@plt>:
    4a70:	90000150 	adrp	x16, 2c000 <_Znam@GLIBCXX_3.4>
    4a74:	f9416211 	ldr	x17, [x16, #704]
    4a78:	910b0210 	add	x16, x16, #0x2c0
    4a7c:	d61f0220 	br	x17

0000000000004a80 <_ZNSt7__cxx1112basic_stringIcSt11char_traitsIcESaIcEE7reserveEm@plt>:
    4a80:	90000150 	adrp	x16, 2c000 <_Znam@GLIBCXX_3.4>
    4a84:	f9416611 	ldr	x17, [x16, #712]
    4a88:	910b2210 	add	x16, x16, #0x2c8
    4a8c:	d61f0220 	br	x17

0000000000004a90 <abort@plt>:
    4a90:	90000150 	adrp	x16, 2c000 <_Znam@GLIBCXX_3.4>
    4a94:	f9416a11 	ldr	x17, [x16, #720]
    4a98:	910b4210 	add	x16, x16, #0x2d0
    4a9c:	d61f0220 	br	x17

0000000000004aa0 <_ZNSo9_M_insertIdEERSoT_@plt>:
    4aa0:	90000150 	adrp	x16, 2c000 <_Znam@GLIBCXX_3.4>
    4aa4:	f9416e11 	ldr	x17, [x16, #728]
    4aa8:	910b6210 	add	x16, x16, #0x2d8
    4aac:	d61f0220 	br	x17

0000000000004ab0 <_ZNSt13runtime_errorC1ERKNSt7__cxx1112basic_stringIcSt11char_traitsIcESaIcEEE@plt>:
    4ab0:	90000150 	adrp	x16, 2c000 <_Znam@GLIBCXX_3.4>
    4ab4:	f9417211 	ldr	x17, [x16, #736]
    4ab8:	910b8210 	add	x16, x16, #0x2e0
    4abc:	d61f0220 	br	x17

0000000000004ac0 <__cxa_end_catch@plt>:
    4ac0:	90000150 	adrp	x16, 2c000 <_Znam@GLIBCXX_3.4>
    4ac4:	f9417611 	ldr	x17, [x16, #744]
    4ac8:	910ba210 	add	x16, x16, #0x2e8
    4acc:	d61f0220 	br	x17

0000000000004ad0 <__gxx_personality_v0@plt>:
    4ad0:	90000150 	adrp	x16, 2c000 <_Znam@GLIBCXX_3.4>
    4ad4:	f9417a11 	ldr	x17, [x16, #752]
    4ad8:	910bc210 	add	x16, x16, #0x2f0
    4adc:	d61f0220 	br	x17

0000000000004ae0 <_ZN6mapnik5box2dIdEaSES1_@plt>:
    4ae0:	90000150 	adrp	x16, 2c000 <_Znam@GLIBCXX_3.4>
    4ae4:	f9417e11 	ldr	x17, [x16, #760]
    4ae8:	910be210 	add	x16, x16, #0x2f8
    4aec:	d61f0220 	br	x17

0000000000004af0 <_ZN6mapnik5box2dIdEC1ERKNS_5coordIdLi2EEES5_@plt>:
    4af0:	90000150 	adrp	x16, 2c000 <_Znam@GLIBCXX_3.4>
    4af4:	f9418211 	ldr	x17, [x16, #768]
    4af8:	910c0210 	add	x16, x16, #0x300
    4afc:	d61f0220 	br	x17

0000000000004b00 <_ZN6icu_5813UnicodeStringD1Ev@plt>:
    4b00:	90000150 	adrp	x16, 2c000 <_Znam@GLIBCXX_3.4>
    4b04:	f9418611 	ldr	x17, [x16, #776]
    4b08:	910c2210 	add	x16, x16, #0x308
    4b0c:	d61f0220 	br	x17

0000000000004b10 <__cxa_throw@plt>:
    4b10:	90000150 	adrp	x16, 2c000 <_Znam@GLIBCXX_3.4>
    4b14:	f9418a11 	ldr	x17, [x16, #784]
    4b18:	910c4210 	add	x16, x16, #0x310
    4b1c:	d61f0220 	br	x17

0000000000004b20 <_ZNSolsEi@plt>:
    4b20:	90000150 	adrp	x16, 2c000 <_Znam@GLIBCXX_3.4>
    4b24:	f9418e11 	ldr	x17, [x16, #792]
    4b28:	910c6210 	add	x16, x16, #0x318
    4b2c:	d61f0220 	br	x17

0000000000004b30 <_ZNK6mapnik5box2dIdE4maxxEv@plt>:
    4b30:	90000150 	adrp	x16, 2c000 <_Znam@GLIBCXX_3.4>
    4b34:	f9419211 	ldr	x17, [x16, #800]
    4b38:	910c8210 	add	x16, x16, #0x320
    4b3c:	d61f0220 	br	x17

0000000000004b40 <_ZN6mapnik5box2dIdEC1Ev@plt>:
    4b40:	90000150 	adrp	x16, 2c000 <_Znam@GLIBCXX_3.4>
    4b44:	f9419611 	ldr	x17, [x16, #808]
    4b48:	910ca210 	add	x16, x16, #0x328
    4b4c:	d61f0220 	br	x17

0000000000004b50 <_Unwind_Resume@plt>:
    4b50:	90000150 	adrp	x16, 2c000 <_Znam@GLIBCXX_3.4>
    4b54:	f9419a11 	ldr	x17, [x16, #816]
    4b58:	910cc210 	add	x16, x16, #0x330
    4b5c:	d61f0220 	br	x17

0000000000004b60 <_ZNSt7__cxx1112basic_stringIcSt11char_traitsIcESaIcEE9_M_createERmm@plt>:
    4b60:	90000150 	adrp	x16, 2c000 <_Znam@GLIBCXX_3.4>
    4b64:	f9419e11 	ldr	x17, [x16, #824]
    4b68:	910ce210 	add	x16, x16, #0x338
    4b6c:	d61f0220 	br	x17

0000000000004b70 <_ZNSt9exceptionD2Ev@plt>:
    4b70:	90000150 	adrp	x16, 2c000 <_Znam@GLIBCXX_3.4>
    4b74:	f941a211 	ldr	x17, [x16, #832]
    4b78:	910d0210 	add	x16, x16, #0x340
    4b7c:	d61f0220 	br	x17

0000000000004b80 <__gmon_start__@plt>:
    4b80:	90000150 	adrp	x16, 2c000 <_Znam@GLIBCXX_3.4>
    4b84:	f941a611 	ldr	x17, [x16, #840]
    4b88:	910d2210 	add	x16, x16, #0x348
    4b8c:	d61f0220 	br	x17

0000000000004b90 <__cxa_pure_virtual@plt>:
    4b90:	90000150 	adrp	x16, 2c000 <_Znam@GLIBCXX_3.4>
    4b94:	f941aa11 	ldr	x17, [x16, #848]
    4b98:	910d4210 	add	x16, x16, #0x350
    4b9c:	d61f0220 	br	x17

0000000000004ba0 <_ZN6mapnik5imageINS_8gray16_tEEC1EOS2_@plt>:
    4ba0:	90000150 	adrp	x16, 2c000 <_Znam@GLIBCXX_3.4>
    4ba4:	f941ae11 	ldr	x17, [x16, #856]
    4ba8:	910d6210 	add	x16, x16, #0x358
    4bac:	d61f0220 	br	x17

0000000000004bb0 <bcmp@plt>:
    4bb0:	90000150 	adrp	x16, 2c000 <_Znam@GLIBCXX_3.4>
    4bb4:	f941b211 	ldr	x17, [x16, #864]
    4bb8:	910d8210 	add	x16, x16, #0x360
    4bbc:	d61f0220 	br	x17

0000000000004bc0 <fseek@plt>:
    4bc0:	90000150 	adrp	x16, 2c000 <_Znam@GLIBCXX_3.4>
    4bc4:	f941b611 	ldr	x17, [x16, #872]
    4bc8:	910da210 	add	x16, x16, #0x368
    4bcc:	d61f0220 	br	x17

0000000000004bd0 <_ZN6mapnik5box2dIdE3padEd@plt>:
    4bd0:	90000150 	adrp	x16, 2c000 <_Znam@GLIBCXX_3.4>
    4bd4:	f941ba11 	ldr	x17, [x16, #880]
    4bd8:	910dc210 	add	x16, x16, #0x370
    4bdc:	d61f0220 	br	x17

Disassembly of section .text:

0000000000004c00 <_GLOBAL__sub_I_vtile_decode.cpp>:
    4c00:	a9be7bfd 	stp	x29, x30, [sp, #-32]!
    4c04:	a9014ff4 	stp	x20, x19, [sp, #16]
    4c08:	910003fd 	mov	x29, sp
    4c0c:	90000153 	adrp	x19, 2c000 <_Znam@GLIBCXX_3.4>
    4c10:	910eaa73 	add	x19, x19, #0x3aa
    4c14:	aa1303e0 	mov	x0, x19
    4c18:	97ffff92 	bl	4a60 <_ZNSt8ios_base4InitC1Ev@plt>
    4c1c:	f0000120 	adrp	x0, 2b000 <GCC_except_table25+0xfe4c>
    4c20:	90000154 	adrp	x20, 2c000 <_Znam@GLIBCXX_3.4>
    4c24:	910e0294 	add	x20, x20, #0x380
    4c28:	aa1303e1 	mov	x1, x19
    4c2c:	aa1403e2 	mov	x2, x20
    4c30:	f947f000 	ldr	x0, [x0, #4064]
    4c34:	97ffff2b 	bl	48e0 <__cxa_atexit@plt>
    4c38:	6f00e400 	movi	v0.2d, #0x0
    4c3c:	52800088 	mov	w8, #0x4                   	// #4
    4c40:	d0000000 	adrp	x0, 6000 <main+0x112c>
    4c44:	9110b000 	add	x0, x0, #0x42c
    4c48:	aa1403e2 	mov	x2, x20
    4c4c:	3c806e60 	str	q0, [x19, #6]!
    4c50:	ad008260 	stp	q0, q0, [x19, #16]
    4c54:	aa1303e1 	mov	x1, x19
    4c58:	3d800e60 	str	q0, [x19, #48]
    4c5c:	f900227f 	str	xzr, [x19, #64]
    4c60:	b9000268 	str	w8, [x19]
    4c64:	a9414ff4 	ldp	x20, x19, [sp, #16]
    4c68:	a8c27bfd 	ldp	x29, x30, [sp], #32
    4c6c:	17ffff1d 	b	48e0 <__cxa_atexit@plt>

0000000000004c70 <_GLOBAL__sub_I_vector_tile_datasource_pbf.cpp>:
    4c70:	a9be7bfd 	stp	x29, x30, [sp, #-32]!
    4c74:	a9014ff4 	stp	x20, x19, [sp, #16]
    4c78:	910003fd 	mov	x29, sp
    4c7c:	90000153 	adrp	x19, 2c000 <_Znam@GLIBCXX_3.4>
    4c80:	910fea73 	add	x19, x19, #0x3fa
    4c84:	aa1303e0 	mov	x0, x19
    4c88:	97ffff76 	bl	4a60 <_ZNSt8ios_base4InitC1Ev@plt>
    4c8c:	f0000120 	adrp	x0, 2b000 <GCC_except_table25+0xfe4c>
    4c90:	90000154 	adrp	x20, 2c000 <_Znam@GLIBCXX_3.4>
    4c94:	910e0294 	add	x20, x20, #0x380
    4c98:	aa1303e1 	mov	x1, x19
    4c9c:	aa1403e2 	mov	x2, x20
    4ca0:	f947f000 	ldr	x0, [x0, #4064]
    4ca4:	97ffff0f 	bl	48e0 <__cxa_atexit@plt>
    4ca8:	6f00e400 	movi	v0.2d, #0x0
    4cac:	52800088 	mov	w8, #0x4                   	// #4
    4cb0:	d0000000 	adrp	x0, 6000 <main+0x112c>
    4cb4:	9110b000 	add	x0, x0, #0x42c
    4cb8:	aa1403e2 	mov	x2, x20
    4cbc:	3c806e60 	str	q0, [x19, #6]!
    4cc0:	ad008260 	stp	q0, q0, [x19, #16]
    4cc4:	aa1303e1 	mov	x1, x19
    4cc8:	3d800e60 	str	q0, [x19, #48]
    4ccc:	f900227f 	str	xzr, [x19, #64]
    4cd0:	b9000268 	str	w8, [x19]
    4cd4:	a9414ff4 	ldp	x20, x19, [sp, #16]
    4cd8:	a8c27bfd 	ldp	x29, x30, [sp], #32
    4cdc:	17ffff01 	b	48e0 <__cxa_atexit@plt>

0000000000004ce0 <_GLOBAL__sub_I_vector_tile_featureset_pbf.cpp>:
    4ce0:	a9be7bfd 	stp	x29, x30, [sp, #-32]!
    4ce4:	a9014ff4 	stp	x20, x19, [sp, #16]
    4ce8:	910003fd 	mov	x29, sp
    4cec:	90000153 	adrp	x19, 2c000 <_Znam@GLIBCXX_3.4>
    4cf0:	91112273 	add	x19, x19, #0x448
    4cf4:	aa1303e0 	mov	x0, x19
    4cf8:	97ffff5a 	bl	4a60 <_ZNSt8ios_base4InitC1Ev@plt>
    4cfc:	f0000120 	adrp	x0, 2b000 <GCC_except_table25+0xfe4c>
    4d00:	90000154 	adrp	x20, 2c000 <_Znam@GLIBCXX_3.4>
    4d04:	910e0294 	add	x20, x20, #0x380
    4d08:	aa1303e1 	mov	x1, x19
    4d0c:	aa1403e2 	mov	x2, x20
    4d10:	f947f000 	ldr	x0, [x0, #4064]
    4d14:	97fffef3 	bl	48e0 <__cxa_atexit@plt>
    4d18:	6f00e400 	movi	v0.2d, #0x0
    4d1c:	52800088 	mov	w8, #0x4                   	// #4
    4d20:	d0000000 	adrp	x0, 6000 <main+0x112c>
    4d24:	9110b000 	add	x0, x0, #0x42c
    4d28:	aa1403e2 	mov	x2, x20
    4d2c:	3c808e60 	str	q0, [x19, #8]!
    4d30:	aa1303e1 	mov	x1, x19
    4d34:	ad008260 	stp	q0, q0, [x19, #16]
    4d38:	3d800e60 	str	q0, [x19, #48]
    4d3c:	f900227f 	str	xzr, [x19, #64]
    4d40:	b9000268 	str	w8, [x19]
    4d44:	97fffee7 	bl	48e0 <__cxa_atexit@plt>
    4d48:	a9414ff4 	ldp	x20, x19, [sp, #16]
    4d4c:	a8c27bfd 	ldp	x29, x30, [sp], #32
    4d50:	d65f03c0 	ret
    4d54:	d503201f 	nop
    4d58:	d503201f 	nop
    4d5c:	d503201f 	nop

0000000000004d60 <init_have_lse_atomics>:
    4d60:	a9bf7bfd 	stp	x29, x30, [sp, #-16]!
    4d64:	d2800200 	mov	x0, #0x10                  	// #16
    4d68:	910003fd 	mov	x29, sp
    4d6c:	97ffff1d 	bl	49e0 <__getauxval@plt>
    4d70:	53082000 	ubfx	w0, w0, #8, #1
    4d74:	90000141 	adrp	x1, 2c000 <_Znam@GLIBCXX_3.4>
    4d78:	a8c17bfd 	ldp	x29, x30, [sp], #16
    4d7c:	39126020 	strb	w0, [x1, #1176]
    4d80:	d65f03c0 	ret
    4d84:	d503201f 	nop
    4d88:	d503201f 	nop
    4d8c:	d503201f 	nop
    4d90:	d503201f 	nop
    4d94:	d503201f 	nop
    4d98:	d503201f 	nop
    4d9c:	d503201f 	nop
    4da0:	d503201f 	nop
    4da4:	d503201f 	nop
    4da8:	d503201f 	nop
    4dac:	d503201f 	nop
    4db0:	d503201f 	nop
    4db4:	d503201f 	nop
    4db8:	d503201f 	nop
    4dbc:	d503201f 	nop

0000000000004dc0 <_start>:
    4dc0:	d503201f 	nop
    4dc4:	d280001d 	mov	x29, #0x0                   	// #0
    4dc8:	d280001e 	mov	x30, #0x0                   	// #0
    4dcc:	aa0003e5 	mov	x5, x0
    4dd0:	f94003e1 	ldr	x1, [sp]
    4dd4:	910023e2 	add	x2, sp, #0x8
    4dd8:	910003e6 	mov	x6, sp
    4ddc:	f0000120 	adrp	x0, 2b000 <GCC_except_table25+0xfe4c>
    4de0:	f947a000 	ldr	x0, [x0, #3904]
    4de4:	d2800003 	mov	x3, #0x0                   	// #0
    4de8:	d2800004 	mov	x4, #0x0                   	// #0
    4dec:	97fffe6d 	bl	47a0 <__libc_start_main@plt>
    4df0:	97ffff28 	bl	4a90 <abort@plt>

0000000000004df4 <call_weak_fn>:
    4df4:	f0000120 	adrp	x0, 2b000 <GCC_except_table25+0xfe4c>
    4df8:	f947e000 	ldr	x0, [x0, #4032]
    4dfc:	b4000040 	cbz	x0, 4e04 <call_weak_fn+0x10>
    4e00:	17ffff60 	b	4b80 <__gmon_start__@plt>
    4e04:	d65f03c0 	ret
    4e08:	d503201f 	nop
    4e0c:	d503201f 	nop

0000000000004e10 <deregister_tm_clones>:
    4e10:	90000140 	adrp	x0, 2c000 <_Znam@GLIBCXX_3.4>
    4e14:	910e8000 	add	x0, x0, #0x3a0
    4e18:	90000141 	adrp	x1, 2c000 <_Znam@GLIBCXX_3.4>
    4e1c:	910e8021 	add	x1, x1, #0x3a0
    4e20:	eb00003f 	cmp	x1, x0
    4e24:	540000c0 	b.eq	4e3c <deregister_tm_clones+0x2c>  // b.none
    4e28:	f0000121 	adrp	x1, 2b000 <GCC_except_table25+0xfe4c>
    4e2c:	f947d821 	ldr	x1, [x1, #4016]
    4e30:	b4000061 	cbz	x1, 4e3c <deregister_tm_clones+0x2c>
    4e34:	aa0103f0 	mov	x16, x1
    4e38:	d61f0200 	br	x16
    4e3c:	d65f03c0 	ret

0000000000004e40 <register_tm_clones>:
    4e40:	90000140 	adrp	x0, 2c000 <_Znam@GLIBCXX_3.4>
    4e44:	910e8000 	add	x0, x0, #0x3a0
    4e48:	90000141 	adrp	x1, 2c000 <_Znam@GLIBCXX_3.4>
    4e4c:	910e8021 	add	x1, x1, #0x3a0
    4e50:	cb000021 	sub	x1, x1, x0
    4e54:	d37ffc22 	lsr	x2, x1, #63
    4e58:	8b810c41 	add	x1, x2, x1, asr #3
    4e5c:	9341fc21 	asr	x1, x1, #1
    4e60:	b40000c1 	cbz	x1, 4e78 <register_tm_clones+0x38>
    4e64:	f0000122 	adrp	x2, 2b000 <GCC_except_table25+0xfe4c>
    4e68:	f947e442 	ldr	x2, [x2, #4040]
    4e6c:	b4000062 	cbz	x2, 4e78 <register_tm_clones+0x38>
    4e70:	aa0203f0 	mov	x16, x2
    4e74:	d61f0200 	br	x16
    4e78:	d65f03c0 	ret
    4e7c:	d503201f 	nop

0000000000004e80 <__do_global_dtors_aux>:
    4e80:	a9be7bfd 	stp	x29, x30, [sp, #-32]!
    4e84:	910003fd 	mov	x29, sp
    4e88:	f9000bf3 	str	x19, [sp, #16]
    4e8c:	90000153 	adrp	x19, 2c000 <_Znam@GLIBCXX_3.4>
    4e90:	394e8260 	ldrb	w0, [x19, #928]
    4e94:	35000140 	cbnz	w0, 4ebc <__do_global_dtors_aux+0x3c>
    4e98:	f0000120 	adrp	x0, 2b000 <GCC_except_table25+0xfe4c>
    4e9c:	f947a800 	ldr	x0, [x0, #3920]
    4ea0:	b4000080 	cbz	x0, 4eb0 <__do_global_dtors_aux+0x30>
    4ea4:	90000140 	adrp	x0, 2c000 <_Znam@GLIBCXX_3.4>
    4ea8:	f941c000 	ldr	x0, [x0, #896]
    4eac:	97fffe19 	bl	4710 <__cxa_finalize@plt>
    4eb0:	97ffffd8 	bl	4e10 <deregister_tm_clones>
    4eb4:	52800020 	mov	w0, #0x1                   	// #1
    4eb8:	390e8260 	strb	w0, [x19, #928]
    4ebc:	f9400bf3 	ldr	x19, [sp, #16]
    4ec0:	a8c27bfd 	ldp	x29, x30, [sp], #32
    4ec4:	d65f03c0 	ret
    4ec8:	d503201f 	nop
    4ecc:	d503201f 	nop

0000000000004ed0 <frame_dummy>:
    4ed0:	17ffffdc 	b	4e40 <register_tm_clones>

0000000000004ed4 <main>:
    4ed4:	6db923e9 	stp	d9, d8, [sp, #-112]!
    4ed8:	a9017bfd 	stp	x29, x30, [sp, #16]
    4edc:	a9026ffc 	stp	x28, x27, [sp, #32]
    4ee0:	a90367fa 	stp	x26, x25, [sp, #48]
    4ee4:	a9045ff8 	stp	x24, x23, [sp, #64]
    4ee8:	a90557f6 	stp	x22, x21, [sp, #80]
    4eec:	a9064ff4 	stp	x20, x19, [sp, #96]
    4ef0:	910043fd 	add	x29, sp, #0x10
    4ef4:	d10903ff 	sub	sp, sp, #0x240
    4ef8:	71000c1f 	cmp	w0, #0x3
    4efc:	5400012c 	b.gt	4f20 <main+0x4c>
    4f00:	f0000120 	adrp	x0, 2b000 <GCC_except_table25+0xfe4c>
    4f04:	d0000081 	adrp	x1, 16000 <_ZNSt6vectorIN6mapbox8geometry7polygonIlS_EESaIS3_EE17_M_realloc_insertIJEEEvN9__gnu_cxx17__normal_iteratorIPS3_S5_EEDpOT_+0x78>
    4f08:	9109d821 	add	x1, x1, #0x276
    4f0c:	52800802 	mov	w2, #0x40                  	// #64
    4f10:	f9479c00 	ldr	x0, [x0, #3896]
    4f14:	97fffe77 	bl	48f0 <_ZSt16__ostream_insertIcSt11char_traitsIcEERSt13basic_ostreamIT_T0_ES6_PKS3_l@plt>
    4f18:	12800014 	mov	w20, #0xffffffff            	// #-1
    4f1c:	14000416 	b	5f74 <main+0x10a0>
    4f20:	d100e3a8 	sub	x8, x29, #0x38
    4f24:	aa0103f7 	mov	x23, x1
    4f28:	f9400433 	ldr	x19, [x1, #8]
    4f2c:	91004119 	add	x25, x8, #0x10
    4f30:	f81c83b9 	stur	x25, [x29, #-56]
    4f34:	b4008b53 	cbz	x19, 609c <main+0x11c8>
    4f38:	2a0003fa 	mov	w26, w0
    4f3c:	aa1303e0 	mov	x0, x19
    4f40:	97fffdb0 	bl	4600 <strlen@plt>
    4f44:	aa0003f4 	mov	x20, x0
    4f48:	aa1903e0 	mov	x0, x25
    4f4c:	f100429f 	cmp	x20, #0x10
    4f50:	f9003ff4 	str	x20, [sp, #120]
    4f54:	54000103 	b.cc	4f74 <main+0xa0>  // b.lo, b.ul, b.last
    4f58:	d100e3a0 	sub	x0, x29, #0x38
    4f5c:	9101e3e1 	add	x1, sp, #0x78
    4f60:	aa1f03e2 	mov	x2, xzr
    4f64:	97fffeff 	bl	4b60 <_ZNSt7__cxx1112basic_stringIcSt11char_traitsIcESaIcEE9_M_createERmm@plt>
    4f68:	f9403fe8 	ldr	x8, [sp, #120]
    4f6c:	f81c83a0 	stur	x0, [x29, #-56]
    4f70:	f81d83a8 	stur	x8, [x29, #-40]
    4f74:	b4000134 	cbz	x20, 4f98 <main+0xc4>
    4f78:	f100069f 	cmp	x20, #0x1
    4f7c:	54000081 	b.ne	4f8c <main+0xb8>  // b.any
    4f80:	39400268 	ldrb	w8, [x19]
    4f84:	39000008 	strb	w8, [x0]
    4f88:	14000004 	b	4f98 <main+0xc4>
    4f8c:	aa1303e1 	mov	x1, x19
    4f90:	aa1403e2 	mov	x2, x20
    4f94:	97fffd5b 	bl	4500 <memcpy@plt>
    4f98:	f9403fe8 	ldr	x8, [sp, #120]
    4f9c:	d0000081 	adrp	x1, 16000 <_ZNSt6vectorIN6mapbox8geometry7polygonIlS_EESaIS3_EE17_M_realloc_insertIJEEEvN9__gnu_cxx17__normal_iteratorIPS3_S5_EEDpOT_+0x78>
    4fa0:	910da821 	add	x1, x1, #0x36a
    4fa4:	f85c83a9 	ldur	x9, [x29, #-56]
    4fa8:	f81d03a8 	stur	x8, [x29, #-48]
    4fac:	3828693f 	strb	wzr, [x9, x8]
    4fb0:	f85c83a0 	ldur	x0, [x29, #-56]
    4fb4:	97fffe87 	bl	49d0 <fopen@plt>
    4fb8:	b40004e0 	cbz	x0, 5054 <main+0x180>
    4fbc:	aa1f03e1 	mov	x1, xzr
    4fc0:	52800042 	mov	w2, #0x2                   	// #2
    4fc4:	aa0003f3 	mov	x19, x0
    4fc8:	97fffefe 	bl	4bc0 <fseek@plt>
    4fcc:	aa1303e0 	mov	x0, x19
    4fd0:	97fffd98 	bl	4630 <ftell@plt>
    4fd4:	aa0003f8 	mov	x24, x0
    4fd8:	aa1303e0 	mov	x0, x19
    4fdc:	aa1f03e1 	mov	x1, xzr
    4fe0:	2a1f03e2 	mov	w2, wzr
    4fe4:	f9000ff3 	str	x19, [sp, #24]
    4fe8:	97fffef6 	bl	4bc0 <fseek@plt>
    4fec:	9101e3e8 	add	x8, sp, #0x78
    4ff0:	f9400af4 	ldr	x20, [x23, #16]
    4ff4:	91004113 	add	x19, x8, #0x10
    4ff8:	f9000bf9 	str	x25, [sp, #16]
    4ffc:	f9003ff3 	str	x19, [sp, #120]
    5000:	b4008554 	cbz	x20, 60a8 <main+0x11d4>
    5004:	aa1403e0 	mov	x0, x20
    5008:	97fffd7e 	bl	4600 <strlen@plt>
    500c:	aa0003f5 	mov	x21, x0
    5010:	aa1303e0 	mov	x0, x19
    5014:	f10042bf 	cmp	x21, #0x10
    5018:	f81503b5 	stur	x21, [x29, #-176]
    501c:	54000103 	b.cc	503c <main+0x168>  // b.lo, b.ul, b.last
    5020:	9101e3e0 	add	x0, sp, #0x78
    5024:	d102c3a1 	sub	x1, x29, #0xb0
    5028:	aa1f03e2 	mov	x2, xzr
    502c:	97fffecd 	bl	4b60 <_ZNSt7__cxx1112basic_stringIcSt11char_traitsIcESaIcEE9_M_createERmm@plt>
    5030:	f85503a8 	ldur	x8, [x29, #-176]
    5034:	f9003fe0 	str	x0, [sp, #120]
    5038:	f90047e8 	str	x8, [sp, #136]
    503c:	b4000455 	cbz	x21, 50c4 <main+0x1f0>
    5040:	f10006bf 	cmp	x21, #0x1
    5044:	540003a1 	b.ne	50b8 <main+0x1e4>  // b.any
    5048:	39400288 	ldrb	w8, [x20]
    504c:	39000008 	strb	w8, [x0]
    5050:	1400001d 	b	50c4 <main+0x1f0>
    5054:	b0000088 	adrp	x8, 16000 <_ZNSt6vectorIN6mapbox8geometry7polygonIlS_EESaIS3_EE17_M_realloc_insertIJEEEvN9__gnu_cxx17__normal_iteratorIPS3_S5_EEDpOT_+0x78>
    5058:	910add08 	add	x8, x8, #0x2b7
    505c:	d102c3aa 	sub	x10, x29, #0xb0
    5060:	3816f3bf 	sturb	wzr, [x29, #-145]
    5064:	a97c8ba1 	ldp	x1, x2, [x29, #-56]
    5068:	91004153 	add	x19, x10, #0x10
    506c:	528001ea 	mov	w10, #0xf                   	// #15
    5070:	f9400109 	ldr	x9, [x8]
    5074:	f8407108 	ldur	x8, [x8, #7]
    5078:	f81503b3 	stur	x19, [x29, #-176]
    507c:	a935a7aa 	stp	x10, x9, [x29, #-168]
    5080:	f81673a8 	stur	x8, [x29, #-153]
    5084:	d102c3a0 	sub	x0, x29, #0xb0
    5088:	97fffd62 	bl	4610 <_ZNSt7__cxx1112basic_stringIcSt11char_traitsIcESaIcEE9_M_appendEPKcm@plt>
    508c:	9101e3e8 	add	x8, sp, #0x78
    5090:	91004116 	add	x22, x8, #0x10
    5094:	aa0003e8 	mov	x8, x0
    5098:	f9003ff6 	str	x22, [sp, #120]
    509c:	f8410509 	ldr	x9, [x8], #16
    50a0:	eb08013f 	cmp	x9, x8
    50a4:	540015a0 	b.eq	5358 <main+0x484>  // b.none
    50a8:	f940010a 	ldr	x10, [x8]
    50ac:	f9003fe9 	str	x9, [sp, #120]
    50b0:	f90047ea 	str	x10, [sp, #136]
    50b4:	140000ab 	b	5360 <main+0x48c>
    50b8:	aa1403e1 	mov	x1, x20
    50bc:	aa1503e2 	mov	x2, x21
    50c0:	97fffd10 	bl	4500 <memcpy@plt>
    50c4:	f85503a8 	ldur	x8, [x29, #-176]
    50c8:	f9403fe9 	ldr	x9, [sp, #120]
    50cc:	f90043e8 	str	x8, [sp, #128]
    50d0:	3828693f 	strb	wzr, [x9, x8]
    50d4:	f9403ff5 	ldr	x21, [sp, #120]
    50d8:	97fffe22 	bl	4960 <__errno_location@plt>
    50dc:	aa0003f9 	mov	x25, x0
    50e0:	b9400016 	ldr	w22, [x0]
    50e4:	b900001f 	str	wzr, [x0]
    50e8:	d102c3a1 	sub	x1, x29, #0xb0
    50ec:	aa1503e0 	mov	x0, x21
    50f0:	52800142 	mov	w2, #0xa                   	// #10
    50f4:	97fffd73 	bl	46c0 <strtol@plt>
    50f8:	f85503a8 	ldur	x8, [x29, #-176]
    50fc:	eb15011f 	cmp	x8, x21
    5100:	54007da0 	b.eq	60b4 <main+0x11e0>  // b.none
    5104:	aa0003f4 	mov	x20, x0
    5108:	eb34c01f 	cmp	x0, w20, sxtw
    510c:	54007da1 	b.ne	60c0 <main+0x11ec>  // b.any
    5110:	b9400328 	ldr	w8, [x25]
    5114:	7100891f 	cmp	w8, #0x22
    5118:	54007d40 	b.eq	60c0 <main+0x11ec>  // b.none
    511c:	35000048 	cbnz	w8, 5124 <main+0x250>
    5120:	b9000336 	str	w22, [x25]
    5124:	f9403fe0 	ldr	x0, [sp, #120]
    5128:	eb13001f 	cmp	x0, x19
    512c:	54000040 	b.eq	5134 <main+0x260>  // b.none
    5130:	97fffdbc 	bl	4820 <_ZdlPv@plt>
    5134:	9101e3e8 	add	x8, sp, #0x78
    5138:	f9400ef5 	ldr	x21, [x23, #24]
    513c:	91004113 	add	x19, x8, #0x10
    5140:	f9003ff3 	str	x19, [sp, #120]
    5144:	b4007c55 	cbz	x21, 60cc <main+0x11f8>
    5148:	aa1503e0 	mov	x0, x21
    514c:	97fffd2d 	bl	4600 <strlen@plt>
    5150:	aa0003f6 	mov	x22, x0
    5154:	aa1303e0 	mov	x0, x19
    5158:	f10042df 	cmp	x22, #0x10
    515c:	f81503b6 	stur	x22, [x29, #-176]
    5160:	54000103 	b.cc	5180 <main+0x2ac>  // b.lo, b.ul, b.last
    5164:	9101e3e0 	add	x0, sp, #0x78
    5168:	d102c3a1 	sub	x1, x29, #0xb0
    516c:	aa1f03e2 	mov	x2, xzr
    5170:	97fffe7c 	bl	4b60 <_ZNSt7__cxx1112basic_stringIcSt11char_traitsIcESaIcEE9_M_createERmm@plt>
    5174:	f85503a8 	ldur	x8, [x29, #-176]
    5178:	f9003fe0 	str	x0, [sp, #120]
    517c:	f90047e8 	str	x8, [sp, #136]
    5180:	b4000136 	cbz	x22, 51a4 <main+0x2d0>
    5184:	f10006df 	cmp	x22, #0x1
    5188:	54000081 	b.ne	5198 <main+0x2c4>  // b.any
    518c:	394002a8 	ldrb	w8, [x21]
    5190:	39000008 	strb	w8, [x0]
    5194:	14000004 	b	51a4 <main+0x2d0>
    5198:	aa1503e1 	mov	x1, x21
    519c:	aa1603e2 	mov	x2, x22
    51a0:	97fffcd8 	bl	4500 <memcpy@plt>
    51a4:	f85503a8 	ldur	x8, [x29, #-176]
    51a8:	d102c3a1 	sub	x1, x29, #0xb0
    51ac:	f9403fe9 	ldr	x9, [sp, #120]
    51b0:	52800142 	mov	w2, #0xa                   	// #10
    51b4:	f90043e8 	str	x8, [sp, #128]
    51b8:	3828693f 	strb	wzr, [x9, x8]
    51bc:	f9403ff6 	ldr	x22, [sp, #120]
    51c0:	b940033b 	ldr	w27, [x25]
    51c4:	b900033f 	str	wzr, [x25]
    51c8:	aa1603e0 	mov	x0, x22
    51cc:	97fffd3d 	bl	46c0 <strtol@plt>
    51d0:	f85503a8 	ldur	x8, [x29, #-176]
    51d4:	eb16011f 	cmp	x8, x22
    51d8:	54007800 	b.eq	60d8 <main+0x1204>  // b.none
    51dc:	aa0003f5 	mov	x21, x0
    51e0:	eb35c01f 	cmp	x0, w21, sxtw
    51e4:	54007801 	b.ne	60e4 <main+0x1210>  // b.any
    51e8:	b9400328 	ldr	w8, [x25]
    51ec:	7100891f 	cmp	w8, #0x22
    51f0:	540077a0 	b.eq	60e4 <main+0x1210>  // b.none
    51f4:	35000048 	cbnz	w8, 51fc <main+0x328>
    51f8:	b900033b 	str	w27, [x25]
    51fc:	f9403fe0 	ldr	x0, [sp, #120]
    5200:	eb13001f 	cmp	x0, x19
    5204:	54000040 	b.eq	520c <main+0x338>  // b.none
    5208:	97fffd86 	bl	4820 <_ZdlPv@plt>
    520c:	9101e3e8 	add	x8, sp, #0x78
    5210:	f94012f6 	ldr	x22, [x23, #32]
    5214:	91004113 	add	x19, x8, #0x10
    5218:	f9003ff3 	str	x19, [sp, #120]
    521c:	b40076b6 	cbz	x22, 60f0 <main+0x121c>
    5220:	aa1603e0 	mov	x0, x22
    5224:	97fffcf7 	bl	4600 <strlen@plt>
    5228:	aa0003fb 	mov	x27, x0
    522c:	aa1303e0 	mov	x0, x19
    5230:	f100437f 	cmp	x27, #0x10
    5234:	f81503bb 	stur	x27, [x29, #-176]
    5238:	54000103 	b.cc	5258 <main+0x384>  // b.lo, b.ul, b.last
    523c:	9101e3e0 	add	x0, sp, #0x78
    5240:	d102c3a1 	sub	x1, x29, #0xb0
    5244:	aa1f03e2 	mov	x2, xzr
    5248:	97fffe46 	bl	4b60 <_ZNSt7__cxx1112basic_stringIcSt11char_traitsIcESaIcEE9_M_createERmm@plt>
    524c:	f85503a8 	ldur	x8, [x29, #-176]
    5250:	f9003fe0 	str	x0, [sp, #120]
    5254:	f90047e8 	str	x8, [sp, #136]
    5258:	b400013b 	cbz	x27, 527c <main+0x3a8>
    525c:	f100077f 	cmp	x27, #0x1
    5260:	54000081 	b.ne	5270 <main+0x39c>  // b.any
    5264:	394002c8 	ldrb	w8, [x22]
    5268:	39000008 	strb	w8, [x0]
    526c:	14000004 	b	527c <main+0x3a8>
    5270:	aa1603e1 	mov	x1, x22
    5274:	aa1b03e2 	mov	x2, x27
    5278:	97fffca2 	bl	4500 <memcpy@plt>
    527c:	f85503a8 	ldur	x8, [x29, #-176]
    5280:	d102c3a1 	sub	x1, x29, #0xb0
    5284:	f9403fe9 	ldr	x9, [sp, #120]
    5288:	52800142 	mov	w2, #0xa                   	// #10
    528c:	f90043e8 	str	x8, [sp, #128]
    5290:	3828693f 	strb	wzr, [x9, x8]
    5294:	f9403ffb 	ldr	x27, [sp, #120]
    5298:	b9400336 	ldr	w22, [x25]
    529c:	b900033f 	str	wzr, [x25]
    52a0:	aa1b03e0 	mov	x0, x27
    52a4:	97fffd07 	bl	46c0 <strtol@plt>
    52a8:	f85503a8 	ldur	x8, [x29, #-176]
    52ac:	eb1b011f 	cmp	x8, x27
    52b0:	54007260 	b.eq	60fc <main+0x1228>  // b.none
    52b4:	eb20c01f 	cmp	x0, w0, sxtw
    52b8:	54007281 	b.ne	6108 <main+0x1234>  // b.any
    52bc:	b9400328 	ldr	w8, [x25]
    52c0:	7100891f 	cmp	w8, #0x22
    52c4:	54007220 	b.eq	6108 <main+0x1234>  // b.none
    52c8:	f9002fe0 	str	x0, [sp, #88]
    52cc:	35000048 	cbnz	w8, 52d4 <main+0x400>
    52d0:	b9000336 	str	w22, [x25]
    52d4:	f9403fe0 	ldr	x0, [sp, #120]
    52d8:	eb13001f 	cmp	x0, x19
    52dc:	54000040 	b.eq	52e4 <main+0x410>  // b.none
    52e0:	97fffd50 	bl	4820 <_ZdlPv@plt>
    52e4:	71001b5f 	cmp	w26, #0x6
    52e8:	54000343 	b.cc	5350 <main+0x47c>  // b.lo, b.ul, b.last
    52ec:	9101e3e8 	add	x8, sp, #0x78
    52f0:	f94016f7 	ldr	x23, [x23, #40]
    52f4:	91004113 	add	x19, x8, #0x10
    52f8:	f9003ff3 	str	x19, [sp, #120]
    52fc:	b40070d7 	cbz	x23, 6114 <main+0x1240>
    5300:	aa1703e0 	mov	x0, x23
    5304:	97fffcbf 	bl	4600 <strlen@plt>
    5308:	aa0003fa 	mov	x26, x0
    530c:	aa1303e0 	mov	x0, x19
    5310:	f100435f 	cmp	x26, #0x10
    5314:	f81503ba 	stur	x26, [x29, #-176]
    5318:	54000103 	b.cc	5338 <main+0x464>  // b.lo, b.ul, b.last
    531c:	9101e3e0 	add	x0, sp, #0x78
    5320:	d102c3a1 	sub	x1, x29, #0xb0
    5324:	aa1f03e2 	mov	x2, xzr
    5328:	97fffe0e 	bl	4b60 <_ZNSt7__cxx1112basic_stringIcSt11char_traitsIcESaIcEE9_M_createERmm@plt>
    532c:	f85503a8 	ldur	x8, [x29, #-176]
    5330:	f9003fe0 	str	x0, [sp, #120]
    5334:	f90047e8 	str	x8, [sp, #136]
    5338:	b40004da 	cbz	x26, 53d0 <main+0x4fc>
    533c:	f100075f 	cmp	x26, #0x1
    5340:	54000421 	b.ne	53c4 <main+0x4f0>  // b.any
    5344:	394002e8 	ldrb	w8, [x23]
    5348:	39000008 	strb	w8, [x0]
    534c:	14000021 	b	53d0 <main+0x4fc>
    5350:	52800c97 	mov	w23, #0x64                  	// #100
    5354:	14000039 	b	5438 <main+0x564>
    5358:	3dc00120 	ldr	q0, [x9]
    535c:	3d8002c0 	str	q0, [x22]
    5360:	f9400409 	ldr	x9, [x0, #8]
    5364:	3900401f 	strb	wzr, [x0, #16]
    5368:	f90043e9 	str	x9, [sp, #128]
    536c:	a9007c08 	stp	x8, xzr, [x0]
    5370:	a9478be1 	ldp	x1, x2, [sp, #120]
    5374:	d0000120 	adrp	x0, 2b000 <GCC_except_table25+0xfe4c>
    5378:	f9479c00 	ldr	x0, [x0, #3896]
    537c:	97fffd5d 	bl	48f0 <_ZSt16__ostream_insertIcSt11char_traitsIcEERSt13basic_ostreamIT_T0_ES6_PKS3_l@plt>
    5380:	b0000081 	adrp	x1, 16000 <_ZNSt6vectorIN6mapbox8geometry7polygonIlS_EESaIS3_EE17_M_realloc_insertIJEEEvN9__gnu_cxx17__normal_iteratorIPS3_S5_EEDpOT_+0x78>
    5384:	910ad421 	add	x1, x1, #0x2b5
    5388:	52800022 	mov	w2, #0x1                   	// #1
    538c:	97fffd59 	bl	48f0 <_ZSt16__ostream_insertIcSt11char_traitsIcEERSt13basic_ostreamIT_T0_ES6_PKS3_l@plt>
    5390:	f9403fe0 	ldr	x0, [sp, #120]
    5394:	eb16001f 	cmp	x0, x22
    5398:	54000040 	b.eq	53a0 <main+0x4cc>  // b.none
    539c:	97fffd21 	bl	4820 <_ZdlPv@plt>
    53a0:	f85503a0 	ldur	x0, [x29, #-176]
    53a4:	eb13001f 	cmp	x0, x19
    53a8:	54000040 	b.eq	53b0 <main+0x4dc>  // b.none
    53ac:	97fffd1d 	bl	4820 <_ZdlPv@plt>
    53b0:	12800014 	mov	w20, #0xffffffff            	// #-1
    53b4:	f85c83a0 	ldur	x0, [x29, #-56]
    53b8:	eb19001f 	cmp	x0, x25
    53bc:	54005da1 	b.ne	5f70 <main+0x109c>  // b.any
    53c0:	140002ed 	b	5f74 <main+0x10a0>
    53c4:	aa1703e1 	mov	x1, x23
    53c8:	aa1a03e2 	mov	x2, x26
    53cc:	97fffc4d 	bl	4500 <memcpy@plt>
    53d0:	f85503a8 	ldur	x8, [x29, #-176]
    53d4:	d102c3a1 	sub	x1, x29, #0xb0
    53d8:	f9403fe9 	ldr	x9, [sp, #120]
    53dc:	52800142 	mov	w2, #0xa                   	// #10
    53e0:	f90043e8 	str	x8, [sp, #128]
    53e4:	3828693f 	strb	wzr, [x9, x8]
    53e8:	f9403ffa 	ldr	x26, [sp, #120]
    53ec:	b9400336 	ldr	w22, [x25]
    53f0:	b900033f 	str	wzr, [x25]
    53f4:	aa1a03e0 	mov	x0, x26
    53f8:	97fffcb2 	bl	46c0 <strtol@plt>
    53fc:	f85503a8 	ldur	x8, [x29, #-176]
    5400:	eb1a011f 	cmp	x8, x26
    5404:	540068e0 	b.eq	6120 <main+0x124c>  // b.none
    5408:	aa0003f7 	mov	x23, x0
    540c:	eb37c01f 	cmp	x0, w23, sxtw
    5410:	540068e1 	b.ne	612c <main+0x1258>  // b.any
    5414:	b9400328 	ldr	w8, [x25]
    5418:	7100891f 	cmp	w8, #0x22
    541c:	54006880 	b.eq	612c <main+0x1258>  // b.none
    5420:	35000048 	cbnz	w8, 5428 <main+0x554>
    5424:	b9000336 	str	w22, [x25]
    5428:	f9403fe0 	ldr	x0, [sp, #120]
    542c:	eb13001f 	cmp	x0, x19
    5430:	54000040 	b.eq	5438 <main+0x564>  // b.none
    5434:	97fffcfb 	bl	4820 <_ZdlPv@plt>
    5438:	f9400ff3 	ldr	x19, [sp, #24]
    543c:	d0000120 	adrp	x0, 2b000 <GCC_except_table25+0xfe4c>
    5440:	b0000081 	adrp	x1, 16000 <_ZNSt6vectorIN6mapbox8geometry7polygonIlS_EESaIS3_EE17_M_realloc_insertIJEEEvN9__gnu_cxx17__normal_iteratorIPS3_S5_EEDpOT_+0x78>
    5444:	910b1c21 	add	x1, x1, #0x2c7
    5448:	52800042 	mov	w2, #0x2                   	// #2
    544c:	f9479c00 	ldr	x0, [x0, #3896]
    5450:	97fffd28 	bl	48f0 <_ZSt16__ostream_insertIcSt11char_traitsIcEERSt13basic_ostreamIT_T0_ES6_PKS3_l@plt>
    5454:	d0000139 	adrp	x25, 2b000 <GCC_except_table25+0xfe4c>
    5458:	2a1403e1 	mov	w1, w20
    545c:	f9479f39 	ldr	x25, [x25, #3896]
    5460:	aa1903e0 	mov	x0, x25
    5464:	97fffdaf 	bl	4b20 <_ZNSolsEi@plt>
    5468:	b0000081 	adrp	x1, 16000 <_ZNSt6vectorIN6mapbox8geometry7polygonIlS_EESaIS3_EE17_M_realloc_insertIJEEEvN9__gnu_cxx17__normal_iteratorIPS3_S5_EEDpOT_+0x78>
    546c:	910b2821 	add	x1, x1, #0x2ca
    5470:	52800062 	mov	w2, #0x3                   	// #3
    5474:	aa0003fa 	mov	x26, x0
    5478:	97fffd1e 	bl	48f0 <_ZSt16__ostream_insertIcSt11char_traitsIcEERSt13basic_ostreamIT_T0_ES6_PKS3_l@plt>
    547c:	aa1a03e0 	mov	x0, x26
    5480:	2a1503e1 	mov	w1, w21
    5484:	97fffda7 	bl	4b20 <_ZNSolsEi@plt>
    5488:	b0000081 	adrp	x1, 16000 <_ZNSt6vectorIN6mapbox8geometry7polygonIlS_EESaIS3_EE17_M_realloc_insertIJEEEvN9__gnu_cxx17__normal_iteratorIPS3_S5_EEDpOT_+0x78>
    548c:	910b3821 	add	x1, x1, #0x2ce
    5490:	52800062 	mov	w2, #0x3                   	// #3
    5494:	aa0003fa 	mov	x26, x0
    5498:	97fffd16 	bl	48f0 <_ZSt16__ostream_insertIcSt11char_traitsIcEERSt13basic_ostreamIT_T0_ES6_PKS3_l@plt>
    549c:	aa1a03e0 	mov	x0, x26
    54a0:	f9402fe1 	ldr	x1, [sp, #88]
    54a4:	97fffd9f 	bl	4b20 <_ZNSolsEi@plt>
    54a8:	b0000081 	adrp	x1, 16000 <_ZNSt6vectorIN6mapbox8geometry7polygonIlS_EESaIS3_EE17_M_realloc_insertIJEEEvN9__gnu_cxx17__normal_iteratorIPS3_S5_EEDpOT_+0x78>
    54ac:	910b4821 	add	x1, x1, #0x2d2
    54b0:	52800182 	mov	w2, #0xc                   	// #12
    54b4:	aa0003fa 	mov	x26, x0
    54b8:	97fffd0e 	bl	48f0 <_ZSt16__ostream_insertIcSt11char_traitsIcEERSt13basic_ostreamIT_T0_ES6_PKS3_l@plt>
    54bc:	aa1a03e0 	mov	x0, x26
    54c0:	aa1703e1 	mov	x1, x23
    54c4:	97fffca7 	bl	4760 <_ZNSo9_M_insertImEERSoT_@plt>
    54c8:	b0000081 	adrp	x1, 16000 <_ZNSt6vectorIN6mapbox8geometry7polygonIlS_EESaIS3_EE17_M_realloc_insertIJEEEvN9__gnu_cxx17__normal_iteratorIPS3_S5_EEDpOT_+0x78>
    54cc:	910ad421 	add	x1, x1, #0x2b5
    54d0:	52800022 	mov	w2, #0x1                   	// #1
    54d4:	97fffd07 	bl	48f0 <_ZSt16__ostream_insertIcSt11char_traitsIcEERSt13basic_ostreamIT_T0_ES6_PKS3_l@plt>
    54d8:	b40003f8 	cbz	x24, 5554 <main+0x680>
    54dc:	aa1303e0 	mov	x0, x19
    54e0:	aa1f03e1 	mov	x1, xzr
    54e4:	2a1f03e2 	mov	w2, wzr
    54e8:	97fffdb6 	bl	4bc0 <fseek@plt>
    54ec:	aa1803e0 	mov	x0, x24
    54f0:	97fffc00 	bl	44f0 <_Znam@plt>
    54f4:	aa1803e1 	mov	x1, x24
    54f8:	52800022 	mov	w2, #0x1                   	// #1
    54fc:	aa1303e3 	mov	x3, x19
    5500:	aa0003fa 	mov	x26, x0
    5504:	97fffc0f 	bl	4540 <fread@plt>
    5508:	f100041f 	cmp	x0, #0x1
    550c:	54000080 	b.eq	551c <main+0x648>  // b.none
    5510:	aa1a03e0 	mov	x0, x26
    5514:	97fffd0b 	bl	4940 <_ZdaPv@plt>
    5518:	aa1f03fa 	mov	x26, xzr
    551c:	d10163a8 	sub	x8, x29, #0x58
    5520:	f100431f 	cmp	x24, #0x10
    5524:	91004116 	add	x22, x8, #0x10
    5528:	f9003ff8 	str	x24, [sp, #120]
    552c:	f81a83b6 	stur	x22, [x29, #-88]
    5530:	540001c3 	b.cc	5568 <main+0x694>  // b.lo, b.ul, b.last
    5534:	d10163a0 	sub	x0, x29, #0x58
    5538:	9101e3e1 	add	x1, sp, #0x78
    553c:	aa1f03e2 	mov	x2, xzr
    5540:	97fffd88 	bl	4b60 <_ZNSt7__cxx1112basic_stringIcSt11char_traitsIcESaIcEE9_M_createERmm@plt>
    5544:	f9403fe8 	ldr	x8, [sp, #120]
    5548:	f81a83a0 	stur	x0, [x29, #-88]
    554c:	f81b83a8 	stur	x8, [x29, #-72]
    5550:	1400000f 	b	558c <main+0x6b8>
    5554:	d10163a8 	sub	x8, x29, #0x58
    5558:	381b83bf 	sturb	wzr, [x29, #-72]
    555c:	91004116 	add	x22, x8, #0x10
    5560:	a93affb6 	stp	x22, xzr, [x29, #-88]
    5564:	14000044 	b	5674 <main+0x7a0>
    5568:	aa1603e0 	mov	x0, x22
    556c:	f100071f 	cmp	x24, #0x1
    5570:	540000e1 	b.ne	558c <main+0x6b8>  // b.any
    5574:	39400348 	ldrb	w8, [x26]
    5578:	52800029 	mov	w9, #0x1                   	// #1
    557c:	381b93bf 	sturb	wzr, [x29, #-71]
    5580:	381b83a8 	sturb	w8, [x29, #-72]
    5584:	f81b03a9 	stur	x9, [x29, #-80]
    5588:	14000009 	b	55ac <main+0x6d8>
    558c:	aa1a03e1 	mov	x1, x26
    5590:	aa1803e2 	mov	x2, x24
    5594:	97fffbdb 	bl	4500 <memcpy@plt>
    5598:	f9403fe8 	ldr	x8, [sp, #120]
    559c:	f85a83a9 	ldur	x9, [x29, #-88]
    55a0:	f81b03a8 	stur	x8, [x29, #-80]
    55a4:	3828693f 	strb	wzr, [x9, x8]
    55a8:	b400007a 	cbz	x26, 55b4 <main+0x6e0>
    55ac:	aa1a03e0 	mov	x0, x26
    55b0:	97fffce4 	bl	4940 <_ZdaPv@plt>
    55b4:	f85b03a8 	ldur	x8, [x29, #-80]
    55b8:	f1000d1f 	cmp	x8, #0x3
    55bc:	540005c3 	b.cc	5674 <main+0x7a0>  // b.lo, b.ul, b.last
    55c0:	f85a83a8 	ldur	x8, [x29, #-88]
    55c4:	39400109 	ldrb	w9, [x8]
    55c8:	71007d3f 	cmp	w9, #0x1f
    55cc:	540001a0 	b.eq	5600 <main+0x72c>  // b.none
    55d0:	7101e13f 	cmp	w9, #0x78
    55d4:	54000501 	b.ne	5674 <main+0x7a0>  // b.any
    55d8:	39400509 	ldrb	w9, [x8, #1]
    55dc:	b0000088 	adrp	x8, 16000 <_ZNSt6vectorIN6mapbox8geometry7polygonIlS_EESaIS3_EE17_M_realloc_insertIJEEEvN9__gnu_cxx17__normal_iteratorIPS3_S5_EEDpOT_+0x78>
    55e0:	910b7d08 	add	x8, x8, #0x2df
    55e4:	71026d3f 	cmp	w9, #0x9b
    55e8:	5400018c 	b.gt	5618 <main+0x744>
    55ec:	7100053f 	cmp	w9, #0x1
    55f0:	540001c0 	b.eq	5628 <main+0x754>  // b.none
    55f4:	7101793f 	cmp	w9, #0x5e
    55f8:	54000180 	b.eq	5628 <main+0x754>  // b.none
    55fc:	1400001e 	b	5674 <main+0x7a0>
    5600:	39400508 	ldrb	w8, [x8, #1]
    5604:	71022d1f 	cmp	w8, #0x8b
    5608:	54000361 	b.ne	5674 <main+0x7a0>  // b.any
    560c:	b0000088 	adrp	x8, 16000 <_ZNSt6vectorIN6mapbox8geometry7polygonIlS_EESaIS3_EE17_M_realloc_insertIJEEEvN9__gnu_cxx17__normal_iteratorIPS3_S5_EEDpOT_+0x78>
    5610:	910be508 	add	x8, x8, #0x2f9
    5614:	14000005 	b	5628 <main+0x754>
    5618:	7102713f 	cmp	w9, #0x9c
    561c:	54000060 	b.eq	5628 <main+0x754>  // b.none
    5620:	7103693f 	cmp	w9, #0xda
    5624:	54000281 	b.ne	5674 <main+0x7a0>  // b.any
    5628:	d0000120 	adrp	x0, 2b000 <GCC_except_table25+0xfe4c>
    562c:	aa0803e1 	mov	x1, x8
    5630:	52800322 	mov	w2, #0x19                  	// #25
    5634:	f947c400 	ldr	x0, [x0, #3976]
    5638:	97fffcae 	bl	48f0 <_ZSt16__ostream_insertIcSt11char_traitsIcEERSt13basic_ostreamIT_T0_ES6_PKS3_l@plt>
    563c:	9101e3e8 	add	x8, sp, #0x78
    5640:	390223ff 	strb	wzr, [sp, #136]
    5644:	91004113 	add	x19, x8, #0x10
    5648:	a907fff3 	stp	x19, xzr, [sp, #120]
    564c:	d10163a0 	sub	x0, x29, #0x58
    5650:	9101e3e1 	add	x1, sp, #0x78
    5654:	9400068b 	bl	7080 <_ZN6mapnik16vector_tile_impl15zlib_decompressERKNSt7__cxx1112basic_stringIcSt11char_traitsIcESaIcEEERS6_>
    5658:	d10163a0 	sub	x0, x29, #0x58
    565c:	9101e3e1 	add	x1, sp, #0x78
    5660:	97fffc24 	bl	46f0 <_ZNSt7__cxx1112basic_stringIcSt11char_traitsIcESaIcEE9_M_assignERKS4_@plt>
    5664:	f9403fe0 	ldr	x0, [sp, #120]
    5668:	eb13001f 	cmp	x0, x19
    566c:	54000040 	b.eq	5674 <main+0x7a0>  // b.none
    5670:	97fffc6c 	bl	4820 <_ZdlPv@plt>
    5674:	d10343a8 	sub	x8, x29, #0xd0
    5678:	91004113 	add	x19, x8, #0x10
    567c:	52800348 	mov	w8, #0x1a                  	// #26
    5680:	f81303b3 	stur	x19, [x29, #-208]
    5684:	f81183a8 	stur	x8, [x29, #-232]
    5688:	d10343a0 	sub	x0, x29, #0xd0
    568c:	d103a3a1 	sub	x1, x29, #0xe8
    5690:	aa1f03e2 	mov	x2, xzr
    5694:	f90007f6 	str	x22, [sp, #8]
    5698:	97fffd32 	bl	4b60 <_ZNSt7__cxx1112basic_stringIcSt11char_traitsIcESaIcEE9_M_createERmm@plt>
    569c:	b0000089 	adrp	x9, 16000 <_ZNSt6vectorIN6mapbox8geometry7polygonIlS_EESaIS3_EE17_M_realloc_insertIJEEEvN9__gnu_cxx17__normal_iteratorIPS3_S5_EEDpOT_+0x78>
    56a0:	910c4d29 	add	x9, x9, #0x313
    56a4:	f85183a8 	ldur	x8, [x29, #-232]
    56a8:	f81303a0 	stur	x0, [x29, #-208]
    56ac:	3dc00120 	ldr	q0, [x9]
    56b0:	3cc0a121 	ldur	q1, [x9, #10]
    56b4:	f81403a8 	stur	x8, [x29, #-192]
    56b8:	3d800000 	str	q0, [x0]
    56bc:	3c80a001 	stur	q1, [x0, #10]
    56c0:	f85303a9 	ldur	x9, [x29, #-208]
    56c4:	f81383a8 	stur	x8, [x29, #-200]
    56c8:	3828693f 	strb	wzr, [x9, x8]
    56cc:	a97c8ba1 	ldp	x1, x2, [x29, #-56]
    56d0:	d10343a0 	sub	x0, x29, #0xd0
    56d4:	97fffbcf 	bl	4610 <_ZNSt7__cxx1112basic_stringIcSt11char_traitsIcESaIcEE9_M_appendEPKcm@plt>
    56d8:	9101e3e8 	add	x8, sp, #0x78
    56dc:	91004116 	add	x22, x8, #0x10
    56e0:	aa0003e8 	mov	x8, x0
    56e4:	f9003ff6 	str	x22, [sp, #120]
    56e8:	f8410509 	ldr	x9, [x8], #16
    56ec:	eb08013f 	cmp	x9, x8
    56f0:	540000a0 	b.eq	5704 <main+0x830>  // b.none
    56f4:	f940010a 	ldr	x10, [x8]
    56f8:	f9003fe9 	str	x9, [sp, #120]
    56fc:	f90047ea 	str	x10, [sp, #136]
    5700:	14000003 	b	570c <main+0x838>
    5704:	3dc00120 	ldr	q0, [x9]
    5708:	3d8002c0 	str	q0, [x22]
    570c:	f9400409 	ldr	x9, [x0, #8]
    5710:	3900401f 	strb	wzr, [x0, #16]
    5714:	d000012a 	adrp	x10, 2b000 <GCC_except_table25+0xfe4c>
    5718:	9120014a 	add	x10, x10, #0x800
    571c:	d10403a1 	sub	x1, x29, #0x100
    5720:	f90043e9 	str	x9, [sp, #128]
    5724:	a9007c08 	stp	x8, xzr, [x0]
    5728:	d103a3a0 	sub	x0, x29, #0xe8
    572c:	f81503aa 	stur	x10, [x29, #-176]
    5730:	381783bf 	sturb	wzr, [x29, #-136]
    5734:	97fffc1f 	bl	47b0 <gettimeofday@plt>
    5738:	6d7187a0 	ldp	d0, d1, [x29, #-232]
    573c:	b0000088 	adrp	x8, 16000 <_ZNSt6vectorIN6mapbox8geometry7polygonIlS_EESaIS3_EE17_M_realloc_insertIJEEEvN9__gnu_cxx17__normal_iteratorIPS3_S5_EEDpOT_+0x78>
    5740:	5e61d800 	scvtf	d0, d0
    5744:	fd413102 	ldr	d2, [x8, #608]
    5748:	5e61d821 	scvtf	d1, d1
    574c:	1f420020 	fmadd	d0, d1, d2, d0
    5750:	fc1583a0 	stur	d0, [x29, #-168]
    5754:	97fffc3b 	bl	4840 <clock@plt>
    5758:	a947e3fa 	ldp	x26, x24, [sp, #120]
    575c:	d102c3a8 	sub	x8, x29, #0xb0
    5760:	d000012a 	adrp	x10, 2b000 <GCC_except_table25+0xfe4c>
    5764:	911ec14a 	add	x10, x10, #0x7b0
    5768:	91012109 	add	x9, x8, #0x48
    576c:	f81683a0 	stur	x0, [x29, #-152]
    5770:	aa0903e0 	mov	x0, x9
    5774:	f100431f 	cmp	x24, #0x10
    5778:	f81503aa 	stur	x10, [x29, #-176]
    577c:	a93827b9 	stp	x25, x9, [x29, #-128]
    5780:	f90003e9 	str	x9, [sp]
    5784:	f81183b8 	stur	x24, [x29, #-232]
    5788:	54000103 	b.cc	57a8 <main+0x8d4>  // b.lo, b.ul, b.last
    578c:	9100e100 	add	x0, x8, #0x38
    5790:	d103a3a1 	sub	x1, x29, #0xe8
    5794:	aa1f03e2 	mov	x2, xzr
    5798:	97fffcf2 	bl	4b60 <_ZNSt7__cxx1112basic_stringIcSt11char_traitsIcESaIcEE9_M_createERmm@plt>
    579c:	f85183a8 	ldur	x8, [x29, #-232]
    57a0:	f81883a0 	stur	x0, [x29, #-120]
    57a4:	f81983a8 	stur	x8, [x29, #-104]
    57a8:	b4000138 	cbz	x24, 57cc <main+0x8f8>
    57ac:	f100071f 	cmp	x24, #0x1
    57b0:	54000081 	b.ne	57c0 <main+0x8ec>  // b.any
    57b4:	39400348 	ldrb	w8, [x26]
    57b8:	39000008 	strb	w8, [x0]
    57bc:	14000004 	b	57cc <main+0x8f8>
    57c0:	aa1a03e1 	mov	x1, x26
    57c4:	aa1803e2 	mov	x2, x24
    57c8:	97fffb4e 	bl	4500 <memcpy@plt>
    57cc:	f85183a8 	ldur	x8, [x29, #-232]
    57d0:	f85883a9 	ldur	x9, [x29, #-120]
    57d4:	f81903a8 	stur	x8, [x29, #-112]
    57d8:	3828693f 	strb	wzr, [x9, x8]
    57dc:	f9403fe0 	ldr	x0, [sp, #120]
    57e0:	eb16001f 	cmp	x0, x22
    57e4:	54000040 	b.eq	57ec <main+0x918>  // b.none
    57e8:	97fffc0e 	bl	4820 <_ZdlPv@plt>
    57ec:	f85303a0 	ldur	x0, [x29, #-208]
    57f0:	eb13001f 	cmp	x0, x19
    57f4:	54000040 	b.eq	57fc <main+0x928>  // b.none
    57f8:	97fffc0a 	bl	4820 <_ZdlPv@plt>
    57fc:	b40036d7 	cbz	x23, 5ed4 <main+0x1000>
    5800:	9101e3e8 	add	x8, sp, #0x78
    5804:	d0000136 	adrp	x22, 2b000 <GCC_except_table25+0xfe4c>
    5808:	91010109 	add	x9, x8, #0x40
    580c:	9103010a 	add	x10, x8, #0xc0
    5810:	6f03f600 	fmov	v0.2d, #1.000000000000000000e+00
    5814:	f90013f7 	str	x23, [sp, #32]
    5818:	a904d3f5 	stp	x21, x20, [sp, #72]
    581c:	5295c817 	mov	w23, #0xae40                	// #44608
    5820:	f90023e9 	str	x9, [sp, #64]
    5824:	9101a109 	add	x9, x8, #0x68
    5828:	f90033ea 	str	x10, [sp, #96]
    582c:	0f000429 	movi	v9.2s, #0x1
    5830:	3d800fe0 	str	q0, [sp, #48]
    5834:	aa1f03f3 	mov	x19, xzr
    5838:	f90017e9 	str	x9, [sp, #40]
    583c:	b0000089 	adrp	x9, 16000 <_ZNSt6vectorIN6mapbox8geometry7polygonIlS_EESaIS3_EE17_M_realloc_insertIJEEEvN9__gnu_cxx17__normal_iteratorIPS3_S5_EEDpOT_+0x78>
    5840:	aa1f03f8 	mov	x24, xzr
    5844:	72bfffb7 	movk	w23, #0xfffd, lsl #16
    5848:	9101811a 	add	x26, x8, #0x60
    584c:	91022115 	add	x21, x8, #0x88
    5850:	91028119 	add	x25, x8, #0xa0
    5854:	9102e114 	add	x20, x8, #0xb8
    5858:	fd413528 	ldr	d8, [x9, #616]
    585c:	f947c2d6 	ldr	x22, [x22, #3968]
    5860:	14000005 	b	5874 <main+0x9a0>
    5864:	f94013e8 	ldr	x8, [sp, #32]
    5868:	91000673 	add	x19, x19, #0x1
    586c:	eb08027f 	cmp	x19, x8
    5870:	54003340 	b.eq	5ed8 <main+0x1004>  // b.none
    5874:	a97aa7a8 	ldp	x8, x9, [x29, #-88]
    5878:	fc1283a8 	stur	d8, [x29, #-216]
    587c:	8b090101 	add	x1, x8, x9
    5880:	a93187a8 	stp	x8, x1, [x29, #-232]
    5884:	b5000129 	cbnz	x9, 58a8 <main+0x9d4>
    5888:	17fffff7 	b	5864 <main+0x990>
    588c:	f9400368 	ldr	x8, [x27]
    5890:	aa1b03e0 	mov	x0, x27
    5894:	f9400d08 	ldr	x8, [x8, #24]
    5898:	d63f0100 	blr	x8
    589c:	a97187a8 	ldp	x8, x1, [x29, #-232]
    58a0:	eb01011f 	cmp	x8, x1
    58a4:	54fffe00 	b.eq	5864 <main+0x990>  // b.none
    58a8:	39c00109 	ldrsb	w9, [x8]
    58ac:	37f800a9 	tbnz	w9, #31, 58c0 <main+0x9ec>
    58b0:	91000508 	add	x8, x8, #0x1
    58b4:	92401d20 	and	x0, x9, #0xff
    58b8:	f81183a8 	stur	x8, [x29, #-232]
    58bc:	14000003 	b	58c8 <main+0x9f4>
    58c0:	d103a3a0 	sub	x0, x29, #0xe8
    58c4:	940004b7 	bl	6ba0 <_ZN9protozero6detail18decode_varint_implEPPKcS2_>
    58c8:	d3437c08 	ubfx	x8, x0, #3, #29
    58cc:	7100201f 	cmp	w0, #0x8
    58d0:	b812c3a8 	stur	w8, [x29, #-212]
    58d4:	54003c23 	b.cc	6058 <main+0x1184>  // b.lo, b.ul, b.last
    58d8:	0b170009 	add	w9, w0, w23
    58dc:	53067d29 	lsr	w9, w9, #6
    58e0:	7101f13f 	cmp	w9, #0x7c
    58e4:	54003ba9 	b.ls	6058 <main+0x1184>  // b.plast
    58e8:	12000809 	and	w9, w0, #0x7
    58ec:	71000d3f 	cmp	w9, #0x3
    58f0:	b81283a9 	stur	w9, [x29, #-216]
    58f4:	54000063 	b.cc	5900 <main+0xa2c>  // b.lo, b.ul, b.last
    58f8:	7100153f 	cmp	w9, #0x5
    58fc:	54003c21 	b.ne	6080 <main+0x11ac>  // b.any
    5900:	71000d1f 	cmp	w8, #0x3
    5904:	54000121 	b.ne	5928 <main+0xa54>  // b.any
    5908:	a971a7a8 	ldp	x8, x9, [x29, #-232]
    590c:	eb09011f 	cmp	x8, x9
    5910:	54003820 	b.eq	6014 <main+0x1140>  // b.none
    5914:	39c0010b 	ldrsb	w11, [x8]
    5918:	92401d6a 	and	x10, x11, #0xff
    591c:	37f80beb 	tbnz	w11, #31, 5a98 <main+0xbc4>
    5920:	91000508 	add	x8, x8, #0x1
    5924:	14000076 	b	5afc <main+0xc28>
    5928:	d103a3a0 	sub	x0, x29, #0xe8
    592c:	94000450 	bl	6a6c <_ZN9protozero10pbf_reader4skipEv>
    5930:	a971a7a8 	ldp	x8, x9, [x29, #-232]
    5934:	eb09011f 	cmp	x8, x9
    5938:	54fff960 	b.eq	5864 <main+0x990>  // b.none
    593c:	39c0010b 	ldrsb	w11, [x8]
    5940:	92401d6a 	and	x10, x11, #0xff
    5944:	37f8006b 	tbnz	w11, #31, 5950 <main+0xa7c>
    5948:	91000508 	add	x8, x8, #0x1
    594c:	1400001a 	b	59b4 <main+0xae0>
    5950:	cb08012b 	sub	x11, x9, x8
    5954:	f100257f 	cmp	x11, #0x9
    5958:	5400012d 	b.le	597c <main+0xaa8>
    595c:	39c0050c 	ldrsb	w12, [x8, #1]
    5960:	5319618b 	lsl	w11, w12, #7
    5964:	9279196b 	and	x11, x11, #0x3f80
    5968:	b340194b 	bfxil	x11, x10, #0, #7
    596c:	37f8046c 	tbnz	w12, #31, 59f8 <main+0xb24>
    5970:	91000908 	add	x8, x8, #0x2
    5974:	aa0b03ea 	mov	x10, x11
    5978:	1400000f 	b	59b4 <main+0xae0>
    597c:	2a1f03ea 	mov	w10, wzr
    5980:	aa1f03eb 	mov	x11, xzr
    5984:	38c0150d 	ldrsb	w13, [x8], #1
    5988:	92401dac 	and	x12, x13, #0xff
    598c:	36f8010d 	tbz	w13, #31, 59ac <main+0xad8>
    5990:	9240198c 	and	x12, x12, #0x7f
    5994:	eb09011f 	cmp	x8, x9
    5998:	9aca218c 	lsl	x12, x12, x10
    599c:	11001d4a 	add	w10, w10, #0x7
    59a0:	aa0b018b 	orr	x11, x12, x11
    59a4:	54ffff01 	b.ne	5984 <main+0xab0>  // b.any
    59a8:	14000188 	b	5fc8 <main+0x10f4>
    59ac:	9aca218a 	lsl	x10, x12, x10
    59b0:	aa0b014a 	orr	x10, x10, x11
    59b4:	d3437d4b 	ubfx	x11, x10, #3, #29
    59b8:	7100215f 	cmp	w10, #0x8
    59bc:	f81183a8 	stur	x8, [x29, #-232]
    59c0:	b812c3ab 	stur	w11, [x29, #-212]
    59c4:	540031a3 	b.cc	5ff8 <main+0x1124>  // b.lo, b.ul, b.last
    59c8:	0b17014c 	add	w12, w10, w23
    59cc:	53067d8c 	lsr	w12, w12, #6
    59d0:	7101f19f 	cmp	w12, #0x7c
    59d4:	54003129 	b.ls	5ff8 <main+0x1124>  // b.plast
    59d8:	1200094a 	and	w10, w10, #0x7
    59dc:	71000d5f 	cmp	w10, #0x3
    59e0:	7a452944 	ccmp	w10, #0x5, #0x4, cs  // cs = hs, nlast
    59e4:	b81283aa 	stur	w10, [x29, #-216]
    59e8:	540032a1 	b.ne	603c <main+0x1168>  // b.any
    59ec:	71000d7f 	cmp	w11, #0x3
    59f0:	54fff9c1 	b.ne	5928 <main+0xa54>  // b.any
    59f4:	17ffffc6 	b	590c <main+0xa38>
    59f8:	39c0090c 	ldrsb	w12, [x8, #2]
    59fc:	5312458a 	lsl	w10, w12, #14
    5a00:	9272194a 	and	x10, x10, #0x1fc000
    5a04:	aa0b014a 	orr	x10, x10, x11
    5a08:	37f8006c 	tbnz	w12, #31, 5a14 <main+0xb40>
    5a0c:	91000d08 	add	x8, x8, #0x3
    5a10:	17ffffe9 	b	59b4 <main+0xae0>
    5a14:	39c00d0b 	ldrsb	w11, [x8, #3]
    5a18:	530b296c 	lsl	w12, w11, #21
    5a1c:	926b198c 	and	x12, x12, #0xfe00000
    5a20:	aa0a018a 	orr	x10, x12, x10
    5a24:	37f8006b 	tbnz	w11, #31, 5a30 <main+0xb5c>
    5a28:	91001108 	add	x8, x8, #0x4
    5a2c:	17ffffe2 	b	59b4 <main+0xae0>
    5a30:	3980110b 	ldrsb	x11, [x8, #4]
    5a34:	b3648d6a 	bfi	x10, x11, #28, #36
    5a38:	b7f8006b 	tbnz	x11, #63, 5a44 <main+0xb70>
    5a3c:	91001508 	add	x8, x8, #0x5
    5a40:	17ffffdd 	b	59b4 <main+0xae0>
    5a44:	39c0150b 	ldrsb	w11, [x8, #5]
    5a48:	37f8006b 	tbnz	w11, #31, 5a54 <main+0xb80>
    5a4c:	91001908 	add	x8, x8, #0x6
    5a50:	17ffffd9 	b	59b4 <main+0xae0>
    5a54:	39c0190b 	ldrsb	w11, [x8, #6]
    5a58:	37f8006b 	tbnz	w11, #31, 5a64 <main+0xb90>
    5a5c:	91001d08 	add	x8, x8, #0x7
    5a60:	17ffffd5 	b	59b4 <main+0xae0>
    5a64:	39c01d0b 	ldrsb	w11, [x8, #7]
    5a68:	37f8006b 	tbnz	w11, #31, 5a74 <main+0xba0>
    5a6c:	91002108 	add	x8, x8, #0x8
    5a70:	17ffffd1 	b	59b4 <main+0xae0>
    5a74:	39c0210c 	ldrsb	w12, [x8, #8]
    5a78:	9100250b 	add	x11, x8, #0x9
    5a7c:	37f8006c 	tbnz	w12, #31, 5a88 <main+0xbb4>
    5a80:	aa0b03e8 	mov	x8, x11
    5a84:	17ffffcc 	b	59b4 <main+0xae0>
    5a88:	39c0016b 	ldrsb	w11, [x11]
    5a8c:	37f8356b 	tbnz	w11, #31, 6138 <main+0x1264>
    5a90:	91002908 	add	x8, x8, #0xa
    5a94:	17ffffc8 	b	59b4 <main+0xae0>
    5a98:	cb08012b 	sub	x11, x9, x8
    5a9c:	f100257f 	cmp	x11, #0x9
    5aa0:	5400012d 	b.le	5ac4 <main+0xbf0>
    5aa4:	39c0050c 	ldrsb	w12, [x8, #1]
    5aa8:	5319618b 	lsl	w11, w12, #7
    5aac:	9279196b 	and	x11, x11, #0x3f80
    5ab0:	b340194b 	bfxil	x11, x10, #0, #7
    5ab4:	37f81c0c 	tbnz	w12, #31, 5e34 <main+0xf60>
    5ab8:	91000908 	add	x8, x8, #0x2
    5abc:	aa0b03ea 	mov	x10, x11
    5ac0:	1400000f 	b	5afc <main+0xc28>
    5ac4:	2a1f03ea 	mov	w10, wzr
    5ac8:	aa1f03eb 	mov	x11, xzr
    5acc:	38c0150d 	ldrsb	w13, [x8], #1
    5ad0:	92401dac 	and	x12, x13, #0xff
    5ad4:	36f8010d 	tbz	w13, #31, 5af4 <main+0xc20>
    5ad8:	9240198c 	and	x12, x12, #0x7f
    5adc:	eb09011f 	cmp	x8, x9
    5ae0:	9aca218c 	lsl	x12, x12, x10
    5ae4:	11001d4a 	add	w10, w10, #0x7
    5ae8:	aa0b018b 	orr	x11, x12, x11
    5aec:	54ffff01 	b.ne	5acc <main+0xbf8>  // b.any
    5af0:	14000149 	b	6014 <main+0x1140>
    5af4:	9aca218a 	lsl	x10, x12, x10
    5af8:	aa0b014a 	orr	x10, x10, x11
    5afc:	8b2a410a 	add	x10, x8, w10, uxtw
    5b00:	f81183a8 	stur	x8, [x29, #-232]
    5b04:	eb09015f 	cmp	x10, x9
    5b08:	54002868 	b.hi	6014 <main+0x1140>  // b.pmore
    5b0c:	f81183aa 	stur	x10, [x29, #-232]
    5b10:	a9302ba8 	stp	x8, x10, [x29, #-256]
    5b14:	fc1103a8 	stur	d8, [x29, #-240]
    5b18:	52803700 	mov	w0, #0x1b8                 	// #440
    5b1c:	97fffb51 	bl	4860 <_Znwm@plt>
    5b20:	aa0003fc 	mov	x28, x0
    5b24:	9100401b 	add	x27, x0, #0x10
    5b28:	d0000128 	adrp	x8, 2b000 <GCC_except_table25+0xfe4c>
    5b2c:	91250108 	add	x8, x8, #0x940
    5b30:	fd000409 	str	d9, [x0, #8]
    5b34:	f9000008 	str	x8, [x0]
    5b38:	a94493e2 	ldp	x2, x4, [sp, #72]
    5b3c:	d10403a1 	sub	x1, x29, #0x100
    5b40:	aa1b03e0 	mov	x0, x27
    5b44:	f9402fe3 	ldr	x3, [sp, #88]
    5b48:	2a1f03e5 	mov	w5, wzr
    5b4c:	940005a5 	bl	71e0 <_ZN6mapnik16vector_tile_impl19tile_datasource_pbfC2ERKN9protozero10pbf_readerEmmmb>
    5b50:	a91473fb 	stp	x27, x28, [sp, #320]
    5b54:	d10343a8 	sub	x8, x29, #0xd0
    5b58:	aa1b03e0 	mov	x0, x27
    5b5c:	94000bd0 	bl	8a9c <_ZNK6mapnik16vector_tile_impl19tile_datasource_pbf15get_tile_extentEv>
    5b60:	9101e3e0 	add	x0, sp, #0x78
    5b64:	d10343a1 	sub	x1, x29, #0xd0
    5b68:	97fffa86 	bl	4580 <_ZN6mapnik5box2dIdEC1ERKS1_@plt>
    5b6c:	3dc00fe0 	ldr	q0, [sp, #48]
    5b70:	3c8983e0 	stur	q0, [sp, #152]
    5b74:	3c8a83e0 	stur	q0, [sp, #168]
    5b78:	d10343a1 	sub	x1, x29, #0xd0
    5b7c:	f94023e0 	ldr	x0, [sp, #64]
    5b80:	97fffa80 	bl	4580 <_ZN6mapnik5box2dIdEC1ERKS1_@plt>
    5b84:	f94017e8 	ldr	x8, [sp, #40]
    5b88:	a9007f5f 	stp	xzr, xzr, [x26]
    5b8c:	6f00e400 	movi	v0.2d, #0x0
    5b90:	f94033e9 	ldr	x9, [sp, #96]
    5b94:	f9000b5f 	str	xzr, [x26, #16]
    5b98:	a90f23e8 	stp	x8, x8, [sp, #240]
    5b9c:	52800028 	mov	w8, #0x1                   	// #1
    5ba0:	a9007e9f 	stp	xzr, xzr, [x20]
    5ba4:	ad0082a0 	stp	q0, q0, [x21, #16]
    5ba8:	3d8002a0 	str	q0, [x21]
    5bac:	a910a3e9 	stp	x9, x8, [sp, #264]
    5bb0:	52a7f008 	mov	w8, #0x3f800000            	// #1065353216
    5bb4:	a9007f3f 	stp	xzr, xzr, [x25]
    5bb8:	b9012be8 	str	w8, [sp, #296]
    5bbc:	f9400368 	ldr	x8, [x27]
    5bc0:	f9401109 	ldr	x9, [x8, #32]
    5bc4:	d10343a8 	sub	x8, x29, #0xd0
    5bc8:	9101e3e1 	add	x1, sp, #0x78
    5bcc:	aa1b03e0 	mov	x0, x27
    5bd0:	d63f0120 	blr	x9
    5bd4:	f85303a0 	ldur	x0, [x29, #-208]
    5bd8:	b40005a0 	cbz	x0, 5c8c <main+0xdb8>
    5bdc:	f9400008 	ldr	x8, [x0]
    5be0:	f9400109 	ldr	x9, [x8]
    5be4:	9101a3e8 	add	x8, sp, #0x68
    5be8:	d63f0120 	blr	x9
    5bec:	a946effc 	ldp	x28, x27, [sp, #104]
    5bf0:	b40003bb 	cbz	x27, 5c64 <main+0xd90>
    5bf4:	394002c8 	ldrb	w8, [x22]
    5bf8:	340000e8 	cbz	w8, 5c14 <main+0xd40>
    5bfc:	b9400b60 	ldr	w0, [x27, #8]
    5c00:	51000408 	sub	w8, w0, #0x1
    5c04:	b9000b68 	str	w8, [x27, #8]
    5c08:	7100041f 	cmp	w0, #0x1
    5c0c:	540000e0 	b.eq	5c28 <main+0xd54>  // b.none
    5c10:	14000015 	b	5c64 <main+0xd90>
    5c14:	91002361 	add	x1, x27, #0x8
    5c18:	12800000 	mov	w0, #0xffffffff            	// #-1
    5c1c:	9400417d 	bl	16210 <__aarch64_ldadd4_acq_rel>
    5c20:	7100041f 	cmp	w0, #0x1
    5c24:	54000201 	b.ne	5c64 <main+0xd90>  // b.any
    5c28:	f9400368 	ldr	x8, [x27]
    5c2c:	aa1b03e0 	mov	x0, x27
    5c30:	f9400908 	ldr	x8, [x8, #16]
    5c34:	d63f0100 	blr	x8
    5c38:	394002c8 	ldrb	w8, [x22]
    5c3c:	340001c8 	cbz	w8, 5c74 <main+0xda0>
    5c40:	b9400f60 	ldr	w0, [x27, #12]
    5c44:	51000408 	sub	w8, w0, #0x1
    5c48:	b9000f68 	str	w8, [x27, #12]
    5c4c:	7100041f 	cmp	w0, #0x1
    5c50:	540000a1 	b.ne	5c64 <main+0xd90>  // b.any
    5c54:	f9400368 	ldr	x8, [x27]
    5c58:	aa1b03e0 	mov	x0, x27
    5c5c:	f9400d08 	ldr	x8, [x8, #24]
    5c60:	d63f0100 	blr	x8
    5c64:	b400015c 	cbz	x28, 5c8c <main+0xdb8>
    5c68:	f85303a0 	ldur	x0, [x29, #-208]
    5c6c:	91000718 	add	x24, x24, #0x1
    5c70:	17ffffdb 	b	5bdc <main+0xd08>
    5c74:	91003361 	add	x1, x27, #0xc
    5c78:	12800000 	mov	w0, #0xffffffff            	// #-1
    5c7c:	94004165 	bl	16210 <__aarch64_ldadd4_acq_rel>
    5c80:	7100041f 	cmp	w0, #0x1
    5c84:	54fffe80 	b.eq	5c54 <main+0xd80>  // b.none
    5c88:	17fffff7 	b	5c64 <main+0xd90>
    5c8c:	f85383bb 	ldur	x27, [x29, #-200]
    5c90:	b40003bb 	cbz	x27, 5d04 <main+0xe30>
    5c94:	394002c8 	ldrb	w8, [x22]
    5c98:	340000e8 	cbz	w8, 5cb4 <main+0xde0>
    5c9c:	b9400b60 	ldr	w0, [x27, #8]
    5ca0:	51000408 	sub	w8, w0, #0x1
    5ca4:	b9000b68 	str	w8, [x27, #8]
    5ca8:	7100041f 	cmp	w0, #0x1
    5cac:	540000e0 	b.eq	5cc8 <main+0xdf4>  // b.none
    5cb0:	14000015 	b	5d04 <main+0xe30>
    5cb4:	91002361 	add	x1, x27, #0x8
    5cb8:	12800000 	mov	w0, #0xffffffff            	// #-1
    5cbc:	94004155 	bl	16210 <__aarch64_ldadd4_acq_rel>
    5cc0:	7100041f 	cmp	w0, #0x1
    5cc4:	54000201 	b.ne	5d04 <main+0xe30>  // b.any
    5cc8:	f9400368 	ldr	x8, [x27]
    5ccc:	aa1b03e0 	mov	x0, x27
    5cd0:	f9400908 	ldr	x8, [x8, #16]
    5cd4:	d63f0100 	blr	x8
    5cd8:	394002c8 	ldrb	w8, [x22]
    5cdc:	34000948 	cbz	w8, 5e04 <main+0xf30>
    5ce0:	b9400f60 	ldr	w0, [x27, #12]
    5ce4:	51000408 	sub	w8, w0, #0x1
    5ce8:	b9000f68 	str	w8, [x27, #12]
    5cec:	7100041f 	cmp	w0, #0x1
    5cf0:	540000a1 	b.ne	5d04 <main+0xe30>  // b.any
    5cf4:	f9400368 	ldr	x8, [x27]
    5cf8:	aa1b03e0 	mov	x0, x27
    5cfc:	f9400d08 	ldr	x8, [x8, #24]
    5d00:	d63f0100 	blr	x8
    5d04:	f9408ffb 	ldr	x27, [sp, #280]
    5d08:	b500039b 	cbnz	x27, 5d78 <main+0xea4>
    5d0c:	a950a3e0 	ldp	x0, x8, [sp, #264]
    5d10:	2a1f03e1 	mov	w1, wzr
    5d14:	d37df102 	lsl	x2, x8, #3
    5d18:	97fffa7a 	bl	4700 <memset@plt>
    5d1c:	f94087e0 	ldr	x0, [sp, #264]
    5d20:	a9007f3f 	stp	xzr, xzr, [x25]
    5d24:	f94033e8 	ldr	x8, [sp, #96]
    5d28:	eb00011f 	cmp	x8, x0
    5d2c:	54000040 	b.eq	5d34 <main+0xe60>  // b.none
    5d30:	97fffabc 	bl	4820 <_ZdlPv@plt>
    5d34:	f94077e1 	ldr	x1, [sp, #232]
    5d38:	aa1a03e0 	mov	x0, x26
    5d3c:	94000443 	bl	6e48 <_ZNSt8_Rb_treeINSt7__cxx1112basic_stringIcSt11char_traitsIcESaIcEEES5_St9_IdentityIS5_ESt4lessIS5_ESaIS5_EE8_M_eraseEPSt13_Rb_tree_nodeIS5_E>
    5d40:	f940a7fb 	ldr	x27, [sp, #328]
    5d44:	b4ffdadb 	cbz	x27, 589c <main+0x9c8>
    5d48:	394002c8 	ldrb	w8, [x22]
    5d4c:	340003a8 	cbz	w8, 5dc0 <main+0xeec>
    5d50:	b9400b60 	ldr	w0, [x27, #8]
    5d54:	51000408 	sub	w8, w0, #0x1
    5d58:	b9000b68 	str	w8, [x27, #8]
    5d5c:	7100041f 	cmp	w0, #0x1
    5d60:	54ffd9e1 	b.ne	589c <main+0x9c8>  // b.any
    5d64:	1400001c 	b	5dd4 <main+0xf00>
    5d68:	aa1b03e0 	mov	x0, x27
    5d6c:	97fffaad 	bl	4820 <_ZdlPv@plt>
    5d70:	aa1c03fb 	mov	x27, x28
    5d74:	b4fffcdc 	cbz	x28, 5d0c <main+0xe38>
    5d78:	b9402b68 	ldr	w8, [x27, #40]
    5d7c:	f940037c 	ldr	x28, [x27]
    5d80:	340000c8 	cbz	w8, 5d98 <main+0xec4>
    5d84:	f9400760 	ldr	x0, [x27, #8]
    5d88:	91006368 	add	x8, x27, #0x18
    5d8c:	eb08001f 	cmp	x0, x8
    5d90:	54000141 	b.ne	5db8 <main+0xee4>  // b.any
    5d94:	17fffff5 	b	5d68 <main+0xe94>
    5d98:	aa1b03e0 	mov	x0, x27
    5d9c:	f8430c08 	ldr	x8, [x0, #48]!
    5da0:	f9400108 	ldr	x8, [x8]
    5da4:	d63f0100 	blr	x8
    5da8:	f9400760 	ldr	x0, [x27, #8]
    5dac:	91006368 	add	x8, x27, #0x18
    5db0:	eb08001f 	cmp	x0, x8
    5db4:	54fffda0 	b.eq	5d68 <main+0xe94>  // b.none
    5db8:	97fffa9a 	bl	4820 <_ZdlPv@plt>
    5dbc:	17ffffeb 	b	5d68 <main+0xe94>
    5dc0:	91002361 	add	x1, x27, #0x8
    5dc4:	12800000 	mov	w0, #0xffffffff            	// #-1
    5dc8:	94004112 	bl	16210 <__aarch64_ldadd4_acq_rel>
    5dcc:	7100041f 	cmp	w0, #0x1
    5dd0:	54ffd661 	b.ne	589c <main+0x9c8>  // b.any
    5dd4:	f9400368 	ldr	x8, [x27]
    5dd8:	aa1b03e0 	mov	x0, x27
    5ddc:	f9400908 	ldr	x8, [x8, #16]
    5de0:	d63f0100 	blr	x8
    5de4:	394002c8 	ldrb	w8, [x22]
    5de8:	340001a8 	cbz	w8, 5e1c <main+0xf48>
    5dec:	b9400f60 	ldr	w0, [x27, #12]
    5df0:	51000408 	sub	w8, w0, #0x1
    5df4:	b9000f68 	str	w8, [x27, #12]
    5df8:	7100041f 	cmp	w0, #0x1
    5dfc:	54ffd501 	b.ne	589c <main+0x9c8>  // b.any
    5e00:	17fffea3 	b	588c <main+0x9b8>
    5e04:	91003361 	add	x1, x27, #0xc
    5e08:	12800000 	mov	w0, #0xffffffff            	// #-1
    5e0c:	94004101 	bl	16210 <__aarch64_ldadd4_acq_rel>
    5e10:	7100041f 	cmp	w0, #0x1
    5e14:	54fff700 	b.eq	5cf4 <main+0xe20>  // b.none
    5e18:	17ffffbb 	b	5d04 <main+0xe30>
    5e1c:	91003361 	add	x1, x27, #0xc
    5e20:	12800000 	mov	w0, #0xffffffff            	// #-1
    5e24:	940040fb 	bl	16210 <__aarch64_ldadd4_acq_rel>
    5e28:	7100041f 	cmp	w0, #0x1
    5e2c:	54ffd381 	b.ne	589c <main+0x9c8>  // b.any
    5e30:	17fffe97 	b	588c <main+0x9b8>
    5e34:	39c0090c 	ldrsb	w12, [x8, #2]
    5e38:	5312458a 	lsl	w10, w12, #14
    5e3c:	9272194a 	and	x10, x10, #0x1fc000
    5e40:	aa0b014a 	orr	x10, x10, x11
    5e44:	37f8006c 	tbnz	w12, #31, 5e50 <main+0xf7c>
    5e48:	91000d08 	add	x8, x8, #0x3
    5e4c:	17ffff2c 	b	5afc <main+0xc28>
    5e50:	39c00d0b 	ldrsb	w11, [x8, #3]
    5e54:	530b296c 	lsl	w12, w11, #21
    5e58:	926b198c 	and	x12, x12, #0xfe00000
    5e5c:	aa0a018a 	orr	x10, x12, x10
    5e60:	37f8006b 	tbnz	w11, #31, 5e6c <main+0xf98>
    5e64:	91001108 	add	x8, x8, #0x4
    5e68:	17ffff25 	b	5afc <main+0xc28>
    5e6c:	3980110b 	ldrsb	x11, [x8, #4]
    5e70:	b3648d6a 	bfi	x10, x11, #28, #36
    5e74:	b7f8006b 	tbnz	x11, #63, 5e80 <main+0xfac>
    5e78:	91001508 	add	x8, x8, #0x5
    5e7c:	17ffff20 	b	5afc <main+0xc28>
    5e80:	39c0150b 	ldrsb	w11, [x8, #5]
    5e84:	37f8006b 	tbnz	w11, #31, 5e90 <main+0xfbc>
    5e88:	91001908 	add	x8, x8, #0x6
    5e8c:	17ffff1c 	b	5afc <main+0xc28>
    5e90:	39c0190b 	ldrsb	w11, [x8, #6]
    5e94:	37f8006b 	tbnz	w11, #31, 5ea0 <main+0xfcc>
    5e98:	91001d08 	add	x8, x8, #0x7
    5e9c:	17ffff18 	b	5afc <main+0xc28>
    5ea0:	39c01d0b 	ldrsb	w11, [x8, #7]
    5ea4:	37f8006b 	tbnz	w11, #31, 5eb0 <main+0xfdc>
    5ea8:	91002108 	add	x8, x8, #0x8
    5eac:	17ffff14 	b	5afc <main+0xc28>
    5eb0:	39c0210c 	ldrsb	w12, [x8, #8]
    5eb4:	9100250b 	add	x11, x8, #0x9
    5eb8:	37f8006c 	tbnz	w12, #31, 5ec4 <main+0xff0>
    5ebc:	aa0b03e8 	mov	x8, x11
    5ec0:	17ffff0f 	b	5afc <main+0xc28>
    5ec4:	39c0016b 	ldrsb	w11, [x11]
    5ec8:	37f8146b 	tbnz	w11, #31, 6154 <main+0x1280>
    5ecc:	91002908 	add	x8, x8, #0xa
    5ed0:	17ffff0b 	b	5afc <main+0xc28>
    5ed4:	aa1f03f8 	mov	x24, xzr
    5ed8:	385783a8 	ldurb	w8, [x29, #-136]
    5edc:	d0000129 	adrp	x9, 2b000 <GCC_except_table25+0xfe4c>
    5ee0:	911ec129 	add	x9, x9, #0x7b0
    5ee4:	f81503a9 	stur	x9, [x29, #-176]
    5ee8:	35000068 	cbnz	w8, 5ef4 <main+0x1020>
    5eec:	d102c3a0 	sub	x0, x29, #0xb0
    5ef0:	9400020d 	bl	6724 <_ZNK6mapnik14progress_timer4stopEv>
    5ef4:	a9405be8 	ldp	x8, x22, [sp]
    5ef8:	a9414ff9 	ldp	x25, x19, [sp, #16]
    5efc:	f85883a0 	ldur	x0, [x29, #-120]
    5f00:	eb08001f 	cmp	x0, x8
    5f04:	54000040 	b.eq	5f0c <main+0x1038>  // b.none
    5f08:	97fffa46 	bl	4820 <_ZdlPv@plt>
    5f0c:	b4000498 	cbz	x24, 5f9c <main+0x10c8>
    5f10:	d0000120 	adrp	x0, 2b000 <GCC_except_table25+0xfe4c>
    5f14:	b0000081 	adrp	x1, 16000 <_ZNSt6vectorIN6mapbox8geometry7polygonIlS_EESaIS3_EE17_M_realloc_insertIJEEEvN9__gnu_cxx17__normal_iteratorIPS3_S5_EEDpOT_+0x78>
    5f18:	910d3021 	add	x1, x1, #0x34c
    5f1c:	52800142 	mov	w2, #0xa                   	// #10
    5f20:	f9479c00 	ldr	x0, [x0, #3896]
    5f24:	97fffa73 	bl	48f0 <_ZSt16__ostream_insertIcSt11char_traitsIcEERSt13basic_ostreamIT_T0_ES6_PKS3_l@plt>
    5f28:	d0000120 	adrp	x0, 2b000 <GCC_except_table25+0xfe4c>
    5f2c:	aa1803e1 	mov	x1, x24
    5f30:	f9479c00 	ldr	x0, [x0, #3896]
    5f34:	97fffa0b 	bl	4760 <_ZNSo9_M_insertImEERSoT_@plt>
    5f38:	b0000081 	adrp	x1, 16000 <_ZNSt6vectorIN6mapbox8geometry7polygonIlS_EESaIS3_EE17_M_realloc_insertIJEEEvN9__gnu_cxx17__normal_iteratorIPS3_S5_EEDpOT_+0x78>
    5f3c:	910d5c21 	add	x1, x1, #0x357
    5f40:	52800142 	mov	w2, #0xa                   	// #10
    5f44:	97fffa6b 	bl	48f0 <_ZSt16__ostream_insertIcSt11char_traitsIcEERSt13basic_ostreamIT_T0_ES6_PKS3_l@plt>
    5f48:	2a1f03f4 	mov	w20, wzr
    5f4c:	f85a83a0 	ldur	x0, [x29, #-88]
    5f50:	eb16001f 	cmp	x0, x22
    5f54:	54000040 	b.eq	5f5c <main+0x1088>  // b.none
    5f58:	97fffa32 	bl	4820 <_ZdlPv@plt>
    5f5c:	aa1303e0 	mov	x0, x19
    5f60:	97fff9cc 	bl	4690 <fclose@plt>
    5f64:	f85c83a0 	ldur	x0, [x29, #-56]
    5f68:	eb19001f 	cmp	x0, x25
    5f6c:	54000040 	b.eq	5f74 <main+0x10a0>  // b.none
    5f70:	97fffa2c 	bl	4820 <_ZdlPv@plt>
    5f74:	2a1403e0 	mov	w0, w20
    5f78:	910903ff 	add	sp, sp, #0x240
    5f7c:	a9464ff4 	ldp	x20, x19, [sp, #96]
    5f80:	a94557f6 	ldp	x22, x21, [sp, #80]
    5f84:	a9445ff8 	ldp	x24, x23, [sp, #64]
    5f88:	a94367fa 	ldp	x26, x25, [sp, #48]
    5f8c:	a9426ffc 	ldp	x28, x27, [sp, #32]
    5f90:	a9417bfd 	ldp	x29, x30, [sp, #16]
    5f94:	6cc723e9 	ldp	d9, d8, [sp], #112
    5f98:	d65f03c0 	ret
    5f9c:	d0000120 	adrp	x0, 2b000 <GCC_except_table25+0xfe4c>
    5fa0:	b0000081 	adrp	x1, 16000 <_ZNSt6vectorIN6mapbox8geometry7polygonIlS_EESaIS3_EE17_M_realloc_insertIJEEEvN9__gnu_cxx17__normal_iteratorIPS3_S5_EEDpOT_+0x78>
    5fa4:	910cb821 	add	x1, x1, #0x32e
    5fa8:	528003a2 	mov	w2, #0x1d                  	// #29
    5fac:	f9479c00 	ldr	x0, [x0, #3896]
    5fb0:	97fffa50 	bl	48f0 <_ZSt16__ostream_insertIcSt11char_traitsIcEERSt13basic_ostreamIT_T0_ES6_PKS3_l@plt>
    5fb4:	12800014 	mov	w20, #0xffffffff            	// #-1
    5fb8:	f85a83a0 	ldur	x0, [x29, #-88]
    5fbc:	eb16001f 	cmp	x0, x22
    5fc0:	54fffcc1 	b.ne	5f58 <main+0x1084>  // b.any
    5fc4:	17ffffe6 	b	5f5c <main+0x1088>
    5fc8:	52800100 	mov	w0, #0x8                   	// #8
    5fcc:	97fff9b5 	bl	46a0 <__cxa_allocate_exception@plt>
    5fd0:	d0000128 	adrp	x8, 2b000 <GCC_except_table25+0xfe4c>
    5fd4:	91232108 	add	x8, x8, #0x8c8
    5fd8:	d0000121 	adrp	x1, 2b000 <GCC_except_table25+0xfe4c>
    5fdc:	9121e021 	add	x1, x1, #0x878
    5fe0:	f9000008 	str	x8, [x0]
    5fe4:	a9414ff9 	ldp	x25, x19, [sp, #16]
    5fe8:	f94007f6 	ldr	x22, [sp, #8]
    5fec:	d0000122 	adrp	x2, 2b000 <GCC_except_table25+0xfe4c>
    5ff0:	f947dc42 	ldr	x2, [x2, #4024]
    5ff4:	97fffac7 	bl	4b10 <__cxa_throw@plt>
    5ff8:	52800100 	mov	w0, #0x8                   	// #8
    5ffc:	97fff9a9 	bl	46a0 <__cxa_allocate_exception@plt>
    6000:	b0000128 	adrp	x8, 2b000 <GCC_except_table25+0xfe4c>
    6004:	9123c108 	add	x8, x8, #0x8f0
    6008:	b0000121 	adrp	x1, 2b000 <GCC_except_table25+0xfe4c>
    600c:	9120c021 	add	x1, x1, #0x830
    6010:	17fffff4 	b	5fe0 <main+0x110c>
    6014:	52800100 	mov	w0, #0x8                   	// #8
    6018:	97fff9a2 	bl	46a0 <__cxa_allocate_exception@plt>
    601c:	b0000128 	adrp	x8, 2b000 <GCC_except_table25+0xfe4c>
    6020:	91232108 	add	x8, x8, #0x8c8
    6024:	b0000121 	adrp	x1, 2b000 <GCC_except_table25+0xfe4c>
    6028:	9121e021 	add	x1, x1, #0x878
    602c:	f9000008 	str	x8, [x0]
    6030:	b0000122 	adrp	x2, 2b000 <GCC_except_table25+0xfe4c>
    6034:	f947dc42 	ldr	x2, [x2, #4024]
    6038:	97fffab6 	bl	4b10 <__cxa_throw@plt>
    603c:	52800100 	mov	w0, #0x8                   	// #8
    6040:	97fff998 	bl	46a0 <__cxa_allocate_exception@plt>
    6044:	b0000128 	adrp	x8, 2b000 <GCC_except_table25+0xfe4c>
    6048:	91246108 	add	x8, x8, #0x918
    604c:	b0000121 	adrp	x1, 2b000 <GCC_except_table25+0xfe4c>
    6050:	91212021 	add	x1, x1, #0x848
    6054:	17ffffe3 	b	5fe0 <main+0x110c>
    6058:	52800100 	mov	w0, #0x8                   	// #8
    605c:	97fff991 	bl	46a0 <__cxa_allocate_exception@plt>
    6060:	b0000128 	adrp	x8, 2b000 <GCC_except_table25+0xfe4c>
    6064:	9123c108 	add	x8, x8, #0x8f0
    6068:	b0000121 	adrp	x1, 2b000 <GCC_except_table25+0xfe4c>
    606c:	9120c021 	add	x1, x1, #0x830
    6070:	f9000008 	str	x8, [x0]
    6074:	b0000122 	adrp	x2, 2b000 <GCC_except_table25+0xfe4c>
    6078:	f947dc42 	ldr	x2, [x2, #4024]
    607c:	97fffaa5 	bl	4b10 <__cxa_throw@plt>
    6080:	52800100 	mov	w0, #0x8                   	// #8
    6084:	97fff987 	bl	46a0 <__cxa_allocate_exception@plt>
    6088:	b0000128 	adrp	x8, 2b000 <GCC_except_table25+0xfe4c>
    608c:	91246108 	add	x8, x8, #0x918
    6090:	b0000121 	adrp	x1, 2b000 <GCC_except_table25+0xfe4c>
    6094:	91212021 	add	x1, x1, #0x848
    6098:	17fffff6 	b	6070 <main+0x119c>
    609c:	90000080 	adrp	x0, 16000 <_ZNSt6vectorIN6mapbox8geometry7polygonIlS_EESaIS3_EE17_M_realloc_insertIJEEEvN9__gnu_cxx17__normal_iteratorIPS3_S5_EEDpOT_+0x78>
    60a0:	910dc800 	add	x0, x0, #0x372
    60a4:	97fff9b7 	bl	4780 <_ZSt19__throw_logic_errorPKc@plt>
    60a8:	90000080 	adrp	x0, 16000 <_ZNSt6vectorIN6mapbox8geometry7polygonIlS_EESaIS3_EE17_M_realloc_insertIJEEEvN9__gnu_cxx17__normal_iteratorIPS3_S5_EEDpOT_+0x78>
    60ac:	910dc800 	add	x0, x0, #0x372
    60b0:	97fff9b4 	bl	4780 <_ZSt19__throw_logic_errorPKc@plt>
    60b4:	90000080 	adrp	x0, 16000 <_ZNSt6vectorIN6mapbox8geometry7polygonIlS_EESaIS3_EE17_M_realloc_insertIJEEEvN9__gnu_cxx17__normal_iteratorIPS3_S5_EEDpOT_+0x78>
    60b8:	910db400 	add	x0, x0, #0x36d
    60bc:	97fff99d 	bl	4730 <_ZSt24__throw_invalid_argumentPKc@plt>
    60c0:	90000080 	adrp	x0, 16000 <_ZNSt6vectorIN6mapbox8geometry7polygonIlS_EESaIS3_EE17_M_realloc_insertIJEEEvN9__gnu_cxx17__normal_iteratorIPS3_S5_EEDpOT_+0x78>
    60c4:	910db400 	add	x0, x0, #0x36d
    60c8:	97fffa4e 	bl	4a00 <_ZSt20__throw_out_of_rangePKc@plt>
    60cc:	90000080 	adrp	x0, 16000 <_ZNSt6vectorIN6mapbox8geometry7polygonIlS_EESaIS3_EE17_M_realloc_insertIJEEEvN9__gnu_cxx17__normal_iteratorIPS3_S5_EEDpOT_+0x78>
    60d0:	910dc800 	add	x0, x0, #0x372
    60d4:	97fff9ab 	bl	4780 <_ZSt19__throw_logic_errorPKc@plt>
    60d8:	90000080 	adrp	x0, 16000 <_ZNSt6vectorIN6mapbox8geometry7polygonIlS_EESaIS3_EE17_M_realloc_insertIJEEEvN9__gnu_cxx17__normal_iteratorIPS3_S5_EEDpOT_+0x78>
    60dc:	910db400 	add	x0, x0, #0x36d
    60e0:	97fff994 	bl	4730 <_ZSt24__throw_invalid_argumentPKc@plt>
    60e4:	90000080 	adrp	x0, 16000 <_ZNSt6vectorIN6mapbox8geometry7polygonIlS_EESaIS3_EE17_M_realloc_insertIJEEEvN9__gnu_cxx17__normal_iteratorIPS3_S5_EEDpOT_+0x78>
    60e8:	910db400 	add	x0, x0, #0x36d
    60ec:	97fffa45 	bl	4a00 <_ZSt20__throw_out_of_rangePKc@plt>
    60f0:	90000080 	adrp	x0, 16000 <_ZNSt6vectorIN6mapbox8geometry7polygonIlS_EESaIS3_EE17_M_realloc_insertIJEEEvN9__gnu_cxx17__normal_iteratorIPS3_S5_EEDpOT_+0x78>
    60f4:	910dc800 	add	x0, x0, #0x372
    60f8:	97fff9a2 	bl	4780 <_ZSt19__throw_logic_errorPKc@plt>
    60fc:	90000080 	adrp	x0, 16000 <_ZNSt6vectorIN6mapbox8geometry7polygonIlS_EESaIS3_EE17_M_realloc_insertIJEEEvN9__gnu_cxx17__normal_iteratorIPS3_S5_EEDpOT_+0x78>
    6100:	910db400 	add	x0, x0, #0x36d
    6104:	97fff98b 	bl	4730 <_ZSt24__throw_invalid_argumentPKc@plt>
    6108:	90000080 	adrp	x0, 16000 <_ZNSt6vectorIN6mapbox8geometry7polygonIlS_EESaIS3_EE17_M_realloc_insertIJEEEvN9__gnu_cxx17__normal_iteratorIPS3_S5_EEDpOT_+0x78>
    610c:	910db400 	add	x0, x0, #0x36d
    6110:	97fffa3c 	bl	4a00 <_ZSt20__throw_out_of_rangePKc@plt>
    6114:	90000080 	adrp	x0, 16000 <_ZNSt6vectorIN6mapbox8geometry7polygonIlS_EESaIS3_EE17_M_realloc_insertIJEEEvN9__gnu_cxx17__normal_iteratorIPS3_S5_EEDpOT_+0x78>
    6118:	910dc800 	add	x0, x0, #0x372
    611c:	97fff999 	bl	4780 <_ZSt19__throw_logic_errorPKc@plt>
    6120:	90000080 	adrp	x0, 16000 <_ZNSt6vectorIN6mapbox8geometry7polygonIlS_EESaIS3_EE17_M_realloc_insertIJEEEvN9__gnu_cxx17__normal_iteratorIPS3_S5_EEDpOT_+0x78>
    6124:	910db400 	add	x0, x0, #0x36d
    6128:	97fff982 	bl	4730 <_ZSt24__throw_invalid_argumentPKc@plt>
    612c:	90000080 	adrp	x0, 16000 <_ZNSt6vectorIN6mapbox8geometry7polygonIlS_EESaIS3_EE17_M_realloc_insertIJEEEvN9__gnu_cxx17__normal_iteratorIPS3_S5_EEDpOT_+0x78>
    6130:	910db400 	add	x0, x0, #0x36d
    6134:	97fffa33 	bl	4a00 <_ZSt20__throw_out_of_rangePKc@plt>
    6138:	52800100 	mov	w0, #0x8                   	// #8
    613c:	97fff959 	bl	46a0 <__cxa_allocate_exception@plt>
    6140:	b0000128 	adrp	x8, 2b000 <GCC_except_table25+0xfe4c>
    6144:	91228108 	add	x8, x8, #0x8a0
    6148:	b0000121 	adrp	x1, 2b000 <GCC_except_table25+0xfe4c>
    614c:	91218021 	add	x1, x1, #0x860
    6150:	17ffffa4 	b	5fe0 <main+0x110c>
    6154:	52800100 	mov	w0, #0x8                   	// #8
    6158:	97fff952 	bl	46a0 <__cxa_allocate_exception@plt>
    615c:	b0000128 	adrp	x8, 2b000 <GCC_except_table25+0xfe4c>
    6160:	91228108 	add	x8, x8, #0x8a0
    6164:	b0000121 	adrp	x1, 2b000 <GCC_except_table25+0xfe4c>
    6168:	91218021 	add	x1, x1, #0x860
    616c:	17ffffb0 	b	602c <main+0x1158>
    6170:	aa0103f4 	mov	x20, x1
    6174:	aa0003f5 	mov	x21, x0
    6178:	14000008 	b	6198 <main+0x12c4>
    617c:	f9403fe8 	ldr	x8, [sp, #120]
    6180:	aa0103f4 	mov	x20, x1
    6184:	aa0003f5 	mov	x21, x0
    6188:	eb13011f 	cmp	x8, x19
    618c:	54000060 	b.eq	6198 <main+0x12c4>  // b.none
    6190:	aa0803e0 	mov	x0, x8
    6194:	97fff9a3 	bl	4820 <_ZdlPv@plt>
    6198:	a9414ff9 	ldp	x25, x19, [sp, #16]
    619c:	1400007c 	b	638c <main+0x14b8>
    61a0:	aa0103f4 	mov	x20, x1
    61a4:	aa0003f5 	mov	x21, x0
    61a8:	b400093a 	cbz	x26, 62cc <main+0x13f8>
    61ac:	aa1a03e0 	mov	x0, x26
    61b0:	97fff9e4 	bl	4940 <_ZdaPv@plt>
    61b4:	14000046 	b	62cc <main+0x13f8>
    61b8:	94000143 	bl	66c4 <__clang_call_terminate>
    61bc:	f9403fe8 	ldr	x8, [sp, #120]
    61c0:	aa0103f4 	mov	x20, x1
    61c4:	aa0003f5 	mov	x21, x0
    61c8:	eb16011f 	cmp	x8, x22
    61cc:	54000160 	b.eq	61f8 <main+0x1324>  // b.none
    61d0:	aa0803e0 	mov	x0, x8
    61d4:	97fff993 	bl	4820 <_ZdlPv@plt>
    61d8:	14000008 	b	61f8 <main+0x1324>
    61dc:	aa0103f4 	mov	x20, x1
    61e0:	aa0003f5 	mov	x21, x0
    61e4:	1400001b 	b	6250 <main+0x137c>
    61e8:	14000021 	b	626c <main+0x1398>
    61ec:	14000020 	b	626c <main+0x1398>
    61f0:	aa0103f4 	mov	x20, x1
    61f4:	aa0003f5 	mov	x21, x0
    61f8:	f85303a0 	ldur	x0, [x29, #-208]
    61fc:	eb13001f 	cmp	x0, x19
    6200:	540000a0 	b.eq	6214 <main+0x1340>  // b.none
    6204:	97fff987 	bl	4820 <_ZdlPv@plt>
    6208:	14000003 	b	6214 <main+0x1340>
    620c:	aa0103f4 	mov	x20, x1
    6210:	aa0003f5 	mov	x21, x0
    6214:	a9414ff9 	ldp	x25, x19, [sp, #16]
    6218:	f94007f6 	ldr	x22, [sp, #8]
    621c:	1400005c 	b	638c <main+0x14b8>
    6220:	aa0103f4 	mov	x20, x1
    6224:	b9400328 	ldr	w8, [x25]
    6228:	aa0003f5 	mov	x21, x0
    622c:	35000488 	cbnz	w8, 62bc <main+0x13e8>
    6230:	14000022 	b	62b8 <main+0x13e4>
    6234:	f9403fe8 	ldr	x8, [sp, #120]
    6238:	aa0103f4 	mov	x20, x1
    623c:	aa0003f5 	mov	x21, x0
    6240:	eb16011f 	cmp	x8, x22
    6244:	54000060 	b.eq	6250 <main+0x137c>  // b.none
    6248:	aa0803e0 	mov	x0, x8
    624c:	97fff975 	bl	4820 <_ZdlPv@plt>
    6250:	f85503a0 	ldur	x0, [x29, #-176]
    6254:	eb13001f 	cmp	x0, x19
    6258:	54000a60 	b.eq	63a4 <main+0x14d0>  // b.none
    625c:	97fff971 	bl	4820 <_ZdlPv@plt>
    6260:	14000051 	b	63a4 <main+0x14d0>
    6264:	14000002 	b	626c <main+0x1398>
    6268:	14000001 	b	626c <main+0x1398>
    626c:	aa0103f4 	mov	x20, x1
    6270:	aa0003f5 	mov	x21, x0
    6274:	14000016 	b	62cc <main+0x13f8>
    6278:	1400001a 	b	62e0 <main+0x140c>
    627c:	aa0103f4 	mov	x20, x1
    6280:	b9400328 	ldr	w8, [x25]
    6284:	aa0003f5 	mov	x21, x0
    6288:	350001a8 	cbnz	w8, 62bc <main+0x13e8>
    628c:	1400000b 	b	62b8 <main+0x13e4>
    6290:	aa0103f4 	mov	x20, x1
    6294:	b9400328 	ldr	w8, [x25]
    6298:	aa0003f5 	mov	x21, x0
    629c:	35000108 	cbnz	w8, 62bc <main+0x13e8>
    62a0:	b900033b 	str	w27, [x25]
    62a4:	14000006 	b	62bc <main+0x13e8>
    62a8:	aa0103f4 	mov	x20, x1
    62ac:	b9400328 	ldr	w8, [x25]
    62b0:	aa0003f5 	mov	x21, x0
    62b4:	35000048 	cbnz	w8, 62bc <main+0x13e8>
    62b8:	b9000336 	str	w22, [x25]
    62bc:	f9403fe0 	ldr	x0, [sp, #120]
    62c0:	eb13001f 	cmp	x0, x19
    62c4:	54000040 	b.eq	62cc <main+0x13f8>  // b.none
    62c8:	97fff956 	bl	4820 <_ZdlPv@plt>
    62cc:	a9414ff9 	ldp	x25, x19, [sp, #16]
    62d0:	14000033 	b	639c <main+0x14c8>
    62d4:	aa0103f4 	mov	x20, x1
    62d8:	aa0003f5 	mov	x21, x0
    62dc:	1400002c 	b	638c <main+0x14b8>
    62e0:	aa0103f4 	mov	x20, x1
    62e4:	aa0003f5 	mov	x21, x0
    62e8:	14000033 	b	63b4 <main+0x14e0>
    62ec:	aa0103f4 	mov	x20, x1
    62f0:	aa0003f5 	mov	x21, x0
    62f4:	f9400bf9 	ldr	x25, [sp, #16]
    62f8:	14000029 	b	639c <main+0x14c8>
    62fc:	14000010 	b	633c <main+0x1468>
    6300:	940000f1 	bl	66c4 <__clang_call_terminate>
    6304:	aa0103f4 	mov	x20, x1
    6308:	aa0003f5 	mov	x21, x0
    630c:	14000015 	b	6360 <main+0x148c>
    6310:	aa0003f5 	mov	x21, x0
    6314:	aa1c03e0 	mov	x0, x28
    6318:	aa0103f4 	mov	x20, x1
    631c:	97fff941 	bl	4820 <_ZdlPv@plt>
    6320:	14000009 	b	6344 <main+0x1470>
    6324:	14000006 	b	633c <main+0x1468>
    6328:	14000005 	b	633c <main+0x1468>
    632c:	aa0103f4 	mov	x20, x1
    6330:	aa0003f5 	mov	x21, x0
    6334:	1400000d 	b	6368 <main+0x1494>
    6338:	14000001 	b	633c <main+0x1468>
    633c:	aa0103f4 	mov	x20, x1
    6340:	aa0003f5 	mov	x21, x0
    6344:	a9414ff9 	ldp	x25, x19, [sp, #16]
    6348:	f94007f6 	ldr	x22, [sp, #8]
    634c:	1400000e 	b	6384 <main+0x14b0>
    6350:	aa0003f5 	mov	x21, x0
    6354:	d10343a0 	sub	x0, x29, #0xd0
    6358:	aa0103f4 	mov	x20, x1
    635c:	9400003a 	bl	6444 <_ZNSt12__shared_ptrIN6mapnik10FeaturesetELN9__gnu_cxx12_Lock_policyE2EED2Ev>
    6360:	9101e3e0 	add	x0, sp, #0x78
    6364:	94000065 	bl	64f8 <_ZN6mapnik5queryD2Ev>
    6368:	a9414ff9 	ldp	x25, x19, [sp, #16]
    636c:	910503e0 	add	x0, sp, #0x140
    6370:	f94007f6 	ldr	x22, [sp, #8]
    6374:	94000091 	bl	65b8 <_ZNSt12__shared_ptrIN6mapnik16vector_tile_impl19tile_datasource_pbfELN9__gnu_cxx12_Lock_policyE2EED2Ev>
    6378:	14000003 	b	6384 <main+0x14b0>
    637c:	aa0103f4 	mov	x20, x1
    6380:	aa0003f5 	mov	x21, x0
    6384:	d102c3a0 	sub	x0, x29, #0xb0
    6388:	940000b9 	bl	666c <_ZN6mapnik14progress_timerD2Ev>
    638c:	f85a83a0 	ldur	x0, [x29, #-88]
    6390:	eb16001f 	cmp	x0, x22
    6394:	54000040 	b.eq	639c <main+0x14c8>  // b.none
    6398:	97fff922 	bl	4820 <_ZdlPv@plt>
    639c:	aa1303e0 	mov	x0, x19
    63a0:	97fff8bc 	bl	4690 <fclose@plt>
    63a4:	f85c83a0 	ldur	x0, [x29, #-56]
    63a8:	eb19001f 	cmp	x0, x25
    63ac:	54000040 	b.eq	63b4 <main+0x14e0>  // b.none
    63b0:	97fff91c 	bl	4820 <_ZdlPv@plt>
    63b4:	7100069f 	cmp	w20, #0x1
    63b8:	54000341 	b.ne	6420 <main+0x154c>  // b.any
    63bc:	aa1503e0 	mov	x0, x21
    63c0:	97fff8a8 	bl	4660 <__cxa_begin_catch@plt>
    63c4:	aa0003f3 	mov	x19, x0
    63c8:	b0000120 	adrp	x0, 2b000 <GCC_except_table25+0xfe4c>
    63cc:	90000081 	adrp	x1, 16000 <_ZNSt6vectorIN6mapbox8geometry7polygonIlS_EESaIS3_EE17_M_realloc_insertIJEEEvN9__gnu_cxx17__normal_iteratorIPS3_S5_EEDpOT_+0x78>
    63d0:	910d8821 	add	x1, x1, #0x362
    63d4:	528000e2 	mov	w2, #0x7                   	// #7
    63d8:	f9479c00 	ldr	x0, [x0, #3896]
    63dc:	97fff945 	bl	48f0 <_ZSt16__ostream_insertIcSt11char_traitsIcEERSt13basic_ostreamIT_T0_ES6_PKS3_l@plt>
    63e0:	f9400268 	ldr	x8, [x19]
    63e4:	aa1303e0 	mov	x0, x19
    63e8:	f9400908 	ldr	x8, [x8, #16]
    63ec:	d63f0100 	blr	x8
    63f0:	aa0003e1 	mov	x1, x0
    63f4:	b0000120 	adrp	x0, 2b000 <GCC_except_table25+0xfe4c>
    63f8:	f9479c00 	ldr	x0, [x0, #3896]
    63fc:	97fff915 	bl	4850 <_ZStlsISt11char_traitsIcEERSt13basic_ostreamIcT_ES5_PKc@plt>
    6400:	90000081 	adrp	x1, 16000 <_ZNSt6vectorIN6mapbox8geometry7polygonIlS_EESaIS3_EE17_M_realloc_insertIJEEEvN9__gnu_cxx17__normal_iteratorIPS3_S5_EEDpOT_+0x78>
    6404:	910ad421 	add	x1, x1, #0x2b5
    6408:	52800022 	mov	w2, #0x1                   	// #1
    640c:	97fff939 	bl	48f0 <_ZSt16__ostream_insertIcSt11char_traitsIcEERSt13basic_ostreamIT_T0_ES6_PKS3_l@plt>
    6410:	97fff9ac 	bl	4ac0 <__cxa_end_catch@plt>
    6414:	17fffac1 	b	4f18 <main+0x44>
    6418:	aa0003f5 	mov	x21, x0
    641c:	97fff9a9 	bl	4ac0 <__cxa_end_catch@plt>
    6420:	aa1503e0 	mov	x0, x21
    6424:	97fff9cb 	bl	4b50 <_Unwind_Resume@plt>
    6428:	940000a7 	bl	66c4 <__clang_call_terminate>

000000000000642c <_ZN6mapbox4util7variantIJN6mapnik10value_nullEbldN6icu_5813UnicodeStringEEED2Ev>:
    642c:	b9400008 	ldr	w8, [x0]
    6430:	34000048 	cbz	w8, 6438 <_ZN6mapbox4util7variantIJN6mapnik10value_nullEbldN6icu_5813UnicodeStringEEED2Ev+0xc>
    6434:	d65f03c0 	ret
    6438:	f8408c08 	ldr	x8, [x0, #8]!
    643c:	f9400101 	ldr	x1, [x8]
    6440:	d61f0020 	br	x1

0000000000006444 <_ZNSt12__shared_ptrIN6mapnik10FeaturesetELN9__gnu_cxx12_Lock_policyE2EED2Ev>:
    6444:	a9be7bfd 	stp	x29, x30, [sp, #-32]!
    6448:	a9014ff4 	stp	x20, x19, [sp, #16]
    644c:	910003fd 	mov	x29, sp
    6450:	f9400413 	ldr	x19, [x0, #8]
    6454:	b40004d3 	cbz	x19, 64ec <_ZNSt12__shared_ptrIN6mapnik10FeaturesetELN9__gnu_cxx12_Lock_policyE2EED2Ev+0xa8>
    6458:	b0000134 	adrp	x20, 2b000 <GCC_except_table25+0xfe4c>
    645c:	f947c294 	ldr	x20, [x20, #3968]
    6460:	39400288 	ldrb	w8, [x20]
    6464:	340000e8 	cbz	w8, 6480 <_ZNSt12__shared_ptrIN6mapnik10FeaturesetELN9__gnu_cxx12_Lock_policyE2EED2Ev+0x3c>
    6468:	b9400a60 	ldr	w0, [x19, #8]
    646c:	51000408 	sub	w8, w0, #0x1
    6470:	b9000a68 	str	w8, [x19, #8]
    6474:	7100041f 	cmp	w0, #0x1
    6478:	540000e0 	b.eq	6494 <_ZNSt12__shared_ptrIN6mapnik10FeaturesetELN9__gnu_cxx12_Lock_policyE2EED2Ev+0x50>  // b.none
    647c:	1400001c 	b	64ec <_ZNSt12__shared_ptrIN6mapnik10FeaturesetELN9__gnu_cxx12_Lock_policyE2EED2Ev+0xa8>
    6480:	91002261 	add	x1, x19, #0x8
    6484:	12800000 	mov	w0, #0xffffffff            	// #-1
    6488:	94003f62 	bl	16210 <__aarch64_ldadd4_acq_rel>
    648c:	7100041f 	cmp	w0, #0x1
    6490:	540002e1 	b.ne	64ec <_ZNSt12__shared_ptrIN6mapnik10FeaturesetELN9__gnu_cxx12_Lock_policyE2EED2Ev+0xa8>  // b.any
    6494:	f9400268 	ldr	x8, [x19]
    6498:	aa1303e0 	mov	x0, x19
    649c:	f9400908 	ldr	x8, [x8, #16]
    64a0:	d63f0100 	blr	x8
    64a4:	39400288 	ldrb	w8, [x20]
    64a8:	34000188 	cbz	w8, 64d8 <_ZNSt12__shared_ptrIN6mapnik10FeaturesetELN9__gnu_cxx12_Lock_policyE2EED2Ev+0x94>
    64ac:	b9400e60 	ldr	w0, [x19, #12]
    64b0:	51000408 	sub	w8, w0, #0x1
    64b4:	b9000e68 	str	w8, [x19, #12]
    64b8:	7100041f 	cmp	w0, #0x1
    64bc:	54000181 	b.ne	64ec <_ZNSt12__shared_ptrIN6mapnik10FeaturesetELN9__gnu_cxx12_Lock_policyE2EED2Ev+0xa8>  // b.any
    64c0:	f9400268 	ldr	x8, [x19]
    64c4:	f9400d01 	ldr	x1, [x8, #24]
    64c8:	aa1303e0 	mov	x0, x19
    64cc:	a9414ff4 	ldp	x20, x19, [sp, #16]
    64d0:	a8c27bfd 	ldp	x29, x30, [sp], #32
    64d4:	d61f0020 	br	x1
    64d8:	91003261 	add	x1, x19, #0xc
    64dc:	12800000 	mov	w0, #0xffffffff            	// #-1
    64e0:	94003f4c 	bl	16210 <__aarch64_ldadd4_acq_rel>
    64e4:	7100041f 	cmp	w0, #0x1
    64e8:	54fffec0 	b.eq	64c0 <_ZNSt12__shared_ptrIN6mapnik10FeaturesetELN9__gnu_cxx12_Lock_policyE2EED2Ev+0x7c>  // b.none
    64ec:	a9414ff4 	ldp	x20, x19, [sp, #16]
    64f0:	a8c27bfd 	ldp	x29, x30, [sp], #32
    64f4:	d65f03c0 	ret

00000000000064f8 <_ZN6mapnik5queryD2Ev>:
    64f8:	a9bd7bfd 	stp	x29, x30, [sp, #-48]!
    64fc:	a90157f6 	stp	x22, x21, [sp, #16]
    6500:	a9024ff4 	stp	x20, x19, [sp, #32]
    6504:	910003fd 	mov	x29, sp
    6508:	aa0003f5 	mov	x21, x0
    650c:	aa0003f3 	mov	x19, x0
    6510:	f84a0eb4 	ldr	x20, [x21, #160]!
    6514:	b50002d4 	cbnz	x20, 656c <_ZN6mapnik5queryD2Ev+0x74>
    6518:	a9492260 	ldp	x0, x8, [x19, #144]
    651c:	2a1f03e1 	mov	w1, wzr
    6520:	d37df102 	lsl	x2, x8, #3
    6524:	97fff877 	bl	4700 <memset@plt>
    6528:	f9404a60 	ldr	x0, [x19, #144]
    652c:	91030268 	add	x8, x19, #0xc0
    6530:	a9007ebf 	stp	xzr, xzr, [x21]
    6534:	eb00011f 	cmp	x8, x0
    6538:	54000040 	b.eq	6540 <_ZN6mapnik5queryD2Ev+0x48>  // b.none
    653c:	97fff8b9 	bl	4820 <_ZdlPv@plt>
    6540:	91018260 	add	x0, x19, #0x60
    6544:	f9403a61 	ldr	x1, [x19, #112]
    6548:	94000240 	bl	6e48 <_ZNSt8_Rb_treeINSt7__cxx1112basic_stringIcSt11char_traitsIcESaIcEEES5_St9_IdentityIS5_ESt4lessIS5_ESaIS5_EE8_M_eraseEPSt13_Rb_tree_nodeIS5_E>
    654c:	a9424ff4 	ldp	x20, x19, [sp, #32]
    6550:	a94157f6 	ldp	x22, x21, [sp, #16]
    6554:	a8c37bfd 	ldp	x29, x30, [sp], #48
    6558:	d65f03c0 	ret
    655c:	aa1403e0 	mov	x0, x20
    6560:	97fff8b0 	bl	4820 <_ZdlPv@plt>
    6564:	aa1603f4 	mov	x20, x22
    6568:	b4fffd96 	cbz	x22, 6518 <_ZN6mapnik5queryD2Ev+0x20>
    656c:	b9402a88 	ldr	w8, [x20, #40]
    6570:	f9400296 	ldr	x22, [x20]
    6574:	340000c8 	cbz	w8, 658c <_ZN6mapnik5queryD2Ev+0x94>
    6578:	f9400680 	ldr	x0, [x20, #8]
    657c:	91006288 	add	x8, x20, #0x18
    6580:	eb08001f 	cmp	x0, x8
    6584:	54000141 	b.ne	65ac <_ZN6mapnik5queryD2Ev+0xb4>  // b.any
    6588:	17fffff5 	b	655c <_ZN6mapnik5queryD2Ev+0x64>
    658c:	aa1403e0 	mov	x0, x20
    6590:	f8430c08 	ldr	x8, [x0, #48]!
    6594:	f9400108 	ldr	x8, [x8]
    6598:	d63f0100 	blr	x8
    659c:	f9400680 	ldr	x0, [x20, #8]
    65a0:	91006288 	add	x8, x20, #0x18
    65a4:	eb08001f 	cmp	x0, x8
    65a8:	54fffda0 	b.eq	655c <_ZN6mapnik5queryD2Ev+0x64>  // b.none
    65ac:	97fff89d 	bl	4820 <_ZdlPv@plt>
    65b0:	17ffffeb 	b	655c <_ZN6mapnik5queryD2Ev+0x64>
    65b4:	94000044 	bl	66c4 <__clang_call_terminate>

00000000000065b8 <_ZNSt12__shared_ptrIN6mapnik16vector_tile_impl19tile_datasource_pbfELN9__gnu_cxx12_Lock_policyE2EED2Ev>:
    65b8:	a9be7bfd 	stp	x29, x30, [sp, #-32]!
    65bc:	a9014ff4 	stp	x20, x19, [sp, #16]
    65c0:	910003fd 	mov	x29, sp
    65c4:	f9400413 	ldr	x19, [x0, #8]
    65c8:	b40004d3 	cbz	x19, 6660 <_ZNSt12__shared_ptrIN6mapnik16vector_tile_impl19tile_datasource_pbfELN9__gnu_cxx12_Lock_policyE2EED2Ev+0xa8>
    65cc:	b0000134 	adrp	x20, 2b000 <GCC_except_table25+0xfe4c>
    65d0:	f947c294 	ldr	x20, [x20, #3968]
    65d4:	39400288 	ldrb	w8, [x20]
    65d8:	340000e8 	cbz	w8, 65f4 <_ZNSt12__shared_ptrIN6mapnik16vector_tile_impl19tile_datasource_pbfELN9__gnu_cxx12_Lock_policyE2EED2Ev+0x3c>
    65dc:	b9400a60 	ldr	w0, [x19, #8]
    65e0:	51000408 	sub	w8, w0, #0x1
    65e4:	b9000a68 	str	w8, [x19, #8]
    65e8:	7100041f 	cmp	w0, #0x1
    65ec:	540000e0 	b.eq	6608 <_ZNSt12__shared_ptrIN6mapnik16vector_tile_impl19tile_datasource_pbfELN9__gnu_cxx12_Lock_policyE2EED2Ev+0x50>  // b.none
    65f0:	1400001c 	b	6660 <_ZNSt12__shared_ptrIN6mapnik16vector_tile_impl19tile_datasource_pbfELN9__gnu_cxx12_Lock_policyE2EED2Ev+0xa8>
    65f4:	91002261 	add	x1, x19, #0x8
    65f8:	12800000 	mov	w0, #0xffffffff            	// #-1
    65fc:	94003f05 	bl	16210 <__aarch64_ldadd4_acq_rel>
    6600:	7100041f 	cmp	w0, #0x1
    6604:	540002e1 	b.ne	6660 <_ZNSt12__shared_ptrIN6mapnik16vector_tile_impl19tile_datasource_pbfELN9__gnu_cxx12_Lock_policyE2EED2Ev+0xa8>  // b.any
    6608:	f9400268 	ldr	x8, [x19]
    660c:	aa1303e0 	mov	x0, x19
    6610:	f9400908 	ldr	x8, [x8, #16]
    6614:	d63f0100 	blr	x8
    6618:	39400288 	ldrb	w8, [x20]
    661c:	34000188 	cbz	w8, 664c <_ZNSt12__shared_ptrIN6mapnik16vector_tile_impl19tile_datasource_pbfELN9__gnu_cxx12_Lock_policyE2EED2Ev+0x94>
    6620:	b9400e60 	ldr	w0, [x19, #12]
    6624:	51000408 	sub	w8, w0, #0x1
    6628:	b9000e68 	str	w8, [x19, #12]
    662c:	7100041f 	cmp	w0, #0x1
    6630:	54000181 	b.ne	6660 <_ZNSt12__shared_ptrIN6mapnik16vector_tile_impl19tile_datasource_pbfELN9__gnu_cxx12_Lock_policyE2EED2Ev+0xa8>  // b.any
    6634:	f9400268 	ldr	x8, [x19]
    6638:	f9400d01 	ldr	x1, [x8, #24]
    663c:	aa1303e0 	mov	x0, x19
    6640:	a9414ff4 	ldp	x20, x19, [sp, #16]
    6644:	a8c27bfd 	ldp	x29, x30, [sp], #32
    6648:	d61f0020 	br	x1
    664c:	91003261 	add	x1, x19, #0xc
    6650:	12800000 	mov	w0, #0xffffffff            	// #-1
    6654:	94003eef 	bl	16210 <__aarch64_ldadd4_acq_rel>
    6658:	7100041f 	cmp	w0, #0x1
    665c:	54fffec0 	b.eq	6634 <_ZNSt12__shared_ptrIN6mapnik16vector_tile_impl19tile_datasource_pbfELN9__gnu_cxx12_Lock_policyE2EED2Ev+0x7c>  // b.none
    6660:	a9414ff4 	ldp	x20, x19, [sp, #16]
    6664:	a8c27bfd 	ldp	x29, x30, [sp], #32
    6668:	d65f03c0 	ret

000000000000666c <_ZN6mapnik14progress_timerD2Ev>:
    666c:	a9be7bfd 	stp	x29, x30, [sp, #-32]!
    6670:	f9000bf3 	str	x19, [sp, #16]
    6674:	910003fd 	mov	x29, sp
    6678:	aa0003f3 	mov	x19, x0
    667c:	3940a008 	ldrb	w8, [x0, #40]
    6680:	b0000129 	adrp	x9, 2b000 <GCC_except_table25+0xfe4c>
    6684:	911ec129 	add	x9, x9, #0x7b0
    6688:	f9000009 	str	x9, [x0]
    668c:	35000068 	cbnz	w8, 6698 <_ZN6mapnik14progress_timerD2Ev+0x2c>
    6690:	aa1303e0 	mov	x0, x19
    6694:	94000024 	bl	6724 <_ZNK6mapnik14progress_timer4stopEv>
    6698:	f9401e60 	ldr	x0, [x19, #56]
    669c:	91012268 	add	x8, x19, #0x48
    66a0:	eb08001f 	cmp	x0, x8
    66a4:	54000080 	b.eq	66b4 <_ZN6mapnik14progress_timerD2Ev+0x48>  // b.none
    66a8:	f9400bf3 	ldr	x19, [sp, #16]
    66ac:	a8c27bfd 	ldp	x29, x30, [sp], #32
    66b0:	17fff85c 	b	4820 <_ZdlPv@plt>
    66b4:	f9400bf3 	ldr	x19, [sp, #16]
    66b8:	a8c27bfd 	ldp	x29, x30, [sp], #32
    66bc:	d65f03c0 	ret
    66c0:	94000001 	bl	66c4 <__clang_call_terminate>

00000000000066c4 <__clang_call_terminate>:
    66c4:	f81f0ffe 	str	x30, [sp, #-16]!
    66c8:	97fff7e6 	bl	4660 <__cxa_begin_catch@plt>
    66cc:	97fff7b5 	bl	45a0 <_ZSt9terminatev@plt>

00000000000066d0 <_ZN6mapnik14progress_timerD0Ev>:
    66d0:	a9be7bfd 	stp	x29, x30, [sp, #-32]!
    66d4:	f9000bf3 	str	x19, [sp, #16]
    66d8:	910003fd 	mov	x29, sp
    66dc:	aa0003f3 	mov	x19, x0
    66e0:	3940a008 	ldrb	w8, [x0, #40]
    66e4:	b0000129 	adrp	x9, 2b000 <GCC_except_table25+0xfe4c>
    66e8:	911ec129 	add	x9, x9, #0x7b0
    66ec:	f9000009 	str	x9, [x0]
    66f0:	35000068 	cbnz	w8, 66fc <_ZN6mapnik14progress_timerD0Ev+0x2c>
    66f4:	aa1303e0 	mov	x0, x19
    66f8:	9400000b 	bl	6724 <_ZNK6mapnik14progress_timer4stopEv>
    66fc:	f9401e60 	ldr	x0, [x19, #56]
    6700:	91012268 	add	x8, x19, #0x48
    6704:	eb08001f 	cmp	x0, x8
    6708:	54000040 	b.eq	6710 <_ZN6mapnik14progress_timerD0Ev+0x40>  // b.none
    670c:	97fff845 	bl	4820 <_ZdlPv@plt>
    6710:	aa1303e0 	mov	x0, x19
    6714:	f9400bf3 	ldr	x19, [sp, #16]
    6718:	a8c27bfd 	ldp	x29, x30, [sp], #32
    671c:	17fff841 	b	4820 <_ZdlPv@plt>
    6720:	97ffffe9 	bl	66c4 <__clang_call_terminate>

0000000000006724 <_ZNK6mapnik14progress_timer4stopEv>:
    6724:	d10743ff 	sub	sp, sp, #0x1d0
    6728:	a91a7bfd 	stp	x29, x30, [sp, #416]
    672c:	f900dbfc 	str	x28, [sp, #432]
    6730:	a91c4ff4 	stp	x20, x19, [sp, #448]
    6734:	910683fd 	add	x29, sp, #0x1a0
    6738:	52800028 	mov	w8, #0x1                   	// #1
    673c:	aa0003f3 	mov	x19, x0
    6740:	3900a008 	strb	w8, [x0, #40]
    6744:	97fff83f 	bl	4840 <clock@plt>
    6748:	f9001260 	str	x0, [x19, #32]
    674c:	9100a3e0 	add	x0, sp, #0x28
    6750:	910023e1 	add	x1, sp, #0x8
    6754:	97fff817 	bl	47b0 <gettimeofday@plt>
    6758:	6d4287e0 	ldp	d0, d1, [sp, #40]
    675c:	90000088 	adrp	x8, 16000 <_ZNSt6vectorIN6mapbox8geometry7polygonIlS_EESaIS3_EE17_M_realloc_insertIJEEEvN9__gnu_cxx17__normal_iteratorIPS3_S5_EEDpOT_+0x78>
    6760:	5e61d800 	scvtf	d0, d0
    6764:	fd413102 	ldr	d2, [x8, #608]
    6768:	5e61d821 	scvtf	d1, d1
    676c:	1f420020 	fmadd	d0, d1, d2, d0
    6770:	fd000a60 	str	d0, [x19, #16]
    6774:	9100a3e0 	add	x0, sp, #0x28
    6778:	9100a3f4 	add	x20, sp, #0x28
    677c:	97fff889 	bl	49a0 <_ZNSt7__cxx1119basic_ostringstreamIcSt11char_traitsIcESaIcEEC1Ev@plt>
    6780:	f94017e8 	ldr	x8, [sp, #40]
    6784:	5280004a 	mov	w10, #0x2                   	// #2
    6788:	f85e8109 	ldur	x9, [x8, #-24]
    678c:	8b090289 	add	x9, x20, x9
    6790:	f900052a 	str	x10, [x9, #8]
    6794:	3940a26a 	ldrb	w10, [x19, #40]
    6798:	f85e8108 	ldur	x8, [x8, #-24]
    679c:	8b080288 	add	x8, x20, x8
    67a0:	b9401909 	ldr	w9, [x8, #24]
    67a4:	12177929 	and	w9, w9, #0xfffffeff
    67a8:	321e0129 	orr	w9, w9, #0x4
    67ac:	b9001909 	str	w9, [x8, #24]
    67b0:	350000aa 	cbnz	w10, 67c4 <_ZNK6mapnik14progress_timer4stopEv+0xa0>
    67b4:	f9400268 	ldr	x8, [x19]
    67b8:	f9400908 	ldr	x8, [x8, #16]
    67bc:	aa1303e0 	mov	x0, x19
    67c0:	d63f0100 	blr	x8
    67c4:	6d408261 	ldp	d1, d0, [x19, #8]
    67c8:	d2c80008 	mov	x8, #0x400000000000        	// #70368744177664
    67cc:	f2e811e8 	movk	x8, #0x408f, lsl #48
    67d0:	1e613800 	fsub	d0, d0, d1
    67d4:	9e670101 	fmov	d1, x8
    67d8:	1e610800 	fmul	d0, d0, d1
    67dc:	9100a3e0 	add	x0, sp, #0x28
    67e0:	97fff8b0 	bl	4aa0 <_ZNSo9_M_insertIdEERSoT_@plt>
    67e4:	90000081 	adrp	x1, 16000 <_ZNSt6vectorIN6mapbox8geometry7polygonIlS_EESaIS3_EE17_M_realloc_insertIJEEEvN9__gnu_cxx17__normal_iteratorIPS3_S5_EEDpOT_+0x78>
    67e8:	910e7021 	add	x1, x1, #0x39c
    67ec:	52800102 	mov	w2, #0x8                   	// #8
    67f0:	aa0003f4 	mov	x20, x0
    67f4:	97fff83f 	bl	48f0 <_ZSt16__ostream_insertIcSt11char_traitsIcEERSt13basic_ostreamIT_T0_ES6_PKS3_l@plt>
    67f8:	3940a268 	ldrb	w8, [x19, #40]
    67fc:	350000a8 	cbnz	w8, 6810 <_ZNK6mapnik14progress_timer4stopEv+0xec>
    6800:	f9400268 	ldr	x8, [x19]
    6804:	f9400908 	ldr	x8, [x8, #16]
    6808:	aa1303e0 	mov	x0, x19
    680c:	d63f0100 	blr	x8
    6810:	a941a269 	ldp	x9, x8, [x19, #24]
    6814:	cb090108 	sub	x8, x8, x9
    6818:	d2d09009 	mov	x9, #0x848000000000        	// #145685290680320
    681c:	f2e825c9 	movk	x9, #0x412e, lsl #48
    6820:	9e620100 	scvtf	d0, x8
    6824:	d2c80008 	mov	x8, #0x400000000000        	// #70368744177664
    6828:	9e670121 	fmov	d1, x9
    682c:	f2e811e8 	movk	x8, #0x408f, lsl #48
    6830:	1e611800 	fdiv	d0, d0, d1
    6834:	9e670101 	fmov	d1, x8
    6838:	1e610800 	fmul	d0, d0, d1
    683c:	aa1403e0 	mov	x0, x20
    6840:	97fff898 	bl	4aa0 <_ZNSo9_M_insertIdEERSoT_@plt>
    6844:	90000081 	adrp	x1, 16000 <_ZNSt6vectorIN6mapbox8geometry7polygonIlS_EESaIS3_EE17_M_realloc_insertIJEEEvN9__gnu_cxx17__normal_iteratorIPS3_S5_EEDpOT_+0x78>
    6848:	910e9421 	add	x1, x1, #0x3a5
    684c:	52800062 	mov	w2, #0x3                   	// #3
    6850:	97fff828 	bl	48f0 <_ZSt16__ostream_insertIcSt11char_traitsIcEERSt13basic_ostreamIT_T0_ES6_PKS3_l@plt>
    6854:	9100a3e0 	add	x0, sp, #0x28
    6858:	9100a3f4 	add	x20, sp, #0x28
    685c:	97fff7e9 	bl	4800 <_ZNSo5tellpEv@plt>
    6860:	f94017e8 	ldr	x8, [sp, #40]
    6864:	528003ca 	mov	w10, #0x1e                  	// #30
    6868:	4b00014a 	sub	w10, w10, w0
    686c:	93407d4a 	sxtw	x10, w10
    6870:	f85e8109 	ldur	x9, [x8, #-24]
    6874:	8b090289 	add	x9, x20, x9
    6878:	f900092a 	str	x10, [x9, #16]
    687c:	f85e8108 	ldur	x8, [x8, #-24]
    6880:	8b080288 	add	x8, x20, x8
    6884:	b9401909 	ldr	w9, [x8, #24]
    6888:	121a7529 	and	w9, w9, #0xffffffcf
    688c:	32190129 	orr	w9, w9, #0x80
    6890:	b9001909 	str	w9, [x8, #24]
    6894:	90000081 	adrp	x1, 16000 <_ZNSt6vectorIN6mapbox8geometry7polygonIlS_EESaIS3_EE17_M_realloc_insertIJEEEvN9__gnu_cxx17__normal_iteratorIPS3_S5_EEDpOT_+0x78>
    6898:	910ea421 	add	x1, x1, #0x3a9
    689c:	9100a3e0 	add	x0, sp, #0x28
    68a0:	52800042 	mov	w2, #0x2                   	// #2
    68a4:	97fff813 	bl	48f0 <_ZSt16__ostream_insertIcSt11char_traitsIcEERSt13basic_ostreamIT_T0_ES6_PKS3_l@plt>
    68a8:	a9438a61 	ldp	x1, x2, [x19, #56]
    68ac:	9100a3e0 	add	x0, sp, #0x28
    68b0:	97fff810 	bl	48f0 <_ZSt16__ostream_insertIcSt11char_traitsIcEERSt13basic_ostreamIT_T0_ES6_PKS3_l@plt>
    68b4:	90000081 	adrp	x1, 16000 <_ZNSt6vectorIN6mapbox8geometry7polygonIlS_EESaIS3_EE17_M_realloc_insertIJEEEvN9__gnu_cxx17__normal_iteratorIPS3_S5_EEDpOT_+0x78>
    68b8:	910ad421 	add	x1, x1, #0x2b5
    68bc:	52800022 	mov	w2, #0x1                   	// #1
    68c0:	97fff80c 	bl	48f0 <_ZSt16__ostream_insertIcSt11char_traitsIcEERSt13basic_ostreamIT_T0_ES6_PKS3_l@plt>
    68c4:	f9402fe9 	ldr	x9, [sp, #88]
    68c8:	910023e8 	add	x8, sp, #0x8
    68cc:	f94027ea 	ldr	x10, [sp, #72]
    68d0:	91004114 	add	x20, x8, #0x10
    68d4:	f9401a73 	ldr	x19, [x19, #48]
    68d8:	390063ff 	strb	wzr, [sp, #24]
    68dc:	eb0a013f 	cmp	x9, x10
    68e0:	a900fff4 	stp	x20, xzr, [sp, #8]
    68e4:	9a8a8128 	csel	x8, x9, x10, hi  // hi = pmore
    68e8:	b4000129 	cbz	x9, 690c <_ZNK6mapnik14progress_timer4stopEv+0x1e8>
    68ec:	b4000108 	cbz	x8, 690c <_ZNK6mapnik14progress_timer4stopEv+0x1e8>
    68f0:	f9402be3 	ldr	x3, [sp, #80]
    68f4:	cb030104 	sub	x4, x8, x3
    68f8:	910023e0 	add	x0, sp, #0x8
    68fc:	aa1f03e1 	mov	x1, xzr
    6900:	aa1f03e2 	mov	x2, xzr
    6904:	97fff85b 	bl	4a70 <_ZNSt7__cxx1112basic_stringIcSt11char_traitsIcESaIcEE10_M_replaceEmmPKcm@plt>
    6908:	14000005 	b	691c <_ZNK6mapnik14progress_timer4stopEv+0x1f8>
    690c:	9100a3e8 	add	x8, sp, #0x28
    6910:	91014101 	add	x1, x8, #0x50
    6914:	910023e0 	add	x0, sp, #0x8
    6918:	97fff776 	bl	46f0 <_ZNSt7__cxx1112basic_stringIcSt11char_traitsIcESaIcEE9_M_assignERKS4_@plt>
    691c:	a9408be1 	ldp	x1, x2, [sp, #8]
    6920:	aa1303e0 	mov	x0, x19
    6924:	97fff7f3 	bl	48f0 <_ZSt16__ostream_insertIcSt11char_traitsIcEERSt13basic_ostreamIT_T0_ES6_PKS3_l@plt>
    6928:	f94007e0 	ldr	x0, [sp, #8]
    692c:	eb14001f 	cmp	x0, x20
    6930:	54000040 	b.eq	6938 <_ZNK6mapnik14progress_timer4stopEv+0x214>  // b.none
    6934:	97fff7bb 	bl	4820 <_ZdlPv@plt>
    6938:	b0000128 	adrp	x8, 2b000 <GCC_except_table25+0xfe4c>
    693c:	b000012a 	adrp	x10, 2b000 <GCC_except_table25+0xfe4c>
    6940:	9100a3f3 	add	x19, sp, #0x28
    6944:	f947bd08 	ldr	x8, [x8, #3960]
    6948:	f9400109 	ldr	x9, [x8]
    694c:	f9400d08 	ldr	x8, [x8, #24]
    6950:	f90017e9 	str	x9, [sp, #40]
    6954:	f85e8129 	ldur	x9, [x9, #-24]
    6958:	f947ed4a 	ldr	x10, [x10, #4056]
    695c:	f8296a68 	str	x8, [x19, x9]
    6960:	91018269 	add	x9, x19, #0x60
    6964:	f9403fe0 	ldr	x0, [sp, #120]
    6968:	91004148 	add	x8, x10, #0x10
    696c:	eb09001f 	cmp	x0, x9
    6970:	f9001be8 	str	x8, [sp, #48]
    6974:	54000040 	b.eq	697c <_ZNK6mapnik14progress_timer4stopEv+0x258>  // b.none
    6978:	97fff7aa 	bl	4820 <_ZdlPv@plt>
    697c:	b0000128 	adrp	x8, 2b000 <GCC_except_table25+0xfe4c>
    6980:	91010260 	add	x0, x19, #0x40
    6984:	f947ad08 	ldr	x8, [x8, #3928]
    6988:	91004108 	add	x8, x8, #0x10
    698c:	f9001be8 	str	x8, [sp, #48]
    6990:	97fff80c 	bl	49c0 <_ZNSt6localeD1Ev@plt>
    6994:	9101c260 	add	x0, x19, #0x70
    6998:	97fff722 	bl	4620 <_ZNSt8ios_baseD2Ev@plt>
    699c:	a95c4ff4 	ldp	x20, x19, [sp, #448]
    69a0:	a95a7bfd 	ldp	x29, x30, [sp, #416]
    69a4:	f940dbfc 	ldr	x28, [sp, #432]
    69a8:	910743ff 	add	sp, sp, #0x1d0
    69ac:	d65f03c0 	ret
    69b0:	14000001 	b	69b4 <_ZNK6mapnik14progress_timer4stopEv+0x290>
    69b4:	f94007e8 	ldr	x8, [sp, #8]
    69b8:	aa0003f3 	mov	x19, x0
    69bc:	eb14011f 	cmp	x8, x20
    69c0:	54000100 	b.eq	69e0 <_ZNK6mapnik14progress_timer4stopEv+0x2bc>  // b.none
    69c4:	aa0803e0 	mov	x0, x8
    69c8:	97fff796 	bl	4820 <_ZdlPv@plt>
    69cc:	14000005 	b	69e0 <_ZNK6mapnik14progress_timer4stopEv+0x2bc>
    69d0:	aa0003f3 	mov	x19, x0
    69d4:	14000005 	b	69e8 <_ZNK6mapnik14progress_timer4stopEv+0x2c4>
    69d8:	14000001 	b	69dc <_ZNK6mapnik14progress_timer4stopEv+0x2b8>
    69dc:	aa0003f3 	mov	x19, x0
    69e0:	9100a3e0 	add	x0, sp, #0x28
    69e4:	97fff6eb 	bl	4590 <_ZNSt7__cxx1119basic_ostringstreamIcSt11char_traitsIcESaIcEED1Ev@plt>
    69e8:	aa1303e0 	mov	x0, x19
    69ec:	97fff71d 	bl	4660 <__cxa_begin_catch@plt>
    69f0:	97fff834 	bl	4ac0 <__cxa_end_catch@plt>
    69f4:	a95c4ff4 	ldp	x20, x19, [sp, #448]
    69f8:	a95a7bfd 	ldp	x29, x30, [sp, #416]
    69fc:	f940dbfc 	ldr	x28, [sp, #432]
    6a00:	910743ff 	add	sp, sp, #0x1d0
    6a04:	d65f03c0 	ret

0000000000006a08 <_ZN6mapnik5timerD2Ev>:
    6a08:	d65f03c0 	ret

0000000000006a0c <_ZN6mapnik5timerD0Ev>:
    6a0c:	17fff785 	b	4820 <_ZdlPv@plt>

0000000000006a10 <_ZNK6mapnik5timer4stopEv>:
    6a10:	d100c3ff 	sub	sp, sp, #0x30
    6a14:	a9017bfd 	stp	x29, x30, [sp, #16]
    6a18:	f90013f3 	str	x19, [sp, #32]
    6a1c:	910043fd 	add	x29, sp, #0x10
    6a20:	52800028 	mov	w8, #0x1                   	// #1
    6a24:	aa0003f3 	mov	x19, x0
    6a28:	3900a008 	strb	w8, [x0, #40]
    6a2c:	97fff785 	bl	4840 <clock@plt>
    6a30:	f9001260 	str	x0, [x19, #32]
    6a34:	910003e0 	mov	x0, sp
    6a38:	910063a1 	add	x1, x29, #0x18
    6a3c:	97fff75d 	bl	47b0 <gettimeofday@plt>
    6a40:	6d4007e0 	ldp	d0, d1, [sp]
    6a44:	90000088 	adrp	x8, 16000 <_ZNSt6vectorIN6mapbox8geometry7polygonIlS_EESaIS3_EE17_M_realloc_insertIJEEEvN9__gnu_cxx17__normal_iteratorIPS3_S5_EEDpOT_+0x78>
    6a48:	5e61d800 	scvtf	d0, d0
    6a4c:	fd413102 	ldr	d2, [x8, #608]
    6a50:	5e61d821 	scvtf	d1, d1
    6a54:	1f420020 	fmadd	d0, d1, d2, d0
    6a58:	fd000a60 	str	d0, [x19, #16]
    6a5c:	a9417bfd 	ldp	x29, x30, [sp, #16]
    6a60:	f94013f3 	ldr	x19, [sp, #32]
    6a64:	9100c3ff 	add	sp, sp, #0x30
    6a68:	d65f03c0 	ret

0000000000006a6c <_ZN9protozero10pbf_reader4skipEv>:
    6a6c:	a9be7bfd 	stp	x29, x30, [sp, #-32]!
    6a70:	f9000bf3 	str	x19, [sp, #16]
    6a74:	910003fd 	mov	x29, sp
    6a78:	b9401008 	ldr	w8, [x0, #16]
    6a7c:	7100151f 	cmp	w8, #0x5
    6a80:	54000768 	b.hi	6b6c <_ZN9protozero10pbf_reader4skipEv+0x100>  // b.pmore
    6a84:	90000089 	adrp	x9, 16000 <_ZNSt6vectorIN6mapbox8geometry7polygonIlS_EESaIS3_EE17_M_realloc_insertIJEEEvN9__gnu_cxx17__normal_iteratorIPS3_S5_EEDpOT_+0x78>
    6a88:	9109c129 	add	x9, x9, #0x270
    6a8c:	aa0003f3 	mov	x19, x0
    6a90:	1000008a 	adr	x10, 6aa0 <_ZN9protozero10pbf_reader4skipEv+0x34>
    6a94:	3868692b 	ldrb	w11, [x9, x8]
    6a98:	8b0b094a 	add	x10, x10, x11, lsl #2
    6a9c:	d61f0140 	br	x10
    6aa0:	a9402a68 	ldp	x8, x10, [x19]
    6aa4:	eb0a011f 	cmp	x8, x10
    6aa8:	54000160 	b.eq	6ad4 <_ZN9protozero10pbf_reader4skipEv+0x68>  // b.none
    6aac:	aa1f03e9 	mov	x9, xzr
    6ab0:	cb08014a 	sub	x10, x10, x8
    6ab4:	8b09010b 	add	x11, x8, x9
    6ab8:	39c0016c 	ldrsb	w12, [x11]
    6abc:	36f8042c 	tbz	w12, #31, 6b40 <_ZN9protozero10pbf_reader4skipEv+0xd4>
    6ac0:	91000529 	add	x9, x9, #0x1
    6ac4:	eb09015f 	cmp	x10, x9
    6ac8:	54ffff61 	b.ne	6ab4 <_ZN9protozero10pbf_reader4skipEv+0x48>  // b.any
    6acc:	f100295f 	cmp	x10, #0xa
    6ad0:	54000542 	b.cs	6b78 <_ZN9protozero10pbf_reader4skipEv+0x10c>  // b.hs, b.nlast
    6ad4:	52800100 	mov	w0, #0x8                   	// #8
    6ad8:	97fff6f2 	bl	46a0 <__cxa_allocate_exception@plt>
    6adc:	b0000128 	adrp	x8, 2b000 <GCC_except_table25+0xfe4c>
    6ae0:	91232108 	add	x8, x8, #0x8c8
    6ae4:	b0000122 	adrp	x2, 2b000 <GCC_except_table25+0xfe4c>
    6ae8:	b0000121 	adrp	x1, 2b000 <GCC_except_table25+0xfe4c>
    6aec:	9121e021 	add	x1, x1, #0x878
    6af0:	f9000008 	str	x8, [x0]
    6af4:	f947dc42 	ldr	x2, [x2, #4024]
    6af8:	97fff806 	bl	4b10 <__cxa_throw@plt>
    6afc:	a9402668 	ldp	x8, x9, [x19]
    6b00:	91002108 	add	x8, x8, #0x8
    6b04:	1400000c 	b	6b34 <_ZN9protozero10pbf_reader4skipEv+0xc8>
    6b08:	a9400668 	ldp	x8, x1, [x19]
    6b0c:	eb01011f 	cmp	x8, x1
    6b10:	54000200 	b.eq	6b50 <_ZN9protozero10pbf_reader4skipEv+0xe4>  // b.none
    6b14:	39c00109 	ldrsb	w9, [x8]
    6b18:	37f801c9 	tbnz	w9, #31, 6b50 <_ZN9protozero10pbf_reader4skipEv+0xe4>
    6b1c:	91000508 	add	x8, x8, #0x1
    6b20:	92401d20 	and	x0, x9, #0xff
    6b24:	f9000268 	str	x8, [x19]
    6b28:	1400000d 	b	6b5c <_ZN9protozero10pbf_reader4skipEv+0xf0>
    6b2c:	a9402668 	ldp	x8, x9, [x19]
    6b30:	91001108 	add	x8, x8, #0x4
    6b34:	eb09011f 	cmp	x8, x9
    6b38:	54000189 	b.ls	6b68 <_ZN9protozero10pbf_reader4skipEv+0xfc>  // b.plast
    6b3c:	17ffffe6 	b	6ad4 <_ZN9protozero10pbf_reader4skipEv+0x68>
    6b40:	f100293f 	cmp	x9, #0xa
    6b44:	540001a2 	b.cs	6b78 <_ZN9protozero10pbf_reader4skipEv+0x10c>  // b.hs, b.nlast
    6b48:	91000568 	add	x8, x11, #0x1
    6b4c:	14000007 	b	6b68 <_ZN9protozero10pbf_reader4skipEv+0xfc>
    6b50:	aa1303e0 	mov	x0, x19
    6b54:	94000013 	bl	6ba0 <_ZN9protozero6detail18decode_varint_implEPPKcS2_>
    6b58:	a9400668 	ldp	x8, x1, [x19]
    6b5c:	8b204108 	add	x8, x8, w0, uxtw
    6b60:	eb01011f 	cmp	x8, x1
    6b64:	54fffb88 	b.hi	6ad4 <_ZN9protozero10pbf_reader4skipEv+0x68>  // b.pmore
    6b68:	f9000268 	str	x8, [x19]
    6b6c:	f9400bf3 	ldr	x19, [sp, #16]
    6b70:	a8c27bfd 	ldp	x29, x30, [sp], #32
    6b74:	d65f03c0 	ret
    6b78:	52800100 	mov	w0, #0x8                   	// #8
    6b7c:	97fff6c9 	bl	46a0 <__cxa_allocate_exception@plt>
    6b80:	b0000128 	adrp	x8, 2b000 <GCC_except_table25+0xfe4c>
    6b84:	91228108 	add	x8, x8, #0x8a0
    6b88:	b0000122 	adrp	x2, 2b000 <GCC_except_table25+0xfe4c>
    6b8c:	b0000121 	adrp	x1, 2b000 <GCC_except_table25+0xfe4c>
    6b90:	91218021 	add	x1, x1, #0x860
    6b94:	f9000008 	str	x8, [x0]
    6b98:	f947dc42 	ldr	x2, [x2, #4024]
    6b9c:	97fff7dd 	bl	4b10 <__cxa_throw@plt>

0000000000006ba0 <_ZN9protozero6detail18decode_varint_implEPPKcS2_>:
    6ba0:	a9bf7bfd 	stp	x29, x30, [sp, #-16]!
    6ba4:	910003fd 	mov	x29, sp
    6ba8:	f9400009 	ldr	x9, [x0]
    6bac:	aa0003e8 	mov	x8, x0
    6bb0:	cb09002a 	sub	x10, x1, x9
    6bb4:	f100255f 	cmp	x10, #0x9
    6bb8:	5400010d 	b.le	6bd8 <_ZN9protozero6detail18decode_varint_implEPPKcS2_+0x38>
    6bbc:	aa0903ea 	mov	x10, x9
    6bc0:	3840154b 	ldrb	w11, [x10], #1
    6bc4:	92401960 	and	x0, x11, #0x7f
    6bc8:	3738040b 	tbnz	w11, #7, 6c48 <_ZN9protozero6detail18decode_varint_implEPPKcS2_+0xa8>
    6bcc:	f900010a 	str	x10, [x8]
    6bd0:	a8c17bfd 	ldp	x29, x30, [sp], #16
    6bd4:	d65f03c0 	ret
    6bd8:	eb01013f 	cmp	x9, x1
    6bdc:	54000180 	b.eq	6c0c <_ZN9protozero6detail18decode_varint_implEPPKcS2_+0x6c>  // b.none
    6be0:	2a1f03ea 	mov	w10, wzr
    6be4:	aa1f03eb 	mov	x11, xzr
    6be8:	38c0152d 	ldrsb	w13, [x9], #1
    6bec:	92401dac 	and	x12, x13, #0xff
    6bf0:	36f8022d 	tbz	w13, #31, 6c34 <_ZN9protozero6detail18decode_varint_implEPPKcS2_+0x94>
    6bf4:	9240198c 	and	x12, x12, #0x7f
    6bf8:	eb01013f 	cmp	x9, x1
    6bfc:	9aca218c 	lsl	x12, x12, x10
    6c00:	11001d4a 	add	w10, w10, #0x7
    6c04:	aa0b018b 	orr	x11, x12, x11
    6c08:	54ffff01 	b.ne	6be8 <_ZN9protozero6detail18decode_varint_implEPPKcS2_+0x48>  // b.any
    6c0c:	52800100 	mov	w0, #0x8                   	// #8
    6c10:	97fff6a4 	bl	46a0 <__cxa_allocate_exception@plt>
    6c14:	b0000128 	adrp	x8, 2b000 <GCC_except_table25+0xfe4c>
    6c18:	91232108 	add	x8, x8, #0x8c8
    6c1c:	b0000122 	adrp	x2, 2b000 <GCC_except_table25+0xfe4c>
    6c20:	b0000121 	adrp	x1, 2b000 <GCC_except_table25+0xfe4c>
    6c24:	9121e021 	add	x1, x1, #0x878
    6c28:	f9000008 	str	x8, [x0]
    6c2c:	f947dc42 	ldr	x2, [x2, #4024]
    6c30:	97fff7b8 	bl	4b10 <__cxa_throw@plt>
    6c34:	9aca218a 	lsl	x10, x12, x10
    6c38:	aa0b0140 	orr	x0, x10, x11
    6c3c:	f9000109 	str	x9, [x8]
    6c40:	a8c17bfd 	ldp	x29, x30, [sp], #16
    6c44:	d65f03c0 	ret
    6c48:	39c0052a 	ldrsb	w10, [x9, #1]
    6c4c:	5319614b 	lsl	w11, w10, #7
    6c50:	9279196b 	and	x11, x11, #0x3f80
    6c54:	aa000160 	orr	x0, x11, x0
    6c58:	37f800aa 	tbnz	w10, #31, 6c6c <_ZN9protozero6detail18decode_varint_implEPPKcS2_+0xcc>
    6c5c:	91000929 	add	x9, x9, #0x2
    6c60:	f9000109 	str	x9, [x8]
    6c64:	a8c17bfd 	ldp	x29, x30, [sp], #16
    6c68:	d65f03c0 	ret
    6c6c:	39c0092a 	ldrsb	w10, [x9, #2]
    6c70:	5312454b 	lsl	w11, w10, #14
    6c74:	9272196b 	and	x11, x11, #0x1fc000
    6c78:	aa000160 	orr	x0, x11, x0
    6c7c:	37f800aa 	tbnz	w10, #31, 6c90 <_ZN9protozero6detail18decode_varint_implEPPKcS2_+0xf0>
    6c80:	91000d29 	add	x9, x9, #0x3
    6c84:	f9000109 	str	x9, [x8]
    6c88:	a8c17bfd 	ldp	x29, x30, [sp], #16
    6c8c:	d65f03c0 	ret
    6c90:	39c00d2a 	ldrsb	w10, [x9, #3]
    6c94:	530b294b 	lsl	w11, w10, #21
    6c98:	926b196b 	and	x11, x11, #0xfe00000
    6c9c:	aa000160 	orr	x0, x11, x0
    6ca0:	37f800aa 	tbnz	w10, #31, 6cb4 <_ZN9protozero6detail18decode_varint_implEPPKcS2_+0x114>
    6ca4:	91001129 	add	x9, x9, #0x4
    6ca8:	f9000109 	str	x9, [x8]
    6cac:	a8c17bfd 	ldp	x29, x30, [sp], #16
    6cb0:	d65f03c0 	ret
    6cb4:	3940112a 	ldrb	w10, [x9, #4]
    6cb8:	b3641940 	bfi	x0, x10, #28, #7
    6cbc:	373800aa 	tbnz	w10, #7, 6cd0 <_ZN9protozero6detail18decode_varint_implEPPKcS2_+0x130>
    6cc0:	91001529 	add	x9, x9, #0x5
    6cc4:	f9000109 	str	x9, [x8]
    6cc8:	a8c17bfd 	ldp	x29, x30, [sp], #16
    6ccc:	d65f03c0 	ret
    6cd0:	3940152a 	ldrb	w10, [x9, #5]
    6cd4:	b35d1940 	bfi	x0, x10, #35, #7
    6cd8:	373800aa 	tbnz	w10, #7, 6cec <_ZN9protozero6detail18decode_varint_implEPPKcS2_+0x14c>
    6cdc:	91001929 	add	x9, x9, #0x6
    6ce0:	f9000109 	str	x9, [x8]
    6ce4:	a8c17bfd 	ldp	x29, x30, [sp], #16
    6ce8:	d65f03c0 	ret
    6cec:	3940192a 	ldrb	w10, [x9, #6]
    6cf0:	b3561940 	bfi	x0, x10, #42, #7
    6cf4:	373800aa 	tbnz	w10, #7, 6d08 <_ZN9protozero6detail18decode_varint_implEPPKcS2_+0x168>
    6cf8:	91001d29 	add	x9, x9, #0x7
    6cfc:	f9000109 	str	x9, [x8]
    6d00:	a8c17bfd 	ldp	x29, x30, [sp], #16
    6d04:	d65f03c0 	ret
    6d08:	39401d2a 	ldrb	w10, [x9, #7]
    6d0c:	b34f1940 	bfi	x0, x10, #49, #7
    6d10:	373800aa 	tbnz	w10, #7, 6d24 <_ZN9protozero6detail18decode_varint_implEPPKcS2_+0x184>
    6d14:	91002129 	add	x9, x9, #0x8
    6d18:	f9000109 	str	x9, [x8]
    6d1c:	a8c17bfd 	ldp	x29, x30, [sp], #16
    6d20:	d65f03c0 	ret
    6d24:	3940212b 	ldrb	w11, [x9, #8]
    6d28:	9100252a 	add	x10, x9, #0x9
    6d2c:	b3481960 	bfi	x0, x11, #56, #7
    6d30:	3738008b 	tbnz	w11, #7, 6d40 <_ZN9protozero6detail18decode_varint_implEPPKcS2_+0x1a0>
    6d34:	f900010a 	str	x10, [x8]
    6d38:	a8c17bfd 	ldp	x29, x30, [sp], #16
    6d3c:	d65f03c0 	ret
    6d40:	39c0014a 	ldrsb	w10, [x10]
    6d44:	37f800ea 	tbnz	w10, #31, 6d60 <_ZN9protozero6detail18decode_varint_implEPPKcS2_+0x1c0>
    6d48:	92401d4a 	and	x10, x10, #0xff
    6d4c:	91002929 	add	x9, x9, #0xa
    6d50:	b3410140 	bfi	x0, x10, #63, #1
    6d54:	f9000109 	str	x9, [x8]
    6d58:	a8c17bfd 	ldp	x29, x30, [sp], #16
    6d5c:	d65f03c0 	ret
    6d60:	52800100 	mov	w0, #0x8                   	// #8
    6d64:	97fff64f 	bl	46a0 <__cxa_allocate_exception@plt>
    6d68:	b0000128 	adrp	x8, 2b000 <GCC_except_table25+0xfe4c>
    6d6c:	91228108 	add	x8, x8, #0x8a0
    6d70:	b0000122 	adrp	x2, 2b000 <GCC_except_table25+0xfe4c>
    6d74:	b0000121 	adrp	x1, 2b000 <GCC_except_table25+0xfe4c>
    6d78:	91218021 	add	x1, x1, #0x860
    6d7c:	f9000008 	str	x8, [x0]
    6d80:	f947dc42 	ldr	x2, [x2, #4024]
    6d84:	97fff763 	bl	4b10 <__cxa_throw@plt>

0000000000006d88 <_ZN9protozero25varint_too_long_exceptionD0Ev>:
    6d88:	a9be7bfd 	stp	x29, x30, [sp, #-32]!
    6d8c:	f9000bf3 	str	x19, [sp, #16]
    6d90:	910003fd 	mov	x29, sp
    6d94:	aa0003f3 	mov	x19, x0
    6d98:	97fff776 	bl	4b70 <_ZNSt9exceptionD2Ev@plt>
    6d9c:	aa1303e0 	mov	x0, x19
    6da0:	f9400bf3 	ldr	x19, [sp, #16]
    6da4:	a8c27bfd 	ldp	x29, x30, [sp], #32
    6da8:	17fff69e 	b	4820 <_ZdlPv@plt>

0000000000006dac <_ZNK9protozero25varint_too_long_exception4whatEv>:
    6dac:	90000080 	adrp	x0, 16000 <_ZNSt6vectorIN6mapbox8geometry7polygonIlS_EESaIS3_EE17_M_realloc_insertIJEEEvN9__gnu_cxx17__normal_iteratorIPS3_S5_EEDpOT_+0x78>
    6db0:	910eb000 	add	x0, x0, #0x3ac
    6db4:	d65f03c0 	ret

0000000000006db8 <_ZN9protozero23end_of_buffer_exceptionD0Ev>:
    6db8:	a9be7bfd 	stp	x29, x30, [sp, #-32]!
    6dbc:	f9000bf3 	str	x19, [sp, #16]
    6dc0:	910003fd 	mov	x29, sp
    6dc4:	aa0003f3 	mov	x19, x0
    6dc8:	97fff76a 	bl	4b70 <_ZNSt9exceptionD2Ev@plt>
    6dcc:	aa1303e0 	mov	x0, x19
    6dd0:	f9400bf3 	ldr	x19, [sp, #16]
    6dd4:	a8c27bfd 	ldp	x29, x30, [sp], #32
    6dd8:	17fff692 	b	4820 <_ZdlPv@plt>

0000000000006ddc <_ZNK9protozero23end_of_buffer_exception4whatEv>:
    6ddc:	90000080 	adrp	x0, 16000 <_ZNSt6vectorIN6mapbox8geometry7polygonIlS_EESaIS3_EE17_M_realloc_insertIJEEEvN9__gnu_cxx17__normal_iteratorIPS3_S5_EEDpOT_+0x78>
    6de0:	910f1800 	add	x0, x0, #0x3c6
    6de4:	d65f03c0 	ret

0000000000006de8 <_ZN9protozero21invalid_tag_exceptionD0Ev>:
    6de8:	a9be7bfd 	stp	x29, x30, [sp, #-32]!
    6dec:	f9000bf3 	str	x19, [sp, #16]
    6df0:	910003fd 	mov	x29, sp
    6df4:	aa0003f3 	mov	x19, x0
    6df8:	97fff75e 	bl	4b70 <_ZNSt9exceptionD2Ev@plt>
    6dfc:	aa1303e0 	mov	x0, x19
    6e00:	f9400bf3 	ldr	x19, [sp, #16]
    6e04:	a8c27bfd 	ldp	x29, x30, [sp], #32
    6e08:	17fff686 	b	4820 <_ZdlPv@plt>

0000000000006e0c <_ZNK9protozero21invalid_tag_exception4whatEv>:
    6e0c:	90000080 	adrp	x0, 16000 <_ZNSt6vectorIN6mapbox8geometry7polygonIlS_EESaIS3_EE17_M_realloc_insertIJEEEvN9__gnu_cxx17__normal_iteratorIPS3_S5_EEDpOT_+0x78>
    6e10:	910f7800 	add	x0, x0, #0x3de
    6e14:	d65f03c0 	ret

0000000000006e18 <_ZN9protozero31unknown_pbf_wire_type_exceptionD0Ev>:
    6e18:	a9be7bfd 	stp	x29, x30, [sp, #-32]!
    6e1c:	f9000bf3 	str	x19, [sp, #16]
    6e20:	910003fd 	mov	x29, sp
    6e24:	aa0003f3 	mov	x19, x0
    6e28:	97fff752 	bl	4b70 <_ZNSt9exceptionD2Ev@plt>
    6e2c:	aa1303e0 	mov	x0, x19
    6e30:	f9400bf3 	ldr	x19, [sp, #16]
    6e34:	a8c27bfd 	ldp	x29, x30, [sp], #32
    6e38:	17fff67a 	b	4820 <_ZdlPv@plt>

0000000000006e3c <_ZNK9protozero31unknown_pbf_wire_type_exception4whatEv>:
    6e3c:	90000080 	adrp	x0, 16000 <_ZNSt6vectorIN6mapbox8geometry7polygonIlS_EESaIS3_EE17_M_realloc_insertIJEEEvN9__gnu_cxx17__normal_iteratorIPS3_S5_EEDpOT_+0x78>
    6e40:	910fd000 	add	x0, x0, #0x3f4
    6e44:	d65f03c0 	ret

0000000000006e48 <_ZNSt8_Rb_treeINSt7__cxx1112basic_stringIcSt11char_traitsIcESaIcEEES5_St9_IdentityIS5_ESt4lessIS5_ESaIS5_EE8_M_eraseEPSt13_Rb_tree_nodeIS5_E>:
    6e48:	a9bd7bfd 	stp	x29, x30, [sp, #-48]!
    6e4c:	f9000bf5 	str	x21, [sp, #16]
    6e50:	a9024ff4 	stp	x20, x19, [sp, #32]
    6e54:	910003fd 	mov	x29, sp
    6e58:	b4000241 	cbz	x1, 6ea0 <_ZNSt8_Rb_treeINSt7__cxx1112basic_stringIcSt11char_traitsIcESaIcEEES5_St9_IdentityIS5_ESt4lessIS5_ESaIS5_EE8_M_eraseEPSt13_Rb_tree_nodeIS5_E+0x58>
    6e5c:	aa0103f4 	mov	x20, x1
    6e60:	aa0003f3 	mov	x19, x0
    6e64:	14000005 	b	6e78 <_ZNSt8_Rb_treeINSt7__cxx1112basic_stringIcSt11char_traitsIcESaIcEEES5_St9_IdentityIS5_ESt4lessIS5_ESaIS5_EE8_M_eraseEPSt13_Rb_tree_nodeIS5_E+0x30>
    6e68:	aa1403e0 	mov	x0, x20
    6e6c:	97fff66d 	bl	4820 <_ZdlPv@plt>
    6e70:	aa1503f4 	mov	x20, x21
    6e74:	b4000175 	cbz	x21, 6ea0 <_ZNSt8_Rb_treeINSt7__cxx1112basic_stringIcSt11char_traitsIcESaIcEEES5_St9_IdentityIS5_ESt4lessIS5_ESaIS5_EE8_M_eraseEPSt13_Rb_tree_nodeIS5_E+0x58>
    6e78:	f9400e81 	ldr	x1, [x20, #24]
    6e7c:	aa1303e0 	mov	x0, x19
    6e80:	97fffff2 	bl	6e48 <_ZNSt8_Rb_treeINSt7__cxx1112basic_stringIcSt11char_traitsIcESaIcEEES5_St9_IdentityIS5_ESt4lessIS5_ESaIS5_EE8_M_eraseEPSt13_Rb_tree_nodeIS5_E>
    6e84:	f9401280 	ldr	x0, [x20, #32]
    6e88:	9100c288 	add	x8, x20, #0x30
    6e8c:	f9400a95 	ldr	x21, [x20, #16]
    6e90:	eb08001f 	cmp	x0, x8
    6e94:	54fffea0 	b.eq	6e68 <_ZNSt8_Rb_treeINSt7__cxx1112basic_stringIcSt11char_traitsIcESaIcEEES5_St9_IdentityIS5_ESt4lessIS5_ESaIS5_EE8_M_eraseEPSt13_Rb_tree_nodeIS5_E+0x20>  // b.none
    6e98:	97fff662 	bl	4820 <_ZdlPv@plt>
    6e9c:	17fffff3 	b	6e68 <_ZNSt8_Rb_treeINSt7__cxx1112basic_stringIcSt11char_traitsIcESaIcEEES5_St9_IdentityIS5_ESt4lessIS5_ESaIS5_EE8_M_eraseEPSt13_Rb_tree_nodeIS5_E+0x20>
    6ea0:	a9424ff4 	ldp	x20, x19, [sp, #32]
    6ea4:	f9400bf5 	ldr	x21, [sp, #16]
    6ea8:	a8c37bfd 	ldp	x29, x30, [sp], #48
    6eac:	d65f03c0 	ret

0000000000006eb0 <_ZNSt23_Sp_counted_ptr_inplaceIN6mapnik16vector_tile_impl19tile_datasource_pbfESaIS2_ELN9__gnu_cxx12_Lock_policyE2EED2Ev>:
    6eb0:	d65f03c0 	ret

0000000000006eb4 <_ZNSt23_Sp_counted_ptr_inplaceIN6mapnik16vector_tile_impl19tile_datasource_pbfESaIS2_ELN9__gnu_cxx12_Lock_policyE2EED0Ev>:
    6eb4:	17fff65b 	b	4820 <_ZdlPv@plt>

0000000000006eb8 <_ZNSt23_Sp_counted_ptr_inplaceIN6mapnik16vector_tile_impl19tile_datasource_pbfESaIS2_ELN9__gnu_cxx12_Lock_policyE2EE10_M_disposeEv>:
    6eb8:	f8410c08 	ldr	x8, [x0, #16]!
    6ebc:	f9402101 	ldr	x1, [x8, #64]
    6ec0:	d61f0020 	br	x1

0000000000006ec4 <_ZNSt23_Sp_counted_ptr_inplaceIN6mapnik16vector_tile_impl19tile_datasource_pbfESaIS2_ELN9__gnu_cxx12_Lock_policyE2EE10_M_destroyEv>:
    6ec4:	17fff657 	b	4820 <_ZdlPv@plt>

0000000000006ec8 <_ZNSt23_Sp_counted_ptr_inplaceIN6mapnik16vector_tile_impl19tile_datasource_pbfESaIS2_ELN9__gnu_cxx12_Lock_policyE2EE14_M_get_deleterERKSt9type_info>:
    6ec8:	a9be7bfd 	stp	x29, x30, [sp, #-32]!
    6ecc:	f9000bf3 	str	x19, [sp, #16]
    6ed0:	910003fd 	mov	x29, sp
    6ed4:	b0000128 	adrp	x8, 2b000 <GCC_except_table25+0xfe4c>
    6ed8:	91004013 	add	x19, x0, #0x10
    6edc:	f947cd08 	ldr	x8, [x8, #3992]
    6ee0:	eb08003f 	cmp	x1, x8
    6ee4:	540001c0 	b.eq	6f1c <_ZNSt23_Sp_counted_ptr_inplaceIN6mapnik16vector_tile_impl19tile_datasource_pbfESaIS2_ELN9__gnu_cxx12_Lock_policyE2EE14_M_get_deleterERKSt9type_info+0x54>  // b.none
    6ee8:	b0000128 	adrp	x8, 2b000 <GCC_except_table25+0xfe4c>
    6eec:	f9400420 	ldr	x0, [x1, #8]
    6ef0:	f947b908 	ldr	x8, [x8, #3952]
    6ef4:	eb08001f 	cmp	x0, x8
    6ef8:	54000120 	b.eq	6f1c <_ZNSt23_Sp_counted_ptr_inplaceIN6mapnik16vector_tile_impl19tile_datasource_pbfESaIS2_ELN9__gnu_cxx12_Lock_policyE2EE14_M_get_deleterERKSt9type_info+0x54>  // b.none
    6efc:	39400008 	ldrb	w8, [x0]
    6f00:	7100a91f 	cmp	w8, #0x2a
    6f04:	540000a0 	b.eq	6f18 <_ZNSt23_Sp_counted_ptr_inplaceIN6mapnik16vector_tile_impl19tile_datasource_pbfESaIS2_ELN9__gnu_cxx12_Lock_policyE2EE14_M_get_deleterERKSt9type_info+0x50>  // b.none
    6f08:	b0000121 	adrp	x1, 2b000 <GCC_except_table25+0xfe4c>
    6f0c:	f947b821 	ldr	x1, [x1, #3952]
    6f10:	97fff6c0 	bl	4a10 <strcmp@plt>
    6f14:	34000040 	cbz	w0, 6f1c <_ZNSt23_Sp_counted_ptr_inplaceIN6mapnik16vector_tile_impl19tile_datasource_pbfESaIS2_ELN9__gnu_cxx12_Lock_policyE2EE14_M_get_deleterERKSt9type_info+0x54>
    6f18:	aa1f03f3 	mov	x19, xzr
    6f1c:	aa1303e0 	mov	x0, x19
    6f20:	f9400bf3 	ldr	x19, [sp, #16]
    6f24:	a8c27bfd 	ldp	x29, x30, [sp], #32
    6f28:	d65f03c0 	ret

0000000000006f2c <_ZN6mapnik16vector_tile_impl15zlib_decompressEPKcmRNSt7__cxx1112basic_stringIcSt11char_traitsIcESaIcEEE>:
    6f2c:	d10343ff 	sub	sp, sp, #0xd0
    6f30:	a9097bfd 	stp	x29, x30, [sp, #144]
    6f34:	f90053f7 	str	x23, [sp, #160]
    6f38:	a90b57f6 	stp	x22, x21, [sp, #176]
    6f3c:	a90c4ff4 	stp	x20, x19, [sp, #192]
    6f40:	910243fd 	add	x29, sp, #0x90
    6f44:	aa0203f3 	mov	x19, x2
    6f48:	aa0103f5 	mov	x21, x1
    6f4c:	aa0003f6 	mov	x22, x0
    6f50:	90000082 	adrp	x2, 16000 <_ZNSt6vectorIN6mapbox8geometry7polygonIlS_EESaIS3_EE17_M_realloc_insertIJEEEvN9__gnu_cxx17__normal_iteratorIPS3_S5_EEDpOT_+0x78>
    6f54:	9117e042 	add	x2, x2, #0x5f8
    6f58:	910083e0 	add	x0, sp, #0x20
    6f5c:	528005e1 	mov	w1, #0x2f                  	// #47
    6f60:	52800e03 	mov	w3, #0x70                  	// #112
    6f64:	b9002bff 	str	wzr, [sp, #40]
    6f68:	f90013ff 	str	xzr, [sp, #32]
    6f6c:	a906ffff 	stp	xzr, xzr, [sp, #104]
    6f70:	f90033ff 	str	xzr, [sp, #96]
    6f74:	97fff627 	bl	4810 <inflateInit2_@plt>
    6f78:	aa1f03f4 	mov	x20, xzr
    6f7c:	d37ffab7 	lsl	x23, x21, #1
    6f80:	f90013f6 	str	x22, [sp, #32]
    6f84:	b9002bf5 	str	w21, [sp, #40]
    6f88:	14000005 	b	6f9c <_ZN6mapnik16vector_tile_impl15zlib_decompressEPKcmRNSt7__cxx1112basic_stringIcSt11char_traitsIcESaIcEEE+0x70>
    6f8c:	b94043e8 	ldr	w8, [sp, #64]
    6f90:	cb0802e9 	sub	x9, x23, x8
    6f94:	8b140134 	add	x20, x9, x20
    6f98:	35000428 	cbnz	w8, 701c <_ZN6mapnik16vector_tile_impl15zlib_decompressEPKcmRNSt7__cxx1112basic_stringIcSt11char_traitsIcESaIcEEE+0xf0>
    6f9c:	8b170281 	add	x1, x20, x23
    6fa0:	aa1303e0 	mov	x0, x19
    6fa4:	2a1f03e2 	mov	w2, wzr
    6fa8:	97fff592 	bl	45f0 <_ZNSt7__cxx1112basic_stringIcSt11char_traitsIcESaIcEE6resizeEmc@plt>
    6fac:	f9400268 	ldr	x8, [x19]
    6fb0:	910083e0 	add	x0, sp, #0x20
    6fb4:	52800081 	mov	w1, #0x4                   	// #4
    6fb8:	b90043f7 	str	w23, [sp, #64]
    6fbc:	8b140108 	add	x8, x8, x20
    6fc0:	f9001fe8 	str	x8, [sp, #56]
    6fc4:	97fff607 	bl	47e0 <inflate@plt>
    6fc8:	7100081f 	cmp	w0, #0x2
    6fcc:	54fffe03 	b.cc	6f8c <_ZN6mapnik16vector_tile_impl15zlib_decompressEPKcmRNSt7__cxx1112basic_stringIcSt11char_traitsIcESaIcEEE+0x60>  // b.lo, b.ul, b.last
    6fd0:	3100141f 	cmn	w0, #0x5
    6fd4:	54fffdc0 	b.eq	6f8c <_ZN6mapnik16vector_tile_impl15zlib_decompressEPKcmRNSt7__cxx1112basic_stringIcSt11char_traitsIcESaIcEEE+0x60>  // b.none
    6fd8:	f9402be1 	ldr	x1, [sp, #80]
    6fdc:	910003e0 	mov	x0, sp
    6fe0:	910063a2 	add	x2, x29, #0x18
    6fe4:	97fff59b 	bl	4650 <_ZNSt7__cxx1112basic_stringIcSt11char_traitsIcESaIcEEC2EPKcRKS3_@plt>
    6fe8:	910083e0 	add	x0, sp, #0x20
    6fec:	97fff631 	bl	48b0 <inflateEnd@plt>
    6ff0:	52800200 	mov	w0, #0x10                  	// #16
    6ff4:	97fff5ab 	bl	46a0 <__cxa_allocate_exception@plt>
    6ff8:	aa0003f4 	mov	x20, x0
    6ffc:	910003e1 	mov	x1, sp
    7000:	97fff6ac 	bl	4ab0 <_ZNSt13runtime_errorC1ERKNSt7__cxx1112basic_stringIcSt11char_traitsIcESaIcEEE@plt>
    7004:	90000121 	adrp	x1, 2b000 <GCC_except_table25+0xfe4c>
    7008:	90000122 	adrp	x2, 2b000 <GCC_except_table25+0xfe4c>
    700c:	aa1403e0 	mov	x0, x20
    7010:	f947e821 	ldr	x1, [x1, #4048]
    7014:	f947b442 	ldr	x2, [x2, #3944]
    7018:	97fff6be 	bl	4b10 <__cxa_throw@plt>
    701c:	910083e0 	add	x0, sp, #0x20
    7020:	97fff624 	bl	48b0 <inflateEnd@plt>
    7024:	aa1303e0 	mov	x0, x19
    7028:	aa1403e1 	mov	x1, x20
    702c:	2a1f03e2 	mov	w2, wzr
    7030:	97fff570 	bl	45f0 <_ZNSt7__cxx1112basic_stringIcSt11char_traitsIcESaIcEE6resizeEmc@plt>
    7034:	a94c4ff4 	ldp	x20, x19, [sp, #192]
    7038:	a94b57f6 	ldp	x22, x21, [sp, #176]
    703c:	a9497bfd 	ldp	x29, x30, [sp, #144]
    7040:	f94053f7 	ldr	x23, [sp, #160]
    7044:	910343ff 	add	sp, sp, #0xd0
    7048:	d65f03c0 	ret
    704c:	aa0003f3 	mov	x19, x0
    7050:	aa1403e0 	mov	x0, x20
    7054:	97fff5cf 	bl	4790 <__cxa_free_exception@plt>
    7058:	14000002 	b	7060 <_ZN6mapnik16vector_tile_impl15zlib_decompressEPKcmRNSt7__cxx1112basic_stringIcSt11char_traitsIcESaIcEEE+0x134>
    705c:	aa0003f3 	mov	x19, x0
    7060:	f94003e0 	ldr	x0, [sp]
    7064:	910003e8 	mov	x8, sp
    7068:	91004108 	add	x8, x8, #0x10
    706c:	eb08001f 	cmp	x0, x8
    7070:	54000040 	b.eq	7078 <_ZN6mapnik16vector_tile_impl15zlib_decompressEPKcmRNSt7__cxx1112basic_stringIcSt11char_traitsIcESaIcEEE+0x14c>  // b.none
    7074:	97fff5eb 	bl	4820 <_ZdlPv@plt>
    7078:	aa1303e0 	mov	x0, x19
    707c:	97fff6b5 	bl	4b50 <_Unwind_Resume@plt>

0000000000007080 <_ZN6mapnik16vector_tile_impl15zlib_decompressERKNSt7__cxx1112basic_stringIcSt11char_traitsIcESaIcEEERS6_>:
    7080:	aa0103e2 	mov	x2, x1
    7084:	a9400408 	ldp	x8, x1, [x0]
    7088:	aa0803e0 	mov	x0, x8
    708c:	17ffffa8 	b	6f2c <_ZN6mapnik16vector_tile_impl15zlib_decompressEPKcmRNSt7__cxx1112basic_stringIcSt11char_traitsIcESaIcEEE>

0000000000007090 <_ZN6mapnik16vector_tile_impl13zlib_compressEPKcmRNSt7__cxx1112basic_stringIcSt11char_traitsIcESaIcEEEbii>:
    7090:	d102c3ff 	sub	sp, sp, #0xb0
    7094:	a9077bfd 	stp	x29, x30, [sp, #112]
    7098:	f90043f7 	str	x23, [sp, #128]
    709c:	a90957f6 	stp	x22, x21, [sp, #144]
    70a0:	a90a4ff4 	stp	x20, x19, [sp, #160]
    70a4:	9101c3fd 	add	x29, sp, #0x70
    70a8:	7200007f 	tst	w3, #0x1
    70ac:	528001e8 	mov	w8, #0xf                   	// #15
    70b0:	528003e9 	mov	w9, #0x1f                  	// #31
    70b4:	aa0203f3 	mov	x19, x2
    70b8:	aa0103f5 	mov	x21, x1
    70bc:	aa0003f6 	mov	x22, x0
    70c0:	1a881123 	csel	w3, w9, w8, ne  // ne = any
    70c4:	f0000066 	adrp	x6, 16000 <_ZNSt6vectorIN6mapbox8geometry7polygonIlS_EESaIS3_EE17_M_realloc_insertIJEEEvN9__gnu_cxx17__normal_iteratorIPS3_S5_EEDpOT_+0x78>
    70c8:	9117e0c6 	add	x6, x6, #0x5f8
    70cc:	910003e0 	mov	x0, sp
    70d0:	2a0403e1 	mov	w1, w4
    70d4:	52800102 	mov	w2, #0x8                   	// #8
    70d8:	52800104 	mov	w4, #0x8                   	// #8
    70dc:	52800e07 	mov	w7, #0x70                  	// #112
    70e0:	b9000bff 	str	wzr, [sp, #8]
    70e4:	f90003ff 	str	xzr, [sp]
    70e8:	a904ffff 	stp	xzr, xzr, [sp, #72]
    70ec:	f90023ff 	str	xzr, [sp, #64]
    70f0:	97fff508 	bl	4510 <deflateInit2_@plt>
    70f4:	35000420 	cbnz	w0, 7178 <_ZN6mapnik16vector_tile_impl13zlib_compressEPKcmRNSt7__cxx1112basic_stringIcSt11char_traitsIcESaIcEEEbii+0xe8>
    70f8:	d341fea8 	lsr	x8, x21, #1
    70fc:	aa1f03f4 	mov	x20, xzr
    7100:	91100117 	add	x23, x8, #0x400
    7104:	f90003f6 	str	x22, [sp]
    7108:	b9000bf5 	str	w21, [sp, #8]
    710c:	8b170281 	add	x1, x20, x23
    7110:	aa1303e0 	mov	x0, x19
    7114:	2a1f03e2 	mov	w2, wzr
    7118:	97fff536 	bl	45f0 <_ZNSt7__cxx1112basic_stringIcSt11char_traitsIcESaIcEE6resizeEmc@plt>
    711c:	f9400268 	ldr	x8, [x19]
    7120:	910003e0 	mov	x0, sp
    7124:	52800081 	mov	w1, #0x4                   	// #4
    7128:	b90023f7 	str	w23, [sp, #32]
    712c:	8b140108 	add	x8, x8, x20
    7130:	f9000fe8 	str	x8, [sp, #24]
    7134:	97fff553 	bl	4680 <deflate@plt>
    7138:	b94023e8 	ldr	w8, [sp, #32]
    713c:	cb0802e9 	sub	x9, x23, x8
    7140:	8b140134 	add	x20, x9, x20
    7144:	34fffe48 	cbz	w8, 710c <_ZN6mapnik16vector_tile_impl13zlib_compressEPKcmRNSt7__cxx1112basic_stringIcSt11char_traitsIcESaIcEEEbii+0x7c>
    7148:	910003e0 	mov	x0, sp
    714c:	97fff575 	bl	4720 <deflateEnd@plt>
    7150:	aa1303e0 	mov	x0, x19
    7154:	aa1403e1 	mov	x1, x20
    7158:	2a1f03e2 	mov	w2, wzr
    715c:	97fff525 	bl	45f0 <_ZNSt7__cxx1112basic_stringIcSt11char_traitsIcESaIcEE6resizeEmc@plt>
    7160:	a94a4ff4 	ldp	x20, x19, [sp, #160]
    7164:	a94957f6 	ldp	x22, x21, [sp, #144]
    7168:	a9477bfd 	ldp	x29, x30, [sp, #112]
    716c:	f94043f7 	ldr	x23, [sp, #128]
    7170:	9102c3ff 	add	sp, sp, #0xb0
    7174:	d65f03c0 	ret
    7178:	52800200 	mov	w0, #0x10                  	// #16
    717c:	97fff549 	bl	46a0 <__cxa_allocate_exception@plt>
    7180:	aa0003f3 	mov	x19, x0
    7184:	f0000061 	adrp	x1, 16000 <_ZNSt6vectorIN6mapbox8geometry7polygonIlS_EESaIS3_EE17_M_realloc_insertIJEEEvN9__gnu_cxx17__normal_iteratorIPS3_S5_EEDpOT_+0x78>
    7188:	9117fc21 	add	x1, x1, #0x5ff
    718c:	97fff52d 	bl	4640 <_ZNSt13runtime_errorC1EPKc@plt>
    7190:	90000121 	adrp	x1, 2b000 <GCC_except_table25+0xfe4c>
    7194:	90000122 	adrp	x2, 2b000 <GCC_except_table25+0xfe4c>
    7198:	aa1303e0 	mov	x0, x19
    719c:	f947e821 	ldr	x1, [x1, #4048]
    71a0:	f947b442 	ldr	x2, [x2, #3944]
    71a4:	97fff65b 	bl	4b10 <__cxa_throw@plt>
    71a8:	aa0003f4 	mov	x20, x0
    71ac:	aa1303e0 	mov	x0, x19
    71b0:	97fff578 	bl	4790 <__cxa_free_exception@plt>
    71b4:	aa1403e0 	mov	x0, x20
    71b8:	97fff666 	bl	4b50 <_Unwind_Resume@plt>

00000000000071bc <_ZN6mapnik16vector_tile_impl13zlib_compressERKNSt7__cxx1112basic_stringIcSt11char_traitsIcESaIcEEERS6_bii>:
    71bc:	a9402809 	ldp	x9, x10, [x0]
    71c0:	2a0203e8 	mov	w8, w2
    71c4:	2a0403e5 	mov	w5, w4
    71c8:	2a0303e4 	mov	w4, w3
    71cc:	aa0103e2 	mov	x2, x1
    71d0:	2a0803e3 	mov	w3, w8
    71d4:	aa0903e0 	mov	x0, x9
    71d8:	aa0a03e1 	mov	x1, x10
    71dc:	17ffffad 	b	7090 <_ZN6mapnik16vector_tile_impl13zlib_compressEPKcmRNSt7__cxx1112basic_stringIcSt11char_traitsIcESaIcEEEbii>

00000000000071e0 <_ZN6mapnik16vector_tile_impl19tile_datasource_pbfC2ERKN9protozero10pbf_readerEmmmb>:
    71e0:	d10583ff 	sub	sp, sp, #0x160
    71e4:	6d0f23e9 	stp	d9, d8, [sp, #240]
    71e8:	a9107bfd 	stp	x29, x30, [sp, #256]
    71ec:	a9116ffc 	stp	x28, x27, [sp, #272]
    71f0:	a91267fa 	stp	x26, x25, [sp, #288]
    71f4:	a9135ff8 	stp	x24, x23, [sp, #304]
    71f8:	a91457f6 	stp	x22, x21, [sp, #320]
    71fc:	a9154ff4 	stp	x20, x19, [sp, #336]
    7200:	910403fd 	add	x29, sp, #0x100
    7204:	90000128 	adrp	x8, 2b000 <GCC_except_table25+0xfe4c>
    7208:	d10123b4 	sub	x20, x29, #0x48
    720c:	2a0503fb 	mov	w27, w5
    7210:	aa0403f6 	mov	x22, x4
    7214:	aa0303f7 	mov	x23, x3
    7218:	aa0203f5 	mov	x21, x2
    721c:	f947b108 	ldr	x8, [x8, #3936]
    7220:	aa0103f9 	mov	x25, x1
    7224:	aa0003f3 	mov	x19, x0
    7228:	91002289 	add	x9, x20, #0x8
    722c:	b81c03bf 	stur	wzr, [x29, #-64]
    7230:	91004108 	add	x8, x8, #0x10
    7234:	a93ca7bf 	stp	xzr, x9, [x29, #-56]
    7238:	a93dffa9 	stp	x9, xzr, [x29, #-40]
    723c:	f9000008 	str	x8, [x0]
    7240:	aa0003e8 	mov	x8, x0
    7244:	b8010d1f 	str	wzr, [x8, #16]!
    7248:	a901a01f 	stp	xzr, x8, [x0, #24]
    724c:	a902fc08 	stp	x8, xzr, [x0, #40]
    7250:	d10123a0 	sub	x0, x29, #0x48
    7254:	aa1f03e1 	mov	x1, xzr
    7258:	94000abc 	bl	9d48 <_ZNSt8_Rb_treeINSt7__cxx1112basic_stringIcSt11char_traitsIcESaIcEEESt4pairIKS5_N6mapnik12value_holderEESt10_Select1stISA_ESt4lessIS5_ESaISA_EE8_M_eraseEPSt13_Rb_tree_nodeISA_E>
    725c:	90000128 	adrp	x8, 2b000 <GCC_except_table25+0xfe4c>
    7260:	9126e108 	add	x8, x8, #0x9b8
    7264:	aa1303fa 	mov	x26, x19
    7268:	91004294 	add	x20, x20, #0x10
    726c:	52800409 	mov	w9, #0x20                  	// #32
    7270:	f8038748 	str	x8, [x26], #56
    7274:	f81b83b4 	stur	x20, [x29, #-72]
    7278:	f81983a9 	stur	x9, [x29, #-104]
    727c:	d10123a0 	sub	x0, x29, #0x48
    7280:	d101a3a1 	sub	x1, x29, #0x68
    7284:	aa1f03e2 	mov	x2, xzr
    7288:	d101a3b8 	sub	x24, x29, #0x68
    728c:	97fff635 	bl	4b60 <_ZNSt7__cxx1112basic_stringIcSt11char_traitsIcESaIcEE9_M_createERmm@plt>
    7290:	f0000069 	adrp	x9, 16000 <_ZNSt6vectorIN6mapbox8geometry7polygonIlS_EESaIS3_EE17_M_realloc_insertIJEEEvN9__gnu_cxx17__normal_iteratorIPS3_S5_EEDpOT_+0x78>
    7294:	911b6929 	add	x9, x9, #0x6da
    7298:	f85983a8 	ldur	x8, [x29, #-104]
    729c:	f81b83a0 	stur	x0, [x29, #-72]
    72a0:	528e8eaa 	mov	w10, #0x7475                	// #29813
    72a4:	5280070b 	mov	w11, #0x38                  	// #56
    72a8:	ad400520 	ldp	q0, q1, [x9]
    72ac:	f81c83a8 	stur	x8, [x29, #-56]
    72b0:	72a5acca 	movk	w10, #0x2d66, lsl #16
    72b4:	91004318 	add	x24, x24, #0x10
    72b8:	ad000400 	stp	q0, q1, [x0]
    72bc:	f85b83a9 	ldur	x9, [x29, #-72]
    72c0:	f81c03a8 	stur	x8, [x29, #-64]
    72c4:	3828693f 	strb	wzr, [x9, x8]
    72c8:	528000a8 	mov	w8, #0x5                   	// #5
    72cc:	b81a83aa 	stur	w10, [x29, #-88]
    72d0:	781ac3ab 	sturh	w11, [x29, #-84]
    72d4:	a939a3b8 	stp	x24, x8, [x29, #-104]
    72d8:	d10123a1 	sub	x1, x29, #0x48
    72dc:	d101a3a2 	sub	x2, x29, #0x68
    72e0:	aa1a03e0 	mov	x0, x26
    72e4:	f90003fa 	str	x26, [sp]
    72e8:	94000738 	bl	8fc8 <_ZN6mapnik16layer_descriptorC2ERKNSt7__cxx1112basic_stringIcSt11char_traitsIcESaIcEEES8_>
    72ec:	f85983a0 	ldur	x0, [x29, #-104]
    72f0:	eb18001f 	cmp	x0, x24
    72f4:	54000040 	b.eq	72fc <_ZN6mapnik16vector_tile_impl19tile_datasource_pbfC2ERKN9protozero10pbf_readerEmmmb+0x11c>  // b.none
    72f8:	97fff54a 	bl	4820 <_ZdlPv@plt>
    72fc:	f85b83a0 	ldur	x0, [x29, #-72]
    7300:	eb14001f 	cmp	x0, x20
    7304:	54000040 	b.eq	730c <_ZN6mapnik16vector_tile_impl19tile_datasource_pbfC2ERKN9protozero10pbf_readerEmmmb+0x12c>  // b.none
    7308:	97fff546 	bl	4820 <_ZdlPv@plt>
    730c:	52802008 	mov	w8, #0x100                 	// #256
    7310:	91040260 	add	x0, x19, #0x100
    7314:	b90027fb 	str	w27, [sp, #36]
    7318:	79018268 	strh	w8, [x19, #192]
    731c:	52820008 	mov	w8, #0x1000                	// #4096
    7320:	3dc00320 	ldr	q0, [x25]
    7324:	f9400b29 	ldr	x9, [x25, #16]
    7328:	a90eda77 	stp	x23, x22, [x19, #232]
    732c:	b900fa68 	str	w8, [x19, #248]
    7330:	3c8c8260 	stur	q0, [x19, #200]
    7334:	a90dd669 	stp	x9, x21, [x19, #216]
    7338:	3903f27f 	strb	wzr, [x19, #252]
    733c:	97fff601 	bl	4b40 <_ZN6mapnik5box2dIdEC1Ev@plt>
    7340:	b940f268 	ldr	w8, [x19, #240]
    7344:	52800034 	mov	w20, #0x1                   	// #1
    7348:	f0000069 	adrp	x9, 16000 <_ZNSt6vectorIN6mapbox8geometry7polygonIlS_EESaIS3_EE17_M_realloc_insertIJEEEvN9__gnu_cxx17__normal_iteratorIPS3_S5_EEDpOT_+0x78>
    734c:	9105026a 	add	x10, x19, #0x140
    7350:	5295c816 	mov	w22, #0xae40                	// #44608
    7354:	d10123ab 	sub	x11, x29, #0x48
    7358:	1ac82288 	lsl	w8, w20, w8
    735c:	91032279 	add	x25, x19, #0xc8
    7360:	fd430d21 	ldr	d1, [x9, #1560]
    7364:	f0000069 	adrp	x9, 16000 <_ZNSt6vectorIN6mapbox8geometry7polygonIlS_EESaIS3_EE17_M_realloc_insertIJEEEvN9__gnu_cxx17__normal_iteratorIPS3_S5_EEDpOT_+0x78>
    7368:	72bfffb6 	movk	w22, #0xfffd, lsl #16
    736c:	9105427c 	add	x28, x19, #0x150
    7370:	1e620100 	scvtf	d0, w8
    7374:	f0000068 	adrp	x8, 16000 <_ZNSt6vectorIN6mapbox8geometry7polygonIlS_EESaIS3_EE17_M_realloc_insertIJEEEvN9__gnu_cxx17__normal_iteratorIPS3_S5_EEDpOT_+0x78>
    7378:	fd431524 	ldr	d4, [x9, #1576]
    737c:	91052269 	add	x9, x19, #0x148
    7380:	9106427a 	add	x26, x19, #0x190
    7384:	f000007b 	adrp	x27, 16000 <_ZNSt6vectorIN6mapbox8geometry7polygonIlS_EESaIS3_EE17_M_realloc_insertIJEEEvN9__gnu_cxx17__normal_iteratorIPS3_S5_EEDpOT_+0x78>
    7388:	9118f37b 	add	x27, x27, #0x63c
    738c:	fd431103 	ldr	d3, [x8, #1568]
    7390:	1e601828 	fdiv	d8, d1, d0
    7394:	a900abe9 	stp	x9, x10, [sp, #8]
    7398:	6d4e0a61 	ldp	d1, d2, [x19, #224]
    739c:	9105826a 	add	x10, x19, #0x160
    73a0:	9105e269 	add	x9, x19, #0x178
    73a4:	6f00e400 	movi	v0.2d, #0x0
    73a8:	d2e7fe08 	mov	x8, #0x3ff0000000000000    	// #4607182418800017408
    73ac:	f0000077 	adrp	x23, 16000 <_ZNSt6vectorIN6mapbox8geometry7polygonIlS_EESaIS3_EE17_M_realloc_insertIJEEEvN9__gnu_cxx17__normal_iteratorIPS3_S5_EEDpOT_+0x78>
    73b0:	91196af7 	add	x23, x23, #0x65a
    73b4:	7e61d821 	ucvtf	d1, d1
    73b8:	a903a7ea 	stp	x10, x9, [sp, #56]
    73bc:	7e61d842 	ucvtf	d2, d2
    73c0:	f0000069 	adrp	x9, 16000 <_ZNSt6vectorIN6mapbox8geometry7polygonIlS_EESaIS3_EE17_M_realloc_insertIJEEEvN9__gnu_cxx17__normal_iteratorIPS3_S5_EEDpOT_+0x78>
    73c4:	ad0b0260 	stp	q0, q0, [x19, #352]
    73c8:	d101a3aa 	sub	x10, x29, #0x68
    73cc:	ad0c0260 	stp	q0, q0, [x19, #384]
    73d0:	91006178 	add	x24, x11, #0x18
    73d4:	f9009a68 	str	x8, [x19, #304]
    73d8:	fd413529 	ldr	d9, [x9, #616]
    73dc:	91004155 	add	x21, x10, #0x10
    73e0:	91004168 	add	x8, x11, #0x10
    73e4:	2903ffff 	stp	wzr, wzr, [sp, #28]
    73e8:	3904f27f 	strb	wzr, [x19, #316]
    73ec:	3905427f 	strb	wzr, [x19, #336]
    73f0:	f900d27f 	str	xzr, [x19, #416]
    73f4:	a9087fff 	stp	xzr, xzr, [sp, #128]
    73f8:	b9013a74 	str	w20, [x19, #312]
    73fc:	a9147e7c 	stp	x28, xzr, [x19, #320]
    7400:	fd004be9 	str	d9, [sp, #144]
    7404:	a90523fa 	stp	x26, x8, [sp, #80]
    7408:	a902f3f8 	stp	x24, x28, [sp, #40]
    740c:	f90027f5 	str	x21, [sp, #72]
    7410:	1f480c20 	fmadd	d0, d1, d8, d3
    7414:	1f489041 	fmsub	d1, d2, d8, d4
    7418:	fd009260 	str	d0, [x19, #288]
    741c:	fd009661 	str	d1, [x19, #296]
    7420:	1400000c 	b	7450 <_ZN6mapnik16vector_tile_impl19tile_datasource_pbfC2ERKN9protozero10pbf_readerEmmmb+0x270>
    7424:	a956a27a 	ldp	x26, x8, [x19, #360]
    7428:	eb08035f 	cmp	x26, x8
    742c:	54004500 	b.eq	7ccc <_ZN6mapnik16vector_tile_impl19tile_datasource_pbfC2ERKN9protozero10pbf_readerEmmmb+0xaec>  // b.none
    7430:	a9005757 	stp	x23, x21, [x26]
    7434:	f0000077 	adrp	x23, 16000 <_ZNSt6vectorIN6mapbox8geometry7polygonIlS_EESaIS3_EE17_M_realloc_insertIJEEEvN9__gnu_cxx17__normal_iteratorIPS3_S5_EEDpOT_+0x78>
    7438:	91196af7 	add	x23, x23, #0x65a
    743c:	fd000b49 	str	d9, [x26, #16]
    7440:	f940b668 	ldr	x8, [x19, #360]
    7444:	a944ebf5 	ldp	x21, x26, [sp, #72]
    7448:	91006108 	add	x8, x8, #0x18
    744c:	f900b668 	str	x8, [x19, #360]
    7450:	aa1903e0 	mov	x0, x25
    7454:	94000730 	bl	9114 <_ZN9protozero10pbf_reader4nextEv>
    7458:	36005740 	tbz	w0, #0, 7f40 <_ZN6mapnik16vector_tile_impl19tile_datasource_pbfC2ERKN9protozero10pbf_readerEmmmb+0xd60>
    745c:	b940de68 	ldr	w8, [x19, #220]
    7460:	51000508 	sub	w8, w8, #0x1
    7464:	7100391f 	cmp	w8, #0xe
    7468:	54007a08 	b.hi	83a8 <_ZN6mapnik16vector_tile_impl19tile_datasource_pbfC2ERKN9protozero10pbf_readerEmmmb+0x11c8>  // b.pmore
    746c:	10000089 	adr	x9, 747c <_ZN6mapnik16vector_tile_impl19tile_datasource_pbfC2ERKN9protozero10pbf_readerEmmmb+0x29c>
    7470:	78687b6a 	ldrh	w10, [x27, x8, lsl #1]
    7474:	8b0a0929 	add	x9, x9, x10, lsl #2
    7478:	d61f0120 	br	x9
    747c:	a94c8668 	ldp	x8, x1, [x19, #200]
    7480:	eb01011f 	cmp	x8, x1
    7484:	540005c0 	b.eq	753c <_ZN6mapnik16vector_tile_impl19tile_datasource_pbfC2ERKN9protozero10pbf_readerEmmmb+0x35c>  // b.none
    7488:	39c00109 	ldrsb	w9, [x8]
    748c:	37f80589 	tbnz	w9, #31, 753c <_ZN6mapnik16vector_tile_impl19tile_datasource_pbfC2ERKN9protozero10pbf_readerEmmmb+0x35c>
    7490:	91000517 	add	x23, x8, #0x1
    7494:	92401d20 	and	x0, x9, #0xff
    7498:	f9000337 	str	x23, [x25]
    749c:	1400002b 	b	7548 <_ZN6mapnik16vector_tile_impl19tile_datasource_pbfC2ERKN9protozero10pbf_readerEmmmb+0x368>
    74a0:	a94c8668 	ldp	x8, x1, [x19, #200]
    74a4:	eb01011f 	cmp	x8, x1
    74a8:	54000420 	b.eq	752c <_ZN6mapnik16vector_tile_impl19tile_datasource_pbfC2ERKN9protozero10pbf_readerEmmmb+0x34c>  // b.none
    74ac:	39c00109 	ldrsb	w9, [x8]
    74b0:	37f803e9 	tbnz	w9, #31, 752c <_ZN6mapnik16vector_tile_impl19tile_datasource_pbfC2ERKN9protozero10pbf_readerEmmmb+0x34c>
    74b4:	91000508 	add	x8, x8, #0x1
    74b8:	92401d20 	and	x0, x9, #0xff
    74bc:	f9000328 	str	x8, [x25]
    74c0:	b9013a60 	str	w0, [x19, #312]
    74c4:	17ffffe3 	b	7450 <_ZN6mapnik16vector_tile_impl19tile_datasource_pbfC2ERKN9protozero10pbf_readerEmmmb+0x270>
    74c8:	d10123a8 	sub	x8, x29, #0x48
    74cc:	aa1903e0 	mov	x0, x25
    74d0:	9400074f 	bl	920c <_ZN9protozero10pbf_reader10get_stringB5cxx11Ev>
    74d4:	a9582261 	ldp	x1, x8, [x19, #384]
    74d8:	eb08003f 	cmp	x1, x8
    74dc:	54003e60 	b.eq	7ca8 <_ZN6mapnik16vector_tile_impl19tile_datasource_pbfC2ERKN9protozero10pbf_readerEmmmb+0xac8>  // b.none
    74e0:	91004028 	add	x8, x1, #0x10
    74e4:	f9402fea 	ldr	x10, [sp, #88]
    74e8:	f9000028 	str	x8, [x1]
    74ec:	f85b83a9 	ldur	x9, [x29, #-72]
    74f0:	eb0a013f 	cmp	x9, x10
    74f4:	54004680 	b.eq	7dc4 <_ZN6mapnik16vector_tile_impl19tile_datasource_pbfC2ERKN9protozero10pbf_readerEmmmb+0xbe4>  // b.none
    74f8:	f9000029 	str	x9, [x1]
    74fc:	f85c83a8 	ldur	x8, [x29, #-56]
    7500:	f9000828 	str	x8, [x1, #16]
    7504:	14000232 	b	7dcc <_ZN6mapnik16vector_tile_impl19tile_datasource_pbfC2ERKN9protozero10pbf_readerEmmmb+0xbec>
    7508:	a94c8668 	ldp	x8, x1, [x19, #200]
    750c:	eb01011f 	cmp	x8, x1
    7510:	540007a0 	b.eq	7604 <_ZN6mapnik16vector_tile_impl19tile_datasource_pbfC2ERKN9protozero10pbf_readerEmmmb+0x424>  // b.none
    7514:	39c0010a 	ldrsb	w10, [x8]
    7518:	37f8076a 	tbnz	w10, #31, 7604 <_ZN6mapnik16vector_tile_impl19tile_datasource_pbfC2ERKN9protozero10pbf_readerEmmmb+0x424>
    751c:	91000509 	add	x9, x8, #0x1
    7520:	92401d40 	and	x0, x10, #0xff
    7524:	f9000329 	str	x9, [x25]
    7528:	1400003a 	b	7610 <_ZN6mapnik16vector_tile_impl19tile_datasource_pbfC2ERKN9protozero10pbf_readerEmmmb+0x430>
    752c:	aa1903e0 	mov	x0, x25
    7530:	97fffd9c 	bl	6ba0 <_ZN9protozero6detail18decode_varint_implEPPKcS2_>
    7534:	b9013a60 	str	w0, [x19, #312]
    7538:	17ffffc6 	b	7450 <_ZN6mapnik16vector_tile_impl19tile_datasource_pbfC2ERKN9protozero10pbf_readerEmmmb+0x270>
    753c:	aa1903e0 	mov	x0, x25
    7540:	97fffd98 	bl	6ba0 <_ZN9protozero6detail18decode_varint_implEPPKcS2_>
    7544:	a94c8677 	ldp	x23, x1, [x19, #200]
    7548:	8b2042f5 	add	x21, x23, w0, uxtw
    754c:	eb0102bf 	cmp	x21, x1
    7550:	54007188 	b.hi	8380 <_ZN6mapnik16vector_tile_impl19tile_datasource_pbfC2ERKN9protozero10pbf_readerEmmmb+0x11a0>  // b.pmore
    7554:	f9000335 	str	x21, [x25]
    7558:	a93bd7b7 	stp	x23, x21, [x29, #-72]
    755c:	fc1c83a9 	stur	d9, [x29, #-56]
    7560:	14000005 	b	7574 <_ZN6mapnik16vector_tile_impl19tile_datasource_pbfC2ERKN9protozero10pbf_readerEmmmb+0x394>
    7564:	3607f600 	tbz	w0, #0, 7424 <_ZN6mapnik16vector_tile_impl19tile_datasource_pbfC2ERKN9protozero10pbf_readerEmmmb+0x244>
    7568:	3904f274 	strb	w20, [x19, #316]
    756c:	d10123a0 	sub	x0, x29, #0x48
    7570:	97fffd3f 	bl	6a6c <_ZN9protozero10pbf_reader4skipEv>
    7574:	a97b87a8 	ldp	x8, x1, [x29, #-72]
    7578:	eb01011f 	cmp	x8, x1
    757c:	54fff540 	b.eq	7424 <_ZN6mapnik16vector_tile_impl19tile_datasource_pbfC2ERKN9protozero10pbf_readerEmmmb+0x244>  // b.none
    7580:	39c00109 	ldrsb	w9, [x8]
    7584:	37f800a9 	tbnz	w9, #31, 7598 <_ZN6mapnik16vector_tile_impl19tile_datasource_pbfC2ERKN9protozero10pbf_readerEmmmb+0x3b8>
    7588:	91000508 	add	x8, x8, #0x1
    758c:	92401d20 	and	x0, x9, #0xff
    7590:	f81b83a8 	stur	x8, [x29, #-72]
    7594:	14000003 	b	75a0 <_ZN6mapnik16vector_tile_impl19tile_datasource_pbfC2ERKN9protozero10pbf_readerEmmmb+0x3c0>
    7598:	d10123a0 	sub	x0, x29, #0x48
    759c:	97fffd81 	bl	6ba0 <_ZN9protozero6detail18decode_varint_implEPPKcS2_>
    75a0:	d3437c08 	ubfx	x8, x0, #3, #29
    75a4:	7100201f 	cmp	w0, #0x8
    75a8:	b81cc3a8 	stur	w8, [x29, #-52]
    75ac:	54006263 	b.cc	81f8 <_ZN6mapnik16vector_tile_impl19tile_datasource_pbfC2ERKN9protozero10pbf_readerEmmmb+0x1018>  // b.lo, b.ul, b.last
    75b0:	0b160009 	add	w9, w0, w22
    75b4:	53067d29 	lsr	w9, w9, #6
    75b8:	7101f13f 	cmp	w9, #0x7c
    75bc:	540061e9 	b.ls	81f8 <_ZN6mapnik16vector_tile_impl19tile_datasource_pbfC2ERKN9protozero10pbf_readerEmmmb+0x1018>  // b.plast
    75c0:	12000809 	and	w9, w0, #0x7
    75c4:	71000d3f 	cmp	w9, #0x3
    75c8:	b81c83a9 	stur	w9, [x29, #-56]
    75cc:	54000063 	b.cc	75d8 <_ZN6mapnik16vector_tile_impl19tile_datasource_pbfC2ERKN9protozero10pbf_readerEmmmb+0x3f8>  // b.lo, b.ul, b.last
    75d0:	7100153f 	cmp	w9, #0x5
    75d4:	54006381 	b.ne	8244 <_ZN6mapnik16vector_tile_impl19tile_datasource_pbfC2ERKN9protozero10pbf_readerEmmmb+0x1064>  // b.any
    75d8:	7100151f 	cmp	w8, #0x5
    75dc:	54fffc60 	b.eq	7568 <_ZN6mapnik16vector_tile_impl19tile_datasource_pbfC2ERKN9protozero10pbf_readerEmmmb+0x388>  // b.none
    75e0:	d10123a0 	sub	x0, x29, #0x48
    75e4:	97fffd22 	bl	6a6c <_ZN9protozero10pbf_reader4skipEv>
    75e8:	d10123a0 	sub	x0, x29, #0x48
    75ec:	940006ca 	bl	9114 <_ZN9protozero10pbf_reader4nextEv>
    75f0:	3607fba0 	tbz	w0, #0, 7564 <_ZN6mapnik16vector_tile_impl19tile_datasource_pbfC2ERKN9protozero10pbf_readerEmmmb+0x384>
    75f4:	b85cc3a8 	ldur	w8, [x29, #-52]
    75f8:	7100151f 	cmp	w8, #0x5
    75fc:	54ffff21 	b.ne	75e0 <_ZN6mapnik16vector_tile_impl19tile_datasource_pbfC2ERKN9protozero10pbf_readerEmmmb+0x400>  // b.any
    7600:	17ffffd9 	b	7564 <_ZN6mapnik16vector_tile_impl19tile_datasource_pbfC2ERKN9protozero10pbf_readerEmmmb+0x384>
    7604:	aa1903e0 	mov	x0, x25
    7608:	97fffd66 	bl	6ba0 <_ZN9protozero6detail18decode_varint_implEPPKcS2_>
    760c:	a94c8669 	ldp	x9, x1, [x19, #200]
    7610:	92407c0a 	and	x10, x0, #0xffffffff
    7614:	8b0a0128 	add	x8, x9, x10
    7618:	eb01011f 	cmp	x8, x1
    761c:	540069e8 	b.hi	8358 <_ZN6mapnik16vector_tile_impl19tile_datasource_pbfC2ERKN9protozero10pbf_readerEmmmb+0x1178>  // b.pmore
    7620:	f9000328 	str	x8, [x25]
    7624:	a90823e9 	stp	x9, x8, [sp, #128]
    7628:	fd004be9 	str	d9, [sp, #144]
    762c:	b500012a 	cbnz	x10, 7650 <_ZN6mapnik16vector_tile_impl19tile_datasource_pbfC2ERKN9protozero10pbf_readerEmmmb+0x470>
    7630:	17ffff88 	b	7450 <_ZN6mapnik16vector_tile_impl19tile_datasource_pbfC2ERKN9protozero10pbf_readerEmmmb+0x270>
    7634:	f85983a0 	ldur	x0, [x29, #-104]
    7638:	eb15001f 	cmp	x0, x21
    763c:	54000040 	b.eq	7644 <_ZN6mapnik16vector_tile_impl19tile_datasource_pbfC2ERKN9protozero10pbf_readerEmmmb+0x464>  // b.none
    7640:	97fff478 	bl	4820 <_ZdlPv@plt>
    7644:	a94823e9 	ldp	x9, x8, [sp, #128]
    7648:	eb08013f 	cmp	x9, x8
    764c:	54fff020 	b.eq	7450 <_ZN6mapnik16vector_tile_impl19tile_datasource_pbfC2ERKN9protozero10pbf_readerEmmmb+0x270>  // b.none
    7650:	39c0012a 	ldrsb	w10, [x9]
    7654:	37f800aa 	tbnz	w10, #31, 7668 <_ZN6mapnik16vector_tile_impl19tile_datasource_pbfC2ERKN9protozero10pbf_readerEmmmb+0x488>
    7658:	91000528 	add	x8, x9, #0x1
    765c:	92401d40 	and	x0, x10, #0xff
    7660:	f90043e8 	str	x8, [sp, #128]
    7664:	14000004 	b	7674 <_ZN6mapnik16vector_tile_impl19tile_datasource_pbfC2ERKN9protozero10pbf_readerEmmmb+0x494>
    7668:	910203e0 	add	x0, sp, #0x80
    766c:	aa0803e1 	mov	x1, x8
    7670:	97fffd4c 	bl	6ba0 <_ZN9protozero6detail18decode_varint_implEPPKcS2_>
    7674:	d3437c08 	ubfx	x8, x0, #3, #29
    7678:	7100201f 	cmp	w0, #0x8
    767c:	b90097e8 	str	w8, [sp, #148]
    7680:	54005ca3 	b.cc	8214 <_ZN6mapnik16vector_tile_impl19tile_datasource_pbfC2ERKN9protozero10pbf_readerEmmmb+0x1034>  // b.lo, b.ul, b.last
    7684:	0b160009 	add	w9, w0, w22
    7688:	53067d29 	lsr	w9, w9, #6
    768c:	7101f13f 	cmp	w9, #0x7c
    7690:	54005c29 	b.ls	8214 <_ZN6mapnik16vector_tile_impl19tile_datasource_pbfC2ERKN9protozero10pbf_readerEmmmb+0x1034>  // b.plast
    7694:	12000809 	and	w9, w0, #0x7
    7698:	71000d3f 	cmp	w9, #0x3
    769c:	b90093e9 	str	w9, [sp, #144]
    76a0:	54000063 	b.cc	76ac <_ZN6mapnik16vector_tile_impl19tile_datasource_pbfC2ERKN9protozero10pbf_readerEmmmb+0x4cc>  // b.lo, b.ul, b.last
    76a4:	7100153f 	cmp	w9, #0x5
    76a8:	54005e21 	b.ne	826c <_ZN6mapnik16vector_tile_impl19tile_datasource_pbfC2ERKN9protozero10pbf_readerEmmmb+0x108c>  // b.any
    76ac:	51000508 	sub	w8, w8, #0x1
    76b0:	7100191f 	cmp	w8, #0x6
    76b4:	54005ee8 	b.hi	8290 <_ZN6mapnik16vector_tile_impl19tile_datasource_pbfC2ERKN9protozero10pbf_readerEmmmb+0x10b0>  // b.pmore
    76b8:	10000089 	adr	x9, 76c8 <_ZN6mapnik16vector_tile_impl19tile_datasource_pbfC2ERKN9protozero10pbf_readerEmmmb+0x4e8>
    76bc:	38686aea 	ldrb	w10, [x23, x8]
    76c0:	8b0a0929 	add	x9, x9, x10, lsl #2
    76c4:	d61f0120 	br	x9
    76c8:	d101a3a8 	sub	x8, x29, #0x68
    76cc:	910203e0 	add	x0, sp, #0x80
    76d0:	940006cf 	bl	920c <_ZN9protozero10pbf_reader10get_stringB5cxx11Ev>
    76d4:	f85983aa 	ldur	x10, [x29, #-104]
    76d8:	528000a8 	mov	w8, #0x5                   	// #5
    76dc:	f81c03b8 	stur	x24, [x29, #-64]
    76e0:	eb15015f 	cmp	x10, x21
    76e4:	b81b83a8 	stur	w8, [x29, #-72]
    76e8:	54001d20 	b.eq	7a8c <_ZN6mapnik16vector_tile_impl19tile_datasource_pbfC2ERKN9protozero10pbf_readerEmmmb+0x8ac>  // b.none
    76ec:	f85a83a8 	ldur	x8, [x29, #-88]
    76f0:	f81c03aa 	stur	x10, [x29, #-64]
    76f4:	f81d03a8 	stur	x8, [x29, #-48]
    76f8:	140000e8 	b	7a98 <_ZN6mapnik16vector_tile_impl19tile_datasource_pbfC2ERKN9protozero10pbf_readerEmmmb+0x8b8>
    76fc:	a94807e8 	ldp	x8, x1, [sp, #128]
    7700:	eb01011f 	cmp	x8, x1
    7704:	54000ee0 	b.eq	78e0 <_ZN6mapnik16vector_tile_impl19tile_datasource_pbfC2ERKN9protozero10pbf_readerEmmmb+0x700>  // b.none
    7708:	39c00109 	ldrsb	w9, [x8]
    770c:	37f80ea9 	tbnz	w9, #31, 78e0 <_ZN6mapnik16vector_tile_impl19tile_datasource_pbfC2ERKN9protozero10pbf_readerEmmmb+0x700>
    7710:	91000508 	add	x8, x8, #0x1
    7714:	92401d20 	and	x0, x9, #0xff
    7718:	f90043e8 	str	x8, [sp, #128]
    771c:	14000073 	b	78e8 <_ZN6mapnik16vector_tile_impl19tile_datasource_pbfC2ERKN9protozero10pbf_readerEmmmb+0x708>
    7720:	a9482be8 	ldp	x8, x10, [sp, #128]
    7724:	91002109 	add	x9, x8, #0x8
    7728:	eb0a013f 	cmp	x9, x10
    772c:	54006028 	b.hi	8330 <_ZN6mapnik16vector_tile_impl19tile_datasource_pbfC2ERKN9protozero10pbf_readerEmmmb+0x1150>  // b.pmore
    7730:	f90043e9 	str	x9, [sp, #128]
    7734:	a959a661 	ldp	x1, x9, [x19, #408]
    7738:	fd400100 	ldr	d0, [x8]
    773c:	52800068 	mov	w8, #0x3                   	// #3
    7740:	eb09003f 	cmp	x1, x9
    7744:	b81b83a8 	stur	w8, [x29, #-72]
    7748:	fc1c03a0 	stur	d0, [x29, #-64]
    774c:	54001980 	b.eq	7a7c <_ZN6mapnik16vector_tile_impl19tile_datasource_pbfC2ERKN9protozero10pbf_readerEmmmb+0x89c>  // b.none
    7750:	b9000028 	str	w8, [x1]
    7754:	b85b83a8 	ldur	w8, [x29, #-72]
    7758:	7100151f 	cmp	w8, #0x5
    775c:	54002328 	b.hi	7bc0 <_ZN6mapnik16vector_tile_impl19tile_datasource_pbfC2ERKN9protozero10pbf_readerEmmmb+0x9e0>  // b.pmore
    7760:	f000006b 	adrp	x11, 16000 <_ZNSt6vectorIN6mapbox8geometry7polygonIlS_EESaIS3_EE17_M_realloc_insertIJEEEvN9__gnu_cxx17__normal_iteratorIPS3_S5_EEDpOT_+0x78>
    7764:	9119e96b 	add	x11, x11, #0x67a
    7768:	10000089 	adr	x9, 7778 <_ZN6mapnik16vector_tile_impl19tile_datasource_pbfC2ERKN9protozero10pbf_readerEmmmb+0x598>
    776c:	7868796a 	ldrh	w10, [x11, x8, lsl #1]
    7770:	8b0a0929 	add	x9, x9, x10, lsl #2
    7774:	d61f0120 	br	x9
    7778:	9e660009 	fmov	x9, d0
    777c:	39002029 	strb	w9, [x1, #8]
    7780:	9100a029 	add	x9, x1, #0x28
    7784:	f900ce69 	str	x9, [x19, #408]
    7788:	7100151f 	cmp	w8, #0x5
    778c:	54fff5c1 	b.ne	7644 <_ZN6mapnik16vector_tile_impl19tile_datasource_pbfC2ERKN9protozero10pbf_readerEmmmb+0x464>  // b.any
    7790:	14000110 	b	7bd0 <_ZN6mapnik16vector_tile_impl19tile_datasource_pbfC2ERKN9protozero10pbf_readerEmmmb+0x9f0>
    7794:	a94807e8 	ldp	x8, x1, [sp, #128]
    7798:	eb01011f 	cmp	x8, x1
    779c:	54000c40 	b.eq	7924 <_ZN6mapnik16vector_tile_impl19tile_datasource_pbfC2ERKN9protozero10pbf_readerEmmmb+0x744>  // b.none
    77a0:	39c00109 	ldrsb	w9, [x8]
    77a4:	37f80c09 	tbnz	w9, #31, 7924 <_ZN6mapnik16vector_tile_impl19tile_datasource_pbfC2ERKN9protozero10pbf_readerEmmmb+0x744>
    77a8:	91000508 	add	x8, x8, #0x1
    77ac:	92401d20 	and	x0, x9, #0xff
    77b0:	f90043e8 	str	x8, [sp, #128]
    77b4:	1400005e 	b	792c <_ZN6mapnik16vector_tile_impl19tile_datasource_pbfC2ERKN9protozero10pbf_readerEmmmb+0x74c>
    77b8:	a9482be8 	ldp	x8, x10, [sp, #128]
    77bc:	91001109 	add	x9, x8, #0x4
    77c0:	eb0a013f 	cmp	x9, x10
    77c4:	54005a28 	b.hi	8308 <_ZN6mapnik16vector_tile_impl19tile_datasource_pbfC2ERKN9protozero10pbf_readerEmmmb+0x1128>  // b.pmore
    77c8:	f90043e9 	str	x9, [sp, #128]
    77cc:	a959a661 	ldp	x1, x9, [x19, #408]
    77d0:	bd400100 	ldr	s0, [x8]
    77d4:	52800088 	mov	w8, #0x4                   	// #4
    77d8:	eb09003f 	cmp	x1, x9
    77dc:	b81b83a8 	stur	w8, [x29, #-72]
    77e0:	bc1c03a0 	stur	s0, [x29, #-64]
    77e4:	540018c0 	b.eq	7afc <_ZN6mapnik16vector_tile_impl19tile_datasource_pbfC2ERKN9protozero10pbf_readerEmmmb+0x91c>  // b.none
    77e8:	b9000028 	str	w8, [x1]
    77ec:	b85b83a8 	ldur	w8, [x29, #-72]
    77f0:	7100151f 	cmp	w8, #0x5
    77f4:	54001e68 	b.hi	7bc0 <_ZN6mapnik16vector_tile_impl19tile_datasource_pbfC2ERKN9protozero10pbf_readerEmmmb+0x9e0>  // b.pmore
    77f8:	f000006b 	adrp	x11, 16000 <_ZNSt6vectorIN6mapbox8geometry7polygonIlS_EESaIS3_EE17_M_realloc_insertIJEEEvN9__gnu_cxx17__normal_iteratorIPS3_S5_EEDpOT_+0x78>
    77fc:	911a196b 	add	x11, x11, #0x686
    7800:	10000089 	adr	x9, 7810 <_ZN6mapnik16vector_tile_impl19tile_datasource_pbfC2ERKN9protozero10pbf_readerEmmmb+0x630>
    7804:	3868696a 	ldrb	w10, [x11, x8]
    7808:	8b0a0929 	add	x9, x9, x10, lsl #2
    780c:	d61f0120 	br	x9
    7810:	1e260009 	fmov	w9, s0
    7814:	140000de 	b	7b8c <_ZN6mapnik16vector_tile_impl19tile_datasource_pbfC2ERKN9protozero10pbf_readerEmmmb+0x9ac>
    7818:	a94807e8 	ldp	x8, x1, [sp, #128]
    781c:	eb01011f 	cmp	x8, x1
    7820:	54000b20 	b.eq	7984 <_ZN6mapnik16vector_tile_impl19tile_datasource_pbfC2ERKN9protozero10pbf_readerEmmmb+0x7a4>  // b.none
    7824:	39c00109 	ldrsb	w9, [x8]
    7828:	37f80ae9 	tbnz	w9, #31, 7984 <_ZN6mapnik16vector_tile_impl19tile_datasource_pbfC2ERKN9protozero10pbf_readerEmmmb+0x7a4>
    782c:	91000508 	add	x8, x8, #0x1
    7830:	92401d20 	and	x0, x9, #0xff
    7834:	f90043e8 	str	x8, [sp, #128]
    7838:	14000055 	b	798c <_ZN6mapnik16vector_tile_impl19tile_datasource_pbfC2ERKN9protozero10pbf_readerEmmmb+0x7ac>
    783c:	a9482be8 	ldp	x8, x10, [sp, #128]
    7840:	eb0a011f 	cmp	x8, x10
    7844:	54004b80 	b.eq	81b4 <_ZN6mapnik16vector_tile_impl19tile_datasource_pbfC2ERKN9protozero10pbf_readerEmmmb+0xfd4>  // b.none
    7848:	aa1f03e9 	mov	x9, xzr
    784c:	cb08014a 	sub	x10, x10, x8
    7850:	8b09010b 	add	x11, x8, x9
    7854:	39c0016c 	ldrsb	w12, [x11]
    7858:	36f800ac 	tbz	w12, #31, 786c <_ZN6mapnik16vector_tile_impl19tile_datasource_pbfC2ERKN9protozero10pbf_readerEmmmb+0x68c>
    785c:	91000529 	add	x9, x9, #0x1
    7860:	eb09015f 	cmp	x10, x9
    7864:	54ffff61 	b.ne	7850 <_ZN6mapnik16vector_tile_impl19tile_datasource_pbfC2ERKN9protozero10pbf_readerEmmmb+0x670>  // b.any
    7868:	14000251 	b	81ac <_ZN6mapnik16vector_tile_impl19tile_datasource_pbfC2ERKN9protozero10pbf_readerEmmmb+0xfcc>
    786c:	f100293f 	cmp	x9, #0xa
    7870:	54004b02 	b.cs	81d0 <_ZN6mapnik16vector_tile_impl19tile_datasource_pbfC2ERKN9protozero10pbf_readerEmmmb+0xff0>  // b.hs, b.nlast
    7874:	91000569 	add	x9, x11, #0x1
    7878:	f90043e9 	str	x9, [sp, #128]
    787c:	39400108 	ldrb	w8, [x8]
    7880:	b81b83bf 	stur	wzr, [x29, #-72]
    7884:	7100011f 	cmp	w8, #0x0
    7888:	a959a261 	ldp	x1, x8, [x19, #408]
    788c:	1a9f07e9 	cset	w9, ne  // ne = any
    7890:	381c03a9 	sturb	w9, [x29, #-64]
    7894:	eb08003f 	cmp	x1, x8
    7898:	54001480 	b.eq	7b28 <_ZN6mapnik16vector_tile_impl19tile_datasource_pbfC2ERKN9protozero10pbf_readerEmmmb+0x948>  // b.none
    789c:	b900003f 	str	wzr, [x1]
    78a0:	b85b83a8 	ldur	w8, [x29, #-72]
    78a4:	7100151f 	cmp	w8, #0x5
    78a8:	540018c8 	b.hi	7bc0 <_ZN6mapnik16vector_tile_impl19tile_datasource_pbfC2ERKN9protozero10pbf_readerEmmmb+0x9e0>  // b.pmore
    78ac:	f000006c 	adrp	x12, 16000 <_ZNSt6vectorIN6mapbox8geometry7polygonIlS_EESaIS3_EE17_M_realloc_insertIJEEEvN9__gnu_cxx17__normal_iteratorIPS3_S5_EEDpOT_+0x78>
    78b0:	9119858c 	add	x12, x12, #0x661
    78b4:	1000008a 	adr	x10, 78c4 <_ZN6mapnik16vector_tile_impl19tile_datasource_pbfC2ERKN9protozero10pbf_readerEmmmb+0x6e4>
    78b8:	3868698b 	ldrb	w11, [x12, x8]
    78bc:	8b0b094a 	add	x10, x10, x11, lsl #2
    78c0:	d61f0140 	br	x10
    78c4:	f85c03a9 	ldur	x9, [x29, #-64]
    78c8:	f9000429 	str	x9, [x1, #8]
    78cc:	9100a029 	add	x9, x1, #0x28
    78d0:	f900ce69 	str	x9, [x19, #408]
    78d4:	7100151f 	cmp	w8, #0x5
    78d8:	54ffeb61 	b.ne	7644 <_ZN6mapnik16vector_tile_impl19tile_datasource_pbfC2ERKN9protozero10pbf_readerEmmmb+0x464>  // b.any
    78dc:	140000bd 	b	7bd0 <_ZN6mapnik16vector_tile_impl19tile_datasource_pbfC2ERKN9protozero10pbf_readerEmmmb+0x9f0>
    78e0:	910203e0 	add	x0, sp, #0x80
    78e4:	97fffcaf 	bl	6ba0 <_ZN9protozero6detail18decode_varint_implEPPKcS2_>
    78e8:	a959a261 	ldp	x1, x8, [x19, #408]
    78ec:	b81b83b4 	stur	w20, [x29, #-72]
    78f0:	f81c03a0 	stur	x0, [x29, #-64]
    78f4:	eb08003f 	cmp	x1, x8
    78f8:	54000aa0 	b.eq	7a4c <_ZN6mapnik16vector_tile_impl19tile_datasource_pbfC2ERKN9protozero10pbf_readerEmmmb+0x86c>  // b.none
    78fc:	b9000034 	str	w20, [x1]
    7900:	b85b83a8 	ldur	w8, [x29, #-72]
    7904:	7100151f 	cmp	w8, #0x5
    7908:	540015c8 	b.hi	7bc0 <_ZN6mapnik16vector_tile_impl19tile_datasource_pbfC2ERKN9protozero10pbf_readerEmmmb+0x9e0>  // b.pmore
    790c:	f000006b 	adrp	x11, 16000 <_ZNSt6vectorIN6mapbox8geometry7polygonIlS_EESaIS3_EE17_M_realloc_insertIJEEEvN9__gnu_cxx17__normal_iteratorIPS3_S5_EEDpOT_+0x78>
    7910:	9119b56b 	add	x11, x11, #0x66d
    7914:	100002c9 	adr	x9, 796c <_ZN6mapnik16vector_tile_impl19tile_datasource_pbfC2ERKN9protozero10pbf_readerEmmmb+0x78c>
    7918:	3868696a 	ldrb	w10, [x11, x8]
    791c:	8b0a0929 	add	x9, x9, x10, lsl #2
    7920:	d61f0120 	br	x9
    7924:	910203e0 	add	x0, sp, #0x80
    7928:	97fffc9e 	bl	6ba0 <_ZN9protozero6detail18decode_varint_implEPPKcS2_>
    792c:	a959a261 	ldp	x1, x8, [x19, #408]
    7930:	52800049 	mov	w9, #0x2                   	// #2
    7934:	f81c03a0 	stur	x0, [x29, #-64]
    7938:	b81b83a9 	stur	w9, [x29, #-72]
    793c:	eb08003f 	cmp	x1, x8
    7940:	540008e0 	b.eq	7a5c <_ZN6mapnik16vector_tile_impl19tile_datasource_pbfC2ERKN9protozero10pbf_readerEmmmb+0x87c>  // b.none
    7944:	b9000029 	str	w9, [x1]
    7948:	b85b83a8 	ldur	w8, [x29, #-72]
    794c:	7100151f 	cmp	w8, #0x5
    7950:	54001388 	b.hi	7bc0 <_ZN6mapnik16vector_tile_impl19tile_datasource_pbfC2ERKN9protozero10pbf_readerEmmmb+0x9e0>  // b.pmore
    7954:	f000006b 	adrp	x11, 16000 <_ZNSt6vectorIN6mapbox8geometry7polygonIlS_EESaIS3_EE17_M_realloc_insertIJEEEvN9__gnu_cxx17__normal_iteratorIPS3_S5_EEDpOT_+0x78>
    7958:	9119cd6b 	add	x11, x11, #0x673
    795c:	10000089 	adr	x9, 796c <_ZN6mapnik16vector_tile_impl19tile_datasource_pbfC2ERKN9protozero10pbf_readerEmmmb+0x78c>
    7960:	3868696a 	ldrb	w10, [x11, x8]
    7964:	8b0a0929 	add	x9, x9, x10, lsl #2
    7968:	d61f0120 	br	x9
    796c:	f9000420 	str	x0, [x1, #8]
    7970:	9100a029 	add	x9, x1, #0x28
    7974:	f900ce69 	str	x9, [x19, #408]
    7978:	7100151f 	cmp	w8, #0x5
    797c:	54ffe641 	b.ne	7644 <_ZN6mapnik16vector_tile_impl19tile_datasource_pbfC2ERKN9protozero10pbf_readerEmmmb+0x464>  // b.any
    7980:	14000094 	b	7bd0 <_ZN6mapnik16vector_tile_impl19tile_datasource_pbfC2ERKN9protozero10pbf_readerEmmmb+0x9f0>
    7984:	910203e0 	add	x0, sp, #0x80
    7988:	97fffc86 	bl	6ba0 <_ZN9protozero6detail18decode_varint_implEPPKcS2_>
    798c:	a959aa61 	ldp	x1, x10, [x19, #408]
    7990:	92400008 	and	x8, x0, #0x1
    7994:	cb0803e8 	neg	x8, x8
    7998:	ca400509 	eor	x9, x8, x0, lsr #1
    799c:	52800048 	mov	w8, #0x2                   	// #2
    79a0:	eb0a003f 	cmp	x1, x10
    79a4:	b81b83a8 	stur	w8, [x29, #-72]
    79a8:	f81c03a9 	stur	x9, [x29, #-64]
    79ac:	54000600 	b.eq	7a6c <_ZN6mapnik16vector_tile_impl19tile_datasource_pbfC2ERKN9protozero10pbf_readerEmmmb+0x88c>  // b.none
    79b0:	b9000028 	str	w8, [x1]
    79b4:	b85b83a8 	ldur	w8, [x29, #-72]
    79b8:	7100151f 	cmp	w8, #0x5
    79bc:	54001028 	b.hi	7bc0 <_ZN6mapnik16vector_tile_impl19tile_datasource_pbfC2ERKN9protozero10pbf_readerEmmmb+0x9e0>  // b.pmore
    79c0:	f000006c 	adrp	x12, 16000 <_ZNSt6vectorIN6mapbox8geometry7polygonIlS_EESaIS3_EE17_M_realloc_insertIJEEEvN9__gnu_cxx17__normal_iteratorIPS3_S5_EEDpOT_+0x78>
    79c4:	91199d8c 	add	x12, x12, #0x667
    79c8:	1000008a 	adr	x10, 79d8 <_ZN6mapnik16vector_tile_impl19tile_datasource_pbfC2ERKN9protozero10pbf_readerEmmmb+0x7f8>
    79cc:	3868698b 	ldrb	w11, [x12, x8]
    79d0:	8b0b094a 	add	x10, x10, x11, lsl #2
    79d4:	d61f0140 	br	x10
    79d8:	f9000429 	str	x9, [x1, #8]
    79dc:	9100a029 	add	x9, x1, #0x28
    79e0:	f900ce69 	str	x9, [x19, #408]
    79e4:	7100151f 	cmp	w8, #0x5
    79e8:	54ffe2e1 	b.ne	7644 <_ZN6mapnik16vector_tile_impl19tile_datasource_pbfC2ERKN9protozero10pbf_readerEmmmb+0x464>  // b.any
    79ec:	14000079 	b	7bd0 <_ZN6mapnik16vector_tile_impl19tile_datasource_pbfC2ERKN9protozero10pbf_readerEmmmb+0x9f0>
    79f0:	91006029 	add	x9, x1, #0x18
    79f4:	f9000429 	str	x9, [x1, #8]
    79f8:	f85c03aa 	ldur	x10, [x29, #-64]
    79fc:	eb18015f 	cmp	x10, x24
    7a00:	54000a20 	b.eq	7b44 <_ZN6mapnik16vector_tile_impl19tile_datasource_pbfC2ERKN9protozero10pbf_readerEmmmb+0x964>  // b.none
    7a04:	f900042a 	str	x10, [x1, #8]
    7a08:	f85d03a9 	ldur	x9, [x29, #-48]
    7a0c:	f9000c29 	str	x9, [x1, #24]
    7a10:	1400004f 	b	7b4c <_ZN6mapnik16vector_tile_impl19tile_datasource_pbfC2ERKN9protozero10pbf_readerEmmmb+0x96c>
    7a14:	bc5c03a0 	ldur	s0, [x29, #-64]
    7a18:	bd000820 	str	s0, [x1, #8]
    7a1c:	9100a029 	add	x9, x1, #0x28
    7a20:	f900ce69 	str	x9, [x19, #408]
    7a24:	7100151f 	cmp	w8, #0x5
    7a28:	54ffe0e1 	b.ne	7644 <_ZN6mapnik16vector_tile_impl19tile_datasource_pbfC2ERKN9protozero10pbf_readerEmmmb+0x464>  // b.any
    7a2c:	14000069 	b	7bd0 <_ZN6mapnik16vector_tile_impl19tile_datasource_pbfC2ERKN9protozero10pbf_readerEmmmb+0x9f0>
    7a30:	fc5c03a0 	ldur	d0, [x29, #-64]
    7a34:	fd000420 	str	d0, [x1, #8]
    7a38:	9100a029 	add	x9, x1, #0x28
    7a3c:	f900ce69 	str	x9, [x19, #408]
    7a40:	7100151f 	cmp	w8, #0x5
    7a44:	54ffe001 	b.ne	7644 <_ZN6mapnik16vector_tile_impl19tile_datasource_pbfC2ERKN9protozero10pbf_readerEmmmb+0x464>  // b.any
    7a48:	14000062 	b	7bd0 <_ZN6mapnik16vector_tile_impl19tile_datasource_pbfC2ERKN9protozero10pbf_readerEmmmb+0x9f0>
    7a4c:	d10123a2 	sub	x2, x29, #0x48
    7a50:	aa1a03e0 	mov	x0, x26
    7a54:	94000bdf 	bl	a9d0 <_ZNSt6vectorIN6mapbox4util7variantIJNSt7__cxx1112basic_stringIcSt11char_traitsIcESaIcEEEfdlmbEEESaIS9_EE17_M_realloc_insertIJS9_EEEvN9__gnu_cxx17__normal_iteratorIPS9_SB_EEDpOT_>
    7a58:	14000037 	b	7b34 <_ZN6mapnik16vector_tile_impl19tile_datasource_pbfC2ERKN9protozero10pbf_readerEmmmb+0x954>
    7a5c:	d10123a2 	sub	x2, x29, #0x48
    7a60:	aa1a03e0 	mov	x0, x26
    7a64:	94000bdb 	bl	a9d0 <_ZNSt6vectorIN6mapbox4util7variantIJNSt7__cxx1112basic_stringIcSt11char_traitsIcESaIcEEEfdlmbEEESaIS9_EE17_M_realloc_insertIJS9_EEEvN9__gnu_cxx17__normal_iteratorIPS9_SB_EEDpOT_>
    7a68:	14000033 	b	7b34 <_ZN6mapnik16vector_tile_impl19tile_datasource_pbfC2ERKN9protozero10pbf_readerEmmmb+0x954>
    7a6c:	d10123a2 	sub	x2, x29, #0x48
    7a70:	aa1a03e0 	mov	x0, x26
    7a74:	94000bd7 	bl	a9d0 <_ZNSt6vectorIN6mapbox4util7variantIJNSt7__cxx1112basic_stringIcSt11char_traitsIcESaIcEEEfdlmbEEESaIS9_EE17_M_realloc_insertIJS9_EEEvN9__gnu_cxx17__normal_iteratorIPS9_SB_EEDpOT_>
    7a78:	1400002f 	b	7b34 <_ZN6mapnik16vector_tile_impl19tile_datasource_pbfC2ERKN9protozero10pbf_readerEmmmb+0x954>
    7a7c:	d10123a2 	sub	x2, x29, #0x48
    7a80:	aa1a03e0 	mov	x0, x26
    7a84:	94000bd3 	bl	a9d0 <_ZNSt6vectorIN6mapbox4util7variantIJNSt7__cxx1112basic_stringIcSt11char_traitsIcESaIcEEEfdlmbEEESaIS9_EE17_M_realloc_insertIJS9_EEEvN9__gnu_cxx17__normal_iteratorIPS9_SB_EEDpOT_>
    7a88:	1400002b 	b	7b34 <_ZN6mapnik16vector_tile_impl19tile_datasource_pbfC2ERKN9protozero10pbf_readerEmmmb+0x954>
    7a8c:	3dc002a0 	ldr	q0, [x21]
    7a90:	aa1803ea 	mov	x10, x24
    7a94:	3d800300 	str	q0, [x24]
    7a98:	a959a261 	ldp	x1, x8, [x19, #408]
    7a9c:	381a83bf 	sturb	wzr, [x29, #-88]
    7aa0:	f85a03a9 	ldur	x9, [x29, #-96]
    7aa4:	a939ffb5 	stp	x21, xzr, [x29, #-104]
    7aa8:	eb08003f 	cmp	x1, x8
    7aac:	f81c83a9 	stur	x9, [x29, #-56]
    7ab0:	540002e0 	b.eq	7b0c <_ZN6mapnik16vector_tile_impl19tile_datasource_pbfC2ERKN9protozero10pbf_readerEmmmb+0x92c>  // b.none
    7ab4:	528000a8 	mov	w8, #0x5                   	// #5
    7ab8:	b9000028 	str	w8, [x1]
    7abc:	b85b83a8 	ldur	w8, [x29, #-72]
    7ac0:	7100151f 	cmp	w8, #0x5
    7ac4:	54000b88 	b.hi	7c34 <_ZN6mapnik16vector_tile_impl19tile_datasource_pbfC2ERKN9protozero10pbf_readerEmmmb+0xa54>  // b.pmore
    7ac8:	f000006d 	adrp	x13, 16000 <_ZNSt6vectorIN6mapbox8geometry7polygonIlS_EESaIS3_EE17_M_realloc_insertIJEEEvN9__gnu_cxx17__normal_iteratorIPS3_S5_EEDpOT_+0x78>
    7acc:	911a31ad 	add	x13, x13, #0x68c
    7ad0:	1000008b 	adr	x11, 7ae0 <_ZN6mapnik16vector_tile_impl19tile_datasource_pbfC2ERKN9protozero10pbf_readerEmmmb+0x900>
    7ad4:	386869ac 	ldrb	w12, [x13, x8]
    7ad8:	8b0c096b 	add	x11, x11, x12, lsl #2
    7adc:	d61f0160 	br	x11
    7ae0:	f85c03a9 	ldur	x9, [x29, #-64]
    7ae4:	f9000429 	str	x9, [x1, #8]
    7ae8:	9100a029 	add	x9, x1, #0x28
    7aec:	f900ce69 	str	x9, [x19, #408]
    7af0:	7100151f 	cmp	w8, #0x5
    7af4:	54000a80 	b.eq	7c44 <_ZN6mapnik16vector_tile_impl19tile_datasource_pbfC2ERKN9protozero10pbf_readerEmmmb+0xa64>  // b.none
    7af8:	17fffecf 	b	7634 <_ZN6mapnik16vector_tile_impl19tile_datasource_pbfC2ERKN9protozero10pbf_readerEmmmb+0x454>
    7afc:	d10123a2 	sub	x2, x29, #0x48
    7b00:	aa1a03e0 	mov	x0, x26
    7b04:	94000bb3 	bl	a9d0 <_ZNSt6vectorIN6mapbox4util7variantIJNSt7__cxx1112basic_stringIcSt11char_traitsIcESaIcEEEfdlmbEEESaIS9_EE17_M_realloc_insertIJS9_EEEvN9__gnu_cxx17__normal_iteratorIPS9_SB_EEDpOT_>
    7b08:	1400000b 	b	7b34 <_ZN6mapnik16vector_tile_impl19tile_datasource_pbfC2ERKN9protozero10pbf_readerEmmmb+0x954>
    7b0c:	d10123a2 	sub	x2, x29, #0x48
    7b10:	aa1a03e0 	mov	x0, x26
    7b14:	94000baf 	bl	a9d0 <_ZNSt6vectorIN6mapbox4util7variantIJNSt7__cxx1112basic_stringIcSt11char_traitsIcESaIcEEEfdlmbEEESaIS9_EE17_M_realloc_insertIJS9_EEEvN9__gnu_cxx17__normal_iteratorIPS9_SB_EEDpOT_>
    7b18:	b85b83a8 	ldur	w8, [x29, #-72]
    7b1c:	7100151f 	cmp	w8, #0x5
    7b20:	54ffd8a1 	b.ne	7634 <_ZN6mapnik16vector_tile_impl19tile_datasource_pbfC2ERKN9protozero10pbf_readerEmmmb+0x454>  // b.any
    7b24:	14000048 	b	7c44 <_ZN6mapnik16vector_tile_impl19tile_datasource_pbfC2ERKN9protozero10pbf_readerEmmmb+0xa64>
    7b28:	d10123a2 	sub	x2, x29, #0x48
    7b2c:	aa1a03e0 	mov	x0, x26
    7b30:	94000ba8 	bl	a9d0 <_ZNSt6vectorIN6mapbox4util7variantIJNSt7__cxx1112basic_stringIcSt11char_traitsIcESaIcEEEfdlmbEEESaIS9_EE17_M_realloc_insertIJS9_EEEvN9__gnu_cxx17__normal_iteratorIPS9_SB_EEDpOT_>
    7b34:	b85b83a8 	ldur	w8, [x29, #-72]
    7b38:	7100151f 	cmp	w8, #0x5
    7b3c:	54ffd841 	b.ne	7644 <_ZN6mapnik16vector_tile_impl19tile_datasource_pbfC2ERKN9protozero10pbf_readerEmmmb+0x464>  // b.any
    7b40:	14000024 	b	7bd0 <_ZN6mapnik16vector_tile_impl19tile_datasource_pbfC2ERKN9protozero10pbf_readerEmmmb+0x9f0>
    7b44:	3dc00300 	ldr	q0, [x24]
    7b48:	3d800120 	str	q0, [x9]
    7b4c:	f85c83a9 	ldur	x9, [x29, #-56]
    7b50:	f9000829 	str	x9, [x1, #16]
    7b54:	f940ce61 	ldr	x1, [x19, #408]
    7b58:	a93c7fb8 	stp	x24, xzr, [x29, #-64]
    7b5c:	381d03bf 	sturb	wzr, [x29, #-48]
    7b60:	9100a029 	add	x9, x1, #0x28
    7b64:	f900ce69 	str	x9, [x19, #408]
    7b68:	7100151f 	cmp	w8, #0x5
    7b6c:	54ffd6c1 	b.ne	7644 <_ZN6mapnik16vector_tile_impl19tile_datasource_pbfC2ERKN9protozero10pbf_readerEmmmb+0x464>  // b.any
    7b70:	14000018 	b	7bd0 <_ZN6mapnik16vector_tile_impl19tile_datasource_pbfC2ERKN9protozero10pbf_readerEmmmb+0x9f0>
    7b74:	39002020 	strb	w0, [x1, #8]
    7b78:	9100a029 	add	x9, x1, #0x28
    7b7c:	f900ce69 	str	x9, [x19, #408]
    7b80:	7100151f 	cmp	w8, #0x5
    7b84:	54ffd601 	b.ne	7644 <_ZN6mapnik16vector_tile_impl19tile_datasource_pbfC2ERKN9protozero10pbf_readerEmmmb+0x464>  // b.any
    7b88:	14000012 	b	7bd0 <_ZN6mapnik16vector_tile_impl19tile_datasource_pbfC2ERKN9protozero10pbf_readerEmmmb+0x9f0>
    7b8c:	39002029 	strb	w9, [x1, #8]
    7b90:	9100a029 	add	x9, x1, #0x28
    7b94:	f900ce69 	str	x9, [x19, #408]
    7b98:	7100151f 	cmp	w8, #0x5
    7b9c:	54ffd541 	b.ne	7644 <_ZN6mapnik16vector_tile_impl19tile_datasource_pbfC2ERKN9protozero10pbf_readerEmmmb+0x464>  // b.any
    7ba0:	1400000c 	b	7bd0 <_ZN6mapnik16vector_tile_impl19tile_datasource_pbfC2ERKN9protozero10pbf_readerEmmmb+0x9f0>
    7ba4:	39002029 	strb	w9, [x1, #8]
    7ba8:	9100a029 	add	x9, x1, #0x28
    7bac:	f900ce69 	str	x9, [x19, #408]
    7bb0:	7100151f 	cmp	w8, #0x5
    7bb4:	54ffd481 	b.ne	7644 <_ZN6mapnik16vector_tile_impl19tile_datasource_pbfC2ERKN9protozero10pbf_readerEmmmb+0x464>  // b.any
    7bb8:	14000006 	b	7bd0 <_ZN6mapnik16vector_tile_impl19tile_datasource_pbfC2ERKN9protozero10pbf_readerEmmmb+0x9f0>
    7bbc:	fd000420 	str	d0, [x1, #8]
    7bc0:	9100a029 	add	x9, x1, #0x28
    7bc4:	f900ce69 	str	x9, [x19, #408]
    7bc8:	7100151f 	cmp	w8, #0x5
    7bcc:	54ffd3c1 	b.ne	7644 <_ZN6mapnik16vector_tile_impl19tile_datasource_pbfC2ERKN9protozero10pbf_readerEmmmb+0x464>  // b.any
    7bd0:	f85c03a0 	ldur	x0, [x29, #-64]
    7bd4:	eb18001f 	cmp	x0, x24
    7bd8:	54ffd341 	b.ne	7640 <_ZN6mapnik16vector_tile_impl19tile_datasource_pbfC2ERKN9protozero10pbf_readerEmmmb+0x460>  // b.any
    7bdc:	17fffe9a 	b	7644 <_ZN6mapnik16vector_tile_impl19tile_datasource_pbfC2ERKN9protozero10pbf_readerEmmmb+0x464>
    7be0:	bd000820 	str	s0, [x1, #8]
    7be4:	9100a029 	add	x9, x1, #0x28
    7be8:	f900ce69 	str	x9, [x19, #408]
    7bec:	7100151f 	cmp	w8, #0x5
    7bf0:	54ffd2a1 	b.ne	7644 <_ZN6mapnik16vector_tile_impl19tile_datasource_pbfC2ERKN9protozero10pbf_readerEmmmb+0x464>  // b.any
    7bf4:	17fffff7 	b	7bd0 <_ZN6mapnik16vector_tile_impl19tile_datasource_pbfC2ERKN9protozero10pbf_readerEmmmb+0x9f0>
    7bf8:	bc5c03a0 	ldur	s0, [x29, #-64]
    7bfc:	bd000820 	str	s0, [x1, #8]
    7c00:	9100a029 	add	x9, x1, #0x28
    7c04:	f900ce69 	str	x9, [x19, #408]
    7c08:	7100151f 	cmp	w8, #0x5
    7c0c:	54ffd141 	b.ne	7634 <_ZN6mapnik16vector_tile_impl19tile_datasource_pbfC2ERKN9protozero10pbf_readerEmmmb+0x454>  // b.any
    7c10:	1400000d 	b	7c44 <_ZN6mapnik16vector_tile_impl19tile_datasource_pbfC2ERKN9protozero10pbf_readerEmmmb+0xa64>
    7c14:	3900202a 	strb	w10, [x1, #8]
    7c18:	9100a029 	add	x9, x1, #0x28
    7c1c:	f900ce69 	str	x9, [x19, #408]
    7c20:	7100151f 	cmp	w8, #0x5
    7c24:	54ffd081 	b.ne	7634 <_ZN6mapnik16vector_tile_impl19tile_datasource_pbfC2ERKN9protozero10pbf_readerEmmmb+0x454>  // b.any
    7c28:	14000007 	b	7c44 <_ZN6mapnik16vector_tile_impl19tile_datasource_pbfC2ERKN9protozero10pbf_readerEmmmb+0xa64>
    7c2c:	fc5c03a0 	ldur	d0, [x29, #-64]
    7c30:	fd000420 	str	d0, [x1, #8]
    7c34:	9100a029 	add	x9, x1, #0x28
    7c38:	f900ce69 	str	x9, [x19, #408]
    7c3c:	7100151f 	cmp	w8, #0x5
    7c40:	54ffcfa1 	b.ne	7634 <_ZN6mapnik16vector_tile_impl19tile_datasource_pbfC2ERKN9protozero10pbf_readerEmmmb+0x454>  // b.any
    7c44:	f85c03a0 	ldur	x0, [x29, #-64]
    7c48:	eb18001f 	cmp	x0, x24
    7c4c:	54ffcf40 	b.eq	7634 <_ZN6mapnik16vector_tile_impl19tile_datasource_pbfC2ERKN9protozero10pbf_readerEmmmb+0x454>  // b.none
    7c50:	97fff2f4 	bl	4820 <_ZdlPv@plt>
    7c54:	17fffe78 	b	7634 <_ZN6mapnik16vector_tile_impl19tile_datasource_pbfC2ERKN9protozero10pbf_readerEmmmb+0x454>
    7c58:	9100602a 	add	x10, x1, #0x18
    7c5c:	f900042a 	str	x10, [x1, #8]
    7c60:	f85c03ab 	ldur	x11, [x29, #-64]
    7c64:	eb18017f 	cmp	x11, x24
    7c68:	540000a0 	b.eq	7c7c <_ZN6mapnik16vector_tile_impl19tile_datasource_pbfC2ERKN9protozero10pbf_readerEmmmb+0xa9c>  // b.none
    7c6c:	f900042b 	str	x11, [x1, #8]
    7c70:	f85d03aa 	ldur	x10, [x29, #-48]
    7c74:	f9000c2a 	str	x10, [x1, #24]
    7c78:	14000003 	b	7c84 <_ZN6mapnik16vector_tile_impl19tile_datasource_pbfC2ERKN9protozero10pbf_readerEmmmb+0xaa4>
    7c7c:	3dc00300 	ldr	q0, [x24]
    7c80:	3d800140 	str	q0, [x10]
    7c84:	f9000829 	str	x9, [x1, #16]
    7c88:	f940ce61 	ldr	x1, [x19, #408]
    7c8c:	a93c7fb8 	stp	x24, xzr, [x29, #-64]
    7c90:	381d03bf 	sturb	wzr, [x29, #-48]
    7c94:	9100a029 	add	x9, x1, #0x28
    7c98:	f900ce69 	str	x9, [x19, #408]
    7c9c:	7100151f 	cmp	w8, #0x5
    7ca0:	54ffcca1 	b.ne	7634 <_ZN6mapnik16vector_tile_impl19tile_datasource_pbfC2ERKN9protozero10pbf_readerEmmmb+0x454>  // b.any
    7ca4:	17ffffe8 	b	7c44 <_ZN6mapnik16vector_tile_impl19tile_datasource_pbfC2ERKN9protozero10pbf_readerEmmmb+0xa64>
    7ca8:	d10123a2 	sub	x2, x29, #0x48
    7cac:	f94023e0 	ldr	x0, [sp, #64]
    7cb0:	94000ad1 	bl	a7f4 <_ZNSt6vectorINSt7__cxx1112basic_stringIcSt11char_traitsIcESaIcEEESaIS5_EE17_M_realloc_insertIJS5_EEEvN9__gnu_cxx17__normal_iteratorIPS5_S7_EEDpOT_>
    7cb4:	f85b83a0 	ldur	x0, [x29, #-72]
    7cb8:	f9402fe8 	ldr	x8, [sp, #88]
    7cbc:	eb08001f 	cmp	x0, x8
    7cc0:	54ffbc80 	b.eq	7450 <_ZN6mapnik16vector_tile_impl19tile_datasource_pbfC2ERKN9protozero10pbf_readerEmmmb+0x270>  // b.none
    7cc4:	97fff2d7 	bl	4820 <_ZdlPv@plt>
    7cc8:	17fffde2 	b	7450 <_ZN6mapnik16vector_tile_impl19tile_datasource_pbfC2ERKN9protozero10pbf_readerEmmmb+0x270>
    7ccc:	f9401fe8 	ldr	x8, [sp, #56]
    7cd0:	aa1b03f6 	mov	x22, x27
    7cd4:	b27defe9 	mov	x9, #0x7ffffffffffffff8    	// #9223372036854775800
    7cd8:	f940011b 	ldr	x27, [x8]
    7cdc:	cb1b0348 	sub	x8, x26, x27
    7ce0:	eb09011f 	cmp	x8, x9
    7ce4:	540039c0 	b.eq	841c <_ZN6mapnik16vector_tile_impl19tile_datasource_pbfC2ERKN9protozero10pbf_readerEmmmb+0x123c>  // b.none
    7ce8:	b201f3e9 	mov	x9, #0xaaaaaaaaaaaaaaaa    	// #-6148914691236517206
    7cec:	9343fd08 	asr	x8, x8, #3
    7cf0:	f2955569 	movk	x9, #0xaaab
    7cf4:	b200f3eb 	mov	x11, #0x5555555555555555    	// #6148914691236517205
    7cf8:	f2e0aaab 	movk	x11, #0x555, lsl #48
    7cfc:	aa1903f8 	mov	x24, x25
    7d00:	9b097d1c 	mul	x28, x8, x9
    7d04:	f100079f 	cmp	x28, #0x1
    7d08:	9a9f8788 	csinc	x8, x28, xzr, hi  // hi = pmore
    7d0c:	ab1c0108 	adds	x8, x8, x28
    7d10:	1a9f37e9 	cset	w9, cs  // cs = hs, nlast
    7d14:	eb0b011f 	cmp	x8, x11
    7d18:	1a9f97ea 	cset	w10, hi  // hi = pmore
    7d1c:	2a0a0129 	orr	w9, w9, w10
    7d20:	7100013f 	cmp	w9, #0x0
    7d24:	9a881179 	csel	x25, x11, x8, ne  // ne = any
    7d28:	8b190728 	add	x8, x25, x25, lsl #1
    7d2c:	d37df100 	lsl	x0, x8, #3
    7d30:	97fff2cc 	bl	4860 <_Znwm@plt>
    7d34:	52800308 	mov	w8, #0x18                  	// #24
    7d38:	aa0003f4 	mov	x20, x0
    7d3c:	eb1a037f 	cmp	x27, x26
    7d40:	9b080388 	madd	x8, x28, x8, x0
    7d44:	aa0003fc 	mov	x28, x0
    7d48:	a9005517 	stp	x23, x21, [x8]
    7d4c:	fd000909 	str	d9, [x8, #16]
    7d50:	54000120 	b.eq	7d74 <_ZN6mapnik16vector_tile_impl19tile_datasource_pbfC2ERKN9protozero10pbf_readerEmmmb+0xb94>  // b.none
    7d54:	aa1403fc 	mov	x28, x20
    7d58:	aa1b03e8 	mov	x8, x27
    7d5c:	f9400909 	ldr	x9, [x8, #16]
    7d60:	3cc18500 	ldr	q0, [x8], #24
    7d64:	eb1a011f 	cmp	x8, x26
    7d68:	f9000b89 	str	x9, [x28, #16]
    7d6c:	3c818780 	str	q0, [x28], #24
    7d70:	54ffff61 	b.ne	7d5c <_ZN6mapnik16vector_tile_impl19tile_datasource_pbfC2ERKN9protozero10pbf_readerEmmmb+0xb7c>  // b.any
    7d74:	f94027f5 	ldr	x21, [sp, #72]
    7d78:	f0000077 	adrp	x23, 16000 <_ZNSt6vectorIN6mapbox8geometry7polygonIlS_EESaIS3_EE17_M_realloc_insertIJEEEvN9__gnu_cxx17__normal_iteratorIPS3_S5_EEDpOT_+0x78>
    7d7c:	91196af7 	add	x23, x23, #0x65a
    7d80:	b400007b 	cbz	x27, 7d8c <_ZN6mapnik16vector_tile_impl19tile_datasource_pbfC2ERKN9protozero10pbf_readerEmmmb+0xbac>
    7d84:	aa1b03e0 	mov	x0, x27
    7d88:	97fff2a6 	bl	4820 <_ZdlPv@plt>
    7d8c:	52800308 	mov	w8, #0x18                  	// #24
    7d90:	91006389 	add	x9, x28, #0x18
    7d94:	f9402bfa 	ldr	x26, [sp, #80]
    7d98:	aa1603fb 	mov	x27, x22
    7d9c:	9b087f28 	mul	x8, x25, x8
    7da0:	aa1803f9 	mov	x25, x24
    7da4:	a942f3f8 	ldp	x24, x28, [sp, #40]
    7da8:	8b080288 	add	x8, x20, x8
    7dac:	5295c816 	mov	w22, #0xae40                	// #44608
    7db0:	a9162674 	stp	x20, x9, [x19, #352]
    7db4:	52800034 	mov	w20, #0x1                   	// #1
    7db8:	72bfffb6 	movk	w22, #0xfffd, lsl #16
    7dbc:	f900ba68 	str	x8, [x19, #368]
    7dc0:	17fffda4 	b	7450 <_ZN6mapnik16vector_tile_impl19tile_datasource_pbfC2ERKN9protozero10pbf_readerEmmmb+0x270>
    7dc4:	3dc00140 	ldr	q0, [x10]
    7dc8:	3d800100 	str	q0, [x8]
    7dcc:	f85c03a8 	ldur	x8, [x29, #-64]
    7dd0:	f9000428 	str	x8, [x1, #8]
    7dd4:	f940c268 	ldr	x8, [x19, #384]
    7dd8:	91008108 	add	x8, x8, #0x20
    7ddc:	f900c268 	str	x8, [x19, #384]
    7de0:	17fffd9c 	b	7450 <_ZN6mapnik16vector_tile_impl19tile_datasource_pbfC2ERKN9protozero10pbf_readerEmmmb+0x270>
    7de4:	d10123a8 	sub	x8, x29, #0x48
    7de8:	aa1903e0 	mov	x0, x25
    7dec:	94000508 	bl	920c <_ZN9protozero10pbf_reader10get_stringB5cxx11Ev>
    7df0:	f85b83a9 	ldur	x9, [x29, #-72]
    7df4:	f9402fe8 	ldr	x8, [sp, #88]
    7df8:	eb08013f 	cmp	x9, x8
    7dfc:	54000460 	b.eq	7e88 <_ZN6mapnik16vector_tile_impl19tile_datasource_pbfC2ERKN9protozero10pbf_readerEmmmb+0xca8>  // b.none
    7e00:	f9400beb 	ldr	x11, [sp, #16]
    7e04:	f9400168 	ldr	x8, [x11]
    7e08:	eb1c011f 	cmp	x8, x28
    7e0c:	54000580 	b.eq	7ebc <_ZN6mapnik16vector_tile_impl19tile_datasource_pbfC2ERKN9protozero10pbf_readerEmmmb+0xcdc>  // b.none
    7e10:	3cdc03a0 	ldur	q0, [x29, #-64]
    7e14:	f9000169 	str	x9, [x11]
    7e18:	f940038a 	ldr	x10, [x28]
    7e1c:	f94007e9 	ldr	x9, [sp, #8]
    7e20:	3d800120 	str	q0, [x9]
    7e24:	b4000548 	cbz	x8, 7ecc <_ZN6mapnik16vector_tile_impl19tile_datasource_pbfC2ERKN9protozero10pbf_readerEmmmb+0xcec>
    7e28:	a93bffa8 	stp	x8, xzr, [x29, #-72]
    7e2c:	f81c83aa 	stur	x10, [x29, #-56]
    7e30:	3900011f 	strb	wzr, [x8]
    7e34:	f9402fe8 	ldr	x8, [sp, #88]
    7e38:	f85b83a0 	ldur	x0, [x29, #-72]
    7e3c:	eb08001f 	cmp	x0, x8
    7e40:	54000581 	b.ne	7ef0 <_ZN6mapnik16vector_tile_impl19tile_datasource_pbfC2ERKN9protozero10pbf_readerEmmmb+0xd10>  // b.any
    7e44:	1400002c 	b	7ef4 <_ZN6mapnik16vector_tile_impl19tile_datasource_pbfC2ERKN9protozero10pbf_readerEmmmb+0xd14>
    7e48:	a94c8668 	ldp	x8, x1, [x19, #200]
    7e4c:	eb01011f 	cmp	x8, x1
    7e50:	540000e0 	b.eq	7e6c <_ZN6mapnik16vector_tile_impl19tile_datasource_pbfC2ERKN9protozero10pbf_readerEmmmb+0xc8c>  // b.none
    7e54:	39c00109 	ldrsb	w9, [x8]
    7e58:	37f800a9 	tbnz	w9, #31, 7e6c <_ZN6mapnik16vector_tile_impl19tile_datasource_pbfC2ERKN9protozero10pbf_readerEmmmb+0xc8c>
    7e5c:	91000508 	add	x8, x8, #0x1
    7e60:	92401d20 	and	x0, x9, #0xff
    7e64:	f9000328 	str	x8, [x25]
    7e68:	14000003 	b	7e74 <_ZN6mapnik16vector_tile_impl19tile_datasource_pbfC2ERKN9protozero10pbf_readerEmmmb+0xc94>
    7e6c:	aa1903e0 	mov	x0, x25
    7e70:	97fffb4c 	bl	6ba0 <_ZN9protozero6detail18decode_varint_implEPPKcS2_>
    7e74:	52800028 	mov	w8, #0x1                   	// #1
    7e78:	b900fa60 	str	w0, [x19, #248]
    7e7c:	b9001fe8 	str	w8, [sp, #28]
    7e80:	35ffae80 	cbnz	w0, 7450 <_ZN6mapnik16vector_tile_impl19tile_datasource_pbfC2ERKN9protozero10pbf_readerEmmmb+0x270>
    7e84:	14000177 	b	8460 <_ZN6mapnik16vector_tile_impl19tile_datasource_pbfC2ERKN9protozero10pbf_readerEmmmb+0x1280>
    7e88:	f9400be9 	ldr	x9, [sp, #16]
    7e8c:	d10123aa 	sub	x10, x29, #0x48
    7e90:	eb09015f 	cmp	x10, x9
    7e94:	54000220 	b.eq	7ed8 <_ZN6mapnik16vector_tile_impl19tile_datasource_pbfC2ERKN9protozero10pbf_readerEmmmb+0xcf8>  // b.none
    7e98:	f85c03a2 	ldur	x2, [x29, #-64]
    7e9c:	f9400be9 	ldr	x9, [sp, #16]
    7ea0:	b4000362 	cbz	x2, 7f0c <_ZN6mapnik16vector_tile_impl19tile_datasource_pbfC2ERKN9protozero10pbf_readerEmmmb+0xd2c>
    7ea4:	f9400120 	ldr	x0, [x9]
    7ea8:	f100045f 	cmp	x2, #0x1
    7eac:	540002a1 	b.ne	7f00 <_ZN6mapnik16vector_tile_impl19tile_datasource_pbfC2ERKN9protozero10pbf_readerEmmmb+0xd20>  // b.any
    7eb0:	385c83a8 	ldurb	w8, [x29, #-56]
    7eb4:	39000008 	strb	w8, [x0]
    7eb8:	14000015 	b	7f0c <_ZN6mapnik16vector_tile_impl19tile_datasource_pbfC2ERKN9protozero10pbf_readerEmmmb+0xd2c>
    7ebc:	3cdc03a0 	ldur	q0, [x29, #-64]
    7ec0:	f9000169 	str	x9, [x11]
    7ec4:	f94007e8 	ldr	x8, [sp, #8]
    7ec8:	3d800100 	str	q0, [x8]
    7ecc:	f9402fe9 	ldr	x9, [sp, #88]
    7ed0:	aa0903e8 	mov	x8, x9
    7ed4:	f81b83a9 	stur	x9, [x29, #-72]
    7ed8:	f81c03bf 	stur	xzr, [x29, #-64]
    7edc:	3900011f 	strb	wzr, [x8]
    7ee0:	f9402fe8 	ldr	x8, [sp, #88]
    7ee4:	f85b83a0 	ldur	x0, [x29, #-72]
    7ee8:	eb08001f 	cmp	x0, x8
    7eec:	54000040 	b.eq	7ef4 <_ZN6mapnik16vector_tile_impl19tile_datasource_pbfC2ERKN9protozero10pbf_readerEmmmb+0xd14>  // b.none
    7ef0:	97fff24c 	bl	4820 <_ZdlPv@plt>
    7ef4:	52800028 	mov	w8, #0x1                   	// #1
    7ef8:	b90023e8 	str	w8, [sp, #32]
    7efc:	17fffd55 	b	7450 <_ZN6mapnik16vector_tile_impl19tile_datasource_pbfC2ERKN9protozero10pbf_readerEmmmb+0x270>
    7f00:	f9402fe1 	ldr	x1, [sp, #88]
    7f04:	97fff17f 	bl	4500 <memcpy@plt>
    7f08:	f9400be9 	ldr	x9, [sp, #16]
    7f0c:	f85c03a8 	ldur	x8, [x29, #-64]
    7f10:	f94007ea 	ldr	x10, [sp, #8]
    7f14:	f9400129 	ldr	x9, [x9]
    7f18:	f9000148 	str	x8, [x10]
    7f1c:	3828693f 	strb	wzr, [x9, x8]
    7f20:	f85b83a8 	ldur	x8, [x29, #-72]
    7f24:	f81c03bf 	stur	xzr, [x29, #-64]
    7f28:	3900011f 	strb	wzr, [x8]
    7f2c:	f9402fe8 	ldr	x8, [sp, #88]
    7f30:	f85b83a0 	ldur	x0, [x29, #-72]
    7f34:	eb08001f 	cmp	x0, x8
    7f38:	54fffdc1 	b.ne	7ef0 <_ZN6mapnik16vector_tile_impl19tile_datasource_pbfC2ERKN9protozero10pbf_readerEmmmb+0xd10>  // b.any
    7f3c:	17ffffee 	b	7ef4 <_ZN6mapnik16vector_tile_impl19tile_datasource_pbfC2ERKN9protozero10pbf_readerEmmmb+0xd14>
    7f40:	b9413a68 	ldr	w8, [x19, #312]
    7f44:	7100051f 	cmp	w8, #0x1
    7f48:	54000460 	b.eq	7fd4 <_ZN6mapnik16vector_tile_impl19tile_datasource_pbfC2ERKN9protozero10pbf_readerEmmmb+0xdf4>  // b.none
    7f4c:	b94027ea 	ldr	w10, [sp, #36]
    7f50:	7100091f 	cmp	w8, #0x2
    7f54:	54000561 	b.ne	8000 <_ZN6mapnik16vector_tile_impl19tile_datasource_pbfC2ERKN9protozero10pbf_readerEmmmb+0xe20>  // b.any
    7f58:	b94023e8 	ldr	w8, [sp, #32]
    7f5c:	36002668 	tbz	w8, #0, 8428 <_ZN6mapnik16vector_tile_impl19tile_datasource_pbfC2ERKN9protozero10pbf_readerEmmmb+0x1248>
    7f60:	b9401fe8 	ldr	w8, [sp, #28]
    7f64:	370003c8 	tbnz	w8, #0, 7fdc <_ZN6mapnik16vector_tile_impl19tile_datasource_pbfC2ERKN9protozero10pbf_readerEmmmb+0xdfc>
    7f68:	52800200 	mov	w0, #0x10                  	// #16
    7f6c:	97fff1cd 	bl	46a0 <__cxa_allocate_exception@plt>
    7f70:	aa0003f9 	mov	x25, x0
    7f74:	f0000060 	adrp	x0, 16000 <_ZNSt6vectorIN6mapbox8geometry7polygonIlS_EESaIS3_EE17_M_realloc_insertIJEEEvN9__gnu_cxx17__normal_iteratorIPS3_S5_EEDpOT_+0x78>
    7f78:	911f2800 	add	x0, x0, #0x7ca
    7f7c:	d101a3a8 	sub	x8, x29, #0x68
    7f80:	f9400be1 	ldr	x1, [sp, #16]
    7f84:	9400057f 	bl	9580 <_ZStplIcSt11char_traitsIcESaIcEENSt7__cxx1112basic_stringIT_T0_T1_EEPKS5_RKS8_>
    7f88:	f0000061 	adrp	x1, 16000 <_ZNSt6vectorIN6mapbox8geometry7polygonIlS_EESaIS3_EE17_M_realloc_insertIJEEEvN9__gnu_cxx17__normal_iteratorIPS3_S5_EEDpOT_+0x78>
    7f8c:	911dec21 	add	x1, x1, #0x77b
    7f90:	d10123a8 	sub	x8, x29, #0x48
    7f94:	d101a3a0 	sub	x0, x29, #0x68
    7f98:	d101a3b4 	sub	x20, x29, #0x68
    7f9c:	940004dd 	bl	9310 <_ZStplIcSt11char_traitsIcESaIcEENSt7__cxx1112basic_stringIT_T0_T1_EEOS8_PKS5_>
    7fa0:	52800034 	mov	w20, #0x1                   	// #1
    7fa4:	d10123a1 	sub	x1, x29, #0x48
    7fa8:	aa1903e0 	mov	x0, x25
    7fac:	d10123b5 	sub	x21, x29, #0x48
    7fb0:	97fff2c0 	bl	4ab0 <_ZNSt13runtime_errorC1ERKNSt7__cxx1112basic_stringIcSt11char_traitsIcESaIcEEE@plt>
    7fb4:	90000121 	adrp	x1, 2b000 <GCC_except_table25+0xfe4c>
    7fb8:	90000122 	adrp	x2, 2b000 <GCC_except_table25+0xfe4c>
    7fbc:	aa1903e0 	mov	x0, x25
    7fc0:	2a1f03f4 	mov	w20, wzr
    7fc4:	f947e821 	ldr	x1, [x1, #4048]
    7fc8:	f947b442 	ldr	x2, [x2, #3944]
    7fcc:	97fff2d1 	bl	4b10 <__cxa_throw@plt>
    7fd0:	14000113 	b	841c <_ZN6mapnik16vector_tile_impl19tile_datasource_pbfC2ERKN9protozero10pbf_readerEmmmb+0x123c>
    7fd4:	29442be8 	ldp	w8, w10, [sp, #32]
    7fd8:	36002368 	tbz	w8, #0, 8444 <_ZN6mapnik16vector_tile_impl19tile_datasource_pbfC2ERKN9protozero10pbf_readerEmmmb+0x1264>
    7fdc:	bd40fa60 	ldr	s0, [x19, #248]
    7fe0:	7e61d800 	ucvtf	d0, d0
    7fe4:	1e681800 	fdiv	d0, d0, d8
    7fe8:	fd009a60 	str	d0, [x19, #304]
    7fec:	a9562668 	ldp	x8, x9, [x19, #352]
    7ff0:	eb09011f 	cmp	x8, x9
    7ff4:	540000e0 	b.eq	8010 <_ZN6mapnik16vector_tile_impl19tile_datasource_pbfC2ERKN9protozero10pbf_readerEmmmb+0xe30>  // b.none
    7ff8:	3700010a 	tbnz	w10, #0, 8018 <_ZN6mapnik16vector_tile_impl19tile_datasource_pbfC2ERKN9protozero10pbf_readerEmmmb+0xe38>
    7ffc:	14000063 	b	8188 <_ZN6mapnik16vector_tile_impl19tile_datasource_pbfC2ERKN9protozero10pbf_readerEmmmb+0xfa8>
    8000:	3903067f 	strb	wzr, [x19, #193]
    8004:	a9562668 	ldp	x8, x9, [x19, #352]
    8008:	eb09011f 	cmp	x8, x9
    800c:	54ffff61 	b.ne	7ff8 <_ZN6mapnik16vector_tile_impl19tile_datasource_pbfC2ERKN9protozero10pbf_readerEmmmb+0xe18>  // b.any
    8010:	3903067f 	strb	wzr, [x19, #193]
    8014:	36000baa 	tbz	w10, #0, 8188 <_ZN6mapnik16vector_tile_impl19tile_datasource_pbfC2ERKN9protozero10pbf_readerEmmmb+0xfa8>
    8018:	d101a3aa 	sub	x10, x29, #0x68
    801c:	52800068 	mov	w8, #0x3                   	// #3
    8020:	b940fa69 	ldr	w9, [x19, #248]
    8024:	91004154 	add	x20, x10, #0x10
    8028:	5280026a 	mov	w10, #0x13                  	// #19
    802c:	b81b83a8 	stur	w8, [x29, #-72]
    8030:	f81c03a9 	stur	x9, [x29, #-64]
    8034:	f81983b4 	stur	x20, [x29, #-104]
    8038:	f90033ea 	str	x10, [sp, #96]
    803c:	d101a3a0 	sub	x0, x29, #0x68
    8040:	910183e1 	add	x1, sp, #0x60
    8044:	aa1f03e2 	mov	x2, xzr
    8048:	97fff2c6 	bl	4b60 <_ZNSt7__cxx1112basic_stringIcSt11char_traitsIcESaIcEE9_M_createERmm@plt>
    804c:	d0000069 	adrp	x9, 16000 <_ZNSt6vectorIN6mapbox8geometry7polygonIlS_EESaIS3_EE17_M_realloc_insertIJEEEvN9__gnu_cxx17__normal_iteratorIPS3_S5_EEDpOT_+0x78>
    8050:	9120e129 	add	x9, x9, #0x838
    8054:	f94033e8 	ldr	x8, [sp, #96]
    8058:	f81983a0 	stur	x0, [x29, #-104]
    805c:	3dc00120 	ldr	q0, [x9]
    8060:	528cae89 	mov	w9, #0x6574                	// #25972
    8064:	72ae8dc9 	movk	w9, #0x746e, lsl #16
    8068:	f81a83a8 	stur	x8, [x29, #-88]
    806c:	3d800000 	str	q0, [x0]
    8070:	b800f009 	stur	w9, [x0, #15]
    8074:	91002260 	add	x0, x19, #0x8
    8078:	f85983a9 	ldur	x9, [x29, #-104]
    807c:	f81a03a8 	stur	x8, [x29, #-96]
    8080:	3828693f 	strb	wzr, [x9, x8]
    8084:	d101a3a1 	sub	x1, x29, #0x68
    8088:	9400056b 	bl	9634 <_ZNSt3mapINSt7__cxx1112basic_stringIcSt11char_traitsIcESaIcEEEN6mapnik12value_holderESt4lessIS5_ESaISt4pairIKS5_S7_EEEixEOS5_>
    808c:	aa0003f8 	mov	x24, x0
    8090:	d10123a8 	sub	x8, x29, #0x48
    8094:	eb08001f 	cmp	x0, x8
    8098:	540005e0 	b.eq	8154 <_ZN6mapnik16vector_tile_impl19tile_datasource_pbfC2ERKN9protozero10pbf_readerEmmmb+0xf74>  // b.none
    809c:	b9400308 	ldr	w8, [x24]
    80a0:	7100051f 	cmp	w8, #0x1
    80a4:	540000c1 	b.ne	80bc <_ZN6mapnik16vector_tile_impl19tile_datasource_pbfC2ERKN9protozero10pbf_readerEmmmb+0xedc>  // b.any
    80a8:	f9400700 	ldr	x0, [x24, #8]
    80ac:	91006308 	add	x8, x24, #0x18
    80b0:	eb08001f 	cmp	x0, x8
    80b4:	54000040 	b.eq	80bc <_ZN6mapnik16vector_tile_impl19tile_datasource_pbfC2ERKN9protozero10pbf_readerEmmmb+0xedc>  // b.none
    80b8:	97fff1da 	bl	4820 <_ZdlPv@plt>
    80bc:	12800008 	mov	w8, #0xffffffff            	// #-1
    80c0:	b9000308 	str	w8, [x24]
    80c4:	b85b83a8 	ldur	w8, [x29, #-72]
    80c8:	71000d1f 	cmp	w8, #0x3
    80cc:	54000428 	b.hi	8150 <_ZN6mapnik16vector_tile_impl19tile_datasource_pbfC2ERKN9protozero10pbf_readerEmmmb+0xf70>  // b.pmore
    80d0:	d0000069 	adrp	x9, 16000 <_ZNSt6vectorIN6mapbox8geometry7polygonIlS_EESaIS3_EE17_M_realloc_insertIJEEEvN9__gnu_cxx17__normal_iteratorIPS3_S5_EEDpOT_+0x78>
    80d4:	9118e129 	add	x9, x9, #0x638
    80d8:	1000008a 	adr	x10, 80e8 <_ZN6mapnik16vector_tile_impl19tile_datasource_pbfC2ERKN9protozero10pbf_readerEmmmb+0xf08>
    80dc:	3868692b 	ldrb	w11, [x9, x8]
    80e0:	8b0b094a 	add	x10, x10, x11, lsl #2
    80e4:	d61f0140 	br	x10
    80e8:	385c03a9 	ldurb	w9, [x29, #-64]
    80ec:	39002309 	strb	w9, [x24, #8]
    80f0:	14000018 	b	8150 <_ZN6mapnik16vector_tile_impl19tile_datasource_pbfC2ERKN9protozero10pbf_readerEmmmb+0xf70>
    80f4:	fc5c03a0 	ldur	d0, [x29, #-64]
    80f8:	fd000700 	str	d0, [x24, #8]
    80fc:	14000015 	b	8150 <_ZN6mapnik16vector_tile_impl19tile_datasource_pbfC2ERKN9protozero10pbf_readerEmmmb+0xf70>
    8100:	f85c03a9 	ldur	x9, [x29, #-64]
    8104:	f9000709 	str	x9, [x24, #8]
    8108:	14000012 	b	8150 <_ZN6mapnik16vector_tile_impl19tile_datasource_pbfC2ERKN9protozero10pbf_readerEmmmb+0xf70>
    810c:	9100630a 	add	x10, x24, #0x18
    8110:	d10123a9 	sub	x9, x29, #0x48
    8114:	91006129 	add	x9, x9, #0x18
    8118:	f900070a 	str	x10, [x24, #8]
    811c:	f85c03ab 	ldur	x11, [x29, #-64]
    8120:	eb09017f 	cmp	x11, x9
    8124:	540000a0 	b.eq	8138 <_ZN6mapnik16vector_tile_impl19tile_datasource_pbfC2ERKN9protozero10pbf_readerEmmmb+0xf58>  // b.none
    8128:	f900070b 	str	x11, [x24, #8]
    812c:	f85d03aa 	ldur	x10, [x29, #-48]
    8130:	f9000f0a 	str	x10, [x24, #24]
    8134:	14000003 	b	8140 <_ZN6mapnik16vector_tile_impl19tile_datasource_pbfC2ERKN9protozero10pbf_readerEmmmb+0xf60>
    8138:	3dc00120 	ldr	q0, [x9]
    813c:	3d800140 	str	q0, [x10]
    8140:	f85c83aa 	ldur	x10, [x29, #-56]
    8144:	f9000b0a 	str	x10, [x24, #16]
    8148:	a93c7fa9 	stp	x9, xzr, [x29, #-64]
    814c:	381d03bf 	sturb	wzr, [x29, #-48]
    8150:	b9000308 	str	w8, [x24]
    8154:	f85983a0 	ldur	x0, [x29, #-104]
    8158:	eb14001f 	cmp	x0, x20
    815c:	54000040 	b.eq	8164 <_ZN6mapnik16vector_tile_impl19tile_datasource_pbfC2ERKN9protozero10pbf_readerEmmmb+0xf84>  // b.none
    8160:	97fff1b0 	bl	4820 <_ZdlPv@plt>
    8164:	b85b83a8 	ldur	w8, [x29, #-72]
    8168:	7100051f 	cmp	w8, #0x1
    816c:	540000e1 	b.ne	8188 <_ZN6mapnik16vector_tile_impl19tile_datasource_pbfC2ERKN9protozero10pbf_readerEmmmb+0xfa8>  // b.any
    8170:	f85c03a0 	ldur	x0, [x29, #-64]
    8174:	d10123a8 	sub	x8, x29, #0x48
    8178:	91006108 	add	x8, x8, #0x18
    817c:	eb08001f 	cmp	x0, x8
    8180:	54000040 	b.eq	8188 <_ZN6mapnik16vector_tile_impl19tile_datasource_pbfC2ERKN9protozero10pbf_readerEmmmb+0xfa8>  // b.none
    8184:	97fff1a7 	bl	4820 <_ZdlPv@plt>
    8188:	a9554ff4 	ldp	x20, x19, [sp, #336]
    818c:	a95457f6 	ldp	x22, x21, [sp, #320]
    8190:	a9535ff8 	ldp	x24, x23, [sp, #304]
    8194:	a95267fa 	ldp	x26, x25, [sp, #288]
    8198:	a9516ffc 	ldp	x28, x27, [sp, #272]
    819c:	a9507bfd 	ldp	x29, x30, [sp, #256]
    81a0:	6d4f23e9 	ldp	d9, d8, [sp, #240]
    81a4:	910583ff 	add	sp, sp, #0x160
    81a8:	d65f03c0 	ret
    81ac:	f100295f 	cmp	x10, #0xa
    81b0:	54000102 	b.cs	81d0 <_ZN6mapnik16vector_tile_impl19tile_datasource_pbfC2ERKN9protozero10pbf_readerEmmmb+0xff0>  // b.hs, b.nlast
    81b4:	52800100 	mov	w0, #0x8                   	// #8
    81b8:	97fff13a 	bl	46a0 <__cxa_allocate_exception@plt>
    81bc:	f0000108 	adrp	x8, 2b000 <GCC_except_table25+0xfe4c>
    81c0:	91232108 	add	x8, x8, #0x8c8
    81c4:	f0000101 	adrp	x1, 2b000 <GCC_except_table25+0xfe4c>
    81c8:	9121e021 	add	x1, x1, #0x878
    81cc:	14000007 	b	81e8 <_ZN6mapnik16vector_tile_impl19tile_datasource_pbfC2ERKN9protozero10pbf_readerEmmmb+0x1008>
    81d0:	52800100 	mov	w0, #0x8                   	// #8
    81d4:	97fff133 	bl	46a0 <__cxa_allocate_exception@plt>
    81d8:	f0000108 	adrp	x8, 2b000 <GCC_except_table25+0xfe4c>
    81dc:	91228108 	add	x8, x8, #0x8a0
    81e0:	f0000101 	adrp	x1, 2b000 <GCC_except_table25+0xfe4c>
    81e4:	91218021 	add	x1, x1, #0x860
    81e8:	f9000008 	str	x8, [x0]
    81ec:	f0000102 	adrp	x2, 2b000 <GCC_except_table25+0xfe4c>
    81f0:	f947dc42 	ldr	x2, [x2, #4024]
    81f4:	97fff247 	bl	4b10 <__cxa_throw@plt>
    81f8:	52800100 	mov	w0, #0x8                   	// #8
    81fc:	97fff129 	bl	46a0 <__cxa_allocate_exception@plt>
    8200:	f0000108 	adrp	x8, 2b000 <GCC_except_table25+0xfe4c>
    8204:	9123c108 	add	x8, x8, #0x8f0
    8208:	f0000101 	adrp	x1, 2b000 <GCC_except_table25+0xfe4c>
    820c:	9120c021 	add	x1, x1, #0x830
    8210:	14000013 	b	825c <_ZN6mapnik16vector_tile_impl19tile_datasource_pbfC2ERKN9protozero10pbf_readerEmmmb+0x107c>
    8214:	52800100 	mov	w0, #0x8                   	// #8
    8218:	97fff122 	bl	46a0 <__cxa_allocate_exception@plt>
    821c:	f0000102 	adrp	x2, 2b000 <GCC_except_table25+0xfe4c>
    8220:	f0000108 	adrp	x8, 2b000 <GCC_except_table25+0xfe4c>
    8224:	9123c108 	add	x8, x8, #0x8f0
    8228:	aa0003f9 	mov	x25, x0
    822c:	f0000101 	adrp	x1, 2b000 <GCC_except_table25+0xfe4c>
    8230:	9120c021 	add	x1, x1, #0x830
    8234:	f947dc42 	ldr	x2, [x2, #4024]
    8238:	f9000008 	str	x8, [x0]
    823c:	aa1903e0 	mov	x0, x25
    8240:	97fff234 	bl	4b10 <__cxa_throw@plt>
    8244:	52800100 	mov	w0, #0x8                   	// #8
    8248:	97fff116 	bl	46a0 <__cxa_allocate_exception@plt>
    824c:	f0000108 	adrp	x8, 2b000 <GCC_except_table25+0xfe4c>
    8250:	91246108 	add	x8, x8, #0x918
    8254:	f0000101 	adrp	x1, 2b000 <GCC_except_table25+0xfe4c>
    8258:	91212021 	add	x1, x1, #0x848
    825c:	f9000008 	str	x8, [x0]
    8260:	f0000102 	adrp	x2, 2b000 <GCC_except_table25+0xfe4c>
    8264:	f947dc42 	ldr	x2, [x2, #4024]
    8268:	97fff22a 	bl	4b10 <__cxa_throw@plt>
    826c:	52800100 	mov	w0, #0x8                   	// #8
    8270:	97fff10c 	bl	46a0 <__cxa_allocate_exception@plt>
    8274:	f0000102 	adrp	x2, 2b000 <GCC_except_table25+0xfe4c>
    8278:	aa0003f9 	mov	x25, x0
    827c:	f0000108 	adrp	x8, 2b000 <GCC_except_table25+0xfe4c>
    8280:	91246108 	add	x8, x8, #0x918
    8284:	f0000101 	adrp	x1, 2b000 <GCC_except_table25+0xfe4c>
    8288:	91212021 	add	x1, x1, #0x848
    828c:	17ffffea 	b	8234 <_ZN6mapnik16vector_tile_impl19tile_datasource_pbfC2ERKN9protozero10pbf_readerEmmmb+0x1054>
    8290:	52800200 	mov	w0, #0x10                  	// #16
    8294:	97fff103 	bl	46a0 <__cxa_allocate_exception@plt>
    8298:	aa0003f9 	mov	x25, x0
    829c:	b940de60 	ldr	w0, [x19, #220]
    82a0:	910183e8 	add	x8, sp, #0x60
    82a4:	94000466 	bl	943c <_ZNSt7__cxx119to_stringEj>
    82a8:	d0000060 	adrp	x0, 16000 <_ZNSt6vectorIN6mapbox8geometry7polygonIlS_EESaIS3_EE17_M_realloc_insertIJEEEvN9__gnu_cxx17__normal_iteratorIPS3_S5_EEDpOT_+0x78>
    82ac:	911c0400 	add	x0, x0, #0x701
    82b0:	d101a3a8 	sub	x8, x29, #0x68
    82b4:	910183e1 	add	x1, sp, #0x60
    82b8:	910183f4 	add	x20, sp, #0x60
    82bc:	9400043e 	bl	93b4 <_ZStplIcSt11char_traitsIcESaIcEENSt7__cxx1112basic_stringIT_T0_T1_EEPKS5_OS8_>
    82c0:	d0000061 	adrp	x1, 16000 <_ZNSt6vectorIN6mapbox8geometry7polygonIlS_EESaIS3_EE17_M_realloc_insertIJEEEvN9__gnu_cxx17__normal_iteratorIPS3_S5_EEDpOT_+0x78>
    82c4:	911c5421 	add	x1, x1, #0x715
    82c8:	d10123a8 	sub	x8, x29, #0x48
    82cc:	d101a3a0 	sub	x0, x29, #0x68
    82d0:	94000410 	bl	9310 <_ZStplIcSt11char_traitsIcESaIcEENSt7__cxx1112basic_stringIT_T0_T1_EEOS8_PKS5_>
    82d4:	52800034 	mov	w20, #0x1                   	// #1
    82d8:	d10123a1 	sub	x1, x29, #0x48
    82dc:	aa1903e0 	mov	x0, x25
    82e0:	d10123b5 	sub	x21, x29, #0x48
    82e4:	97fff1f3 	bl	4ab0 <_ZNSt13runtime_errorC1ERKNSt7__cxx1112basic_stringIcSt11char_traitsIcESaIcEEE@plt>
    82e8:	f0000101 	adrp	x1, 2b000 <GCC_except_table25+0xfe4c>
    82ec:	f0000102 	adrp	x2, 2b000 <GCC_except_table25+0xfe4c>
    82f0:	aa1903e0 	mov	x0, x25
    82f4:	2a1f03f4 	mov	w20, wzr
    82f8:	f947e821 	ldr	x1, [x1, #4048]
    82fc:	f947b442 	ldr	x2, [x2, #3944]
    8300:	97fff204 	bl	4b10 <__cxa_throw@plt>
    8304:	14000046 	b	841c <_ZN6mapnik16vector_tile_impl19tile_datasource_pbfC2ERKN9protozero10pbf_readerEmmmb+0x123c>
    8308:	52800100 	mov	w0, #0x8                   	// #8
    830c:	97fff0e5 	bl	46a0 <__cxa_allocate_exception@plt>
    8310:	f0000108 	adrp	x8, 2b000 <GCC_except_table25+0xfe4c>
    8314:	91232108 	add	x8, x8, #0x8c8
    8318:	f9000008 	str	x8, [x0]
    831c:	f0000102 	adrp	x2, 2b000 <GCC_except_table25+0xfe4c>
    8320:	f0000101 	adrp	x1, 2b000 <GCC_except_table25+0xfe4c>
    8324:	9121e021 	add	x1, x1, #0x878
    8328:	f947dc42 	ldr	x2, [x2, #4024]
    832c:	97fff1f9 	bl	4b10 <__cxa_throw@plt>
    8330:	52800100 	mov	w0, #0x8                   	// #8
    8334:	97fff0db 	bl	46a0 <__cxa_allocate_exception@plt>
    8338:	f0000108 	adrp	x8, 2b000 <GCC_except_table25+0xfe4c>
    833c:	91232108 	add	x8, x8, #0x8c8
    8340:	f9000008 	str	x8, [x0]
    8344:	f0000102 	adrp	x2, 2b000 <GCC_except_table25+0xfe4c>
    8348:	f0000101 	adrp	x1, 2b000 <GCC_except_table25+0xfe4c>
    834c:	9121e021 	add	x1, x1, #0x878
    8350:	f947dc42 	ldr	x2, [x2, #4024]
    8354:	97fff1ef 	bl	4b10 <__cxa_throw@plt>
    8358:	52800100 	mov	w0, #0x8                   	// #8
    835c:	97fff0d1 	bl	46a0 <__cxa_allocate_exception@plt>
    8360:	f0000108 	adrp	x8, 2b000 <GCC_except_table25+0xfe4c>
    8364:	91232108 	add	x8, x8, #0x8c8
    8368:	f9000008 	str	x8, [x0]
    836c:	f0000102 	adrp	x2, 2b000 <GCC_except_table25+0xfe4c>
    8370:	f0000101 	adrp	x1, 2b000 <GCC_except_table25+0xfe4c>
    8374:	9121e021 	add	x1, x1, #0x878
    8378:	f947dc42 	ldr	x2, [x2, #4024]
    837c:	97fff1e5 	bl	4b10 <__cxa_throw@plt>
    8380:	52800100 	mov	w0, #0x8                   	// #8
    8384:	97fff0c7 	bl	46a0 <__cxa_allocate_exception@plt>
    8388:	f0000108 	adrp	x8, 2b000 <GCC_except_table25+0xfe4c>
    838c:	91232108 	add	x8, x8, #0x8c8
    8390:	f9000008 	str	x8, [x0]
    8394:	f0000102 	adrp	x2, 2b000 <GCC_except_table25+0xfe4c>
    8398:	f0000101 	adrp	x1, 2b000 <GCC_except_table25+0xfe4c>
    839c:	9121e021 	add	x1, x1, #0x878
    83a0:	f947dc42 	ldr	x2, [x2, #4024]
    83a4:	97fff1db 	bl	4b10 <__cxa_throw@plt>
    83a8:	52800200 	mov	w0, #0x10                  	// #16
    83ac:	97fff0bd 	bl	46a0 <__cxa_allocate_exception@plt>
    83b0:	aa0003f9 	mov	x25, x0
    83b4:	b940de60 	ldr	w0, [x19, #220]
    83b8:	910183e8 	add	x8, sp, #0x60
    83bc:	94000420 	bl	943c <_ZNSt7__cxx119to_stringEj>
    83c0:	d0000060 	adrp	x0, 16000 <_ZNSt6vectorIN6mapbox8geometry7polygonIlS_EESaIS3_EE17_M_realloc_insertIJEEEvN9__gnu_cxx17__normal_iteratorIPS3_S5_EEDpOT_+0x78>
    83c4:	9134e400 	add	x0, x0, #0xd39
    83c8:	d101a3a8 	sub	x8, x29, #0x68
    83cc:	910183e1 	add	x1, sp, #0x60
    83d0:	910183f4 	add	x20, sp, #0x60
    83d4:	940003f8 	bl	93b4 <_ZStplIcSt11char_traitsIcESaIcEENSt7__cxx1112basic_stringIT_T0_T1_EEPKS5_OS8_>
    83d8:	d0000061 	adrp	x1, 16000 <_ZNSt6vectorIN6mapbox8geometry7polygonIlS_EESaIS3_EE17_M_realloc_insertIJEEEvN9__gnu_cxx17__normal_iteratorIPS3_S5_EEDpOT_+0x78>
    83dc:	911ce021 	add	x1, x1, #0x738
    83e0:	d10123a8 	sub	x8, x29, #0x48
    83e4:	d101a3a0 	sub	x0, x29, #0x68
    83e8:	940003ca 	bl	9310 <_ZStplIcSt11char_traitsIcESaIcEENSt7__cxx1112basic_stringIT_T0_T1_EEOS8_PKS5_>
    83ec:	52800034 	mov	w20, #0x1                   	// #1
    83f0:	d10123a1 	sub	x1, x29, #0x48
    83f4:	aa1903e0 	mov	x0, x25
    83f8:	d10123b5 	sub	x21, x29, #0x48
    83fc:	97fff1ad 	bl	4ab0 <_ZNSt13runtime_errorC1ERKNSt7__cxx1112basic_stringIcSt11char_traitsIcESaIcEEE@plt>
    8400:	f0000101 	adrp	x1, 2b000 <GCC_except_table25+0xfe4c>
    8404:	f0000102 	adrp	x2, 2b000 <GCC_except_table25+0xfe4c>
    8408:	aa1903e0 	mov	x0, x25
    840c:	2a1f03f4 	mov	w20, wzr
    8410:	f947e821 	ldr	x1, [x1, #4048]
    8414:	f947b442 	ldr	x2, [x2, #3944]
    8418:	97fff1be 	bl	4b10 <__cxa_throw@plt>
    841c:	d0000060 	adrp	x0, 16000 <_ZNSt6vectorIN6mapbox8geometry7polygonIlS_EESaIS3_EE17_M_realloc_insertIJEEEvN9__gnu_cxx17__normal_iteratorIPS3_S5_EEDpOT_+0x78>
    8420:	91213000 	add	x0, x0, #0x84c
    8424:	97fff0af 	bl	46e0 <_ZSt20__throw_length_errorPKc@plt>
    8428:	52800200 	mov	w0, #0x10                  	// #16
    842c:	97fff09d 	bl	46a0 <__cxa_allocate_exception@plt>
    8430:	aa0003f9 	mov	x25, x0
    8434:	d0000061 	adrp	x1, 16000 <_ZNSt6vectorIN6mapbox8geometry7polygonIlS_EESaIS3_EE17_M_realloc_insertIJEEEvN9__gnu_cxx17__normal_iteratorIPS3_S5_EEDpOT_+0x78>
    8438:	911d0821 	add	x1, x1, #0x742
    843c:	97fff081 	bl	4640 <_ZNSt13runtime_errorC1EPKc@plt>
    8440:	1400000e 	b	8478 <_ZN6mapnik16vector_tile_impl19tile_datasource_pbfC2ERKN9protozero10pbf_readerEmmmb+0x1298>
    8444:	52800200 	mov	w0, #0x10                  	// #16
    8448:	97fff096 	bl	46a0 <__cxa_allocate_exception@plt>
    844c:	aa0003f9 	mov	x25, x0
    8450:	d0000061 	adrp	x1, 16000 <_ZNSt6vectorIN6mapbox8geometry7polygonIlS_EESaIS3_EE17_M_realloc_insertIJEEEvN9__gnu_cxx17__normal_iteratorIPS3_S5_EEDpOT_+0x78>
    8454:	911ff421 	add	x1, x1, #0x7fd
    8458:	97fff07a 	bl	4640 <_ZNSt13runtime_errorC1EPKc@plt>
    845c:	14000007 	b	8478 <_ZN6mapnik16vector_tile_impl19tile_datasource_pbfC2ERKN9protozero10pbf_readerEmmmb+0x1298>
    8460:	52800200 	mov	w0, #0x10                  	// #16
    8464:	97fff08f 	bl	46a0 <__cxa_allocate_exception@plt>
    8468:	aa0003f9 	mov	x25, x0
    846c:	d0000061 	adrp	x1, 16000 <_ZNSt6vectorIN6mapbox8geometry7polygonIlS_EESaIS3_EE17_M_realloc_insertIJEEEvN9__gnu_cxx17__normal_iteratorIPS3_S5_EEDpOT_+0x78>
    8470:	911c9821 	add	x1, x1, #0x726
    8474:	97fff073 	bl	4640 <_ZNSt13runtime_errorC1EPKc@plt>
    8478:	f0000102 	adrp	x2, 2b000 <GCC_except_table25+0xfe4c>
    847c:	f0000101 	adrp	x1, 2b000 <GCC_except_table25+0xfe4c>
    8480:	f947b442 	ldr	x2, [x2, #3944]
    8484:	f947e821 	ldr	x1, [x1, #4048]
    8488:	f9401bfc 	ldr	x28, [sp, #48]
    848c:	f9402bfa 	ldr	x26, [sp, #80]
    8490:	17ffff6b 	b	823c <_ZN6mapnik16vector_tile_impl19tile_datasource_pbfC2ERKN9protozero10pbf_readerEmmmb+0x105c>
    8494:	aa0003fb 	mov	x27, x0
    8498:	f85b83a0 	ldur	x0, [x29, #-72]
    849c:	910042a8 	add	x8, x21, #0x10
    84a0:	eb08001f 	cmp	x0, x8
    84a4:	54000040 	b.eq	84ac <_ZN6mapnik16vector_tile_impl19tile_datasource_pbfC2ERKN9protozero10pbf_readerEmmmb+0x12cc>  // b.none
    84a8:	97fff0de 	bl	4820 <_ZdlPv@plt>
    84ac:	f85983a0 	ldur	x0, [x29, #-104]
    84b0:	d101a3a8 	sub	x8, x29, #0x68
    84b4:	14000056 	b	860c <_ZN6mapnik16vector_tile_impl19tile_datasource_pbfC2ERKN9protozero10pbf_readerEmmmb+0x142c>
    84b8:	aa0003fb 	mov	x27, x0
    84bc:	f85983a0 	ldur	x0, [x29, #-104]
    84c0:	91004288 	add	x8, x20, #0x10
    84c4:	eb08001f 	cmp	x0, x8
    84c8:	54000dc1 	b.ne	8680 <_ZN6mapnik16vector_tile_impl19tile_datasource_pbfC2ERKN9protozero10pbf_readerEmmmb+0x14a0>  // b.any
    84cc:	1400008e 	b	8704 <_ZN6mapnik16vector_tile_impl19tile_datasource_pbfC2ERKN9protozero10pbf_readerEmmmb+0x1524>
    84d0:	14000004 	b	84e0 <_ZN6mapnik16vector_tile_impl19tile_datasource_pbfC2ERKN9protozero10pbf_readerEmmmb+0x1300>
    84d4:	140000a0 	b	8754 <_ZN6mapnik16vector_tile_impl19tile_datasource_pbfC2ERKN9protozero10pbf_readerEmmmb+0x1574>
    84d8:	1400008a 	b	8700 <_ZN6mapnik16vector_tile_impl19tile_datasource_pbfC2ERKN9protozero10pbf_readerEmmmb+0x1520>
    84dc:	14000001 	b	84e0 <_ZN6mapnik16vector_tile_impl19tile_datasource_pbfC2ERKN9protozero10pbf_readerEmmmb+0x1300>
    84e0:	aa0003fb 	mov	x27, x0
    84e4:	aa1903e0 	mov	x0, x25
    84e8:	97fff0aa 	bl	4790 <__cxa_free_exception@plt>
    84ec:	14000091 	b	8730 <_ZN6mapnik16vector_tile_impl19tile_datasource_pbfC2ERKN9protozero10pbf_readerEmmmb+0x1550>
    84f0:	14000099 	b	8754 <_ZN6mapnik16vector_tile_impl19tile_datasource_pbfC2ERKN9protozero10pbf_readerEmmmb+0x1574>
    84f4:	f85983a8 	ldur	x8, [x29, #-104]
    84f8:	aa0003fb 	mov	x27, x0
    84fc:	eb14011f 	cmp	x8, x20
    8500:	540000a0 	b.eq	8514 <_ZN6mapnik16vector_tile_impl19tile_datasource_pbfC2ERKN9protozero10pbf_readerEmmmb+0x1334>  // b.none
    8504:	aa0803e0 	mov	x0, x8
    8508:	97fff0c6 	bl	4820 <_ZdlPv@plt>
    850c:	14000002 	b	8514 <_ZN6mapnik16vector_tile_impl19tile_datasource_pbfC2ERKN9protozero10pbf_readerEmmmb+0x1334>
    8510:	aa0003fb 	mov	x27, x0
    8514:	b85b83a8 	ldur	w8, [x29, #-72]
    8518:	7100051f 	cmp	w8, #0x1
    851c:	540010a1 	b.ne	8730 <_ZN6mapnik16vector_tile_impl19tile_datasource_pbfC2ERKN9protozero10pbf_readerEmmmb+0x1550>  // b.any
    8520:	f85c03a0 	ldur	x0, [x29, #-64]
    8524:	d10123a8 	sub	x8, x29, #0x48
    8528:	91006108 	add	x8, x8, #0x18
    852c:	14000071 	b	86f0 <_ZN6mapnik16vector_tile_impl19tile_datasource_pbfC2ERKN9protozero10pbf_readerEmmmb+0x1510>
    8530:	14000026 	b	85c8 <_ZN6mapnik16vector_tile_impl19tile_datasource_pbfC2ERKN9protozero10pbf_readerEmmmb+0x13e8>
    8534:	1400002c 	b	85e4 <_ZN6mapnik16vector_tile_impl19tile_datasource_pbfC2ERKN9protozero10pbf_readerEmmmb+0x1404>
    8538:	f94003f4 	ldr	x20, [sp]
    853c:	aa0003fb 	mov	x27, x0
    8540:	14000094 	b	8790 <_ZN6mapnik16vector_tile_impl19tile_datasource_pbfC2ERKN9protozero10pbf_readerEmmmb+0x15b0>
    8544:	f85983a8 	ldur	x8, [x29, #-104]
    8548:	aa0003fb 	mov	x27, x0
    854c:	eb18011f 	cmp	x8, x24
    8550:	54000101 	b.ne	8570 <_ZN6mapnik16vector_tile_impl19tile_datasource_pbfC2ERKN9protozero10pbf_readerEmmmb+0x1390>  // b.any
    8554:	f85b83a0 	ldur	x0, [x29, #-72]
    8558:	eb14001f 	cmp	x0, x20
    855c:	54000141 	b.ne	8584 <_ZN6mapnik16vector_tile_impl19tile_datasource_pbfC2ERKN9protozero10pbf_readerEmmmb+0x13a4>  // b.any
    8560:	aa1303e0 	mov	x0, x19
    8564:	94000593 	bl	9bb0 <_ZN6mapnik10datasourceD2Ev>
    8568:	aa1b03e0 	mov	x0, x27
    856c:	97fff179 	bl	4b50 <_Unwind_Resume@plt>
    8570:	aa0803e0 	mov	x0, x8
    8574:	97fff0ab 	bl	4820 <_ZdlPv@plt>
    8578:	f85b83a0 	ldur	x0, [x29, #-72]
    857c:	eb14001f 	cmp	x0, x20
    8580:	54ffff00 	b.eq	8560 <_ZN6mapnik16vector_tile_impl19tile_datasource_pbfC2ERKN9protozero10pbf_readerEmmmb+0x1380>  // b.none
    8584:	97fff0a7 	bl	4820 <_ZdlPv@plt>
    8588:	aa1303e0 	mov	x0, x19
    858c:	94000589 	bl	9bb0 <_ZN6mapnik10datasourceD2Ev>
    8590:	aa1b03e0 	mov	x0, x27
    8594:	97fff16f 	bl	4b50 <_Unwind_Resume@plt>
    8598:	aa0003fb 	mov	x27, x0
    859c:	aa1303e0 	mov	x0, x19
    85a0:	94000584 	bl	9bb0 <_ZN6mapnik10datasourceD2Ev>
    85a4:	aa1b03e0 	mov	x0, x27
    85a8:	97fff16a 	bl	4b50 <_Unwind_Resume@plt>
    85ac:	97fff846 	bl	66c4 <__clang_call_terminate>
    85b0:	aa0003fb 	mov	x27, x0
    85b4:	f94033e0 	ldr	x0, [sp, #96]
    85b8:	91004288 	add	x8, x20, #0x10
    85bc:	eb08001f 	cmp	x0, x8
    85c0:	54000601 	b.ne	8680 <_ZN6mapnik16vector_tile_impl19tile_datasource_pbfC2ERKN9protozero10pbf_readerEmmmb+0x14a0>  // b.any
    85c4:	14000050 	b	8704 <_ZN6mapnik16vector_tile_impl19tile_datasource_pbfC2ERKN9protozero10pbf_readerEmmmb+0x1524>
    85c8:	aa0003fb 	mov	x27, x0
    85cc:	f85b83a0 	ldur	x0, [x29, #-72]
    85d0:	910042a8 	add	x8, x21, #0x10
    85d4:	eb08001f 	cmp	x0, x8
    85d8:	540000a0 	b.eq	85ec <_ZN6mapnik16vector_tile_impl19tile_datasource_pbfC2ERKN9protozero10pbf_readerEmmmb+0x140c>  // b.none
    85dc:	97fff091 	bl	4820 <_ZdlPv@plt>
    85e0:	14000003 	b	85ec <_ZN6mapnik16vector_tile_impl19tile_datasource_pbfC2ERKN9protozero10pbf_readerEmmmb+0x140c>
    85e4:	aa0003fb 	mov	x27, x0
    85e8:	52800034 	mov	w20, #0x1                   	// #1
    85ec:	f85983a0 	ldur	x0, [x29, #-104]
    85f0:	d101a3a8 	sub	x8, x29, #0x68
    85f4:	91004108 	add	x8, x8, #0x10
    85f8:	eb08001f 	cmp	x0, x8
    85fc:	54000040 	b.eq	8604 <_ZN6mapnik16vector_tile_impl19tile_datasource_pbfC2ERKN9protozero10pbf_readerEmmmb+0x1424>  // b.none
    8600:	97fff088 	bl	4820 <_ZdlPv@plt>
    8604:	f94033e0 	ldr	x0, [sp, #96]
    8608:	910183e8 	add	x8, sp, #0x60
    860c:	91004108 	add	x8, x8, #0x10
    8610:	eb08001f 	cmp	x0, x8
    8614:	540000a1 	b.ne	8628 <_ZN6mapnik16vector_tile_impl19tile_datasource_pbfC2ERKN9protozero10pbf_readerEmmmb+0x1448>  // b.any
    8618:	f9401bfc 	ldr	x28, [sp, #48]
    861c:	f9402bfa 	ldr	x26, [sp, #80]
    8620:	35000774 	cbnz	w20, 870c <_ZN6mapnik16vector_tile_impl19tile_datasource_pbfC2ERKN9protozero10pbf_readerEmmmb+0x152c>
    8624:	1400004d 	b	8758 <_ZN6mapnik16vector_tile_impl19tile_datasource_pbfC2ERKN9protozero10pbf_readerEmmmb+0x1578>
    8628:	97fff07e 	bl	4820 <_ZdlPv@plt>
    862c:	f9401bfc 	ldr	x28, [sp, #48]
    8630:	f9402bfa 	ldr	x26, [sp, #80]
    8634:	370006d4 	tbnz	w20, #0, 870c <_ZN6mapnik16vector_tile_impl19tile_datasource_pbfC2ERKN9protozero10pbf_readerEmmmb+0x152c>
    8638:	14000048 	b	8758 <_ZN6mapnik16vector_tile_impl19tile_datasource_pbfC2ERKN9protozero10pbf_readerEmmmb+0x1578>
    863c:	1400003c 	b	872c <_ZN6mapnik16vector_tile_impl19tile_datasource_pbfC2ERKN9protozero10pbf_readerEmmmb+0x154c>
    8640:	1400003b 	b	872c <_ZN6mapnik16vector_tile_impl19tile_datasource_pbfC2ERKN9protozero10pbf_readerEmmmb+0x154c>
    8644:	f85b83a8 	ldur	x8, [x29, #-72]
    8648:	aa0003fb 	mov	x27, x0
    864c:	f9402fe9 	ldr	x9, [sp, #88]
    8650:	eb09011f 	cmp	x8, x9
    8654:	540006e0 	b.eq	8730 <_ZN6mapnik16vector_tile_impl19tile_datasource_pbfC2ERKN9protozero10pbf_readerEmmmb+0x1550>  // b.none
    8658:	aa0803e0 	mov	x0, x8
    865c:	14000027 	b	86f8 <_ZN6mapnik16vector_tile_impl19tile_datasource_pbfC2ERKN9protozero10pbf_readerEmmmb+0x1518>
    8660:	14000028 	b	8700 <_ZN6mapnik16vector_tile_impl19tile_datasource_pbfC2ERKN9protozero10pbf_readerEmmmb+0x1520>
    8664:	1400003c 	b	8754 <_ZN6mapnik16vector_tile_impl19tile_datasource_pbfC2ERKN9protozero10pbf_readerEmmmb+0x1574>
    8668:	1400003b 	b	8754 <_ZN6mapnik16vector_tile_impl19tile_datasource_pbfC2ERKN9protozero10pbf_readerEmmmb+0x1574>
    866c:	aa0003fb 	mov	x27, x0
    8670:	f94033e0 	ldr	x0, [sp, #96]
    8674:	91004288 	add	x8, x20, #0x10
    8678:	eb08001f 	cmp	x0, x8
    867c:	54000440 	b.eq	8704 <_ZN6mapnik16vector_tile_impl19tile_datasource_pbfC2ERKN9protozero10pbf_readerEmmmb+0x1524>  // b.none
    8680:	97fff068 	bl	4820 <_ZdlPv@plt>
    8684:	14000020 	b	8704 <_ZN6mapnik16vector_tile_impl19tile_datasource_pbfC2ERKN9protozero10pbf_readerEmmmb+0x1524>
    8688:	14000029 	b	872c <_ZN6mapnik16vector_tile_impl19tile_datasource_pbfC2ERKN9protozero10pbf_readerEmmmb+0x154c>
    868c:	14000028 	b	872c <_ZN6mapnik16vector_tile_impl19tile_datasource_pbfC2ERKN9protozero10pbf_readerEmmmb+0x154c>
    8690:	14000027 	b	872c <_ZN6mapnik16vector_tile_impl19tile_datasource_pbfC2ERKN9protozero10pbf_readerEmmmb+0x154c>
    8694:	14000011 	b	86d8 <_ZN6mapnik16vector_tile_impl19tile_datasource_pbfC2ERKN9protozero10pbf_readerEmmmb+0x14f8>
    8698:	14000010 	b	86d8 <_ZN6mapnik16vector_tile_impl19tile_datasource_pbfC2ERKN9protozero10pbf_readerEmmmb+0x14f8>
    869c:	1400000f 	b	86d8 <_ZN6mapnik16vector_tile_impl19tile_datasource_pbfC2ERKN9protozero10pbf_readerEmmmb+0x14f8>
    86a0:	1400000e 	b	86d8 <_ZN6mapnik16vector_tile_impl19tile_datasource_pbfC2ERKN9protozero10pbf_readerEmmmb+0x14f8>
    86a4:	b85b83a8 	ldur	w8, [x29, #-72]
    86a8:	aa0003fb 	mov	x27, x0
    86ac:	7100151f 	cmp	w8, #0x5
    86b0:	540000c1 	b.ne	86c8 <_ZN6mapnik16vector_tile_impl19tile_datasource_pbfC2ERKN9protozero10pbf_readerEmmmb+0x14e8>  // b.any
    86b4:	f85c03a0 	ldur	x0, [x29, #-64]
    86b8:	f94017e8 	ldr	x8, [sp, #40]
    86bc:	eb08001f 	cmp	x0, x8
    86c0:	54000040 	b.eq	86c8 <_ZN6mapnik16vector_tile_impl19tile_datasource_pbfC2ERKN9protozero10pbf_readerEmmmb+0x14e8>  // b.none
    86c4:	97fff057 	bl	4820 <_ZdlPv@plt>
    86c8:	f85983a0 	ldur	x0, [x29, #-104]
    86cc:	f94027e8 	ldr	x8, [sp, #72]
    86d0:	14000008 	b	86f0 <_ZN6mapnik16vector_tile_impl19tile_datasource_pbfC2ERKN9protozero10pbf_readerEmmmb+0x1510>
    86d4:	14000001 	b	86d8 <_ZN6mapnik16vector_tile_impl19tile_datasource_pbfC2ERKN9protozero10pbf_readerEmmmb+0x14f8>
    86d8:	b85b83a8 	ldur	w8, [x29, #-72]
    86dc:	aa0003fb 	mov	x27, x0
    86e0:	7100151f 	cmp	w8, #0x5
    86e4:	54000261 	b.ne	8730 <_ZN6mapnik16vector_tile_impl19tile_datasource_pbfC2ERKN9protozero10pbf_readerEmmmb+0x1550>  // b.any
    86e8:	f85c03a0 	ldur	x0, [x29, #-64]
    86ec:	f94017e8 	ldr	x8, [sp, #40]
    86f0:	eb08001f 	cmp	x0, x8
    86f4:	540001e0 	b.eq	8730 <_ZN6mapnik16vector_tile_impl19tile_datasource_pbfC2ERKN9protozero10pbf_readerEmmmb+0x1550>  // b.none
    86f8:	97fff04a 	bl	4820 <_ZdlPv@plt>
    86fc:	1400000d 	b	8730 <_ZN6mapnik16vector_tile_impl19tile_datasource_pbfC2ERKN9protozero10pbf_readerEmmmb+0x1550>
    8700:	aa0003fb 	mov	x27, x0
    8704:	f9401bfc 	ldr	x28, [sp, #48]
    8708:	f9402bfa 	ldr	x26, [sp, #80]
    870c:	aa1903e0 	mov	x0, x25
    8710:	97fff020 	bl	4790 <__cxa_free_exception@plt>
    8714:	14000011 	b	8758 <_ZN6mapnik16vector_tile_impl19tile_datasource_pbfC2ERKN9protozero10pbf_readerEmmmb+0x1578>
    8718:	14000005 	b	872c <_ZN6mapnik16vector_tile_impl19tile_datasource_pbfC2ERKN9protozero10pbf_readerEmmmb+0x154c>
    871c:	14000004 	b	872c <_ZN6mapnik16vector_tile_impl19tile_datasource_pbfC2ERKN9protozero10pbf_readerEmmmb+0x154c>
    8720:	14000003 	b	872c <_ZN6mapnik16vector_tile_impl19tile_datasource_pbfC2ERKN9protozero10pbf_readerEmmmb+0x154c>
    8724:	14000002 	b	872c <_ZN6mapnik16vector_tile_impl19tile_datasource_pbfC2ERKN9protozero10pbf_readerEmmmb+0x154c>
    8728:	14000001 	b	872c <_ZN6mapnik16vector_tile_impl19tile_datasource_pbfC2ERKN9protozero10pbf_readerEmmmb+0x154c>
    872c:	aa0003fb 	mov	x27, x0
    8730:	f9401bfc 	ldr	x28, [sp, #48]
    8734:	f9402bfa 	ldr	x26, [sp, #80]
    8738:	14000008 	b	8758 <_ZN6mapnik16vector_tile_impl19tile_datasource_pbfC2ERKN9protozero10pbf_readerEmmmb+0x1578>
    873c:	14000006 	b	8754 <_ZN6mapnik16vector_tile_impl19tile_datasource_pbfC2ERKN9protozero10pbf_readerEmmmb+0x1574>
    8740:	14000005 	b	8754 <_ZN6mapnik16vector_tile_impl19tile_datasource_pbfC2ERKN9protozero10pbf_readerEmmmb+0x1574>
    8744:	14000004 	b	8754 <_ZN6mapnik16vector_tile_impl19tile_datasource_pbfC2ERKN9protozero10pbf_readerEmmmb+0x1574>
    8748:	14000003 	b	8754 <_ZN6mapnik16vector_tile_impl19tile_datasource_pbfC2ERKN9protozero10pbf_readerEmmmb+0x1574>
    874c:	14000002 	b	8754 <_ZN6mapnik16vector_tile_impl19tile_datasource_pbfC2ERKN9protozero10pbf_readerEmmmb+0x1574>
    8750:	14000001 	b	8754 <_ZN6mapnik16vector_tile_impl19tile_datasource_pbfC2ERKN9protozero10pbf_readerEmmmb+0x1574>
    8754:	aa0003fb 	mov	x27, x0
    8758:	aa1a03e0 	mov	x0, x26
    875c:	94000402 	bl	9764 <_ZNSt6vectorIN6mapbox4util7variantIJNSt7__cxx1112basic_stringIcSt11char_traitsIcESaIcEEEfdlmbEEESaIS9_EED2Ev>
    8760:	f94023e0 	ldr	x0, [sp, #64]
    8764:	94000420 	bl	97e4 <_ZNSt6vectorINSt7__cxx1112basic_stringIcSt11char_traitsIcESaIcEEESaIS5_EED2Ev>
    8768:	f9401fe8 	ldr	x8, [sp, #56]
    876c:	f9400100 	ldr	x0, [x8]
    8770:	b4000040 	cbz	x0, 8778 <_ZN6mapnik16vector_tile_impl19tile_datasource_pbfC2ERKN9protozero10pbf_readerEmmmb+0x1598>
    8774:	97fff02b 	bl	4820 <_ZdlPv@plt>
    8778:	f9400be8 	ldr	x8, [sp, #16]
    877c:	f94003f4 	ldr	x20, [sp]
    8780:	f9400100 	ldr	x0, [x8]
    8784:	eb1c001f 	cmp	x0, x28
    8788:	54000040 	b.eq	8790 <_ZN6mapnik16vector_tile_impl19tile_datasource_pbfC2ERKN9protozero10pbf_readerEmmmb+0x15b0>  // b.none
    878c:	97fff025 	bl	4820 <_ZdlPv@plt>
    8790:	aa1403e0 	mov	x0, x20
    8794:	94000430 	bl	9854 <_ZN6mapnik16layer_descriptorD2Ev>
    8798:	aa1303e0 	mov	x0, x19
    879c:	94000505 	bl	9bb0 <_ZN6mapnik10datasourceD2Ev>
    87a0:	aa1b03e0 	mov	x0, x27
    87a4:	97fff0eb 	bl	4b50 <_Unwind_Resume@plt>

00000000000087a8 <_ZN6mapnik16vector_tile_impl19tile_datasource_pbfD1Ev>:
    87a8:	a9bd7bfd 	stp	x29, x30, [sp, #-48]!
    87ac:	f9000bf5 	str	x21, [sp, #16]
    87b0:	a9024ff4 	stp	x20, x19, [sp, #32]
    87b4:	910003fd 	mov	x29, sp
    87b8:	a9595414 	ldp	x20, x21, [x0, #400]
    87bc:	aa0003f3 	mov	x19, x0
    87c0:	f0000108 	adrp	x8, 2b000 <GCC_except_table25+0xfe4c>
    87c4:	9126e108 	add	x8, x8, #0x9b8
    87c8:	eb15029f 	cmp	x20, x21
    87cc:	f9000008 	str	x8, [x0]
    87d0:	54000661 	b.ne	889c <_ZN6mapnik16vector_tile_impl19tile_datasource_pbfD1Ev+0xf4>  // b.any
    87d4:	b4000074 	cbz	x20, 87e0 <_ZN6mapnik16vector_tile_impl19tile_datasource_pbfD1Ev+0x38>
    87d8:	aa1403e0 	mov	x0, x20
    87dc:	97fff011 	bl	4820 <_ZdlPv@plt>
    87e0:	a957d674 	ldp	x20, x21, [x19, #376]
    87e4:	eb15029f 	cmp	x20, x21
    87e8:	54000721 	b.ne	88cc <_ZN6mapnik16vector_tile_impl19tile_datasource_pbfD1Ev+0x124>  // b.any
    87ec:	b4000074 	cbz	x20, 87f8 <_ZN6mapnik16vector_tile_impl19tile_datasource_pbfD1Ev+0x50>
    87f0:	aa1403e0 	mov	x0, x20
    87f4:	97fff00b 	bl	4820 <_ZdlPv@plt>
    87f8:	f940b260 	ldr	x0, [x19, #352]
    87fc:	b4000040 	cbz	x0, 8804 <_ZN6mapnik16vector_tile_impl19tile_datasource_pbfD1Ev+0x5c>
    8800:	97fff008 	bl	4820 <_ZdlPv@plt>
    8804:	f940a260 	ldr	x0, [x19, #320]
    8808:	91054268 	add	x8, x19, #0x150
    880c:	eb08001f 	cmp	x0, x8
    8810:	54000040 	b.eq	8818 <_ZN6mapnik16vector_tile_impl19tile_datasource_pbfD1Ev+0x70>  // b.none
    8814:	97fff003 	bl	4820 <_ZdlPv@plt>
    8818:	91024260 	add	x0, x19, #0x90
    881c:	f9405261 	ldr	x1, [x19, #160]
    8820:	9400054a 	bl	9d48 <_ZNSt8_Rb_treeINSt7__cxx1112basic_stringIcSt11char_traitsIcESaIcEEESt4pairIKS5_N6mapnik12value_holderEESt10_Select1stISA_ESt4lessIS5_ESaISA_EE8_M_eraseEPSt13_Rb_tree_nodeISA_E>
    8824:	a947d674 	ldp	x20, x21, [x19, #120]
    8828:	eb15029f 	cmp	x20, x21
    882c:	54000601 	b.ne	88ec <_ZN6mapnik16vector_tile_impl19tile_datasource_pbfD1Ev+0x144>  // b.any
    8830:	b4000074 	cbz	x20, 883c <_ZN6mapnik16vector_tile_impl19tile_datasource_pbfD1Ev+0x94>
    8834:	aa1403e0 	mov	x0, x20
    8838:	97ffeffa 	bl	4820 <_ZdlPv@plt>
    883c:	f9402e60 	ldr	x0, [x19, #88]
    8840:	9101a268 	add	x8, x19, #0x68
    8844:	eb08001f 	cmp	x0, x8
    8848:	54000040 	b.eq	8850 <_ZN6mapnik16vector_tile_impl19tile_datasource_pbfD1Ev+0xa8>  // b.none
    884c:	97ffeff5 	bl	4820 <_ZdlPv@plt>
    8850:	f9401e60 	ldr	x0, [x19, #56]
    8854:	91012268 	add	x8, x19, #0x48
    8858:	eb08001f 	cmp	x0, x8
    885c:	54000040 	b.eq	8864 <_ZN6mapnik16vector_tile_impl19tile_datasource_pbfD1Ev+0xbc>  // b.none
    8860:	97ffeff0 	bl	4820 <_ZdlPv@plt>
    8864:	f0000108 	adrp	x8, 2b000 <GCC_except_table25+0xfe4c>
    8868:	91002260 	add	x0, x19, #0x8
    886c:	f947b108 	ldr	x8, [x8, #3936]
    8870:	f9400e61 	ldr	x1, [x19, #24]
    8874:	91004108 	add	x8, x8, #0x10
    8878:	f9000268 	str	x8, [x19]
    887c:	94000533 	bl	9d48 <_ZNSt8_Rb_treeINSt7__cxx1112basic_stringIcSt11char_traitsIcESaIcEEESt4pairIKS5_N6mapnik12value_holderEESt10_Select1stISA_ESt4lessIS5_ESaISA_EE8_M_eraseEPSt13_Rb_tree_nodeISA_E>
    8880:	a9424ff4 	ldp	x20, x19, [sp, #32]
    8884:	f9400bf5 	ldr	x21, [sp, #16]
    8888:	a8c37bfd 	ldp	x29, x30, [sp], #48
    888c:	d65f03c0 	ret
    8890:	9100a294 	add	x20, x20, #0x28
    8894:	eb15029f 	cmp	x20, x21
    8898:	54000340 	b.eq	8900 <_ZN6mapnik16vector_tile_impl19tile_datasource_pbfD1Ev+0x158>  // b.none
    889c:	b9400288 	ldr	w8, [x20]
    88a0:	7100151f 	cmp	w8, #0x5
    88a4:	54ffff61 	b.ne	8890 <_ZN6mapnik16vector_tile_impl19tile_datasource_pbfD1Ev+0xe8>  // b.any
    88a8:	f9400680 	ldr	x0, [x20, #8]
    88ac:	91006288 	add	x8, x20, #0x18
    88b0:	eb00011f 	cmp	x8, x0
    88b4:	54fffee0 	b.eq	8890 <_ZN6mapnik16vector_tile_impl19tile_datasource_pbfD1Ev+0xe8>  // b.none
    88b8:	97ffefda 	bl	4820 <_ZdlPv@plt>
    88bc:	17fffff5 	b	8890 <_ZN6mapnik16vector_tile_impl19tile_datasource_pbfD1Ev+0xe8>
    88c0:	91004294 	add	x20, x20, #0x10
    88c4:	eb15029f 	cmp	x20, x21
    88c8:	54000220 	b.eq	890c <_ZN6mapnik16vector_tile_impl19tile_datasource_pbfD1Ev+0x164>  // b.none
    88cc:	f8410680 	ldr	x0, [x20], #16
    88d0:	eb14001f 	cmp	x0, x20
    88d4:	54ffff60 	b.eq	88c0 <_ZN6mapnik16vector_tile_impl19tile_datasource_pbfD1Ev+0x118>  // b.none
    88d8:	97ffefd2 	bl	4820 <_ZdlPv@plt>
    88dc:	17fffff9 	b	88c0 <_ZN6mapnik16vector_tile_impl19tile_datasource_pbfD1Ev+0x118>
    88e0:	91008294 	add	x20, x20, #0x20
    88e4:	eb15029f 	cmp	x20, x21
    88e8:	54000180 	b.eq	8918 <_ZN6mapnik16vector_tile_impl19tile_datasource_pbfD1Ev+0x170>  // b.none
    88ec:	f8410680 	ldr	x0, [x20], #16
    88f0:	eb14001f 	cmp	x0, x20
    88f4:	54ffff60 	b.eq	88e0 <_ZN6mapnik16vector_tile_impl19tile_datasource_pbfD1Ev+0x138>  // b.none
    88f8:	97ffefca 	bl	4820 <_ZdlPv@plt>
    88fc:	17fffff9 	b	88e0 <_ZN6mapnik16vector_tile_impl19tile_datasource_pbfD1Ev+0x138>
    8900:	f940ca74 	ldr	x20, [x19, #400]
    8904:	b5fff6b4 	cbnz	x20, 87d8 <_ZN6mapnik16vector_tile_impl19tile_datasource_pbfD1Ev+0x30>
    8908:	17ffffb6 	b	87e0 <_ZN6mapnik16vector_tile_impl19tile_datasource_pbfD1Ev+0x38>
    890c:	f940be74 	ldr	x20, [x19, #376]
    8910:	b5fff714 	cbnz	x20, 87f0 <_ZN6mapnik16vector_tile_impl19tile_datasource_pbfD1Ev+0x48>
    8914:	17ffffb9 	b	87f8 <_ZN6mapnik16vector_tile_impl19tile_datasource_pbfD1Ev+0x50>
    8918:	f9403e74 	ldr	x20, [x19, #120]
    891c:	b5fff8d4 	cbnz	x20, 8834 <_ZN6mapnik16vector_tile_impl19tile_datasource_pbfD1Ev+0x8c>
    8920:	17ffffc7 	b	883c <_ZN6mapnik16vector_tile_impl19tile_datasource_pbfD1Ev+0x94>
    8924:	97fff768 	bl	66c4 <__clang_call_terminate>
    8928:	97fff767 	bl	66c4 <__clang_call_terminate>

000000000000892c <_ZN6mapnik16vector_tile_impl19tile_datasource_pbfD0Ev>:
    892c:	a9be7bfd 	stp	x29, x30, [sp, #-32]!
    8930:	f9000bf3 	str	x19, [sp, #16]
    8934:	910003fd 	mov	x29, sp
    8938:	aa0003f3 	mov	x19, x0
    893c:	97ffff9b 	bl	87a8 <_ZN6mapnik16vector_tile_impl19tile_datasource_pbfD1Ev>
    8940:	aa1303e0 	mov	x0, x19
    8944:	f9400bf3 	ldr	x19, [sp, #16]
    8948:	a8c27bfd 	ldp	x29, x30, [sp], #32
    894c:	17ffefb5 	b	4820 <_ZdlPv@plt>

0000000000008950 <_ZNK6mapnik16vector_tile_impl19tile_datasource_pbf4typeEv>:
    8950:	3944f000 	ldrb	w0, [x0, #316]
    8954:	d65f03c0 	ret

0000000000008958 <_ZNK6mapnik16vector_tile_impl19tile_datasource_pbf8featuresERKNS_5queryE>:
    8958:	d102c3ff 	sub	sp, sp, #0xb0
    895c:	a9057bfd 	stp	x29, x30, [sp, #80]
    8960:	f90033fb 	str	x27, [sp, #96]
    8964:	a90767fa 	stp	x26, x25, [sp, #112]
    8968:	a9085ff8 	stp	x24, x23, [sp, #128]
    896c:	a90957f6 	stp	x22, x21, [sp, #144]
    8970:	a90a4ff4 	stp	x20, x19, [sp, #160]
    8974:	910143fd 	add	x29, sp, #0x50
    8978:	39430409 	ldrb	w9, [x0, #193]
    897c:	aa0803f3 	mov	x19, x8
    8980:	34000729 	cbz	w9, 8a64 <_ZNK6mapnik16vector_tile_impl19tile_datasource_pbf8featuresERKNS_5queryE+0x10c>
    8984:	aa0003f4 	mov	x20, x0
    8988:	d10083a0 	sub	x0, x29, #0x20
    898c:	aa0103f5 	mov	x21, x1
    8990:	97ffeefc 	bl	4580 <_ZN6mapnik5box2dIdEC1ERKS1_@plt>
    8994:	f9407a88 	ldr	x8, [x20, #240]
    8998:	52800029 	mov	w9, #0x1                   	// #1
    899c:	910043e0 	add	x0, sp, #0x10
    89a0:	9ac82128 	lsl	x8, x9, x8
    89a4:	d0000069 	adrp	x9, 16000 <_ZNSt6vectorIN6mapbox8geometry7polygonIlS_EESaIS3_EE17_M_realloc_insertIJEEEvN9__gnu_cxx17__normal_iteratorIPS3_S5_EEDpOT_+0x78>
    89a8:	9e630100 	ucvtf	d0, x8
    89ac:	fd430d21 	ldr	d1, [x9, #1560]
    89b0:	d0000068 	adrp	x8, 16000 <_ZNSt6vectorIN6mapbox8geometry7polygonIlS_EESaIS3_EE17_M_realloc_insertIJEEEvN9__gnu_cxx17__normal_iteratorIPS3_S5_EEDpOT_+0x78>
    89b4:	d0000069 	adrp	x9, 16000 <_ZNSt6vectorIN6mapbox8geometry7polygonIlS_EESaIS3_EE17_M_realloc_insertIJEEEvN9__gnu_cxx17__normal_iteratorIPS3_S5_EEDpOT_+0x78>
    89b8:	1e601823 	fdiv	d3, d1, d0
    89bc:	fd431102 	ldr	d2, [x8, #1568]
    89c0:	6d4e0281 	ldp	d1, d0, [x20, #224]
    89c4:	fd431526 	ldr	d6, [x9, #1576]
    89c8:	7e61d821 	ucvtf	d1, d1
    89cc:	7e61d804 	ucvtf	d4, d0
    89d0:	1e6e1000 	fmov	d0, #1.000000000000000000e+00
    89d4:	1e602827 	fadd	d7, d1, d0
    89d8:	1e602885 	fadd	d5, d4, d0
    89dc:	1f430820 	fmadd	d0, d1, d3, d2
    89e0:	1f4398a1 	fmsub	d1, d5, d3, d6
    89e4:	1f4308e2 	fmadd	d2, d7, d3, d2
    89e8:	1f439883 	fmsub	d3, d4, d3, d6
    89ec:	97ffefb9 	bl	48d0 <_ZN6mapnik5box2dIdEC1Edddd@plt>
    89f0:	52801b00 	mov	w0, #0xd8                  	// #216
    89f4:	910102b7 	add	x23, x21, #0x40
    89f8:	910182b8 	add	x24, x21, #0x60
    89fc:	91058299 	add	x25, x20, #0x160
    8a00:	9105e29a 	add	x26, x20, #0x178
    8a04:	9106429b 	add	x27, x20, #0x190
    8a08:	97ffef96 	bl	4860 <_Znwm@plt>
    8a0c:	0f000423 	movi	v3.2s, #0x1
    8a10:	aa0003f5 	mov	x21, x0
    8a14:	6d520680 	ldp	d0, d1, [x20, #288]
    8a18:	f0000108 	adrp	x8, 2b000 <GCC_except_table25+0xfe4c>
    8a1c:	912b2108 	add	x8, x8, #0xac8
    8a20:	91004016 	add	x22, x0, #0x10
    8a24:	fd409a82 	ldr	d2, [x20, #304]
    8a28:	b9413a89 	ldr	w9, [x20, #312]
    8a2c:	fd000403 	str	d3, [x0, #8]
    8a30:	f9000008 	str	x8, [x0]
    8a34:	d10083a1 	sub	x1, x29, #0x20
    8a38:	910043e2 	add	x2, sp, #0x10
    8a3c:	aa1603e0 	mov	x0, x22
    8a40:	aa1703e3 	mov	x3, x23
    8a44:	aa1803e4 	mov	x4, x24
    8a48:	aa1903e5 	mov	x5, x25
    8a4c:	aa1a03e6 	mov	x6, x26
    8a50:	aa1b03e7 	mov	x7, x27
    8a54:	b90003e9 	str	w9, [sp]
    8a58:	94000a3b 	bl	b344 <_ZN6mapnik16vector_tile_impl19tile_featureset_pbfINS_19bounding_box_filterIdEEEC2ERKS3_RKNS_5box2dIdEESA_RKSt3setINSt7__cxx1112basic_stringIcSt11char_traitsIcESaIcEEESt4lessISH_ESaISH_EERKSt6vectorIN9protozero10pbf_readerESaISQ_EEdddRKSO_ISH_SK_ERKSO_IN6mapbox4util7variantIJSH_fdlmbEEESaIS11_EEj>
    8a5c:	a9005676 	stp	x22, x21, [x19]
    8a60:	14000002 	b	8a68 <_ZNK6mapnik16vector_tile_impl19tile_datasource_pbf8featuresERKNS_5queryE+0x110>
    8a64:	a9007e7f 	stp	xzr, xzr, [x19]
    8a68:	a94a4ff4 	ldp	x20, x19, [sp, #160]
    8a6c:	a94957f6 	ldp	x22, x21, [sp, #144]
    8a70:	a9485ff8 	ldp	x24, x23, [sp, #128]
    8a74:	a94767fa 	ldp	x26, x25, [sp, #112]
    8a78:	a9457bfd 	ldp	x29, x30, [sp, #80]
    8a7c:	f94033fb 	ldr	x27, [sp, #96]
    8a80:	9102c3ff 	add	sp, sp, #0xb0
    8a84:	d65f03c0 	ret
    8a88:	aa0003f3 	mov	x19, x0
    8a8c:	aa1503e0 	mov	x0, x21
    8a90:	97ffef64 	bl	4820 <_ZdlPv@plt>
    8a94:	aa1303e0 	mov	x0, x19
    8a98:	97fff02e 	bl	4b50 <_Unwind_Resume@plt>

0000000000008a9c <_ZNK6mapnik16vector_tile_impl19tile_datasource_pbf15get_tile_extentEv>:
    8a9c:	f9407809 	ldr	x9, [x0, #240]
    8aa0:	5280002a 	mov	w10, #0x1                   	// #1
    8aa4:	9ac92149 	lsl	x9, x10, x9
    8aa8:	d000006a 	adrp	x10, 16000 <_ZNSt6vectorIN6mapbox8geometry7polygonIlS_EESaIS3_EE17_M_realloc_insertIJEEEvN9__gnu_cxx17__normal_iteratorIPS3_S5_EEDpOT_+0x78>
    8aac:	9e630120 	ucvtf	d0, x9
    8ab0:	fd430d41 	ldr	d1, [x10, #1560]
    8ab4:	d0000069 	adrp	x9, 16000 <_ZNSt6vectorIN6mapbox8geometry7polygonIlS_EESaIS3_EE17_M_realloc_insertIJEEEvN9__gnu_cxx17__normal_iteratorIPS3_S5_EEDpOT_+0x78>
    8ab8:	d000006a 	adrp	x10, 16000 <_ZNSt6vectorIN6mapbox8geometry7polygonIlS_EESaIS3_EE17_M_realloc_insertIJEEEvN9__gnu_cxx17__normal_iteratorIPS3_S5_EEDpOT_+0x78>
    8abc:	1e601823 	fdiv	d3, d1, d0
    8ac0:	fd431122 	ldr	d2, [x9, #1568]
    8ac4:	6d4e0001 	ldp	d1, d0, [x0, #224]
    8ac8:	aa0803e0 	mov	x0, x8
    8acc:	fd431546 	ldr	d6, [x10, #1576]
    8ad0:	7e61d821 	ucvtf	d1, d1
    8ad4:	7e61d804 	ucvtf	d4, d0
    8ad8:	1e6e1000 	fmov	d0, #1.000000000000000000e+00
    8adc:	1e602827 	fadd	d7, d1, d0
    8ae0:	1e602885 	fadd	d5, d4, d0
    8ae4:	1f430820 	fmadd	d0, d1, d3, d2
    8ae8:	1f4398a1 	fmsub	d1, d5, d3, d6
    8aec:	1f4308e2 	fmadd	d2, d7, d3, d2
    8af0:	1f439883 	fmsub	d3, d4, d3, d6
    8af4:	17ffef77 	b	48d0 <_ZN6mapnik5box2dIdEC1Edddd@plt>

0000000000008af8 <_ZNK6mapnik16vector_tile_impl19tile_datasource_pbf17features_at_pointERKNS_5coordIdLi2EEEd>:
    8af8:	d103c3ff 	sub	sp, sp, #0xf0
    8afc:	6d0a2beb 	stp	d11, d10, [sp, #160]
    8b00:	6d0b23e9 	stp	d9, d8, [sp, #176]
    8b04:	a90c7bfd 	stp	x29, x30, [sp, #192]
    8b08:	a90d57f6 	stp	x22, x21, [sp, #208]
    8b0c:	a90e4ff4 	stp	x20, x19, [sp, #224]
    8b10:	910303fd 	add	x29, sp, #0xc0
    8b14:	39430409 	ldrb	w9, [x0, #193]
    8b18:	aa0803f3 	mov	x19, x8
    8b1c:	34000b29 	cbz	w9, 8c80 <_ZNK6mapnik16vector_tile_impl19tile_datasource_pbf17features_at_pointERKNS_5coordIdLi2EEEd+0x188>
    8b20:	aa0003f4 	mov	x20, x0
    8b24:	d10103a0 	sub	x0, x29, #0x40
    8b28:	aa0103e2 	mov	x2, x1
    8b2c:	1e604008 	fmov	d8, d0
    8b30:	97ffeff0 	bl	4af0 <_ZN6mapnik5box2dIdEC1ERKNS_5coordIdLi2EEES5_@plt>
    8b34:	1e604100 	fmov	d0, d8
    8b38:	d10103a0 	sub	x0, x29, #0x40
    8b3c:	97fff025 	bl	4bd0 <_ZN6mapnik5box2dIdE3padEd@plt>
    8b40:	a957da95 	ldp	x21, x22, [x20, #376]
    8b44:	910143e8 	add	x8, sp, #0x50
    8b48:	b9005bff 	str	wzr, [sp, #88]
    8b4c:	91002108 	add	x8, x8, #0x8
    8b50:	eb1602bf 	cmp	x21, x22
    8b54:	a90623ff 	stp	xzr, x8, [sp, #96]
    8b58:	a9077fe8 	stp	x8, xzr, [sp, #112]
    8b5c:	540000e0 	b.eq	8b78 <_ZNK6mapnik16vector_tile_impl19tile_datasource_pbf17features_at_pointERKNS_5coordIdLi2EEEd+0x80>  // b.none
    8b60:	910143e0 	add	x0, sp, #0x50
    8b64:	aa1503e1 	mov	x1, x21
    8b68:	9400066d 	bl	a51c <_ZNSt8_Rb_treeINSt7__cxx1112basic_stringIcSt11char_traitsIcESaIcEEES5_St9_IdentityIS5_ESt4lessIS5_ESaIS5_EE16_M_insert_uniqueIRKS5_EESt4pairISt17_Rb_tree_iteratorIS5_EbEOT_>
    8b6c:	910082b5 	add	x21, x21, #0x20
    8b70:	eb1602bf 	cmp	x21, x22
    8b74:	54ffff61 	b.ne	8b60 <_ZNK6mapnik16vector_tile_impl19tile_datasource_pbf17features_at_pointERKNS_5coordIdLi2EEEd+0x68>  // b.any
    8b78:	f9407a88 	ldr	x8, [x20, #240]
    8b7c:	52800029 	mov	w9, #0x1                   	// #1
    8b80:	1e6e1009 	fmov	d9, #1.000000000000000000e+00
    8b84:	9ac82128 	lsl	x8, x9, x8
    8b88:	d0000069 	adrp	x9, 16000 <_ZNSt6vectorIN6mapbox8geometry7polygonIlS_EESaIS3_EE17_M_realloc_insertIJEEEvN9__gnu_cxx17__normal_iteratorIPS3_S5_EEDpOT_+0x78>
    8b8c:	9e630100 	ucvtf	d0, x8
    8b90:	fd430d28 	ldr	d8, [x9, #1560]
    8b94:	d0000068 	adrp	x8, 16000 <_ZNSt6vectorIN6mapbox8geometry7polygonIlS_EESaIS3_EE17_M_realloc_insertIJEEEvN9__gnu_cxx17__normal_iteratorIPS3_S5_EEDpOT_+0x78>
    8b98:	d0000069 	adrp	x9, 16000 <_ZNSt6vectorIN6mapbox8geometry7polygonIlS_EESaIS3_EE17_M_realloc_insertIJEEEvN9__gnu_cxx17__normal_iteratorIPS3_S5_EEDpOT_+0x78>
    8b9c:	1e601903 	fdiv	d3, d8, d0
    8ba0:	fd43110b 	ldr	d11, [x8, #1568]
    8ba4:	6d4e0281 	ldp	d1, d0, [x20, #224]
    8ba8:	fd43152a 	ldr	d10, [x9, #1576]
    8bac:	7e61d804 	ucvtf	d4, d0
    8bb0:	7e61d820 	ucvtf	d0, d1
    8bb4:	1e692881 	fadd	d1, d4, d9
    8bb8:	1e692802 	fadd	d2, d0, d9
    8bbc:	1f432c00 	fmadd	d0, d0, d3, d11
    8bc0:	1f43a821 	fmsub	d1, d1, d3, d10
    8bc4:	1f432c42 	fmadd	d2, d2, d3, d11
    8bc8:	1f43a883 	fmsub	d3, d4, d3, d10
    8bcc:	9100c3e0 	add	x0, sp, #0x30
    8bd0:	97ffef40 	bl	48d0 <_ZN6mapnik5box2dIdEC1Edddd@plt>
    8bd4:	f9407a88 	ldr	x8, [x20, #240]
    8bd8:	52800029 	mov	w9, #0x1                   	// #1
    8bdc:	9ac82128 	lsl	x8, x9, x8
    8be0:	9e630100 	ucvtf	d0, x8
    8be4:	1e601903 	fdiv	d3, d8, d0
    8be8:	6d4e0281 	ldp	d1, d0, [x20, #224]
    8bec:	7e61d804 	ucvtf	d4, d0
    8bf0:	7e61d820 	ucvtf	d0, d1
    8bf4:	1e692881 	fadd	d1, d4, d9
    8bf8:	1e692802 	fadd	d2, d0, d9
    8bfc:	1f432c00 	fmadd	d0, d0, d3, d11
    8c00:	1f43a821 	fmsub	d1, d1, d3, d10
    8c04:	1f432c42 	fmadd	d2, d2, d3, d11
    8c08:	1f43a883 	fmsub	d3, d4, d3, d10
    8c0c:	910043e0 	add	x0, sp, #0x10
    8c10:	97ffef30 	bl	48d0 <_ZN6mapnik5box2dIdEC1Edddd@plt>
    8c14:	52801b00 	mov	w0, #0xd8                  	// #216
    8c18:	97ffef12 	bl	4860 <_Znwm@plt>
    8c1c:	0f000423 	movi	v3.2s, #0x1
    8c20:	aa0003f5 	mov	x21, x0
    8c24:	6d520680 	ldp	d0, d1, [x20, #288]
    8c28:	91004016 	add	x22, x0, #0x10
    8c2c:	f0000109 	adrp	x9, 2b000 <GCC_except_table25+0xfe4c>
    8c30:	912c6129 	add	x9, x9, #0xb18
    8c34:	fd409a82 	ldr	d2, [x20, #304]
    8c38:	b9413a88 	ldr	w8, [x20, #312]
    8c3c:	9105e286 	add	x6, x20, #0x178
    8c40:	91064287 	add	x7, x20, #0x190
    8c44:	91058285 	add	x5, x20, #0x160
    8c48:	fd000403 	str	d3, [x0, #8]
    8c4c:	f9000009 	str	x9, [x0]
    8c50:	d10103a1 	sub	x1, x29, #0x40
    8c54:	9100c3e2 	add	x2, sp, #0x30
    8c58:	910043e3 	add	x3, sp, #0x10
    8c5c:	910143e4 	add	x4, sp, #0x50
    8c60:	aa1603e0 	mov	x0, x22
    8c64:	b90003e8 	str	w8, [sp]
    8c68:	940011e4 	bl	d3f8 <_ZN6mapnik16vector_tile_impl19tile_featureset_pbfINS_15at_point_filterIdEEEC2ERKS3_RKNS_5box2dIdEESA_RKSt3setINSt7__cxx1112basic_stringIcSt11char_traitsIcESaIcEEESt4lessISH_ESaISH_EERKSt6vectorIN9protozero10pbf_readerESaISQ_EEdddRKSO_ISH_SK_ERKSO_IN6mapbox4util7variantIJSH_fdlmbEEESaIS11_EEj>
    8c6c:	f94033e1 	ldr	x1, [sp, #96]
    8c70:	a9005676 	stp	x22, x21, [x19]
    8c74:	910143e0 	add	x0, sp, #0x50
    8c78:	97fff874 	bl	6e48 <_ZNSt8_Rb_treeINSt7__cxx1112basic_stringIcSt11char_traitsIcESaIcEEES5_St9_IdentityIS5_ESt4lessIS5_ESaIS5_EE8_M_eraseEPSt13_Rb_tree_nodeIS5_E>
    8c7c:	14000002 	b	8c84 <_ZNK6mapnik16vector_tile_impl19tile_datasource_pbf17features_at_pointERKNS_5coordIdLi2EEEd+0x18c>
    8c80:	a9007e7f 	stp	xzr, xzr, [x19]
    8c84:	a94e4ff4 	ldp	x20, x19, [sp, #224]
    8c88:	a94d57f6 	ldp	x22, x21, [sp, #208]
    8c8c:	a94c7bfd 	ldp	x29, x30, [sp, #192]
    8c90:	6d4b23e9 	ldp	d9, d8, [sp, #176]
    8c94:	6d4a2beb 	ldp	d11, d10, [sp, #160]
    8c98:	9103c3ff 	add	sp, sp, #0xf0
    8c9c:	d65f03c0 	ret
    8ca0:	97fff689 	bl	66c4 <__clang_call_terminate>
    8ca4:	aa0003f3 	mov	x19, x0
    8ca8:	aa1503e0 	mov	x0, x21
    8cac:	97ffeedd 	bl	4820 <_ZdlPv@plt>
    8cb0:	14000004 	b	8cc0 <_ZNK6mapnik16vector_tile_impl19tile_datasource_pbf17features_at_pointERKNS_5coordIdLi2EEEd+0x1c8>
    8cb4:	14000002 	b	8cbc <_ZNK6mapnik16vector_tile_impl19tile_datasource_pbf17features_at_pointERKNS_5coordIdLi2EEEd+0x1c4>
    8cb8:	14000001 	b	8cbc <_ZNK6mapnik16vector_tile_impl19tile_datasource_pbf17features_at_pointERKNS_5coordIdLi2EEEd+0x1c4>
    8cbc:	aa0003f3 	mov	x19, x0
    8cc0:	910143e0 	add	x0, sp, #0x50
    8cc4:	9400030e 	bl	98fc <_ZNSt3setINSt7__cxx1112basic_stringIcSt11char_traitsIcESaIcEEESt4lessIS5_ESaIS5_EED2Ev>
    8cc8:	aa1303e0 	mov	x0, x19
    8ccc:	97ffefa1 	bl	4b50 <_Unwind_Resume@plt>

0000000000008cd0 <_ZN6mapnik16vector_tile_impl19tile_datasource_pbf12set_envelopeERKNS_5box2dIdEE>:
    8cd0:	d10103ff 	sub	sp, sp, #0x40
    8cd4:	a9027bfd 	stp	x29, x30, [sp, #32]
    8cd8:	f9001bf3 	str	x19, [sp, #48]
    8cdc:	910083fd 	add	x29, sp, #0x20
    8ce0:	52800028 	mov	w8, #0x1                   	// #1
    8ce4:	aa0003f3 	mov	x19, x0
    8ce8:	3903f008 	strb	w8, [x0, #252]
    8cec:	910003e0 	mov	x0, sp
    8cf0:	97ffee24 	bl	4580 <_ZN6mapnik5box2dIdEC1ERKS1_@plt>
    8cf4:	91040260 	add	x0, x19, #0x100
    8cf8:	910003e1 	mov	x1, sp
    8cfc:	97ffef79 	bl	4ae0 <_ZN6mapnik5box2dIdEaSES1_@plt>
    8d00:	a9427bfd 	ldp	x29, x30, [sp, #32]
    8d04:	f9401bf3 	ldr	x19, [sp, #48]
    8d08:	910103ff 	add	sp, sp, #0x40
    8d0c:	d65f03c0 	ret

0000000000008d10 <_ZNK6mapnik16vector_tile_impl19tile_datasource_pbf8envelopeEv>:
    8d10:	d10143ff 	sub	sp, sp, #0x50
    8d14:	a9027bfd 	stp	x29, x30, [sp, #32]
    8d18:	f9001bf5 	str	x21, [sp, #48]
    8d1c:	a9044ff4 	stp	x20, x19, [sp, #64]
    8d20:	910083fd 	add	x29, sp, #0x20
    8d24:	aa0003f3 	mov	x19, x0
    8d28:	3943f009 	ldrb	w9, [x0, #252]
    8d2c:	aa0803f4 	mov	x20, x8
    8d30:	35000389 	cbnz	w9, 8da0 <_ZNK6mapnik16vector_tile_impl19tile_datasource_pbf8envelopeEv+0x90>
    8d34:	f9407a68 	ldr	x8, [x19, #240]
    8d38:	52800035 	mov	w21, #0x1                   	// #1
    8d3c:	d0000069 	adrp	x9, 16000 <_ZNSt6vectorIN6mapbox8geometry7polygonIlS_EESaIS3_EE17_M_realloc_insertIJEEEvN9__gnu_cxx17__normal_iteratorIPS3_S5_EEDpOT_+0x78>
    8d40:	910003e0 	mov	x0, sp
    8d44:	9ac822a8 	lsl	x8, x21, x8
    8d48:	fd430d21 	ldr	d1, [x9, #1560]
    8d4c:	d0000069 	adrp	x9, 16000 <_ZNSt6vectorIN6mapbox8geometry7polygonIlS_EESaIS3_EE17_M_realloc_insertIJEEEvN9__gnu_cxx17__normal_iteratorIPS3_S5_EEDpOT_+0x78>
    8d50:	9e630100 	ucvtf	d0, x8
    8d54:	d0000068 	adrp	x8, 16000 <_ZNSt6vectorIN6mapbox8geometry7polygonIlS_EESaIS3_EE17_M_realloc_insertIJEEEvN9__gnu_cxx17__normal_iteratorIPS3_S5_EEDpOT_+0x78>
    8d58:	fd431526 	ldr	d6, [x9, #1576]
    8d5c:	fd431102 	ldr	d2, [x8, #1568]
    8d60:	1e601823 	fdiv	d3, d1, d0
    8d64:	6d4e0261 	ldp	d1, d0, [x19, #224]
    8d68:	7e61d821 	ucvtf	d1, d1
    8d6c:	7e61d804 	ucvtf	d4, d0
    8d70:	1e6e1000 	fmov	d0, #1.000000000000000000e+00
    8d74:	1e602827 	fadd	d7, d1, d0
    8d78:	1e602885 	fadd	d5, d4, d0
    8d7c:	1f430820 	fmadd	d0, d1, d3, d2
    8d80:	1f4398a1 	fmsub	d1, d5, d3, d6
    8d84:	1f4308e2 	fmadd	d2, d7, d3, d2
    8d88:	1f439883 	fmsub	d3, d4, d3, d6
    8d8c:	97ffeed1 	bl	48d0 <_ZN6mapnik5box2dIdEC1Edddd@plt>
    8d90:	91040260 	add	x0, x19, #0x100
    8d94:	910003e1 	mov	x1, sp
    8d98:	97ffef52 	bl	4ae0 <_ZN6mapnik5box2dIdEaSES1_@plt>
    8d9c:	3903f275 	strb	w21, [x19, #252]
    8da0:	91040261 	add	x1, x19, #0x100
    8da4:	aa1403e0 	mov	x0, x20
    8da8:	97ffedf6 	bl	4580 <_ZN6mapnik5box2dIdEC1ERKS1_@plt>
    8dac:	a9444ff4 	ldp	x20, x19, [sp, #64]
    8db0:	a9427bfd 	ldp	x29, x30, [sp, #32]
    8db4:	f9401bf5 	ldr	x21, [sp, #48]
    8db8:	910143ff 	add	sp, sp, #0x50
    8dbc:	d65f03c0 	ret

0000000000008dc0 <_ZNK6mapnik16vector_tile_impl19tile_datasource_pbf17get_geometry_typeEv>:
    8dc0:	52808020 	mov	w0, #0x401                 	// #1025
    8dc4:	d65f03c0 	ret

0000000000008dc8 <_ZNK6mapnik16vector_tile_impl19tile_datasource_pbf14get_descriptorEv>:
    8dc8:	d10283ff 	sub	sp, sp, #0xa0
    8dcc:	fd001be8 	str	d8, [sp, #48]
    8dd0:	a9047bfd 	stp	x29, x30, [sp, #64]
    8dd4:	a9056ffc 	stp	x28, x27, [sp, #80]
    8dd8:	a90667fa 	stp	x26, x25, [sp, #96]
    8ddc:	a9075ff8 	stp	x24, x23, [sp, #112]
    8de0:	a90857f6 	stp	x22, x21, [sp, #128]
