
tileinfo:     file format elf64-littleaarch64


Disassembly of section .init:

0000000000004800 <_init>:
    4800:	d503201f 	nop
    4804:	a9bf7bfd 	stp	x29, x30, [sp, #-16]!
    4808:	910003fd 	mov	x29, sp
    480c:	940002ba 	bl	52f4 <call_weak_fn>
    4810:	a8c17bfd 	ldp	x29, x30, [sp], #16
    4814:	d65f03c0 	ret

Disassembly of section .plt:

0000000000004820 <.plt>:
    4820:	a9bf7bf0 	stp	x16, x30, [sp, #-16]!
    4824:	f0000210 	adrp	x16, 47000 <GCC_except_table137+0x112f4>
    4828:	f947fe11 	ldr	x17, [x16, #4088]
    482c:	913fe210 	add	x16, x16, #0xff8
    4830:	d61f0220 	br	x17
    4834:	d503201f 	nop
    4838:	d503201f 	nop
    483c:	d503201f 	nop

0000000000004840 <_Znam@plt>:
    4840:	90000230 	adrp	x16, 48000 <_Znam@GLIBCXX_3.4>
    4844:	f9400211 	ldr	x17, [x16]
    4848:	91000210 	add	x16, x16, #0x0
    484c:	d61f0220 	br	x17

0000000000004850 <memcpy@plt>:
    4850:	90000230 	adrp	x16, 48000 <_Znam@GLIBCXX_3.4>
    4854:	f9400611 	ldr	x17, [x16, #8]
    4858:	91002210 	add	x16, x16, #0x8
    485c:	d61f0220 	br	x17

0000000000004860 <_ZSt29_Rb_tree_insert_and_rebalancebPSt18_Rb_tree_node_baseS0_RS_@plt>:
    4860:	90000230 	adrp	x16, 48000 <_Znam@GLIBCXX_3.4>
    4864:	f9400a11 	ldr	x17, [x16, #16]
    4868:	91004210 	add	x16, x16, #0x10
    486c:	d61f0220 	br	x17

0000000000004870 <_ZNSt13basic_filebufIcSt11char_traitsIcEE5closeEv@plt>:
    4870:	90000230 	adrp	x16, 48000 <_Znam@GLIBCXX_3.4>
    4874:	f9400e11 	ldr	x17, [x16, #24]
    4878:	91006210 	add	x16, x16, #0x18
    487c:	d61f0220 	br	x17

0000000000004880 <_ZNKSt12__basic_fileIcE7is_openEv@plt>:
    4880:	90000230 	adrp	x16, 48000 <_Znam@GLIBCXX_3.4>
    4884:	f9401211 	ldr	x17, [x16, #32]
    4888:	91008210 	add	x16, x16, #0x20
    488c:	d61f0220 	br	x17

0000000000004890 <_ZNSt7__cxx1119basic_ostringstreamIcSt11char_traitsIcESaIcEED1Ev@plt>:
    4890:	90000230 	adrp	x16, 48000 <_Znam@GLIBCXX_3.4>
    4894:	f9401611 	ldr	x17, [x16, #40]
    4898:	9100a210 	add	x16, x16, #0x28
    489c:	d61f0220 	br	x17

00000000000048a0 <_ZSt9terminatev@plt>:
    48a0:	90000230 	adrp	x16, 48000 <_Znam@GLIBCXX_3.4>
    48a4:	f9401a11 	ldr	x17, [x16, #48]
    48a8:	9100c210 	add	x16, x16, #0x30
    48ac:	d61f0220 	br	x17

00000000000048b0 <_ZNSt8ios_baseC2Ev@plt>:
    48b0:	90000230 	adrp	x16, 48000 <_Znam@GLIBCXX_3.4>
    48b4:	f9401e11 	ldr	x17, [x16, #56]
    48b8:	9100e210 	add	x16, x16, #0x38
    48bc:	d61f0220 	br	x17

00000000000048c0 <pthread_mutex_lock@plt>:
    48c0:	90000230 	adrp	x16, 48000 <_Znam@GLIBCXX_3.4>
    48c4:	f9402211 	ldr	x17, [x16, #64]
    48c8:	91010210 	add	x16, x16, #0x40
    48cc:	d61f0220 	br	x17

00000000000048d0 <_ZNSt7__cxx1112basic_stringIcSt11char_traitsIcESaIcEE6resizeEmc@plt>:
    48d0:	90000230 	adrp	x16, 48000 <_Znam@GLIBCXX_3.4>
    48d4:	f9402611 	ldr	x17, [x16, #72]
    48d8:	91012210 	add	x16, x16, #0x48
    48dc:	d61f0220 	br	x17

00000000000048e0 <strlen@plt>:
    48e0:	90000230 	adrp	x16, 48000 <_Znam@GLIBCXX_3.4>
    48e4:	f9402a11 	ldr	x17, [x16, #80]
    48e8:	91014210 	add	x16, x16, #0x50
    48ec:	d61f0220 	br	x17

00000000000048f0 <_ZNSt7__cxx1112basic_stringIcSt11char_traitsIcESaIcEE9_M_appendEPKcm@plt>:
    48f0:	90000230 	adrp	x16, 48000 <_Znam@GLIBCXX_3.4>
    48f4:	f9402e11 	ldr	x17, [x16, #88]
    48f8:	91016210 	add	x16, x16, #0x58
    48fc:	d61f0220 	br	x17

0000000000004900 <_ZNSt8ios_baseD2Ev@plt>:
    4900:	90000230 	adrp	x16, 48000 <_Znam@GLIBCXX_3.4>
    4904:	f9403211 	ldr	x17, [x16, #96]
    4908:	91018210 	add	x16, x16, #0x60
    490c:	d61f0220 	br	x17

0000000000004910 <__stack_chk_fail@plt>:
    4910:	90000230 	adrp	x16, 48000 <_Znam@GLIBCXX_3.4>
    4914:	f9403611 	ldr	x17, [x16, #104]
    4918:	9101a210 	add	x16, x16, #0x68
    491c:	d61f0220 	br	x17

0000000000004920 <_mcount@plt>:
    4920:	90000230 	adrp	x16, 48000 <_Znam@GLIBCXX_3.4>
    4924:	f9403a11 	ldr	x17, [x16, #112]
    4928:	9101c210 	add	x16, x16, #0x70
    492c:	d61f0220 	br	x17

0000000000004930 <_ZSt17__throw_bad_allocv@plt>:
    4930:	90000230 	adrp	x16, 48000 <_Znam@GLIBCXX_3.4>
    4934:	f9403e11 	ldr	x17, [x16, #120]
    4938:	9101e210 	add	x16, x16, #0x78
    493c:	d61f0220 	br	x17

0000000000004940 <_ZNSt7__cxx1112basic_stringIcSt11char_traitsIcESaIcEEC2EPKcRKS3_@plt>:
    4940:	90000230 	adrp	x16, 48000 <_Znam@GLIBCXX_3.4>
    4944:	f9404211 	ldr	x17, [x16, #128]
    4948:	91020210 	add	x16, x16, #0x80
    494c:	d61f0220 	br	x17

0000000000004950 <__cxa_begin_catch@plt>:
    4950:	90000230 	adrp	x16, 48000 <_Znam@GLIBCXX_3.4>
    4954:	f9404611 	ldr	x17, [x16, #136]
    4958:	91022210 	add	x16, x16, #0x88
    495c:	d61f0220 	br	x17

0000000000004960 <__cxa_allocate_exception@plt>:
    4960:	90000230 	adrp	x16, 48000 <_Znam@GLIBCXX_3.4>
    4964:	f9404a11 	ldr	x17, [x16, #144]
    4968:	91024210 	add	x16, x16, #0x90
    496c:	d61f0220 	br	x17

0000000000004970 <memcmp@plt>:
    4970:	90000230 	adrp	x16, 48000 <_Znam@GLIBCXX_3.4>
    4974:	f9404e11 	ldr	x17, [x16, #152]
    4978:	91026210 	add	x16, x16, #0x98
    497c:	d61f0220 	br	x17

0000000000004980 <_ZSt20__throw_length_errorPKc@plt>:
    4980:	90000230 	adrp	x16, 48000 <_Znam@GLIBCXX_3.4>
    4984:	f9405211 	ldr	x17, [x16, #160]
    4988:	91028210 	add	x16, x16, #0xa0
    498c:	d61f0220 	br	x17

0000000000004990 <_ZNSt7__cxx1112basic_stringIcSt11char_traitsIcESaIcEE9_M_assignERKS4_@plt>:
    4990:	90000230 	adrp	x16, 48000 <_Znam@GLIBCXX_3.4>
    4994:	f9405611 	ldr	x17, [x16, #168]
    4998:	9102a210 	add	x16, x16, #0xa8
    499c:	d61f0220 	br	x17

00000000000049a0 <memset@plt>:
    49a0:	90000230 	adrp	x16, 48000 <_Znam@GLIBCXX_3.4>
    49a4:	f9405a11 	ldr	x17, [x16, #176]
    49a8:	9102c210 	add	x16, x16, #0xb0
    49ac:	d61f0220 	br	x17

00000000000049b0 <pthread_mutex_unlock@plt>:
    49b0:	90000230 	adrp	x16, 48000 <_Znam@GLIBCXX_3.4>
    49b4:	f9405e11 	ldr	x17, [x16, #184]
    49b8:	9102e210 	add	x16, x16, #0xb8
    49bc:	d61f0220 	br	x17

00000000000049c0 <__fprintf_chk@plt>:
    49c0:	90000230 	adrp	x16, 48000 <_Znam@GLIBCXX_3.4>
    49c4:	f9406211 	ldr	x17, [x16, #192]
    49c8:	91030210 	add	x16, x16, #0xc0
    49cc:	d61f0220 	br	x17

00000000000049d0 <__cxa_finalize@plt>:
    49d0:	90000230 	adrp	x16, 48000 <_Znam@GLIBCXX_3.4>
    49d4:	f9406611 	ldr	x17, [x16, #200]
    49d8:	91032210 	add	x16, x16, #0xc8
    49dc:	d61f0220 	br	x17

00000000000049e0 <__snprintf_chk@plt>:
    49e0:	90000230 	adrp	x16, 48000 <_Znam@GLIBCXX_3.4>
    49e4:	f9406a11 	ldr	x17, [x16, #208]
    49e8:	91034210 	add	x16, x16, #0xd0
    49ec:	d61f0220 	br	x17

00000000000049f0 <_ZSt28_Rb_tree_rebalance_for_erasePSt18_Rb_tree_node_baseRS_@plt>:
    49f0:	90000230 	adrp	x16, 48000 <_Znam@GLIBCXX_3.4>
    49f4:	f9406e11 	ldr	x17, [x16, #216]
    49f8:	91036210 	add	x16, x16, #0xd8
    49fc:	d61f0220 	br	x17

0000000000004a00 <_ZNSt7__cxx1112basic_stringIcSt11char_traitsIcESaIcEED1Ev@plt>:
    4a00:	90000230 	adrp	x16, 48000 <_Znam@GLIBCXX_3.4>
    4a04:	f9407211 	ldr	x17, [x16, #224]
    4a08:	91038210 	add	x16, x16, #0xe0
    4a0c:	d61f0220 	br	x17

0000000000004a10 <pthread_mutex_init@plt>:
    4a10:	90000230 	adrp	x16, 48000 <_Znam@GLIBCXX_3.4>
    4a14:	f9407611 	ldr	x17, [x16, #232]
    4a18:	9103a210 	add	x16, x16, #0xe8
    4a1c:	d61f0220 	br	x17

0000000000004a20 <_ZNSo9_M_insertImEERSoT_@plt>:
    4a20:	90000230 	adrp	x16, 48000 <_Znam@GLIBCXX_3.4>
    4a24:	f9407a11 	ldr	x17, [x16, #240]
    4a28:	9103c210 	add	x16, x16, #0xf0
    4a2c:	d61f0220 	br	x17

0000000000004a30 <_ZSt18_Rb_tree_incrementPSt18_Rb_tree_node_base@plt>:
    4a30:	90000230 	adrp	x16, 48000 <_Znam@GLIBCXX_3.4>
    4a34:	f9407e11 	ldr	x17, [x16, #248]
    4a38:	9103e210 	add	x16, x16, #0xf8
    4a3c:	d61f0220 	br	x17

0000000000004a40 <strerror@plt>:
    4a40:	90000230 	adrp	x16, 48000 <_Znam@GLIBCXX_3.4>
    4a44:	f9408211 	ldr	x17, [x16, #256]
    4a48:	91040210 	add	x16, x16, #0x100
    4a4c:	d61f0220 	br	x17

0000000000004a50 <_ZNSt7__cxx1118basic_stringstreamIcSt11char_traitsIcESaIcEEC1Ev@plt>:
    4a50:	90000230 	adrp	x16, 48000 <_Znam@GLIBCXX_3.4>
    4a54:	f9408611 	ldr	x17, [x16, #264]
    4a58:	91042210 	add	x16, x16, #0x108
    4a5c:	d61f0220 	br	x17

0000000000004a60 <_ZNKSt8__detail20_Prime_rehash_policy11_M_next_bktEm@plt>:
    4a60:	90000230 	adrp	x16, 48000 <_Znam@GLIBCXX_3.4>
    4a64:	f9408a11 	ldr	x17, [x16, #272]
    4a68:	91044210 	add	x16, x16, #0x110
    4a6c:	d61f0220 	br	x17

0000000000004a70 <_ZSt19__throw_logic_errorPKc@plt>:
    4a70:	90000230 	adrp	x16, 48000 <_Znam@GLIBCXX_3.4>
    4a74:	f9408e11 	ldr	x17, [x16, #280]
    4a78:	91046210 	add	x16, x16, #0x118
    4a7c:	d61f0220 	br	x17

0000000000004a80 <_ZNSt7__cxx1112basic_stringIcSt11char_traitsIcESaIcEE4swapERS4_@plt>:
    4a80:	90000230 	adrp	x16, 48000 <_Znam@GLIBCXX_3.4>
    4a84:	f9409211 	ldr	x17, [x16, #288]
    4a88:	91048210 	add	x16, x16, #0x120
    4a8c:	d61f0220 	br	x17

0000000000004a90 <__cxa_free_exception@plt>:
    4a90:	90000230 	adrp	x16, 48000 <_Znam@GLIBCXX_3.4>
    4a94:	f9409611 	ldr	x17, [x16, #296]
    4a98:	9104a210 	add	x16, x16, #0x128
    4a9c:	d61f0220 	br	x17

0000000000004aa0 <__libc_start_main@plt>:
    4aa0:	90000230 	adrp	x16, 48000 <_Znam@GLIBCXX_3.4>
    4aa4:	f9409a11 	ldr	x17, [x16, #304]
    4aa8:	9104c210 	add	x16, x16, #0x130
    4aac:	d61f0220 	br	x17

0000000000004ab0 <_ZNSt7__cxx1118basic_stringstreamIcSt11char_traitsIcESaIcEED1Ev@plt>:
    4ab0:	90000230 	adrp	x16, 48000 <_Znam@GLIBCXX_3.4>
    4ab4:	f9409e11 	ldr	x17, [x16, #312]
    4ab8:	9104e210 	add	x16, x16, #0x138
    4abc:	d61f0220 	br	x17

0000000000004ac0 <_ZSt28__throw_bad_array_new_lengthv@plt>:
    4ac0:	90000230 	adrp	x16, 48000 <_Znam@GLIBCXX_3.4>
    4ac4:	f940a211 	ldr	x17, [x16, #320]
    4ac8:	91050210 	add	x16, x16, #0x140
    4acc:	d61f0220 	br	x17

0000000000004ad0 <inflate@plt>:
    4ad0:	90000230 	adrp	x16, 48000 <_Znam@GLIBCXX_3.4>
    4ad4:	f940a611 	ldr	x17, [x16, #328]
    4ad8:	91052210 	add	x16, x16, #0x148
    4adc:	d61f0220 	br	x17

0000000000004ae0 <_ZNSt13basic_filebufIcSt11char_traitsIcEED2Ev@plt>:
    4ae0:	90000230 	adrp	x16, 48000 <_Znam@GLIBCXX_3.4>
    4ae4:	f940aa11 	ldr	x17, [x16, #336]
    4ae8:	91054210 	add	x16, x16, #0x150
    4aec:	d61f0220 	br	x17

0000000000004af0 <inflateInit2_@plt>:
    4af0:	90000230 	adrp	x16, 48000 <_Znam@GLIBCXX_3.4>
    4af4:	f940ae11 	ldr	x17, [x16, #344]
    4af8:	91056210 	add	x16, x16, #0x158
    4afc:	d61f0220 	br	x17

0000000000004b00 <_ZdlPv@plt>:
    4b00:	90000230 	adrp	x16, 48000 <_Znam@GLIBCXX_3.4>
    4b04:	f940b211 	ldr	x17, [x16, #352]
    4b08:	91058210 	add	x16, x16, #0x160
    4b0c:	d61f0220 	br	x17

0000000000004b10 <_ZNSo9_M_insertIlEERSoT_@plt>:
    4b10:	90000230 	adrp	x16, 48000 <_Znam@GLIBCXX_3.4>
    4b14:	f940b611 	ldr	x17, [x16, #360]
    4b18:	9105a210 	add	x16, x16, #0x168
    4b1c:	d61f0220 	br	x17

0000000000004b20 <_ZNKSt7__cxx1118basic_stringstreamIcSt11char_traitsIcESaIcEE3strEv@plt>:
    4b20:	90000230 	adrp	x16, 48000 <_Znam@GLIBCXX_3.4>
    4b24:	f940ba11 	ldr	x17, [x16, #368]
    4b28:	9105c210 	add	x16, x16, #0x170
    4b2c:	d61f0220 	br	x17

0000000000004b30 <_Znwm@plt>:
    4b30:	90000230 	adrp	x16, 48000 <_Znam@GLIBCXX_3.4>
    4b34:	f940be11 	ldr	x17, [x16, #376]
    4b38:	9105e210 	add	x16, x16, #0x178
    4b3c:	d61f0220 	br	x17

0000000000004b40 <_ZSt18_Rb_tree_decrementPSt18_Rb_tree_node_base@plt>:
    4b40:	90000230 	adrp	x16, 48000 <_Znam@GLIBCXX_3.4>
    4b44:	f940c211 	ldr	x17, [x16, #384]
    4b48:	91060210 	add	x16, x16, #0x180
    4b4c:	d61f0220 	br	x17

0000000000004b50 <inflateEnd@plt>:
    4b50:	90000230 	adrp	x16, 48000 <_Znam@GLIBCXX_3.4>
    4b54:	f940c611 	ldr	x17, [x16, #392]
    4b58:	91062210 	add	x16, x16, #0x188
    4b5c:	d61f0220 	br	x17

0000000000004b60 <__cxa_atexit@plt>:
    4b60:	90000230 	adrp	x16, 48000 <_Znam@GLIBCXX_3.4>
    4b64:	f940ca11 	ldr	x17, [x16, #400]
    4b68:	91064210 	add	x16, x16, #0x190
    4b6c:	d61f0220 	br	x17

0000000000004b70 <_ZSt16__ostream_insertIcSt11char_traitsIcEERSt13basic_ostreamIT_T0_ES6_PKS3_l@plt>:
    4b70:	90000230 	adrp	x16, 48000 <_Znam@GLIBCXX_3.4>
    4b74:	f940ce11 	ldr	x17, [x16, #408]
    4b78:	91066210 	add	x16, x16, #0x198
    4b7c:	d61f0220 	br	x17

0000000000004b80 <_ZNKSt5ctypeIcE13_M_widen_initEv@plt>:
    4b80:	90000230 	adrp	x16, 48000 <_Znam@GLIBCXX_3.4>
    4b84:	f940d211 	ldr	x17, [x16, #416]
    4b88:	91068210 	add	x16, x16, #0x1a0
    4b8c:	d61f0220 	br	x17

0000000000004b90 <_ZSt18_Rb_tree_incrementPKSt18_Rb_tree_node_base@plt>:
    4b90:	90000230 	adrp	x16, 48000 <_Znam@GLIBCXX_3.4>
    4b94:	f940d611 	ldr	x17, [x16, #424]
    4b98:	9106a210 	add	x16, x16, #0x1a8
    4b9c:	d61f0220 	br	x17

0000000000004ba0 <__vsnprintf_chk@plt>:
    4ba0:	90000230 	adrp	x16, 48000 <_Znam@GLIBCXX_3.4>
    4ba4:	f940da11 	ldr	x17, [x16, #432]
    4ba8:	9106c210 	add	x16, x16, #0x1b0
    4bac:	d61f0220 	br	x17

0000000000004bb0 <fflush@plt>:
    4bb0:	90000230 	adrp	x16, 48000 <_Znam@GLIBCXX_3.4>
    4bb4:	f940de11 	ldr	x17, [x16, #440]
    4bb8:	9106e210 	add	x16, x16, #0x1b8
    4bbc:	d61f0220 	br	x17

0000000000004bc0 <memmove@plt>:
    4bc0:	90000230 	adrp	x16, 48000 <_Znam@GLIBCXX_3.4>
    4bc4:	f940e211 	ldr	x17, [x16, #448]
    4bc8:	91070210 	add	x16, x16, #0x1c0
    4bcc:	d61f0220 	br	x17

0000000000004bd0 <_ZSt16__throw_bad_castv@plt>:
    4bd0:	90000230 	adrp	x16, 48000 <_Znam@GLIBCXX_3.4>
    4bd4:	f940e611 	ldr	x17, [x16, #456]
    4bd8:	91072210 	add	x16, x16, #0x1c8
    4bdc:	d61f0220 	br	x17

0000000000004be0 <_ZdaPv@plt>:
    4be0:	90000230 	adrp	x16, 48000 <_Znam@GLIBCXX_3.4>
    4be4:	f940ea11 	ldr	x17, [x16, #464]
    4be8:	91074210 	add	x16, x16, #0x1d0
    4bec:	d61f0220 	br	x17

0000000000004bf0 <sched_yield@plt>:
    4bf0:	90000230 	adrp	x16, 48000 <_Znam@GLIBCXX_3.4>
    4bf4:	f940ee11 	ldr	x17, [x16, #472]
    4bf8:	91076210 	add	x16, x16, #0x1d8
    4bfc:	d61f0220 	br	x17

0000000000004c00 <_ZNKSt8__detail20_Prime_rehash_policy14_M_need_rehashEmmm@plt>:
    4c00:	90000230 	adrp	x16, 48000 <_Znam@GLIBCXX_3.4>
    4c04:	f940f211 	ldr	x17, [x16, #480]
    4c08:	91078210 	add	x16, x16, #0x1e0
    4c0c:	d61f0220 	br	x17

0000000000004c10 <_ZNSt9basic_iosIcSt11char_traitsIcEE4initEPSt15basic_streambufIcS1_E@plt>:
    4c10:	90000230 	adrp	x16, 48000 <_Znam@GLIBCXX_3.4>
    4c14:	f940f611 	ldr	x17, [x16, #488]
    4c18:	9107a210 	add	x16, x16, #0x1e8
    4c1c:	d61f0220 	br	x17

0000000000004c20 <_ZNSt6localeD1Ev@plt>:
    4c20:	90000230 	adrp	x16, 48000 <_Znam@GLIBCXX_3.4>
    4c24:	f940fa11 	ldr	x17, [x16, #496]
    4c28:	9107c210 	add	x16, x16, #0x1f0
    4c2c:	d61f0220 	br	x17

0000000000004c30 <strcmp@plt>:
    4c30:	90000230 	adrp	x16, 48000 <_Znam@GLIBCXX_3.4>
    4c34:	f940fe11 	ldr	x17, [x16, #504]
    4c38:	9107e210 	add	x16, x16, #0x1f8
    4c3c:	d61f0220 	br	x17

0000000000004c40 <__cxa_rethrow@plt>:
    4c40:	90000230 	adrp	x16, 48000 <_Znam@GLIBCXX_3.4>
    4c44:	f9410211 	ldr	x17, [x16, #512]
    4c48:	91080210 	add	x16, x16, #0x200
    4c4c:	d61f0220 	br	x17

0000000000004c50 <_ZNSt8ios_base4InitC1Ev@plt>:
    4c50:	90000230 	adrp	x16, 48000 <_Znam@GLIBCXX_3.4>
    4c54:	f9410611 	ldr	x17, [x16, #520]
    4c58:	91082210 	add	x16, x16, #0x208
    4c5c:	d61f0220 	br	x17

0000000000004c60 <_ZNSt7__cxx1112basic_stringIcSt11char_traitsIcESaIcEE10_M_replaceEmmPKcm@plt>:
    4c60:	90000230 	adrp	x16, 48000 <_Znam@GLIBCXX_3.4>
    4c64:	f9410a11 	ldr	x17, [x16, #528]
    4c68:	91084210 	add	x16, x16, #0x210
    4c6c:	d61f0220 	br	x17

0000000000004c70 <_ZNSt7__cxx1112basic_stringIcSt11char_traitsIcESaIcEE7reserveEm@plt>:
    4c70:	90000230 	adrp	x16, 48000 <_Znam@GLIBCXX_3.4>
    4c74:	f9410e11 	ldr	x17, [x16, #536]
    4c78:	91086210 	add	x16, x16, #0x218
    4c7c:	d61f0220 	br	x17

0000000000004c80 <abort@plt>:
    4c80:	90000230 	adrp	x16, 48000 <_Znam@GLIBCXX_3.4>
    4c84:	f9411211 	ldr	x17, [x16, #544]
    4c88:	91088210 	add	x16, x16, #0x220
    4c8c:	d61f0220 	br	x17

0000000000004c90 <_ZNSo9_M_insertIdEERSoT_@plt>:
    4c90:	90000230 	adrp	x16, 48000 <_Znam@GLIBCXX_3.4>
    4c94:	f9411611 	ldr	x17, [x16, #552]
    4c98:	9108a210 	add	x16, x16, #0x228
    4c9c:	d61f0220 	br	x17

0000000000004ca0 <_ZNSt13runtime_errorC1ERKNSt7__cxx1112basic_stringIcSt11char_traitsIcESaIcEEE@plt>:
    4ca0:	90000230 	adrp	x16, 48000 <_Znam@GLIBCXX_3.4>
    4ca4:	f9411a11 	ldr	x17, [x16, #560]
    4ca8:	9108c210 	add	x16, x16, #0x230
    4cac:	d61f0220 	br	x17

0000000000004cb0 <__cxa_end_catch@plt>:
    4cb0:	90000230 	adrp	x16, 48000 <_Znam@GLIBCXX_3.4>
    4cb4:	f9411e11 	ldr	x17, [x16, #568]
    4cb8:	9108e210 	add	x16, x16, #0x238
    4cbc:	d61f0220 	br	x17

0000000000004cc0 <pthread_mutex_destroy@plt>:
    4cc0:	90000230 	adrp	x16, 48000 <_Znam@GLIBCXX_3.4>
    4cc4:	f9412211 	ldr	x17, [x16, #576]
    4cc8:	91090210 	add	x16, x16, #0x240
    4ccc:	d61f0220 	br	x17

0000000000004cd0 <_ZNSo9_M_insertIbEERSoT_@plt>:
    4cd0:	90000230 	adrp	x16, 48000 <_Znam@GLIBCXX_3.4>
    4cd4:	f9412611 	ldr	x17, [x16, #584]
    4cd8:	91092210 	add	x16, x16, #0x248
    4cdc:	d61f0220 	br	x17

0000000000004ce0 <__gxx_personality_v0@plt>:
    4ce0:	90000230 	adrp	x16, 48000 <_Znam@GLIBCXX_3.4>
    4ce4:	f9412a11 	ldr	x17, [x16, #592]
    4ce8:	91094210 	add	x16, x16, #0x250
    4cec:	d61f0220 	br	x17

0000000000004cf0 <_ZNSt9basic_iosIcSt11char_traitsIcEE5clearESt12_Ios_Iostate@plt>:
    4cf0:	90000230 	adrp	x16, 48000 <_Znam@GLIBCXX_3.4>
    4cf4:	f9412e11 	ldr	x17, [x16, #600]
    4cf8:	91096210 	add	x16, x16, #0x258
    4cfc:	d61f0220 	br	x17

0000000000004d00 <__cxa_throw@plt>:
    4d00:	90000230 	adrp	x16, 48000 <_Znam@GLIBCXX_3.4>
    4d04:	f9413211 	ldr	x17, [x16, #608]
    4d08:	91098210 	add	x16, x16, #0x260
    4d0c:	d61f0220 	br	x17

0000000000004d10 <_ZNSolsEi@plt>:
    4d10:	90000230 	adrp	x16, 48000 <_Znam@GLIBCXX_3.4>
    4d14:	f9413611 	ldr	x17, [x16, #616]
    4d18:	9109a210 	add	x16, x16, #0x268
    4d1c:	d61f0220 	br	x17

0000000000004d20 <_Unwind_Resume@plt>:
    4d20:	90000230 	adrp	x16, 48000 <_Znam@GLIBCXX_3.4>
    4d24:	f9413a11 	ldr	x17, [x16, #624]
    4d28:	9109c210 	add	x16, x16, #0x270
    4d2c:	d61f0220 	br	x17

0000000000004d30 <_ZNSt7__cxx1112basic_stringIcSt11char_traitsIcESaIcEE9_M_createERmm@plt>:
    4d30:	90000230 	adrp	x16, 48000 <_Znam@GLIBCXX_3.4>
    4d34:	f9413e11 	ldr	x17, [x16, #632]
    4d38:	9109e210 	add	x16, x16, #0x278
    4d3c:	d61f0220 	br	x17

0000000000004d40 <_ZNSt14basic_ifstreamIcSt11char_traitsIcEEC1EPKcSt13_Ios_Openmode@plt>:
    4d40:	90000230 	adrp	x16, 48000 <_Znam@GLIBCXX_3.4>
    4d44:	f9414211 	ldr	x17, [x16, #640]
    4d48:	910a0210 	add	x16, x16, #0x280
    4d4c:	d61f0220 	br	x17

0000000000004d50 <_ZNSt9exceptionD2Ev@plt>:
    4d50:	90000230 	adrp	x16, 48000 <_Znam@GLIBCXX_3.4>
    4d54:	f9414611 	ldr	x17, [x16, #648]
    4d58:	910a2210 	add	x16, x16, #0x288
    4d5c:	d61f0220 	br	x17

0000000000004d60 <_ZNSt7__cxx1112basic_stringIcSt11char_traitsIcESaIcEE14_M_replace_auxEmmmc@plt>:
    4d60:	90000230 	adrp	x16, 48000 <_Znam@GLIBCXX_3.4>
    4d64:	f9414a11 	ldr	x17, [x16, #656]
    4d68:	910a4210 	add	x16, x16, #0x290
    4d6c:	d61f0220 	br	x17

0000000000004d70 <__gmon_start__@plt>:
    4d70:	90000230 	adrp	x16, 48000 <_Znam@GLIBCXX_3.4>
    4d74:	f9414e11 	ldr	x17, [x16, #664]
    4d78:	910a6210 	add	x16, x16, #0x298
    4d7c:	d61f0220 	br	x17

0000000000004d80 <__cxa_pure_virtual@plt>:
    4d80:	90000230 	adrp	x16, 48000 <_Znam@GLIBCXX_3.4>
    4d84:	f9415211 	ldr	x17, [x16, #672]
    4d88:	910a8210 	add	x16, x16, #0x2a0
    4d8c:	d61f0220 	br	x17

0000000000004d90 <_ZNSt6localeC1Ev@plt>:
    4d90:	90000230 	adrp	x16, 48000 <_Znam@GLIBCXX_3.4>
    4d94:	f9415611 	ldr	x17, [x16, #680]
    4d98:	910aa210 	add	x16, x16, #0x2a8
    4d9c:	d61f0220 	br	x17

Disassembly of section .text:

0000000000004dc0 <_GLOBAL__sub_I_tileinfo.cpp>:
    4dc0:	a9be7bfd 	stp	x29, x30, [sp, #-32]!
    4dc4:	f9000bf3 	str	x19, [sp, #16]
    4dc8:	910003fd 	mov	x29, sp
    4dcc:	90000233 	adrp	x19, 48000 <_Znam@GLIBCXX_3.4>
    4dd0:	910b8673 	add	x19, x19, #0x2e1
    4dd4:	aa1303e0 	mov	x0, x19
    4dd8:	97ffff9e 	bl	4c50 <_ZNSt8ios_base4InitC1Ev@plt>
    4ddc:	f0000200 	adrp	x0, 47000 <GCC_except_table137+0x112f4>
    4de0:	90000222 	adrp	x2, 48000 <_Znam@GLIBCXX_3.4>
    4de4:	910ae042 	add	x2, x2, #0x2b8
    4de8:	f947f000 	ldr	x0, [x0, #4064]
    4dec:	aa1303e1 	mov	x1, x19
    4df0:	f9400bf3 	ldr	x19, [sp, #16]
    4df4:	a8c27bfd 	ldp	x29, x30, [sp], #32
    4df8:	17ffff5a 	b	4b60 <__cxa_atexit@plt>

0000000000004dfc <_GLOBAL__sub_I_vector_tile.pb.cc>:
    4dfc:	a9be7bfd 	stp	x29, x30, [sp, #-32]!
    4e00:	f9000bf3 	str	x19, [sp, #16]
    4e04:	910003fd 	mov	x29, sp
    4e08:	97fffec6 	bl	4920 <_mcount@plt>
    4e0c:	90000233 	adrp	x19, 48000 <_Znam@GLIBCXX_3.4>
    4e10:	910ba273 	add	x19, x19, #0x2e8
    4e14:	aa1303e0 	mov	x0, x19
    4e18:	97ffff8e 	bl	4c50 <_ZNSt8ios_base4InitC1Ev@plt>
    4e1c:	f0000200 	adrp	x0, 47000 <GCC_except_table137+0x112f4>
    4e20:	90000222 	adrp	x2, 48000 <_Znam@GLIBCXX_3.4>
    4e24:	910ae042 	add	x2, x2, #0x2b8
    4e28:	f947f000 	ldr	x0, [x0, #4064]
    4e2c:	aa1303e1 	mov	x1, x19
    4e30:	f9400bf3 	ldr	x19, [sp, #16]
    4e34:	a8c27bfd 	ldp	x29, x30, [sp], #32
    4e38:	17ffff4a 	b	4b60 <__cxa_atexit@plt>
    4e3c:	d503201f 	nop

0000000000004e40 <_GLOBAL__sub_I_common.cc>:
    4e40:	a9be7bfd 	stp	x29, x30, [sp, #-32]!
    4e44:	910003fd 	mov	x29, sp
    4e48:	f9000bf3 	str	x19, [sp, #16]
    4e4c:	90000233 	adrp	x19, 48000 <_Znam@GLIBCXX_3.4>
    4e50:	91140273 	add	x19, x19, #0x500
    4e54:	91004273 	add	x19, x19, #0x10
    4e58:	aa1303e0 	mov	x0, x19
    4e5c:	97ffff7d 	bl	4c50 <_ZNSt8ios_base4InitC1Ev@plt>
    4e60:	aa1303e1 	mov	x1, x19
    4e64:	f0000200 	adrp	x0, 47000 <GCC_except_table137+0x112f4>
    4e68:	f9400bf3 	ldr	x19, [sp, #16]
    4e6c:	90000222 	adrp	x2, 48000 <_Znam@GLIBCXX_3.4>
    4e70:	a8c27bfd 	ldp	x29, x30, [sp], #32
    4e74:	910ae042 	add	x2, x2, #0x2b8
    4e78:	f947f000 	ldr	x0, [x0, #4064]
    4e7c:	17ffff39 	b	4b60 <__cxa_atexit@plt>

0000000000004e80 <_GLOBAL__sub_I_int128.cc>:
    4e80:	a9be7bfd 	stp	x29, x30, [sp, #-32]!
    4e84:	910003fd 	mov	x29, sp
    4e88:	f9000bf3 	str	x19, [sp, #16]
    4e8c:	90000233 	adrp	x19, 48000 <_Znam@GLIBCXX_3.4>
    4e90:	9114c273 	add	x19, x19, #0x530
    4e94:	aa1303e0 	mov	x0, x19
    4e98:	97ffff6e 	bl	4c50 <_ZNSt8ios_base4InitC1Ev@plt>
    4e9c:	aa1303e1 	mov	x1, x19
    4ea0:	f0000200 	adrp	x0, 47000 <GCC_except_table137+0x112f4>
    4ea4:	f9400bf3 	ldr	x19, [sp, #16]
    4ea8:	90000222 	adrp	x2, 48000 <_Znam@GLIBCXX_3.4>
    4eac:	a8c27bfd 	ldp	x29, x30, [sp], #32
    4eb0:	910ae042 	add	x2, x2, #0x2b8
    4eb4:	f947f000 	ldr	x0, [x0, #4064]
    4eb8:	17ffff2a 	b	4b60 <__cxa_atexit@plt>
    4ebc:	d503201f 	nop

0000000000004ec0 <_GLOBAL__sub_I_once.cc>:
    4ec0:	a9be7bfd 	stp	x29, x30, [sp, #-32]!
    4ec4:	910003fd 	mov	x29, sp
    4ec8:	f9000bf3 	str	x19, [sp, #16]
    4ecc:	90000233 	adrp	x19, 48000 <_Znam@GLIBCXX_3.4>
    4ed0:	9114e273 	add	x19, x19, #0x538
    4ed4:	aa1303e0 	mov	x0, x19
    4ed8:	97ffff5e 	bl	4c50 <_ZNSt8ios_base4InitC1Ev@plt>
    4edc:	aa1303e1 	mov	x1, x19
    4ee0:	f0000200 	adrp	x0, 47000 <GCC_except_table137+0x112f4>
    4ee4:	f9400bf3 	ldr	x19, [sp, #16]
    4ee8:	90000222 	adrp	x2, 48000 <_Znam@GLIBCXX_3.4>
    4eec:	a8c27bfd 	ldp	x29, x30, [sp], #32
    4ef0:	910ae042 	add	x2, x2, #0x2b8
    4ef4:	f947f000 	ldr	x0, [x0, #4064]
    4ef8:	17ffff1a 	b	4b60 <__cxa_atexit@plt>
    4efc:	d503201f 	nop

0000000000004f00 <_GLOBAL__sub_I_status.cc>:
    4f00:	a9bd7bfd 	stp	x29, x30, [sp, #-48]!
    4f04:	910003fd 	mov	x29, sp
    4f08:	a90153f3 	stp	x19, x20, [sp, #16]
    4f0c:	90000234 	adrp	x20, 48000 <_Znam@GLIBCXX_3.4>
    4f10:	91150294 	add	x20, x20, #0x540
    4f14:	aa1403e0 	mov	x0, x20
    4f18:	a9025bf5 	stp	x21, x22, [sp, #32]
    4f1c:	97ffff4d 	bl	4c50 <_ZNSt8ios_base4InitC1Ev@plt>
    4f20:	f0000200 	adrp	x0, 47000 <GCC_except_table137+0x112f4>
    4f24:	f0000215 	adrp	x21, 47000 <GCC_except_table137+0x112f4>
    4f28:	90000233 	adrp	x19, 48000 <_Znam@GLIBCXX_3.4>
    4f2c:	910ae273 	add	x19, x19, #0x2b8
    4f30:	f947f000 	ldr	x0, [x0, #4064]
    4f34:	aa1403e1 	mov	x1, x20
    4f38:	aa1303e2 	mov	x2, x19
    4f3c:	f0000214 	adrp	x20, 47000 <GCC_except_table137+0x112f4>
    4f40:	f0000136 	adrp	x22, 2b000 <_IO_stdin_used+0x2b0>
    4f44:	9130a2d6 	add	x22, x22, #0xc28
    4f48:	97ffff06 	bl	4b60 <__cxa_atexit@plt>
    4f4c:	f9475eb5 	ldr	x21, [x21, #3768]
    4f50:	aa1503e0 	mov	x0, x21
    4f54:	94002b73 	bl	fd20 <_ZN6google8protobuf4util6StatusC1Ev>
    4f58:	f947b694 	ldr	x20, [x20, #3944]
    4f5c:	aa1503e1 	mov	x1, x21
    4f60:	f0000215 	adrp	x21, 47000 <GCC_except_table137+0x112f4>
    4f64:	aa1303e2 	mov	x2, x19
    4f68:	aa1403e0 	mov	x0, x20
    4f6c:	97fffefd 	bl	4b60 <__cxa_atexit@plt>
    4f70:	f946aeb5 	ldr	x21, [x21, #3416]
    4f74:	aa1603e2 	mov	x2, x22
    4f78:	d2800003 	mov	x3, #0x0                   	// #0
    4f7c:	52800021 	mov	w1, #0x1                   	// #1
    4f80:	aa1503e0 	mov	x0, x21
    4f84:	94002b6f 	bl	fd40 <_ZN6google8protobuf4util6StatusC1ENS1_5error4CodeENS0_11StringPieceE>
    4f88:	aa1503e1 	mov	x1, x21
    4f8c:	f0000215 	adrp	x21, 47000 <GCC_except_table137+0x112f4>
    4f90:	aa1303e2 	mov	x2, x19
    4f94:	aa1403e0 	mov	x0, x20
    4f98:	97fffef2 	bl	4b60 <__cxa_atexit@plt>
    4f9c:	f94702b5 	ldr	x21, [x21, #3584]
    4fa0:	aa1603e2 	mov	x2, x22
    4fa4:	d2800003 	mov	x3, #0x0                   	// #0
    4fa8:	52800041 	mov	w1, #0x2                   	// #2
    4fac:	aa1503e0 	mov	x0, x21
    4fb0:	94002b64 	bl	fd40 <_ZN6google8protobuf4util6StatusC1ENS1_5error4CodeENS0_11StringPieceE>
    4fb4:	aa1303e2 	mov	x2, x19
    4fb8:	aa1503e1 	mov	x1, x21
    4fbc:	aa1403e0 	mov	x0, x20
    4fc0:	a94153f3 	ldp	x19, x20, [sp, #16]
    4fc4:	a9425bf5 	ldp	x21, x22, [sp, #32]
    4fc8:	a8c37bfd 	ldp	x29, x30, [sp], #48
    4fcc:	17fffee5 	b	4b60 <__cxa_atexit@plt>

0000000000004fd0 <_GLOBAL__sub_I_arena.cc>:
    4fd0:	a9be7bfd 	stp	x29, x30, [sp, #-32]!
    4fd4:	910003fd 	mov	x29, sp
    4fd8:	f9000bf3 	str	x19, [sp, #16]
    4fdc:	90000233 	adrp	x19, 48000 <_Znam@GLIBCXX_3.4>
    4fe0:	91170273 	add	x19, x19, #0x5c0
    4fe4:	aa1303e0 	mov	x0, x19
    4fe8:	97ffff1a 	bl	4c50 <_ZNSt8ios_base4InitC1Ev@plt>
    4fec:	f0000200 	adrp	x0, 47000 <GCC_except_table137+0x112f4>
    4ff0:	aa1303e1 	mov	x1, x19
    4ff4:	90000222 	adrp	x2, 48000 <_Znam@GLIBCXX_3.4>
    4ff8:	910ae042 	add	x2, x2, #0x2b8
    4ffc:	f947f000 	ldr	x0, [x0, #4064]
    5000:	97fffed8 	bl	4b60 <__cxa_atexit@plt>
    5004:	d0000200 	adrp	x0, 47000 <GCC_except_table137+0x112f4>
    5008:	f9400bf3 	ldr	x19, [sp, #16]
    500c:	f947bc00 	ldr	x0, [x0, #3960]
    5010:	f900001f 	str	xzr, [x0]
    5014:	a8c27bfd 	ldp	x29, x30, [sp], #32
    5018:	d65f03c0 	ret
    501c:	d503201f 	nop

0000000000005020 <_GLOBAL__sub_I_extension_set.cc>:
    5020:	a9be7bfd 	stp	x29, x30, [sp, #-32]!
    5024:	910003fd 	mov	x29, sp
    5028:	f9000bf3 	str	x19, [sp, #16]
    502c:	f0000213 	adrp	x19, 48000 <_Znam@GLIBCXX_3.4>
    5030:	91174273 	add	x19, x19, #0x5d0
    5034:	91004273 	add	x19, x19, #0x10
    5038:	aa1303e0 	mov	x0, x19
    503c:	97ffff05 	bl	4c50 <_ZNSt8ios_base4InitC1Ev@plt>
    5040:	aa1303e1 	mov	x1, x19
    5044:	d0000200 	adrp	x0, 47000 <GCC_except_table137+0x112f4>
    5048:	f9400bf3 	ldr	x19, [sp, #16]
    504c:	f0000202 	adrp	x2, 48000 <_Znam@GLIBCXX_3.4>
    5050:	a8c27bfd 	ldp	x29, x30, [sp], #32
    5054:	910ae042 	add	x2, x2, #0x2b8
    5058:	f947f000 	ldr	x0, [x0, #4064]
    505c:	17fffec1 	b	4b60 <__cxa_atexit@plt>

0000000000005060 <_GLOBAL__sub_I_generated_message_util.cc>:
    5060:	a9be7bfd 	stp	x29, x30, [sp, #-32]!
    5064:	910003fd 	mov	x29, sp
    5068:	f9000bf3 	str	x19, [sp, #16]
    506c:	f0000213 	adrp	x19, 48000 <_Znam@GLIBCXX_3.4>
    5070:	91192273 	add	x19, x19, #0x648
    5074:	aa1303e0 	mov	x0, x19
    5078:	97fffef6 	bl	4c50 <_ZNSt8ios_base4InitC1Ev@plt>
    507c:	aa1303e1 	mov	x1, x19
    5080:	d0000200 	adrp	x0, 47000 <GCC_except_table137+0x112f4>
    5084:	f9400bf3 	ldr	x19, [sp, #16]
    5088:	f0000202 	adrp	x2, 48000 <_Znam@GLIBCXX_3.4>
    508c:	a8c27bfd 	ldp	x29, x30, [sp], #32
    5090:	910ae042 	add	x2, x2, #0x2b8
    5094:	f947f000 	ldr	x0, [x0, #4064]
    5098:	17fffeb2 	b	4b60 <__cxa_atexit@plt>
    509c:	d503201f 	nop

00000000000050a0 <_GLOBAL__sub_I_message_lite.cc>:
    50a0:	a9be7bfd 	stp	x29, x30, [sp, #-32]!
    50a4:	910003fd 	mov	x29, sp
    50a8:	f9000bf3 	str	x19, [sp, #16]
    50ac:	f0000213 	adrp	x19, 48000 <_Znam@GLIBCXX_3.4>
    50b0:	9119e273 	add	x19, x19, #0x678
    50b4:	aa1303e0 	mov	x0, x19
    50b8:	97fffee6 	bl	4c50 <_ZNSt8ios_base4InitC1Ev@plt>
    50bc:	aa1303e1 	mov	x1, x19
    50c0:	d0000200 	adrp	x0, 47000 <GCC_except_table137+0x112f4>
    50c4:	f9400bf3 	ldr	x19, [sp, #16]
    50c8:	f0000202 	adrp	x2, 48000 <_Znam@GLIBCXX_3.4>
    50cc:	a8c27bfd 	ldp	x29, x30, [sp], #32
    50d0:	910ae042 	add	x2, x2, #0x2b8
    50d4:	f947f000 	ldr	x0, [x0, #4064]
    50d8:	17fffea2 	b	4b60 <__cxa_atexit@plt>
    50dc:	d503201f 	nop

00000000000050e0 <_GLOBAL__sub_I_repeated_field.cc>:
    50e0:	a9be7bfd 	stp	x29, x30, [sp, #-32]!
    50e4:	910003fd 	mov	x29, sp
    50e8:	f9000bf3 	str	x19, [sp, #16]
    50ec:	f0000213 	adrp	x19, 48000 <_Znam@GLIBCXX_3.4>
    50f0:	911a0273 	add	x19, x19, #0x680
    50f4:	aa1303e0 	mov	x0, x19
    50f8:	97fffed6 	bl	4c50 <_ZNSt8ios_base4InitC1Ev@plt>
    50fc:	aa1303e1 	mov	x1, x19
    5100:	d0000200 	adrp	x0, 47000 <GCC_except_table137+0x112f4>
    5104:	f9400bf3 	ldr	x19, [sp, #16]
    5108:	f0000202 	adrp	x2, 48000 <_Znam@GLIBCXX_3.4>
    510c:	a8c27bfd 	ldp	x29, x30, [sp], #32
    5110:	910ae042 	add	x2, x2, #0x2b8
    5114:	f947f000 	ldr	x0, [x0, #4064]
    5118:	17fffe92 	b	4b60 <__cxa_atexit@plt>
    511c:	d503201f 	nop

0000000000005120 <_GLOBAL__sub_I_wire_format_lite.cc>:
    5120:	a9be7bfd 	stp	x29, x30, [sp, #-32]!
    5124:	910003fd 	mov	x29, sp
    5128:	f9000bf3 	str	x19, [sp, #16]
    512c:	f0000213 	adrp	x19, 48000 <_Znam@GLIBCXX_3.4>
    5130:	911a2273 	add	x19, x19, #0x688
    5134:	aa1303e0 	mov	x0, x19
    5138:	97fffec6 	bl	4c50 <_ZNSt8ios_base4InitC1Ev@plt>
    513c:	aa1303e1 	mov	x1, x19
    5140:	d0000200 	adrp	x0, 47000 <GCC_except_table137+0x112f4>
    5144:	f9400bf3 	ldr	x19, [sp, #16]
    5148:	f0000202 	adrp	x2, 48000 <_Znam@GLIBCXX_3.4>
    514c:	a8c27bfd 	ldp	x29, x30, [sp], #32
    5150:	910ae042 	add	x2, x2, #0x2b8
    5154:	f947f000 	ldr	x0, [x0, #4064]
    5158:	17fffe82 	b	4b60 <__cxa_atexit@plt>
    515c:	d503201f 	nop

0000000000005160 <_GLOBAL__sub_I_coded_stream.cc>:
    5160:	a9be7bfd 	stp	x29, x30, [sp, #-32]!
    5164:	910003fd 	mov	x29, sp
    5168:	f9000bf3 	str	x19, [sp, #16]
    516c:	f0000213 	adrp	x19, 48000 <_Znam@GLIBCXX_3.4>
    5170:	911a4273 	add	x19, x19, #0x690
    5174:	aa1303e0 	mov	x0, x19
    5178:	97fffeb6 	bl	4c50 <_ZNSt8ios_base4InitC1Ev@plt>
    517c:	aa1303e1 	mov	x1, x19
    5180:	d0000200 	adrp	x0, 47000 <GCC_except_table137+0x112f4>
    5184:	f9400bf3 	ldr	x19, [sp, #16]
    5188:	f0000202 	adrp	x2, 48000 <_Znam@GLIBCXX_3.4>
    518c:	a8c27bfd 	ldp	x29, x30, [sp], #32
    5190:	910ae042 	add	x2, x2, #0x2b8
    5194:	f947f000 	ldr	x0, [x0, #4064]
    5198:	17fffe72 	b	4b60 <__cxa_atexit@plt>
    519c:	d503201f 	nop

00000000000051a0 <_GLOBAL__sub_I_zero_copy_stream_impl_lite.cc>:
    51a0:	a9be7bfd 	stp	x29, x30, [sp, #-32]!
    51a4:	910003fd 	mov	x29, sp
    51a8:	f9000bf3 	str	x19, [sp, #16]
    51ac:	f0000213 	adrp	x19, 48000 <_Znam@GLIBCXX_3.4>
    51b0:	911a8273 	add	x19, x19, #0x6a0
    51b4:	aa1303e0 	mov	x0, x19
    51b8:	97fffea6 	bl	4c50 <_ZNSt8ios_base4InitC1Ev@plt>
    51bc:	aa1303e1 	mov	x1, x19
    51c0:	d0000200 	adrp	x0, 47000 <GCC_except_table137+0x112f4>
    51c4:	f9400bf3 	ldr	x19, [sp, #16]
    51c8:	f0000202 	adrp	x2, 48000 <_Znam@GLIBCXX_3.4>
    51cc:	a8c27bfd 	ldp	x29, x30, [sp], #32
    51d0:	910ae042 	add	x2, x2, #0x2b8
    51d4:	f947f000 	ldr	x0, [x0, #4064]
    51d8:	17fffe62 	b	4b60 <__cxa_atexit@plt>
    51dc:	d503201f 	nop

00000000000051e0 <_GLOBAL__sub_I_stringprintf.cc>:
    51e0:	a9be7bfd 	stp	x29, x30, [sp, #-32]!
    51e4:	910003fd 	mov	x29, sp
    51e8:	f9000bf3 	str	x19, [sp, #16]
    51ec:	f0000213 	adrp	x19, 48000 <_Znam@GLIBCXX_3.4>
    51f0:	911aa273 	add	x19, x19, #0x6a8
    51f4:	aa1303e0 	mov	x0, x19
    51f8:	97fffe96 	bl	4c50 <_ZNSt8ios_base4InitC1Ev@plt>
    51fc:	aa1303e1 	mov	x1, x19
    5200:	d0000200 	adrp	x0, 47000 <GCC_except_table137+0x112f4>
    5204:	f9400bf3 	ldr	x19, [sp, #16]
    5208:	f0000202 	adrp	x2, 48000 <_Znam@GLIBCXX_3.4>
    520c:	a8c27bfd 	ldp	x29, x30, [sp], #32
    5210:	910ae042 	add	x2, x2, #0x2b8
    5214:	f947f000 	ldr	x0, [x0, #4064]
    5218:	17fffe52 	b	4b60 <__cxa_atexit@plt>
    521c:	d503201f 	nop

0000000000005220 <_GLOBAL__sub_I_structurally_valid.cc>:
    5220:	a9be7bfd 	stp	x29, x30, [sp, #-32]!
    5224:	910003fd 	mov	x29, sp
    5228:	a90153f3 	stp	x19, x20, [sp, #16]
    522c:	f0000214 	adrp	x20, 48000 <_Znam@GLIBCXX_3.4>
    5230:	911ac293 	add	x19, x20, #0x6b0
    5234:	91002273 	add	x19, x19, #0x8
    5238:	aa1303e0 	mov	x0, x19
    523c:	97fffe85 	bl	4c50 <_ZNSt8ios_base4InitC1Ev@plt>
    5240:	d0000200 	adrp	x0, 47000 <GCC_except_table137+0x112f4>
    5244:	aa1303e1 	mov	x1, x19
    5248:	f0000202 	adrp	x2, 48000 <_Znam@GLIBCXX_3.4>
    524c:	910ae042 	add	x2, x2, #0x2b8
    5250:	f947f000 	ldr	x0, [x0, #4064]
    5254:	97fffe43 	bl	4b60 <__cxa_atexit@plt>
    5258:	52800020 	mov	w0, #0x1                   	// #1
    525c:	391ac280 	strb	w0, [x20, #1712]
    5260:	a94153f3 	ldp	x19, x20, [sp, #16]
    5264:	a8c27bfd 	ldp	x29, x30, [sp], #32
    5268:	d65f03c0 	ret
    526c:	d503201f 	nop

0000000000005270 <_GLOBAL__sub_I_zero_copy_stream.cc>:
    5270:	a9be7bfd 	stp	x29, x30, [sp, #-32]!
    5274:	910003fd 	mov	x29, sp
    5278:	f9000bf3 	str	x19, [sp, #16]
    527c:	f0000213 	adrp	x19, 48000 <_Znam@GLIBCXX_3.4>
    5280:	911b0273 	add	x19, x19, #0x6c0
    5284:	aa1303e0 	mov	x0, x19
    5288:	97fffe72 	bl	4c50 <_ZNSt8ios_base4InitC1Ev@plt>
    528c:	aa1303e1 	mov	x1, x19
    5290:	d0000200 	adrp	x0, 47000 <GCC_except_table137+0x112f4>
    5294:	f9400bf3 	ldr	x19, [sp, #16]
    5298:	f0000202 	adrp	x2, 48000 <_Znam@GLIBCXX_3.4>
    529c:	a8c27bfd 	ldp	x29, x30, [sp], #32
    52a0:	910ae042 	add	x2, x2, #0x2b8
    52a4:	f947f000 	ldr	x0, [x0, #4064]
    52a8:	17fffe2e 	b	4b60 <__cxa_atexit@plt>
    52ac:	d503201f 	nop
    52b0:	d503201f 	nop
    52b4:	d503201f 	nop
    52b8:	d503201f 	nop
    52bc:	d503201f 	nop

00000000000052c0 <_start>:
    52c0:	d503201f 	nop
    52c4:	d280001d 	mov	x29, #0x0                   	// #0
    52c8:	d280001e 	mov	x30, #0x0                   	// #0
    52cc:	aa0003e5 	mov	x5, x0
    52d0:	f94003e1 	ldr	x1, [sp]
    52d4:	910023e2 	add	x2, sp, #0x8
    52d8:	910003e6 	mov	x6, sp
    52dc:	d0000200 	adrp	x0, 47000 <GCC_except_table137+0x112f4>
    52e0:	f946c000 	ldr	x0, [x0, #3456]
    52e4:	d2800003 	mov	x3, #0x0                   	// #0
    52e8:	d2800004 	mov	x4, #0x0                   	// #0
    52ec:	97fffded 	bl	4aa0 <__libc_start_main@plt>
    52f0:	97fffe64 	bl	4c80 <abort@plt>

00000000000052f4 <call_weak_fn>:
    52f4:	d0000200 	adrp	x0, 47000 <GCC_except_table137+0x112f4>
    52f8:	f947d400 	ldr	x0, [x0, #4008]
    52fc:	b4000040 	cbz	x0, 5304 <call_weak_fn+0x10>
    5300:	17fffe9c 	b	4d70 <__gmon_start__@plt>
    5304:	d65f03c0 	ret
    5308:	d503201f 	nop
    530c:	d503201f 	nop

0000000000005310 <deregister_tm_clones>:
    5310:	f0000200 	adrp	x0, 48000 <_Znam@GLIBCXX_3.4>
    5314:	910b8000 	add	x0, x0, #0x2e0
    5318:	f0000201 	adrp	x1, 48000 <_Znam@GLIBCXX_3.4>
    531c:	910b8021 	add	x1, x1, #0x2e0
    5320:	eb00003f 	cmp	x1, x0
    5324:	540000c0 	b.eq	533c <deregister_tm_clones+0x2c>  // b.none
    5328:	d0000201 	adrp	x1, 47000 <GCC_except_table137+0x112f4>
    532c:	f947b021 	ldr	x1, [x1, #3936]
    5330:	b4000061 	cbz	x1, 533c <deregister_tm_clones+0x2c>
    5334:	aa0103f0 	mov	x16, x1
    5338:	d61f0200 	br	x16
    533c:	d65f03c0 	ret

0000000000005340 <register_tm_clones>:
    5340:	f0000200 	adrp	x0, 48000 <_Znam@GLIBCXX_3.4>
    5344:	910b8000 	add	x0, x0, #0x2e0
    5348:	f0000201 	adrp	x1, 48000 <_Znam@GLIBCXX_3.4>
    534c:	910b8021 	add	x1, x1, #0x2e0
    5350:	cb000021 	sub	x1, x1, x0
    5354:	d37ffc22 	lsr	x2, x1, #63
    5358:	8b810c41 	add	x1, x2, x1, asr #3
    535c:	9341fc21 	asr	x1, x1, #1
    5360:	b40000c1 	cbz	x1, 5378 <register_tm_clones+0x38>
    5364:	d0000202 	adrp	x2, 47000 <GCC_except_table137+0x112f4>
    5368:	f947dc42 	ldr	x2, [x2, #4024]
    536c:	b4000062 	cbz	x2, 5378 <register_tm_clones+0x38>
    5370:	aa0203f0 	mov	x16, x2
    5374:	d61f0200 	br	x16
    5378:	d65f03c0 	ret
    537c:	d503201f 	nop

0000000000005380 <__do_global_dtors_aux>:
    5380:	a9be7bfd 	stp	x29, x30, [sp, #-32]!
    5384:	910003fd 	mov	x29, sp
    5388:	f9000bf3 	str	x19, [sp, #16]
    538c:	f0000213 	adrp	x19, 48000 <_Znam@GLIBCXX_3.4>
    5390:	394b8260 	ldrb	w0, [x19, #736]
    5394:	35000140 	cbnz	w0, 53bc <__do_global_dtors_aux+0x3c>
    5398:	d0000200 	adrp	x0, 47000 <GCC_except_table137+0x112f4>
    539c:	f946f000 	ldr	x0, [x0, #3552]
    53a0:	b4000080 	cbz	x0, 53b0 <__do_global_dtors_aux+0x30>
    53a4:	f0000200 	adrp	x0, 48000 <_Znam@GLIBCXX_3.4>
    53a8:	f9415c00 	ldr	x0, [x0, #696]
    53ac:	97fffd89 	bl	49d0 <__cxa_finalize@plt>
    53b0:	97ffffd8 	bl	5310 <deregister_tm_clones>
    53b4:	52800020 	mov	w0, #0x1                   	// #1
    53b8:	390b8260 	strb	w0, [x19, #736]
    53bc:	f9400bf3 	ldr	x19, [sp, #16]
    53c0:	a8c27bfd 	ldp	x29, x30, [sp], #32
    53c4:	d65f03c0 	ret
    53c8:	d503201f 	nop
    53cc:	d503201f 	nop

00000000000053d0 <frame_dummy>:
    53d0:	17ffffdc 	b	5340 <register_tm_clones>

00000000000053d4 <main>:
    53d4:	a9ba7bfd 	stp	x29, x30, [sp, #-96]!
    53d8:	a9016ffc 	stp	x28, x27, [sp, #16]
    53dc:	a90267fa 	stp	x26, x25, [sp, #32]
    53e0:	a9035ff8 	stp	x24, x23, [sp, #48]
    53e4:	a90457f6 	stp	x22, x21, [sp, #64]
    53e8:	a9054ff4 	stp	x20, x19, [sp, #80]
    53ec:	910003fd 	mov	x29, sp
    53f0:	d11283ff 	sub	sp, sp, #0x4a0
    53f4:	529b4908 	mov	w8, #0xda48                	// #55880
    53f8:	aa0103f3 	mov	x19, x1
    53fc:	72a005a8 	movk	w8, #0x2d, lsl #16
    5400:	529b4901 	mov	w1, #0xda48                	// #55880
    5404:	2a0003f4 	mov	w20, w0
    5408:	32000100 	orr	w0, w8, #0x1
    540c:	b0000122 	adrp	x2, 2a000 <_ZN6google8protobuf2io18StringOutputStreamD1Ev>
    5410:	91355042 	add	x2, x2, #0xd54
    5414:	72a005a1 	movk	w1, #0x2d, lsl #16
    5418:	94002337 	bl	e0f4 <_ZN6google8protobuf8internal13VerifyVersionEiiPKc>
    541c:	7100069f 	cmp	w20, #0x1
    5420:	a93e7fbf 	stp	xzr, xzr, [x29, #-32]
    5424:	f81f03bf 	stur	xzr, [x29, #-16]
    5428:	54000c6d 	b.le	55b4 <main+0x1e0>
    542c:	910943e8 	add	x8, sp, #0x250
    5430:	2a1403e9 	mov	w9, w20
    5434:	2a1f03f6 	mov	w22, wzr
    5438:	91004117 	add	x23, x8, #0x10
    543c:	91002278 	add	x24, x19, #0x8
    5440:	d1000539 	sub	x25, x9, #0x1
    5444:	b0000133 	adrp	x19, 2a000 <_ZN6google8protobuf2io18StringOutputStreamD1Ev>
    5448:	9135c673 	add	x19, x19, #0xd71
    544c:	14000005 	b	5460 <main+0x8c>
    5450:	52800036 	mov	w22, #0x1                   	// #1
    5454:	91002318 	add	x24, x24, #0x8
    5458:	f1000739 	subs	x25, x25, #0x1
    545c:	540007c0 	b.eq	5554 <main+0x180>  // b.none
    5460:	f9400314 	ldr	x20, [x24]
    5464:	aa1303e1 	mov	x1, x19
    5468:	aa1403e0 	mov	x0, x20
    546c:	97fffdf1 	bl	4c30 <strcmp@plt>
    5470:	34ffff00 	cbz	w0, 5450 <main+0x7c>
    5474:	f9012bf7 	str	x23, [sp, #592]
    5478:	b4006714 	cbz	x20, 6158 <main+0xd84>
    547c:	aa1403e0 	mov	x0, x20
    5480:	97fffd18 	bl	48e0 <strlen@plt>
    5484:	aa0003f5 	mov	x21, x0
    5488:	aa1703e0 	mov	x0, x23
    548c:	f10042bf 	cmp	x21, #0x10
    5490:	f90023f5 	str	x21, [sp, #64]
    5494:	54000103 	b.cc	54b4 <main+0xe0>  // b.lo, b.ul, b.last
    5498:	910943e0 	add	x0, sp, #0x250
    549c:	910103e1 	add	x1, sp, #0x40
    54a0:	aa1f03e2 	mov	x2, xzr
    54a4:	97fffe23 	bl	4d30 <_ZNSt7__cxx1112basic_stringIcSt11char_traitsIcESaIcEE9_M_createERmm@plt>
    54a8:	f94023e8 	ldr	x8, [sp, #64]
    54ac:	f9012be0 	str	x0, [sp, #592]
    54b0:	f90133e8 	str	x8, [sp, #608]
    54b4:	b4000135 	cbz	x21, 54d8 <main+0x104>
    54b8:	f10006bf 	cmp	x21, #0x1
    54bc:	54000081 	b.ne	54cc <main+0xf8>  // b.any
    54c0:	39400288 	ldrb	w8, [x20]
    54c4:	39000008 	strb	w8, [x0]
    54c8:	14000004 	b	54d8 <main+0x104>
    54cc:	aa1403e1 	mov	x1, x20
    54d0:	aa1503e2 	mov	x2, x21
    54d4:	97fffcdf 	bl	4850 <memcpy@plt>
    54d8:	f94023e8 	ldr	x8, [sp, #64]
    54dc:	f9412be9 	ldr	x9, [sp, #592]
    54e0:	f9012fe8 	str	x8, [sp, #600]
    54e4:	3828693f 	strb	wzr, [x9, x8]
    54e8:	a97ea3a1 	ldp	x1, x8, [x29, #-24]
    54ec:	eb08003f 	cmp	x1, x8
    54f0:	54000140 	b.eq	5518 <main+0x144>  // b.none
    54f4:	91004028 	add	x8, x1, #0x10
    54f8:	f9000028 	str	x8, [x1]
    54fc:	f9412be9 	ldr	x9, [sp, #592]
    5500:	eb17013f 	cmp	x9, x23
    5504:	540001a0 	b.eq	5538 <main+0x164>  // b.none
    5508:	f9000029 	str	x9, [x1]
    550c:	f94133e8 	ldr	x8, [sp, #608]
    5510:	f9000828 	str	x8, [x1, #16]
    5514:	1400000b 	b	5540 <main+0x16c>
    5518:	d10083a0 	sub	x0, x29, #0x20
    551c:	910943e2 	add	x2, sp, #0x250
    5520:	94000494 	bl	6770 <_ZNSt6vectorINSt7__cxx1112basic_stringIcSt11char_traitsIcESaIcEEESaIS5_EE17_M_realloc_insertIJS5_EEEvN9__gnu_cxx17__normal_iteratorIPS5_S7_EEDpOT_>
    5524:	f9412be0 	ldr	x0, [sp, #592]
    5528:	eb17001f 	cmp	x0, x23
    552c:	54fff940 	b.eq	5454 <main+0x80>  // b.none
    5530:	97fffd74 	bl	4b00 <_ZdlPv@plt>
    5534:	17ffffc8 	b	5454 <main+0x80>
    5538:	3dc002e0 	ldr	q0, [x23]
    553c:	3d800100 	str	q0, [x8]
    5540:	f9412fe8 	ldr	x8, [sp, #600]
    5544:	91008029 	add	x9, x1, #0x20
    5548:	f9000428 	str	x8, [x1, #8]
    554c:	f81e83a9 	stur	x9, [x29, #-24]
    5550:	17ffffc1 	b	5454 <main+0x80>
    5554:	a97e27a8 	ldp	x8, x9, [x29, #-32]
    5558:	eb09011f 	cmp	x8, x9
    555c:	540002c0 	b.eq	55b4 <main+0x1e0>  // b.none
    5560:	d10103a9 	sub	x9, x29, #0x40
    5564:	91004120 	add	x0, x9, #0x10
    5568:	f81c03a0 	stur	x0, [x29, #-64]
    556c:	a9404d14 	ldp	x20, x19, [x8]
    5570:	f9000be0 	str	x0, [sp, #16]
    5574:	f100427f 	cmp	x19, #0x10
    5578:	f9012bf3 	str	x19, [sp, #592]
    557c:	54000103 	b.cc	559c <main+0x1c8>  // b.lo, b.ul, b.last
    5580:	d10103a0 	sub	x0, x29, #0x40
    5584:	910943e1 	add	x1, sp, #0x250
    5588:	aa1f03e2 	mov	x2, xzr
    558c:	97fffde9 	bl	4d30 <_ZNSt7__cxx1112basic_stringIcSt11char_traitsIcESaIcEE9_M_createERmm@plt>
    5590:	f9412be8 	ldr	x8, [sp, #592]
    5594:	f81c03a0 	stur	x0, [x29, #-64]
    5598:	f81d03a8 	stur	x8, [x29, #-48]
    559c:	b40003f3 	cbz	x19, 5618 <main+0x244>
    55a0:	f100067f 	cmp	x19, #0x1
    55a4:	54000341 	b.ne	560c <main+0x238>  // b.any
    55a8:	39400288 	ldrb	w8, [x20]
    55ac:	39000008 	strb	w8, [x0]
    55b0:	1400001a 	b	5618 <main+0x244>
    55b4:	d0000200 	adrp	x0, 47000 <GCC_except_table137+0x112f4>
    55b8:	b0000121 	adrp	x1, 2a000 <_ZN6google8protobuf2io18StringOutputStreamD1Ev>
    55bc:	9135ec21 	add	x1, x1, #0xd7b
    55c0:	52800b62 	mov	w2, #0x5b                  	// #91
    55c4:	f946a800 	ldr	x0, [x0, #3408]
    55c8:	97fffd6a 	bl	4b70 <_ZSt16__ostream_insertIcSt11char_traitsIcEERSt13basic_ostreamIT_T0_ES6_PKS3_l@plt>
    55cc:	12800013 	mov	w19, #0xffffffff            	// #-1
    55d0:	a97e57b4 	ldp	x20, x21, [x29, #-32]
    55d4:	eb15029f 	cmp	x20, x21
    55d8:	54005721 	b.ne	60bc <main+0xce8>  // b.any
    55dc:	b4000074 	cbz	x20, 55e8 <main+0x214>
    55e0:	aa1403e0 	mov	x0, x20
    55e4:	97fffd47 	bl	4b00 <_ZdlPv@plt>
    55e8:	2a1303e0 	mov	w0, w19
    55ec:	911283ff 	add	sp, sp, #0x4a0
    55f0:	a9454ff4 	ldp	x20, x19, [sp, #80]
    55f4:	a94457f6 	ldp	x22, x21, [sp, #64]
    55f8:	a9435ff8 	ldp	x24, x23, [sp, #48]
    55fc:	a94267fa 	ldp	x26, x25, [sp, #32]
    5600:	a9416ffc 	ldp	x28, x27, [sp, #16]
    5604:	a8c67bfd 	ldp	x29, x30, [sp], #96
    5608:	d65f03c0 	ret
    560c:	aa1403e1 	mov	x1, x20
    5610:	aa1303e2 	mov	x2, x19
    5614:	97fffc8f 	bl	4850 <memcpy@plt>
    5618:	f9412be8 	ldr	x8, [sp, #592]
    561c:	f85c03a9 	ldur	x9, [x29, #-64]
    5620:	f81c83a8 	stur	x8, [x29, #-56]
    5624:	3828693f 	strb	wzr, [x9, x8]
    5628:	f85c03a1 	ldur	x1, [x29, #-64]
    562c:	910943e0 	add	x0, sp, #0x250
    5630:	52800182 	mov	w2, #0xc                   	// #12
    5634:	910943f3 	add	x19, sp, #0x250
    5638:	97fffdc2 	bl	4d40 <_ZNSt14basic_ifstreamIcSt11char_traitsIcEEC1EPKcSt13_Ios_Openmode@plt>
    563c:	91020260 	add	x0, x19, #0x80
    5640:	97fffc90 	bl	4880 <_ZNKSt12__basic_fileIcE7is_openEv@plt>
    5644:	36005900 	tbz	w0, #0, 6164 <main+0xd90>
    5648:	9108c3e8 	add	x8, sp, #0x230
    564c:	910943e9 	add	x9, sp, #0x250
    5650:	91004108 	add	x8, x8, #0x10
    5654:	91004133 	add	x19, x9, #0x10
    5658:	f90007e8 	str	x8, [sp, #8]
    565c:	f9011be8 	str	x8, [sp, #560]
    5660:	9108c3e0 	add	x0, sp, #0x230
    5664:	aa1303e1 	mov	x1, x19
    5668:	12800002 	mov	w2, #0xffffffff            	// #-1
    566c:	aa1f03e3 	mov	x3, xzr
    5670:	12800004 	mov	w4, #0xffffffff            	// #-1
    5674:	940004b6 	bl	694c <_ZNSt7__cxx1112basic_stringIcSt11char_traitsIcESaIcEE12_M_constructISt19istreambuf_iteratorIcS2_EEEvT_S8_St18input_iterator_tag>
    5678:	aa1303e0 	mov	x0, x19
    567c:	97fffc7d 	bl	4870 <_ZNSt13basic_filebufIcSt11char_traitsIcEE5closeEv@plt>
    5680:	b5000100 	cbnz	x0, 56a0 <main+0x2cc>
    5684:	f9412be8 	ldr	x8, [sp, #592]
    5688:	910943e9 	add	x9, sp, #0x250
    568c:	f85e8108 	ldur	x8, [x8, #-24]
    5690:	8b080120 	add	x0, x9, x8
    5694:	b9402008 	ldr	w8, [x0, #32]
    5698:	321e0101 	orr	w1, w8, #0x4
    569c:	97fffd95 	bl	4cf0 <_ZNSt9basic_iosIcSt11char_traitsIcEE5clearESt12_Ios_Iostate@plt>
    56a0:	910723e0 	add	x0, sp, #0x1c8
    56a4:	940015bb 	bl	ad90 <_ZN11vector_tile4TileC1Ev>
    56a8:	f9411fe8 	ldr	x8, [sp, #568]
    56ac:	f1000d1f 	cmp	x8, #0x3
    56b0:	540006e3 	b.cc	578c <main+0x3b8>  // b.lo, b.ul, b.last
    56b4:	f9411be8 	ldr	x8, [sp, #560]
    56b8:	39400109 	ldrb	w9, [x8]
    56bc:	71007d3f 	cmp	w9, #0x1f
    56c0:	540001a0 	b.eq	56f4 <main+0x320>  // b.none
    56c4:	7101e13f 	cmp	w9, #0x78
    56c8:	54000621 	b.ne	578c <main+0x3b8>  // b.any
    56cc:	39400509 	ldrb	w9, [x8, #1]
    56d0:	b0000128 	adrp	x8, 2a000 <_ZN6google8protobuf2io18StringOutputStreamD1Ev>
    56d4:	9137a508 	add	x8, x8, #0xde9
    56d8:	71026d3f 	cmp	w9, #0x9b
    56dc:	5400018c 	b.gt	570c <main+0x338>
    56e0:	7100053f 	cmp	w9, #0x1
    56e4:	540001c0 	b.eq	571c <main+0x348>  // b.none
    56e8:	7101793f 	cmp	w9, #0x5e
    56ec:	54000180 	b.eq	571c <main+0x348>  // b.none
    56f0:	14000027 	b	578c <main+0x3b8>
    56f4:	39400508 	ldrb	w8, [x8, #1]
    56f8:	71022d1f 	cmp	w8, #0x8b
    56fc:	54000481 	b.ne	578c <main+0x3b8>  // b.any
    5700:	b0000128 	adrp	x8, 2a000 <_ZN6google8protobuf2io18StringOutputStreamD1Ev>
    5704:	91380d08 	add	x8, x8, #0xe03
    5708:	14000005 	b	571c <main+0x348>
    570c:	7102713f 	cmp	w9, #0x9c
    5710:	54000060 	b.eq	571c <main+0x348>  // b.none
    5714:	7103693f 	cmp	w9, #0xda
    5718:	540003a1 	b.ne	578c <main+0x3b8>  // b.any
    571c:	d0000200 	adrp	x0, 47000 <GCC_except_table137+0x112f4>
    5720:	aa0803e1 	mov	x1, x8
    5724:	52800322 	mov	w2, #0x19                  	// #25
    5728:	f9475800 	ldr	x0, [x0, #3760]
    572c:	97fffd11 	bl	4b70 <_ZSt16__ostream_insertIcSt11char_traitsIcEERSt13basic_ostreamIT_T0_ES6_PKS3_l@plt>
    5730:	910103e8 	add	x8, sp, #0x40
    5734:	f9411be0 	ldr	x0, [sp, #560]
    5738:	91004115 	add	x21, x8, #0x10
    573c:	f9411fe1 	ldr	x1, [sp, #568]
    5740:	390143ff 	strb	wzr, [sp, #80]
    5744:	a9047ff5 	stp	x21, xzr, [sp, #64]
    5748:	910103e2 	add	x2, sp, #0x40
    574c:	940003b4 	bl	661c <_ZN6mapnik16vector_tile_impl15zlib_decompressEPKcmRNSt7__cxx1112basic_stringIcSt11char_traitsIcESaIcEEE>
    5750:	910723e0 	add	x0, sp, #0x1c8
    5754:	910103e1 	add	x1, sp, #0x40
    5758:	9400775a 	bl	234c0 <_ZN6google8protobuf11MessageLite15ParseFromStringERKNSt7__cxx1112basic_stringIcSt11char_traitsIcESaIcEEE>
    575c:	370000e0 	tbnz	w0, #0, 5778 <main+0x3a4>
    5760:	d0000200 	adrp	x0, 47000 <GCC_except_table137+0x112f4>
    5764:	b0000121 	adrp	x1, 2a000 <_ZN6google8protobuf2io18StringOutputStreamD1Ev>
    5768:	91387421 	add	x1, x1, #0xe1d
    576c:	52800482 	mov	w2, #0x24                  	// #36
    5770:	f946a800 	ldr	x0, [x0, #3408]
    5774:	97fffcff 	bl	4b70 <_ZSt16__ostream_insertIcSt11char_traitsIcEERSt13basic_ostreamIT_T0_ES6_PKS3_l@plt>
    5778:	f94023e0 	ldr	x0, [sp, #64]
    577c:	eb15001f 	cmp	x0, x21
    5780:	54000260 	b.eq	57cc <main+0x3f8>  // b.none
    5784:	97fffcdf 	bl	4b00 <_ZdlPv@plt>
    5788:	14000011 	b	57cc <main+0x3f8>
    578c:	d0000200 	adrp	x0, 47000 <GCC_except_table137+0x112f4>
    5790:	b0000121 	adrp	x1, 2a000 <_ZN6google8protobuf2io18StringOutputStreamD1Ev>
    5794:	91390821 	add	x1, x1, #0xe42
    5798:	528004c2 	mov	w2, #0x26                  	// #38
    579c:	f9475800 	ldr	x0, [x0, #3760]
    57a0:	97fffcf4 	bl	4b70 <_ZSt16__ostream_insertIcSt11char_traitsIcEERSt13basic_ostreamIT_T0_ES6_PKS3_l@plt>
    57a4:	910723e0 	add	x0, sp, #0x1c8
    57a8:	9108c3e1 	add	x1, sp, #0x230
    57ac:	94007745 	bl	234c0 <_ZN6google8protobuf11MessageLite15ParseFromStringERKNSt7__cxx1112basic_stringIcSt11char_traitsIcESaIcEEE>
    57b0:	370000e0 	tbnz	w0, #0, 57cc <main+0x3f8>
    57b4:	d0000200 	adrp	x0, 47000 <GCC_except_table137+0x112f4>
    57b8:	b0000121 	adrp	x1, 2a000 <_ZN6google8protobuf2io18StringOutputStreamD1Ev>
    57bc:	9139a421 	add	x1, x1, #0xe69
    57c0:	52800322 	mov	w2, #0x19                  	// #25
    57c4:	f946a800 	ldr	x0, [x0, #3408]
    57c8:	97fffcea 	bl	4b70 <_ZSt16__ostream_insertIcSt11char_traitsIcEERSt13basic_ostreamIT_T0_ES6_PKS3_l@plt>
    57cc:	f90003f3 	str	x19, [sp]
    57d0:	36002356 	tbz	w22, #0, 5c38 <main+0x864>
    57d4:	b94223e8 	ldr	w8, [sp, #544]
    57d8:	34004268 	cbz	w8, 6024 <main+0xc50>
    57dc:	d0000213 	adrp	x19, 47000 <GCC_except_table137+0x112f4>
    57e0:	aa1f03e9 	mov	x9, xzr
    57e4:	d2c00038 	mov	x24, #0x100000000           	// #4294967296
    57e8:	b0000135 	adrp	x21, 2a000 <_ZN6google8protobuf2io18StringOutputStreamD1Ev>
    57ec:	913e42b5 	add	x21, x21, #0xf90
    57f0:	b0000134 	adrp	x20, 2a000 <_ZN6google8protobuf2io18StringOutputStreamD1Ev>
    57f4:	913d9e94 	add	x20, x20, #0xf67
    57f8:	f9475a73 	ldr	x19, [x19, #3760]
    57fc:	f94117e8 	ldr	x8, [sp, #552]
    5800:	f9000fe9 	str	x9, [sp, #24]
    5804:	d3607d29 	lsl	x9, x9, #32
    5808:	8b897508 	add	x8, x8, x9, asr #29
    580c:	f9400516 	ldr	x22, [x8, #8]
    5810:	aa1303e0 	mov	x0, x19
    5814:	b0000121 	adrp	x1, 2a000 <_ZN6google8protobuf2io18StringOutputStreamD1Ev>
    5818:	913d7c21 	add	x1, x1, #0xf5f
    581c:	528000e2 	mov	w2, #0x7                   	// #7
    5820:	97fffcd4 	bl	4b70 <_ZSt16__ostream_insertIcSt11char_traitsIcEERSt13basic_ostreamIT_T0_ES6_PKS3_l@plt>
    5824:	f9404ec8 	ldr	x8, [x22, #152]
    5828:	a9400901 	ldp	x1, x2, [x8]
    582c:	aa1303e0 	mov	x0, x19
    5830:	97fffcd0 	bl	4b70 <_ZSt16__ostream_insertIcSt11char_traitsIcEERSt13basic_ostreamIT_T0_ES6_PKS3_l@plt>
    5834:	aa1503e1 	mov	x1, x21
    5838:	52800022 	mov	w2, #0x1                   	// #1
    583c:	97fffccd 	bl	4b70 <_ZSt16__ostream_insertIcSt11char_traitsIcEERSt13basic_ostreamIT_T0_ES6_PKS3_l@plt>
    5840:	aa1303e0 	mov	x0, x19
    5844:	b0000121 	adrp	x1, 2a000 <_ZN6google8protobuf2io18StringOutputStreamD1Ev>
    5848:	913a3021 	add	x1, x1, #0xe8c
    584c:	52800162 	mov	w2, #0xb                   	// #11
    5850:	97fffcc8 	bl	4b70 <_ZSt16__ostream_insertIcSt11char_traitsIcEERSt13basic_ostreamIT_T0_ES6_PKS3_l@plt>
    5854:	b940a6c1 	ldr	w1, [x22, #164]
    5858:	aa1303e0 	mov	x0, x19
    585c:	97fffc71 	bl	4a20 <_ZNSo9_M_insertImEERSoT_@plt>
    5860:	aa1503e1 	mov	x1, x21
    5864:	52800022 	mov	w2, #0x1                   	// #1
    5868:	97fffcc2 	bl	4b70 <_ZSt16__ostream_insertIcSt11char_traitsIcEERSt13basic_ostreamIT_T0_ES6_PKS3_l@plt>
    586c:	aa1303e0 	mov	x0, x19
    5870:	b0000121 	adrp	x1, 2a000 <_ZN6google8protobuf2io18StringOutputStreamD1Ev>
    5874:	913a6021 	add	x1, x1, #0xe98
    5878:	52800142 	mov	w2, #0xa                   	// #10
    587c:	97fffcbd 	bl	4b70 <_ZSt16__ostream_insertIcSt11char_traitsIcEERSt13basic_ostreamIT_T0_ES6_PKS3_l@plt>
    5880:	b940a2c1 	ldr	w1, [x22, #160]
    5884:	aa1303e0 	mov	x0, x19
    5888:	97fffc66 	bl	4a20 <_ZNSo9_M_insertImEERSoT_@plt>
    588c:	aa1503e1 	mov	x1, x21
    5890:	52800022 	mov	w2, #0x1                   	// #1
    5894:	97fffcb7 	bl	4b70 <_ZSt16__ostream_insertIcSt11char_traitsIcEERSt13basic_ostreamIT_T0_ES6_PKS3_l@plt>
    5898:	aa1303e0 	mov	x0, x19
    589c:	b0000121 	adrp	x1, 2a000 <_ZN6google8protobuf2io18StringOutputStreamD1Ev>
    58a0:	913ac021 	add	x1, x1, #0xeb0
    58a4:	52800102 	mov	w2, #0x8                   	// #8
    58a8:	97fffcb2 	bl	4b70 <_ZSt16__ostream_insertIcSt11char_traitsIcEERSt13basic_ostreamIT_T0_ES6_PKS3_l@plt>
    58ac:	b94072c8 	ldr	w8, [x22, #112]
    58b0:	34000308 	cbz	w8, 5910 <main+0x53c>
    58b4:	aa1f03f7 	mov	x23, xzr
    58b8:	aa1f03f9 	mov	x25, xzr
    58bc:	14000006 	b	58d4 <main+0x500>
    58c0:	b98072c8 	ldrsw	x8, [x22, #112]
    58c4:	91000739 	add	x25, x25, #0x1
    58c8:	8b1802f7 	add	x23, x23, x24
    58cc:	eb08033f 	cmp	x25, x8
    58d0:	54000202 	b.cs	5910 <main+0x53c>  // b.hs, b.nlast
    58d4:	f9403ec8 	ldr	x8, [x22, #120]
    58d8:	8b977508 	add	x8, x8, x23, asr #29
    58dc:	f9400508 	ldr	x8, [x8, #8]
    58e0:	a9400901 	ldp	x1, x2, [x8]
    58e4:	aa1303e0 	mov	x0, x19
    58e8:	97fffca2 	bl	4b70 <_ZSt16__ostream_insertIcSt11char_traitsIcEERSt13basic_ostreamIT_T0_ES6_PKS3_l@plt>
    58ec:	b98072c8 	ldrsw	x8, [x22, #112]
    58f0:	d1000509 	sub	x9, x8, #0x1
    58f4:	eb09033f 	cmp	x25, x9
    58f8:	54fffe62 	b.cs	58c4 <main+0x4f0>  // b.hs, b.nlast
    58fc:	aa1303e0 	mov	x0, x19
    5900:	aa1403e1 	mov	x1, x20
    5904:	52800022 	mov	w2, #0x1                   	// #1
    5908:	97fffc9a 	bl	4b70 <_ZSt16__ostream_insertIcSt11char_traitsIcEERSt13basic_ostreamIT_T0_ES6_PKS3_l@plt>
    590c:	17ffffed 	b	58c0 <main+0x4ec>
    5910:	aa1303e0 	mov	x0, x19
    5914:	aa1503e1 	mov	x1, x21
    5918:	52800022 	mov	w2, #0x1                   	// #1
    591c:	97fffc95 	bl	4b70 <_ZSt16__ostream_insertIcSt11char_traitsIcEERSt13basic_ostreamIT_T0_ES6_PKS3_l@plt>
    5920:	aa1303e0 	mov	x0, x19
    5924:	b0000121 	adrp	x1, 2a000 <_ZN6google8protobuf2io18StringOutputStreamD1Ev>
    5928:	913ae421 	add	x1, x1, #0xeb9
    592c:	52800142 	mov	w2, #0xa                   	// #10
    5930:	97fffc90 	bl	4b70 <_ZSt16__ostream_insertIcSt11char_traitsIcEERSt13basic_ostreamIT_T0_ES6_PKS3_l@plt>
    5934:	b9408ac8 	ldr	w8, [x22, #136]
    5938:	340007a8 	cbz	w8, 5a2c <main+0x658>
    593c:	aa1f03f7 	mov	x23, xzr
    5940:	aa1f03f9 	mov	x25, xzr
    5944:	14000006 	b	595c <main+0x588>
    5948:	b9808ac8 	ldrsw	x8, [x22, #136]
    594c:	91000739 	add	x25, x25, #0x1
    5950:	8b1802f7 	add	x23, x23, x24
    5954:	eb08033f 	cmp	x25, x8
    5958:	540006a2 	b.cs	5a2c <main+0x658>  // b.hs, b.nlast
    595c:	f9404ac8 	ldr	x8, [x22, #144]
    5960:	8b977508 	add	x8, x8, x23, asr #29
    5964:	f9400508 	ldr	x8, [x8, #8]
    5968:	b9404909 	ldr	w9, [x8, #72]
    596c:	370001a9 	tbnz	w9, #0, 59a0 <main+0x5cc>
    5970:	37100229 	tbnz	w9, #2, 59b4 <main+0x5e0>
    5974:	370802a9 	tbnz	w9, #1, 59c8 <main+0x5f4>
    5978:	371802c9 	tbnz	w9, #3, 59d0 <main+0x5fc>
    597c:	37200449 	tbnz	w9, #4, 5a04 <main+0x630>
    5980:	373004a9 	tbnz	w9, #6, 5a14 <main+0x640>
    5984:	372804c9 	tbnz	w9, #5, 5a1c <main+0x648>
    5988:	aa1303e0 	mov	x0, x19
    598c:	b0000121 	adrp	x1, 2a000 <_ZN6google8protobuf2io18StringOutputStreamD1Ev>
    5990:	913da421 	add	x1, x1, #0xf69
    5994:	52800082 	mov	w2, #0x4                   	// #4
    5998:	97fffc76 	bl	4b70 <_ZSt16__ostream_insertIcSt11char_traitsIcEERSt13basic_ostreamIT_T0_ES6_PKS3_l@plt>
    599c:	14000011 	b	59e0 <main+0x60c>
    59a0:	f9402908 	ldr	x8, [x8, #80]
    59a4:	a9400901 	ldp	x1, x2, [x8]
    59a8:	aa1303e0 	mov	x0, x19
    59ac:	97fffc71 	bl	4b70 <_ZSt16__ostream_insertIcSt11char_traitsIcEERSt13basic_ostreamIT_T0_ES6_PKS3_l@plt>
    59b0:	1400000c 	b	59e0 <main+0x60c>
    59b4:	91018108 	add	x8, x8, #0x60
    59b8:	f9400101 	ldr	x1, [x8]
    59bc:	aa1303e0 	mov	x0, x19
    59c0:	97fffc54 	bl	4b10 <_ZNSo9_M_insertIlEERSoT_@plt>
    59c4:	14000007 	b	59e0 <main+0x60c>
    59c8:	fd402d00 	ldr	d0, [x8, #88]
    59cc:	14000003 	b	59d8 <main+0x604>
    59d0:	bd406900 	ldr	s0, [x8, #104]
    59d4:	1e22c000 	fcvt	d0, s0
    59d8:	aa1303e0 	mov	x0, x19
    59dc:	97fffcad 	bl	4c90 <_ZNSo9_M_insertIdEERSoT_@plt>
    59e0:	b9808ac8 	ldrsw	x8, [x22, #136]
    59e4:	d1000509 	sub	x9, x8, #0x1
    59e8:	eb09033f 	cmp	x25, x9
    59ec:	54fffb02 	b.cs	594c <main+0x578>  // b.hs, b.nlast
    59f0:	aa1303e0 	mov	x0, x19
    59f4:	aa1403e1 	mov	x1, x20
    59f8:	52800022 	mov	w2, #0x1                   	// #1
    59fc:	97fffc5d 	bl	4b70 <_ZSt16__ostream_insertIcSt11char_traitsIcEERSt13basic_ostreamIT_T0_ES6_PKS3_l@plt>
    5a00:	17ffffd2 	b	5948 <main+0x574>
    5a04:	3941b101 	ldrb	w1, [x8, #108]
    5a08:	aa1303e0 	mov	x0, x19
    5a0c:	97fffcb1 	bl	4cd0 <_ZNSo9_M_insertIbEERSoT_@plt>
    5a10:	17fffff4 	b	59e0 <main+0x60c>
    5a14:	9101e108 	add	x8, x8, #0x78
    5a18:	17ffffe8 	b	59b8 <main+0x5e4>
    5a1c:	f9403901 	ldr	x1, [x8, #112]
    5a20:	aa1303e0 	mov	x0, x19
    5a24:	97fffbff 	bl	4a20 <_ZNSo9_M_insertImEERSoT_@plt>
    5a28:	17ffffee 	b	59e0 <main+0x60c>
    5a2c:	aa1303e0 	mov	x0, x19
    5a30:	aa1503e1 	mov	x1, x21
    5a34:	52800022 	mov	w2, #0x1                   	// #1
    5a38:	97fffc4e 	bl	4b70 <_ZSt16__ostream_insertIcSt11char_traitsIcEERSt13basic_ostreamIT_T0_ES6_PKS3_l@plt>
    5a3c:	b9405ac8 	ldr	w8, [x22, #88]
    5a40:	34000e88 	cbz	w8, 5c10 <main+0x83c>
    5a44:	f9400fe8 	ldr	x8, [sp, #24]
    5a48:	aa1f03f7 	mov	x23, xzr
    5a4c:	93407d08 	sxtw	x8, w8
    5a50:	d37ef519 	lsl	x25, x8, #2
    5a54:	f94032c8 	ldr	x8, [x22, #96]
    5a58:	d3607ee9 	lsl	x9, x23, #32
    5a5c:	8b897508 	add	x8, x8, x9, asr #29
    5a60:	f940051a 	ldr	x26, [x8, #8]
    5a64:	39404348 	ldrb	w8, [x26, #16]
    5a68:	370800c8 	tbnz	w8, #1, 5a80 <main+0x6ac>
    5a6c:	aa1303e0 	mov	x0, x19
    5a70:	b0000121 	adrp	x1, 2a000 <_ZN6google8protobuf2io18StringOutputStreamD1Ev>
    5a74:	913de821 	add	x1, x1, #0xf7a
    5a78:	528002e2 	mov	w2, #0x17                  	// #23
    5a7c:	1400000b 	b	5aa8 <main+0x6d4>
    5a80:	aa1303e0 	mov	x0, x19
    5a84:	b0000121 	adrp	x1, 2a000 <_ZN6google8protobuf2io18StringOutputStreamD1Ev>
    5a88:	913db821 	add	x1, x1, #0xf6e
    5a8c:	52800162 	mov	w2, #0xb                   	// #11
    5a90:	97fffc38 	bl	4b70 <_ZSt16__ostream_insertIcSt11char_traitsIcEERSt13basic_ostreamIT_T0_ES6_PKS3_l@plt>
    5a94:	f9402b41 	ldr	x1, [x26, #80]
    5a98:	aa1303e0 	mov	x0, x19
    5a9c:	97fffbe1 	bl	4a20 <_ZNSo9_M_insertImEERSoT_@plt>
    5aa0:	aa1503e1 	mov	x1, x21
    5aa4:	52800022 	mov	w2, #0x1                   	// #1
    5aa8:	97fffc32 	bl	4b70 <_ZSt16__ostream_insertIcSt11char_traitsIcEERSt13basic_ostreamIT_T0_ES6_PKS3_l@plt>
    5aac:	aa1303e0 	mov	x0, x19
    5ab0:	b0000121 	adrp	x1, 2a000 <_ZN6google8protobuf2io18StringOutputStreamD1Ev>
    5ab4:	913e4821 	add	x1, x1, #0xf92
    5ab8:	52800142 	mov	w2, #0xa                   	// #10
    5abc:	97fffc2d 	bl	4b70 <_ZSt16__ostream_insertIcSt11char_traitsIcEERSt13basic_ostreamIT_T0_ES6_PKS3_l@plt>
    5ac0:	b9805b48 	ldrsw	x8, [x26, #88]
    5ac4:	7100111f 	cmp	w8, #0x4
    5ac8:	54000142 	b.cs	5af0 <main+0x71c>  // b.hs, b.nlast
    5acc:	d000012a 	adrp	x10, 2b000 <_IO_stdin_used+0x2b0>
    5ad0:	9101114a 	add	x10, x10, #0x44
    5ad4:	d000012b 	adrp	x11, 2b000 <_IO_stdin_used+0x2b0>
    5ad8:	9101616b 	add	x11, x11, #0x58
    5adc:	b8a87949 	ldrsw	x9, [x10, x8, lsl #2]
    5ae0:	f8687962 	ldr	x2, [x11, x8, lsl #3]
    5ae4:	8b090141 	add	x1, x10, x9
    5ae8:	aa1303e0 	mov	x0, x19
    5aec:	97fffc21 	bl	4b70 <_ZSt16__ostream_insertIcSt11char_traitsIcEERSt13basic_ostreamIT_T0_ES6_PKS3_l@plt>
    5af0:	aa1303e0 	mov	x0, x19
    5af4:	aa1503e1 	mov	x1, x21
    5af8:	52800022 	mov	w2, #0x1                   	// #1
    5afc:	97fffc1d 	bl	4b70 <_ZSt16__ostream_insertIcSt11char_traitsIcEERSt13basic_ostreamIT_T0_ES6_PKS3_l@plt>
    5b00:	aa1303e0 	mov	x0, x19
    5b04:	b0000121 	adrp	x1, 2a000 <_ZN6google8protobuf2io18StringOutputStreamD1Ev>
    5b08:	913ef821 	add	x1, x1, #0xfbe
    5b0c:	52800142 	mov	w2, #0xa                   	// #10
    5b10:	97fffc18 	bl	4b70 <_ZSt16__ostream_insertIcSt11char_traitsIcEERSt13basic_ostreamIT_T0_ES6_PKS3_l@plt>
    5b14:	b9401b48 	ldr	w8, [x26, #24]
    5b18:	340002a8 	cbz	w8, 5b6c <main+0x798>
    5b1c:	aa1f03fb 	mov	x27, xzr
    5b20:	14000005 	b	5b34 <main+0x760>
    5b24:	b9801b48 	ldrsw	x8, [x26, #24]
    5b28:	9100077b 	add	x27, x27, #0x1
    5b2c:	eb08037f 	cmp	x27, x8
    5b30:	540001e2 	b.cs	5b6c <main+0x798>  // b.hs, b.nlast
    5b34:	f9401348 	ldr	x8, [x26, #32]
    5b38:	8b190108 	add	x8, x8, x25
    5b3c:	b9400901 	ldr	w1, [x8, #8]
    5b40:	aa1303e0 	mov	x0, x19
    5b44:	97fffbb7 	bl	4a20 <_ZNSo9_M_insertImEERSoT_@plt>
    5b48:	b9801b48 	ldrsw	x8, [x26, #24]
    5b4c:	d1000509 	sub	x9, x8, #0x1
    5b50:	eb09037f 	cmp	x27, x9
    5b54:	54fffea2 	b.cs	5b28 <main+0x754>  // b.hs, b.nlast
    5b58:	aa1303e0 	mov	x0, x19
    5b5c:	aa1403e1 	mov	x1, x20
    5b60:	52800022 	mov	w2, #0x1                   	// #1
    5b64:	97fffc03 	bl	4b70 <_ZSt16__ostream_insertIcSt11char_traitsIcEERSt13basic_ostreamIT_T0_ES6_PKS3_l@plt>
    5b68:	17ffffef 	b	5b24 <main+0x750>
    5b6c:	aa1303e0 	mov	x0, x19
    5b70:	aa1503e1 	mov	x1, x21
    5b74:	52800022 	mov	w2, #0x1                   	// #1
    5b78:	97fffbfe 	bl	4b70 <_ZSt16__ostream_insertIcSt11char_traitsIcEERSt13basic_ostreamIT_T0_ES6_PKS3_l@plt>
    5b7c:	aa1303e0 	mov	x0, x19
    5b80:	b0000121 	adrp	x1, 2a000 <_ZN6google8protobuf2io18StringOutputStreamD1Ev>
    5b84:	913f2421 	add	x1, x1, #0xfc9
    5b88:	52800202 	mov	w2, #0x10                  	// #16
    5b8c:	97fffbf9 	bl	4b70 <_ZSt16__ostream_insertIcSt11char_traitsIcEERSt13basic_ostreamIT_T0_ES6_PKS3_l@plt>
    5b90:	b9403348 	ldr	w8, [x26, #48]
    5b94:	340002e8 	cbz	w8, 5bf0 <main+0x81c>
    5b98:	aa1f03fb 	mov	x27, xzr
    5b9c:	aa1f03fc 	mov	x28, xzr
    5ba0:	14000006 	b	5bb8 <main+0x7e4>
    5ba4:	b9803348 	ldrsw	x8, [x26, #48]
    5ba8:	9100079c 	add	x28, x28, #0x1
    5bac:	8b18037b 	add	x27, x27, x24
    5bb0:	eb08039f 	cmp	x28, x8
    5bb4:	540001e2 	b.cs	5bf0 <main+0x81c>  // b.hs, b.nlast
    5bb8:	f9401f48 	ldr	x8, [x26, #56]
    5bbc:	8b9b7908 	add	x8, x8, x27, asr #30
    5bc0:	b9400901 	ldr	w1, [x8, #8]
    5bc4:	aa1303e0 	mov	x0, x19
    5bc8:	97fffb96 	bl	4a20 <_ZNSo9_M_insertImEERSoT_@plt>
    5bcc:	b9803348 	ldrsw	x8, [x26, #48]
    5bd0:	d1000509 	sub	x9, x8, #0x1
    5bd4:	eb09039f 	cmp	x28, x9
    5bd8:	54fffe82 	b.cs	5ba8 <main+0x7d4>  // b.hs, b.nlast
    5bdc:	aa1303e0 	mov	x0, x19
    5be0:	aa1403e1 	mov	x1, x20
    5be4:	52800022 	mov	w2, #0x1                   	// #1
    5be8:	97fffbe2 	bl	4b70 <_ZSt16__ostream_insertIcSt11char_traitsIcEERSt13basic_ostreamIT_T0_ES6_PKS3_l@plt>
    5bec:	17ffffee 	b	5ba4 <main+0x7d0>
    5bf0:	aa1303e0 	mov	x0, x19
    5bf4:	aa1503e1 	mov	x1, x21
    5bf8:	52800022 	mov	w2, #0x1                   	// #1
    5bfc:	97fffbdd 	bl	4b70 <_ZSt16__ostream_insertIcSt11char_traitsIcEERSt13basic_ostreamIT_T0_ES6_PKS3_l@plt>
    5c00:	b9805ac8 	ldrsw	x8, [x22, #88]
    5c04:	910006f7 	add	x23, x23, #0x1
    5c08:	eb0802ff 	cmp	x23, x8
    5c0c:	54fff243 	b.cc	5a54 <main+0x680>  // b.lo, b.ul, b.last
    5c10:	aa1303e0 	mov	x0, x19
    5c14:	aa1503e1 	mov	x1, x21
    5c18:	52800022 	mov	w2, #0x1                   	// #1
    5c1c:	97fffbd5 	bl	4b70 <_ZSt16__ostream_insertIcSt11char_traitsIcEERSt13basic_ostreamIT_T0_ES6_PKS3_l@plt>
    5c20:	f9400fe9 	ldr	x9, [sp, #24]
    5c24:	b98223e8 	ldrsw	x8, [sp, #544]
    5c28:	91000529 	add	x9, x9, #0x1
    5c2c:	eb08013f 	cmp	x9, x8
    5c30:	54ffde63 	b.cc	57fc <main+0x428>  // b.lo, b.ul, b.last
    5c34:	140000fc 	b	6024 <main+0xc50>
    5c38:	d0000200 	adrp	x0, 47000 <GCC_except_table137+0x112f4>
    5c3c:	b0000121 	adrp	x1, 2a000 <_ZN6google8protobuf2io18StringOutputStreamD1Ev>
    5c40:	913a0c21 	add	x1, x1, #0xe83
    5c44:	52800102 	mov	w2, #0x8                   	// #8
    5c48:	f9475800 	ldr	x0, [x0, #3760]
    5c4c:	97fffbc9 	bl	4b70 <_ZSt16__ostream_insertIcSt11char_traitsIcEERSt13basic_ostreamIT_T0_ES6_PKS3_l@plt>
    5c50:	b98223e1 	ldrsw	x1, [sp, #544]
    5c54:	d0000200 	adrp	x0, 47000 <GCC_except_table137+0x112f4>
    5c58:	f9475800 	ldr	x0, [x0, #3760]
    5c5c:	97fffb71 	bl	4a20 <_ZNSo9_M_insertImEERSoT_@plt>
    5c60:	b0000121 	adrp	x1, 2a000 <_ZN6google8protobuf2io18StringOutputStreamD1Ev>
    5c64:	913e4021 	add	x1, x1, #0xf90
    5c68:	52800022 	mov	w2, #0x1                   	// #1
    5c6c:	97fffbc1 	bl	4b70 <_ZSt16__ostream_insertIcSt11char_traitsIcEERSt13basic_ostreamIT_T0_ES6_PKS3_l@plt>
    5c70:	b94223e8 	ldr	w8, [sp, #544]
    5c74:	34001d88 	cbz	w8, 6024 <main+0xc50>
    5c78:	d0000214 	adrp	x20, 47000 <GCC_except_table137+0x112f4>
    5c7c:	aa1f03fc 	mov	x28, xzr
    5c80:	b0000133 	adrp	x19, 2a000 <_ZN6google8protobuf2io18StringOutputStreamD1Ev>
    5c84:	913e4273 	add	x19, x19, #0xf90
    5c88:	f9475a94 	ldr	x20, [x20, #3760]
    5c8c:	f94117e8 	ldr	x8, [sp, #552]
    5c90:	d3607f89 	lsl	x9, x28, #32
    5c94:	f9000ffc 	str	x28, [sp, #24]
    5c98:	8b897508 	add	x8, x8, x9, asr #29
    5c9c:	f940051c 	ldr	x28, [x8, #8]
    5ca0:	f9404f88 	ldr	x8, [x28, #152]
    5ca4:	a9400901 	ldp	x1, x2, [x8]
    5ca8:	aa1403e0 	mov	x0, x20
    5cac:	97fffbb1 	bl	4b70 <_ZSt16__ostream_insertIcSt11char_traitsIcEERSt13basic_ostreamIT_T0_ES6_PKS3_l@plt>
    5cb0:	b0000121 	adrp	x1, 2a000 <_ZN6google8protobuf2io18StringOutputStreamD1Ev>
    5cb4:	913bb421 	add	x1, x1, #0xeed
    5cb8:	52800042 	mov	w2, #0x2                   	// #2
    5cbc:	97fffbad 	bl	4b70 <_ZSt16__ostream_insertIcSt11char_traitsIcEERSt13basic_ostreamIT_T0_ES6_PKS3_l@plt>
    5cc0:	aa1403e0 	mov	x0, x20
    5cc4:	b0000121 	adrp	x1, 2a000 <_ZN6google8protobuf2io18StringOutputStreamD1Ev>
    5cc8:	913a3021 	add	x1, x1, #0xe8c
    5ccc:	52800162 	mov	w2, #0xb                   	// #11
    5cd0:	97fffba8 	bl	4b70 <_ZSt16__ostream_insertIcSt11char_traitsIcEERSt13basic_ostreamIT_T0_ES6_PKS3_l@plt>
    5cd4:	b940a781 	ldr	w1, [x28, #164]
    5cd8:	aa1403e0 	mov	x0, x20
    5cdc:	97fffb51 	bl	4a20 <_ZNSo9_M_insertImEERSoT_@plt>
    5ce0:	aa1303e1 	mov	x1, x19
    5ce4:	52800022 	mov	w2, #0x1                   	// #1
    5ce8:	97fffba2 	bl	4b70 <_ZSt16__ostream_insertIcSt11char_traitsIcEERSt13basic_ostreamIT_T0_ES6_PKS3_l@plt>
    5cec:	aa1403e0 	mov	x0, x20
    5cf0:	b0000121 	adrp	x1, 2a000 <_ZN6google8protobuf2io18StringOutputStreamD1Ev>
    5cf4:	913a6021 	add	x1, x1, #0xe98
    5cf8:	52800142 	mov	w2, #0xa                   	// #10
    5cfc:	97fffb9d 	bl	4b70 <_ZSt16__ostream_insertIcSt11char_traitsIcEERSt13basic_ostreamIT_T0_ES6_PKS3_l@plt>
    5d00:	b940a381 	ldr	w1, [x28, #160]
    5d04:	aa1403e0 	mov	x0, x20
    5d08:	97fffb46 	bl	4a20 <_ZNSo9_M_insertImEERSoT_@plt>
    5d0c:	aa1303e1 	mov	x1, x19
    5d10:	52800022 	mov	w2, #0x1                   	// #1
    5d14:	97fffb97 	bl	4b70 <_ZSt16__ostream_insertIcSt11char_traitsIcEERSt13basic_ostreamIT_T0_ES6_PKS3_l@plt>
    5d18:	aa1403e0 	mov	x0, x20
    5d1c:	b0000121 	adrp	x1, 2a000 <_ZN6google8protobuf2io18StringOutputStreamD1Ev>
    5d20:	913a8c21 	add	x1, x1, #0xea3
    5d24:	52800182 	mov	w2, #0xc                   	// #12
    5d28:	97fffb92 	bl	4b70 <_ZSt16__ostream_insertIcSt11char_traitsIcEERSt13basic_ostreamIT_T0_ES6_PKS3_l@plt>
    5d2c:	b9805b81 	ldrsw	x1, [x28, #88]
    5d30:	aa1403e0 	mov	x0, x20
    5d34:	97fffb3b 	bl	4a20 <_ZNSo9_M_insertImEERSoT_@plt>
    5d38:	aa1303e1 	mov	x1, x19
    5d3c:	52800022 	mov	w2, #0x1                   	// #1
    5d40:	97fffb8c 	bl	4b70 <_ZSt16__ostream_insertIcSt11char_traitsIcEERSt13basic_ostreamIT_T0_ES6_PKS3_l@plt>
    5d44:	aa1403e0 	mov	x0, x20
    5d48:	b0000121 	adrp	x1, 2a000 <_ZN6google8protobuf2io18StringOutputStreamD1Ev>
    5d4c:	913ac021 	add	x1, x1, #0xeb0
    5d50:	52800102 	mov	w2, #0x8                   	// #8
    5d54:	97fffb87 	bl	4b70 <_ZSt16__ostream_insertIcSt11char_traitsIcEERSt13basic_ostreamIT_T0_ES6_PKS3_l@plt>
    5d58:	b9807381 	ldrsw	x1, [x28, #112]
    5d5c:	aa1403e0 	mov	x0, x20
    5d60:	97fffb30 	bl	4a20 <_ZNSo9_M_insertImEERSoT_@plt>
    5d64:	aa1303e1 	mov	x1, x19
    5d68:	52800022 	mov	w2, #0x1                   	// #1
    5d6c:	97fffb81 	bl	4b70 <_ZSt16__ostream_insertIcSt11char_traitsIcEERSt13basic_ostreamIT_T0_ES6_PKS3_l@plt>
    5d70:	aa1403e0 	mov	x0, x20
    5d74:	b0000121 	adrp	x1, 2a000 <_ZN6google8protobuf2io18StringOutputStreamD1Ev>
    5d78:	913ae421 	add	x1, x1, #0xeb9
    5d7c:	52800142 	mov	w2, #0xa                   	// #10
    5d80:	97fffb7c 	bl	4b70 <_ZSt16__ostream_insertIcSt11char_traitsIcEERSt13basic_ostreamIT_T0_ES6_PKS3_l@plt>
    5d84:	b9808b81 	ldrsw	x1, [x28, #136]
    5d88:	aa1403e0 	mov	x0, x20
    5d8c:	97fffb25 	bl	4a20 <_ZNSo9_M_insertImEERSoT_@plt>
    5d90:	aa1303e1 	mov	x1, x19
    5d94:	52800022 	mov	w2, #0x1                   	// #1
    5d98:	97fffb76 	bl	4b70 <_ZSt16__ostream_insertIcSt11char_traitsIcEERSt13basic_ostreamIT_T0_ES6_PKS3_l@plt>
    5d9c:	b9805b88 	ldrsw	x8, [x28, #88]
    5da0:	34000868 	cbz	w8, 5eac <main+0xad8>
    5da4:	f940338a 	ldr	x10, [x28, #96]
    5da8:	2a1f03f7 	mov	w23, wzr
    5dac:	2a1f03fb 	mov	w27, wzr
    5db0:	2a1f03fa 	mov	w26, wzr
    5db4:	aa1f03e9 	mov	x9, xzr
    5db8:	2a1f03f6 	mov	w22, wzr
    5dbc:	2a1f03f5 	mov	w21, wzr
    5dc0:	2a1f03f8 	mov	w24, wzr
    5dc4:	2a1f03f9 	mov	w25, wzr
    5dc8:	9100214a 	add	x10, x10, #0x8
    5dcc:	14000005 	b	5de0 <main+0xa0c>
    5dd0:	0b170177 	add	w23, w11, w23
    5dd4:	91000529 	add	x9, x9, #0x1
    5dd8:	eb08013f 	cmp	x9, x8
    5ddc:	54000760 	b.eq	5ec8 <main+0xaf4>  // b.none
    5de0:	937d7d2b 	sbfiz	x11, x9, #3, #32
    5de4:	f86b694c 	ldr	x12, [x10, x11]
    5de8:	b940318b 	ldr	w11, [x12, #48]
    5dec:	7100057f 	cmp	w11, #0x1
    5df0:	54ffff0b 	b.lt	5dd0 <main+0x9fc>  // b.tstop
    5df4:	2a1f03f0 	mov	w16, wzr
    5df8:	2a1f03ed 	mov	w13, wzr
    5dfc:	2a1f03ee 	mov	w14, wzr
    5e00:	1280001c 	mov	w28, #0xffffffff            	// #-1
    5e04:	14000005 	b	5e18 <main+0xa44>
    5e08:	2a1f03ee 	mov	w14, wzr
    5e0c:	2a0f03f0 	mov	w16, w15
    5e10:	6b0b01ff 	cmp	w15, w11
    5e14:	54fffdea 	b.ge	5dd0 <main+0x9fc>  // b.tcont
    5e18:	340001ce 	cbz	w14, 5e50 <main+0xa7c>
    5e1c:	2a1003ef 	mov	w15, w16
    5e20:	51000790 	sub	w16, w28, #0x1
    5e24:	7100061f 	cmp	w16, #0x1
    5e28:	540002e8 	b.hi	5e84 <main+0xab0>  // b.pmore
    5e2c:	510005ce 	sub	w14, w14, #0x1
    5e30:	110009ef 	add	w15, w15, #0x2
    5e34:	110005ad 	add	w13, w13, #0x1
    5e38:	71000b9f 	cmp	w28, #0x2
    5e3c:	54000340 	b.eq	5ea4 <main+0xad0>  // b.none
    5e40:	7100079f 	cmp	w28, #0x1
    5e44:	54fffe41 	b.ne	5e0c <main+0xa38>  // b.any
    5e48:	1100075a 	add	w26, w26, #0x1
    5e4c:	17fffff0 	b	5e0c <main+0xa38>
    5e50:	f9401d8e 	ldr	x14, [x12, #56]
    5e54:	1100060f 	add	w15, w16, #0x1
    5e58:	1100077b 	add	w27, w27, #0x1
    5e5c:	8b30c9ce 	add	x14, x14, w16, sxtw #2
    5e60:	b94009ce 	ldr	w14, [x14, #8]
    5e64:	710021df 	cmp	w14, #0x8
    5e68:	120009dc 	and	w28, w14, #0x7
    5e6c:	1a9526b5 	cinc	w21, w21, cc  // cc = lo, ul, last
    5e70:	54fffcc3 	b.cc	5e08 <main+0xa34>  // b.lo, b.ul, b.last
    5e74:	53037dce 	lsr	w14, w14, #3
    5e78:	51000790 	sub	w16, w28, #0x1
    5e7c:	7100061f 	cmp	w16, #0x1
    5e80:	54fffd69 	b.ls	5e2c <main+0xa58>  // b.plast
    5e84:	71001f9f 	cmp	w28, #0x7
    5e88:	540012a1 	b.ne	60dc <main+0xd08>  // b.any
    5e8c:	71000dbf 	cmp	w13, #0x3
    5e90:	2a1f03ee 	mov	w14, wzr
    5e94:	11000718 	add	w24, w24, #0x1
    5e98:	1a9626d6 	cinc	w22, w22, cc  // cc = lo, ul, last
    5e9c:	2a1f03ed 	mov	w13, wzr
    5ea0:	17ffffdb 	b	5e0c <main+0xa38>
    5ea4:	11000739 	add	w25, w25, #0x1
    5ea8:	17ffffd9 	b	5e0c <main+0xa38>
    5eac:	2a1f03f9 	mov	w25, wzr
    5eb0:	2a1f03f8 	mov	w24, wzr
    5eb4:	2a1f03f5 	mov	w21, wzr
    5eb8:	2a1f03f6 	mov	w22, wzr
    5ebc:	2a1f03fa 	mov	w26, wzr
    5ec0:	2a1f03fb 	mov	w27, wzr
    5ec4:	2a1f03f7 	mov	w23, wzr
    5ec8:	aa1403e0 	mov	x0, x20
    5ecc:	b0000121 	adrp	x1, 2a000 <_ZN6google8protobuf2io18StringOutputStreamD1Ev>
    5ed0:	913b6c21 	add	x1, x1, #0xedb
    5ed4:	52800282 	mov	w2, #0x14                  	// #20
    5ed8:	97fffb26 	bl	4b70 <_ZSt16__ostream_insertIcSt11char_traitsIcEERSt13basic_ostreamIT_T0_ES6_PKS3_l@plt>
    5edc:	f9400ffc 	ldr	x28, [sp, #24]
    5ee0:	aa1403e0 	mov	x0, x20
    5ee4:	b0000121 	adrp	x1, 2a000 <_ZN6google8protobuf2io18StringOutputStreamD1Ev>
    5ee8:	913bc021 	add	x1, x1, #0xef0
    5eec:	52800162 	mov	w2, #0xb                   	// #11
    5ef0:	97fffb20 	bl	4b70 <_ZSt16__ostream_insertIcSt11char_traitsIcEERSt13basic_ostreamIT_T0_ES6_PKS3_l@plt>
    5ef4:	2a1703e1 	mov	w1, w23
    5ef8:	aa1403e0 	mov	x0, x20
    5efc:	97fffac9 	bl	4a20 <_ZNSo9_M_insertImEERSoT_@plt>
    5f00:	aa1303e1 	mov	x1, x19
    5f04:	52800022 	mov	w2, #0x1                   	// #1
    5f08:	97fffb1a 	bl	4b70 <_ZSt16__ostream_insertIcSt11char_traitsIcEERSt13basic_ostreamIT_T0_ES6_PKS3_l@plt>
    5f0c:	aa1403e0 	mov	x0, x20
    5f10:	b0000121 	adrp	x1, 2a000 <_ZN6google8protobuf2io18StringOutputStreamD1Ev>
    5f14:	913bf021 	add	x1, x1, #0xefc
    5f18:	528001c2 	mov	w2, #0xe                   	// #14
    5f1c:	97fffb15 	bl	4b70 <_ZSt16__ostream_insertIcSt11char_traitsIcEERSt13basic_ostreamIT_T0_ES6_PKS3_l@plt>
    5f20:	2a1b03e1 	mov	w1, w27
    5f24:	aa1403e0 	mov	x0, x20
    5f28:	97fffabe 	bl	4a20 <_ZNSo9_M_insertImEERSoT_@plt>
    5f2c:	aa1303e1 	mov	x1, x19
    5f30:	52800022 	mov	w2, #0x1                   	// #1
    5f34:	97fffb0f 	bl	4b70 <_ZSt16__ostream_insertIcSt11char_traitsIcEERSt13basic_ostreamIT_T0_ES6_PKS3_l@plt>
    5f38:	aa1403e0 	mov	x0, x20
    5f3c:	b0000121 	adrp	x1, 2a000 <_ZN6google8protobuf2io18StringOutputStreamD1Ev>
    5f40:	913c2c21 	add	x1, x1, #0xf0b
    5f44:	528001a2 	mov	w2, #0xd                   	// #13
    5f48:	97fffb0a 	bl	4b70 <_ZSt16__ostream_insertIcSt11char_traitsIcEERSt13basic_ostreamIT_T0_ES6_PKS3_l@plt>
    5f4c:	2a1a03e1 	mov	w1, w26
    5f50:	aa1403e0 	mov	x0, x20
    5f54:	97fffab3 	bl	4a20 <_ZNSo9_M_insertImEERSoT_@plt>
    5f58:	aa1303e1 	mov	x1, x19
    5f5c:	52800022 	mov	w2, #0x1                   	// #1
    5f60:	97fffb04 	bl	4b70 <_ZSt16__ostream_insertIcSt11char_traitsIcEERSt13basic_ostreamIT_T0_ES6_PKS3_l@plt>
    5f64:	aa1403e0 	mov	x0, x20
    5f68:	b0000121 	adrp	x1, 2a000 <_ZN6google8protobuf2io18StringOutputStreamD1Ev>
    5f6c:	913c6421 	add	x1, x1, #0xf19
    5f70:	528001a2 	mov	w2, #0xd                   	// #13
    5f74:	97fffaff 	bl	4b70 <_ZSt16__ostream_insertIcSt11char_traitsIcEERSt13basic_ostreamIT_T0_ES6_PKS3_l@plt>
    5f78:	2a1903e1 	mov	w1, w25
    5f7c:	aa1403e0 	mov	x0, x20
    5f80:	97fffaa8 	bl	4a20 <_ZNSo9_M_insertImEERSoT_@plt>
    5f84:	aa1303e1 	mov	x1, x19
    5f88:	52800022 	mov	w2, #0x1                   	// #1
    5f8c:	97fffaf9 	bl	4b70 <_ZSt16__ostream_insertIcSt11char_traitsIcEERSt13basic_ostreamIT_T0_ES6_PKS3_l@plt>
    5f90:	aa1403e0 	mov	x0, x20
    5f94:	b0000121 	adrp	x1, 2a000 <_ZN6google8protobuf2io18StringOutputStreamD1Ev>
    5f98:	913c9c21 	add	x1, x1, #0xf27
    5f9c:	52800162 	mov	w2, #0xb                   	// #11
    5fa0:	97fffaf4 	bl	4b70 <_ZSt16__ostream_insertIcSt11char_traitsIcEERSt13basic_ostreamIT_T0_ES6_PKS3_l@plt>
    5fa4:	2a1803e1 	mov	w1, w24
    5fa8:	aa1403e0 	mov	x0, x20
    5fac:	97fffa9d 	bl	4a20 <_ZNSo9_M_insertImEERSoT_@plt>
    5fb0:	aa1303e1 	mov	x1, x19
    5fb4:	52800022 	mov	w2, #0x1                   	// #1
    5fb8:	97fffaee 	bl	4b70 <_ZSt16__ostream_insertIcSt11char_traitsIcEERSt13basic_ostreamIT_T0_ES6_PKS3_l@plt>
    5fbc:	aa1403e0 	mov	x0, x20
    5fc0:	b0000121 	adrp	x1, 2a000 <_ZN6google8protobuf2io18StringOutputStreamD1Ev>
    5fc4:	913ccc21 	add	x1, x1, #0xf33
    5fc8:	52800322 	mov	w2, #0x19                  	// #25
    5fcc:	97fffae9 	bl	4b70 <_ZSt16__ostream_insertIcSt11char_traitsIcEERSt13basic_ostreamIT_T0_ES6_PKS3_l@plt>
    5fd0:	2a1603e1 	mov	w1, w22
    5fd4:	aa1403e0 	mov	x0, x20
    5fd8:	97fffa92 	bl	4a20 <_ZNSo9_M_insertImEERSoT_@plt>
    5fdc:	aa1303e1 	mov	x1, x19
    5fe0:	52800022 	mov	w2, #0x1                   	// #1
    5fe4:	97fffae3 	bl	4b70 <_ZSt16__ostream_insertIcSt11char_traitsIcEERSt13basic_ostreamIT_T0_ES6_PKS3_l@plt>
    5fe8:	aa1403e0 	mov	x0, x20
    5fec:	b0000121 	adrp	x1, 2a000 <_ZN6google8protobuf2io18StringOutputStreamD1Ev>
    5ff0:	913d3421 	add	x1, x1, #0xf4d
    5ff4:	52800222 	mov	w2, #0x11                  	// #17
    5ff8:	97fffade 	bl	4b70 <_ZSt16__ostream_insertIcSt11char_traitsIcEERSt13basic_ostreamIT_T0_ES6_PKS3_l@plt>
    5ffc:	2a1503e1 	mov	w1, w21
    6000:	aa1403e0 	mov	x0, x20
    6004:	97fffa87 	bl	4a20 <_ZNSo9_M_insertImEERSoT_@plt>
    6008:	aa1303e1 	mov	x1, x19
    600c:	52800022 	mov	w2, #0x1                   	// #1
    6010:	97fffad8 	bl	4b70 <_ZSt16__ostream_insertIcSt11char_traitsIcEERSt13basic_ostreamIT_T0_ES6_PKS3_l@plt>
    6014:	b98223e8 	ldrsw	x8, [sp, #544]
    6018:	9100079c 	add	x28, x28, #0x1
    601c:	eb08039f 	cmp	x28, x8
    6020:	54ffe363 	b.cc	5c8c <main+0x8b8>  // b.lo, b.ul, b.last
    6024:	910723e0 	add	x0, sp, #0x1c8
    6028:	940013eb 	bl	afd4 <_ZN11vector_tile4TileD1Ev>
    602c:	f9411be0 	ldr	x0, [sp, #560]
    6030:	f94007e8 	ldr	x8, [sp, #8]
    6034:	eb08001f 	cmp	x0, x8
    6038:	54000040 	b.eq	6040 <main+0xc6c>  // b.none
    603c:	97fffab1 	bl	4b00 <_ZdlPv@plt>
    6040:	b0000213 	adrp	x19, 47000 <GCC_except_table137+0x112f4>
    6044:	910943f4 	add	x20, sp, #0x250
    6048:	f947e673 	ldr	x19, [x19, #4040]
    604c:	f94003e0 	ldr	x0, [sp]
    6050:	f9400268 	ldr	x8, [x19]
    6054:	f9400e69 	ldr	x9, [x19, #24]
    6058:	f9012be8 	str	x8, [sp, #592]
    605c:	f85e8108 	ldur	x8, [x8, #-24]
    6060:	f8286a89 	str	x9, [x20, x8]
    6064:	97fffa9f 	bl	4ae0 <_ZNSt13basic_filebufIcSt11char_traitsIcEED2Ev@plt>
    6068:	a940a668 	ldp	x8, x9, [x19, #8]
    606c:	91042280 	add	x0, x20, #0x108
    6070:	f9012be8 	str	x8, [sp, #592]
    6074:	f85e8108 	ldur	x8, [x8, #-24]
    6078:	f8286a89 	str	x9, [x20, x8]
    607c:	f9012fff 	str	xzr, [sp, #600]
    6080:	97fffa20 	bl	4900 <_ZNSt8ios_baseD2Ev@plt>
    6084:	f85c03a0 	ldur	x0, [x29, #-64]
    6088:	f9400be8 	ldr	x8, [sp, #16]
    608c:	eb08001f 	cmp	x0, x8
    6090:	54000040 	b.eq	6098 <main+0xcc4>  // b.none
    6094:	97fffa9b 	bl	4b00 <_ZdlPv@plt>
    6098:	940020ee 	bl	e450 <_ZN6google8protobuf23ShutdownProtobufLibraryEv>
    609c:	2a1f03f3 	mov	w19, wzr
    60a0:	a97e57b4 	ldp	x20, x21, [x29, #-32]
    60a4:	eb15029f 	cmp	x20, x21
    60a8:	540000a1 	b.ne	60bc <main+0xce8>  // b.any
    60ac:	17fffd4c 	b	55dc <main+0x208>
    60b0:	91004294 	add	x20, x20, #0x10
    60b4:	eb15029f 	cmp	x20, x21
    60b8:	540000c0 	b.eq	60d0 <main+0xcfc>  // b.none
    60bc:	f8410680 	ldr	x0, [x20], #16
    60c0:	eb14001f 	cmp	x0, x20
    60c4:	54ffff60 	b.eq	60b0 <main+0xcdc>  // b.none
    60c8:	97fffa8e 	bl	4b00 <_ZdlPv@plt>
    60cc:	17fffff9 	b	60b0 <main+0xcdc>
    60d0:	f85e03b4 	ldur	x20, [x29, #-32]
    60d4:	b5ffa874 	cbnz	x20, 55e0 <main+0x20c>
    60d8:	17fffd44 	b	55e8 <main+0x214>
    60dc:	910103e0 	add	x0, sp, #0x40
    60e0:	910103f3 	add	x19, sp, #0x40
    60e4:	97fffa5b 	bl	4a50 <_ZNSt7__cxx1118basic_stringstreamIcSt11char_traitsIcESaIcEEC1Ev@plt>
    60e8:	91004273 	add	x19, x19, #0x10
    60ec:	90000121 	adrp	x1, 2a000 <_ZN6google8protobuf2io18StringOutputStreamD1Ev>
    60f0:	913b1021 	add	x1, x1, #0xec4
    60f4:	aa1303e0 	mov	x0, x19
    60f8:	528002c2 	mov	w2, #0x16                  	// #22
    60fc:	97fffa9d 	bl	4b70 <_ZSt16__ostream_insertIcSt11char_traitsIcEERSt13basic_ostreamIT_T0_ES6_PKS3_l@plt>
    6100:	aa1303e0 	mov	x0, x19
    6104:	2a1c03e1 	mov	w1, w28
    6108:	97fffb02 	bl	4d10 <_ZNSolsEi@plt>
    610c:	52800200 	mov	w0, #0x10                  	// #16
    6110:	97fffa14 	bl	4960 <__cxa_allocate_exception@plt>
    6114:	aa0003f5 	mov	x21, x0
    6118:	910083e8 	add	x8, sp, #0x20
    611c:	910103e0 	add	x0, sp, #0x40
    6120:	97fffa80 	bl	4b20 <_ZNKSt7__cxx1118basic_stringstreamIcSt11char_traitsIcESaIcEE3strEv@plt>
    6124:	52800036 	mov	w22, #0x1                   	// #1
    6128:	910083e1 	add	x1, sp, #0x20
    612c:	aa1503e0 	mov	x0, x21
    6130:	910083f7 	add	x23, sp, #0x20
    6134:	97fffadb 	bl	4ca0 <_ZNSt13runtime_errorC1ERKNSt7__cxx1112basic_stringIcSt11char_traitsIcESaIcEEE@plt>
    6138:	b0000201 	adrp	x1, 47000 <GCC_except_table137+0x112f4>
    613c:	b0000202 	adrp	x2, 47000 <GCC_except_table137+0x112f4>
    6140:	aa1503e0 	mov	x0, x21
    6144:	2a1f03f6 	mov	w22, wzr
    6148:	f947e821 	ldr	x1, [x1, #4048]
    614c:	f9472042 	ldr	x2, [x2, #3648]
    6150:	97fffaec 	bl	4d00 <__cxa_throw@plt>
    6154:	1400001e 	b	61cc <main+0xdf8>
    6158:	90000120 	adrp	x0, 2a000 <_ZN6google8protobuf2io18StringOutputStreamD1Ev>
    615c:	913fa400 	add	x0, x0, #0xfe9
    6160:	97fffa44 	bl	4a70 <_ZSt19__throw_logic_errorPKc@plt>
    6164:	52800200 	mov	w0, #0x10                  	// #16
    6168:	97fff9fe 	bl	4960 <__cxa_allocate_exception@plt>
    616c:	aa0003f5 	mov	x21, x0
    6170:	90000120 	adrp	x0, 2a000 <_ZN6google8protobuf2io18StringOutputStreamD1Ev>
    6174:	91375c00 	add	x0, x0, #0xdd7
    6178:	910723e8 	add	x8, sp, #0x1c8
    617c:	d10103a1 	sub	x1, x29, #0x40
    6180:	940000f7 	bl	655c <_ZStplIcSt11char_traitsIcESaIcEENSt7__cxx1112basic_stringIT_T0_T1_EEPKS5_RKS8_>
    6184:	90000121 	adrp	x1, 2a000 <_ZN6google8protobuf2io18StringOutputStreamD1Ev>
    6188:	91379c21 	add	x1, x1, #0xde7
    618c:	910103e8 	add	x8, sp, #0x40
    6190:	910723e0 	add	x0, sp, #0x1c8
    6194:	910723f6 	add	x22, sp, #0x1c8
    6198:	940000c8 	bl	64b8 <_ZStplIcSt11char_traitsIcESaIcEENSt7__cxx1112basic_stringIT_T0_T1_EEOS8_PKS5_>
    619c:	52800036 	mov	w22, #0x1                   	// #1
    61a0:	910103e1 	add	x1, sp, #0x40
    61a4:	aa1503e0 	mov	x0, x21
    61a8:	910103f7 	add	x23, sp, #0x40
    61ac:	97fffabd 	bl	4ca0 <_ZNSt13runtime_errorC1ERKNSt7__cxx1112basic_stringIcSt11char_traitsIcESaIcEEE@plt>
    61b0:	b0000201 	adrp	x1, 47000 <GCC_except_table137+0x112f4>
    61b4:	b0000202 	adrp	x2, 47000 <GCC_except_table137+0x112f4>
    61b8:	aa1503e0 	mov	x0, x21
    61bc:	2a1f03f6 	mov	w22, wzr
    61c0:	f947e821 	ldr	x1, [x1, #4048]
    61c4:	f9472042 	ldr	x2, [x2, #3648]
    61c8:	97ffface 	bl	4d00 <__cxa_throw@plt>
    61cc:	aa0003f3 	mov	x19, x0
    61d0:	f94023e0 	ldr	x0, [sp, #64]
    61d4:	aa0103f4 	mov	x20, x1
    61d8:	910042e8 	add	x8, x23, #0x10
    61dc:	eb08001f 	cmp	x0, x8
    61e0:	54000040 	b.eq	61e8 <main+0xe14>  // b.none
    61e4:	97fffa47 	bl	4b00 <_ZdlPv@plt>
    61e8:	f940e7e0 	ldr	x0, [sp, #456]
    61ec:	910723e8 	add	x8, sp, #0x1c8
    61f0:	91004108 	add	x8, x8, #0x10
    61f4:	eb08001f 	cmp	x0, x8
    61f8:	54000080 	b.eq	6208 <main+0xe34>  // b.none
    61fc:	97fffa41 	bl	4b00 <_ZdlPv@plt>
    6200:	370001d6 	tbnz	w22, #0, 6238 <main+0xe64>
    6204:	1400006b 	b	63b0 <main+0xfdc>
    6208:	35000196 	cbnz	w22, 6238 <main+0xe64>
    620c:	14000069 	b	63b0 <main+0xfdc>
    6210:	aa0003f3 	mov	x19, x0
    6214:	f940e7e0 	ldr	x0, [sp, #456]
    6218:	aa0103f4 	mov	x20, x1
    621c:	910042c8 	add	x8, x22, #0x10
    6220:	eb08001f 	cmp	x0, x8
    6224:	540000a0 	b.eq	6238 <main+0xe64>  // b.none
    6228:	97fffa36 	bl	4b00 <_ZdlPv@plt>
    622c:	14000003 	b	6238 <main+0xe64>
    6230:	aa0103f4 	mov	x20, x1
    6234:	aa0003f3 	mov	x19, x0
    6238:	aa1503e0 	mov	x0, x21
    623c:	97fffa15 	bl	4a90 <__cxa_free_exception@plt>
    6240:	1400005c 	b	63b0 <main+0xfdc>
    6244:	aa0103f4 	mov	x20, x1
    6248:	aa0003f3 	mov	x19, x0
    624c:	1400006f 	b	6408 <main+0x1034>
    6250:	f94023e8 	ldr	x8, [sp, #64]
    6254:	aa0103f4 	mov	x20, x1
    6258:	aa0003f3 	mov	x19, x0
    625c:	eb15011f 	cmp	x8, x21
    6260:	540009a0 	b.eq	6394 <main+0xfc0>  // b.none
    6264:	aa0803e0 	mov	x0, x8
    6268:	97fffa26 	bl	4b00 <_ZdlPv@plt>
    626c:	1400004a 	b	6394 <main+0xfc0>
    6270:	14000007 	b	628c <main+0xeb8>
    6274:	aa0103f4 	mov	x20, x1
    6278:	aa0003f3 	mov	x19, x0
    627c:	1400004d 	b	63b0 <main+0xfdc>
    6280:	aa0103f4 	mov	x20, x1
    6284:	aa0003f3 	mov	x19, x0
    6288:	1400005b 	b	63f4 <main+0x1020>
    628c:	aa0103f4 	mov	x20, x1
    6290:	aa0003f3 	mov	x19, x0
    6294:	14000042 	b	639c <main+0xfc8>
    6298:	1400000a 	b	62c0 <main+0xeec>
    629c:	1400003c 	b	638c <main+0xfb8>
    62a0:	f9412be8 	ldr	x8, [sp, #592]
    62a4:	aa0003f3 	mov	x19, x0
    62a8:	eb17011f 	cmp	x8, x23
    62ac:	540000c0 	b.eq	62c4 <main+0xef0>  // b.none
    62b0:	aa0803e0 	mov	x0, x8
    62b4:	97fffa13 	bl	4b00 <_ZdlPv@plt>
    62b8:	14000003 	b	62c4 <main+0xef0>
    62bc:	14000001 	b	62c0 <main+0xeec>
    62c0:	aa0003f3 	mov	x19, x0
    62c4:	a97e57b4 	ldp	x20, x21, [x29, #-32]
    62c8:	eb15029f 	cmp	x20, x21
    62cc:	540000e1 	b.ne	62e8 <main+0xf14>  // b.any
    62d0:	b50001b4 	cbnz	x20, 6304 <main+0xf30>
    62d4:	aa1303e0 	mov	x0, x19
    62d8:	97fffa92 	bl	4d20 <_Unwind_Resume@plt>
    62dc:	91004294 	add	x20, x20, #0x10
    62e0:	eb15029f 	cmp	x20, x21
    62e4:	540000c0 	b.eq	62fc <main+0xf28>  // b.none
    62e8:	f8410680 	ldr	x0, [x20], #16
    62ec:	eb14001f 	cmp	x0, x20
    62f0:	54ffff60 	b.eq	62dc <main+0xf08>  // b.none
    62f4:	97fffa03 	bl	4b00 <_ZdlPv@plt>
    62f8:	17fffff9 	b	62dc <main+0xf08>
    62fc:	f85e03b4 	ldur	x20, [x29, #-32]
    6300:	b4fffeb4 	cbz	x20, 62d4 <main+0xf00>
    6304:	aa1403e0 	mov	x0, x20
    6308:	97fff9fe 	bl	4b00 <_ZdlPv@plt>
    630c:	aa1303e0 	mov	x0, x19
    6310:	97fffa84 	bl	4d20 <_Unwind_Resume@plt>
    6314:	aa0003f3 	mov	x19, x0
    6318:	f94013e0 	ldr	x0, [sp, #32]
    631c:	aa0103f4 	mov	x20, x1
    6320:	910042e8 	add	x8, x23, #0x10
    6324:	eb08001f 	cmp	x0, x8
    6328:	54000080 	b.eq	6338 <main+0xf64>  // b.none
    632c:	97fff9f5 	bl	4b00 <_ZdlPv@plt>
    6330:	370000d6 	tbnz	w22, #0, 6348 <main+0xf74>
    6334:	14000010 	b	6374 <main+0xfa0>
    6338:	35000096 	cbnz	w22, 6348 <main+0xf74>
    633c:	1400000e 	b	6374 <main+0xfa0>
    6340:	aa0103f4 	mov	x20, x1
    6344:	aa0003f3 	mov	x19, x0
    6348:	aa1503e0 	mov	x0, x21
    634c:	97fff9d1 	bl	4a90 <__cxa_free_exception@plt>
    6350:	14000009 	b	6374 <main+0xfa0>
    6354:	1400000e 	b	638c <main+0xfb8>
    6358:	1400000d 	b	638c <main+0xfb8>
    635c:	1400000c 	b	638c <main+0xfb8>
    6360:	1400000b 	b	638c <main+0xfb8>
    6364:	1400000a 	b	638c <main+0xfb8>
    6368:	14000009 	b	638c <main+0xfb8>
    636c:	aa0103f4 	mov	x20, x1
    6370:	aa0003f3 	mov	x19, x0
    6374:	910103e0 	add	x0, sp, #0x40
    6378:	97fff9ce 	bl	4ab0 <_ZNSt7__cxx1118basic_stringstreamIcSt11char_traitsIcESaIcEED1Ev@plt>
    637c:	14000006 	b	6394 <main+0xfc0>
    6380:	14000003 	b	638c <main+0xfb8>
    6384:	14000002 	b	638c <main+0xfb8>
    6388:	14000001 	b	638c <main+0xfb8>
    638c:	aa0103f4 	mov	x20, x1
    6390:	aa0003f3 	mov	x19, x0
    6394:	910723e0 	add	x0, sp, #0x1c8
    6398:	9400130f 	bl	afd4 <_ZN11vector_tile4TileD1Ev>
    639c:	f9411be0 	ldr	x0, [sp, #560]
    63a0:	f94007e8 	ldr	x8, [sp, #8]
    63a4:	eb08001f 	cmp	x0, x8
    63a8:	54000040 	b.eq	63b0 <main+0xfdc>  // b.none
    63ac:	97fff9d5 	bl	4b00 <_ZdlPv@plt>
    63b0:	b0000215 	adrp	x21, 47000 <GCC_except_table137+0x112f4>
    63b4:	910943f6 	add	x22, sp, #0x250
    63b8:	910042c0 	add	x0, x22, #0x10
    63bc:	f947e6b5 	ldr	x21, [x21, #4040]
    63c0:	f94002a8 	ldr	x8, [x21]
    63c4:	f9400ea9 	ldr	x9, [x21, #24]
    63c8:	f9012be8 	str	x8, [sp, #592]
    63cc:	f85e8108 	ldur	x8, [x8, #-24]
    63d0:	f8286ac9 	str	x9, [x22, x8]
    63d4:	97fff9c3 	bl	4ae0 <_ZNSt13basic_filebufIcSt11char_traitsIcEED2Ev@plt>
    63d8:	a940a6a8 	ldp	x8, x9, [x21, #8]
    63dc:	910422c0 	add	x0, x22, #0x108
    63e0:	f9012be8 	str	x8, [sp, #592]
    63e4:	f85e8108 	ldur	x8, [x8, #-24]
    63e8:	f8286ac9 	str	x9, [x22, x8]
    63ec:	f9012fff 	str	xzr, [sp, #600]
    63f0:	97fff944 	bl	4900 <_ZNSt8ios_baseD2Ev@plt>
    63f4:	f85c03a0 	ldur	x0, [x29, #-64]
    63f8:	f9400be8 	ldr	x8, [sp, #16]
    63fc:	eb08001f 	cmp	x0, x8
    6400:	54000040 	b.eq	6408 <main+0x1034>  // b.none
    6404:	97fff9bf 	bl	4b00 <_ZdlPv@plt>
    6408:	7100069f 	cmp	w20, #0x1
    640c:	54fff5c1 	b.ne	62c4 <main+0xef0>  // b.any
    6410:	aa1303e0 	mov	x0, x19
    6414:	97fff94f 	bl	4950 <__cxa_begin_catch@plt>
    6418:	aa0003f4 	mov	x20, x0
    641c:	b0000213 	adrp	x19, 47000 <GCC_except_table137+0x112f4>
    6420:	90000121 	adrp	x1, 2a000 <_ZN6google8protobuf2io18StringOutputStreamD1Ev>
    6424:	913f6821 	add	x1, x1, #0xfda
    6428:	528000e2 	mov	w2, #0x7                   	// #7
    642c:	f946aa73 	ldr	x19, [x19, #3408]
    6430:	aa1303e0 	mov	x0, x19
    6434:	97fff9cf 	bl	4b70 <_ZSt16__ostream_insertIcSt11char_traitsIcEERSt13basic_ostreamIT_T0_ES6_PKS3_l@plt>
    6438:	f9400288 	ldr	x8, [x20]
    643c:	aa1403e0 	mov	x0, x20
    6440:	f9400908 	ldr	x8, [x8, #16]
    6444:	d63f0100 	blr	x8
    6448:	b4000120 	cbz	x0, 646c <main+0x1098>
    644c:	aa0003f4 	mov	x20, x0
    6450:	97fff924 	bl	48e0 <strlen@plt>
    6454:	aa0003e2 	mov	x2, x0
    6458:	b0000200 	adrp	x0, 47000 <GCC_except_table137+0x112f4>
    645c:	aa1403e1 	mov	x1, x20
    6460:	f946a800 	ldr	x0, [x0, #3408]
    6464:	97fff9c3 	bl	4b70 <_ZSt16__ostream_insertIcSt11char_traitsIcEERSt13basic_ostreamIT_T0_ES6_PKS3_l@plt>
    6468:	14000007 	b	6484 <main+0x10b0>
    646c:	f9400268 	ldr	x8, [x19]
    6470:	f85e8108 	ldur	x8, [x8, #-24]
    6474:	8b080260 	add	x0, x19, x8
    6478:	b9402008 	ldr	w8, [x0, #32]
    647c:	32000101 	orr	w1, w8, #0x1
    6480:	97fffa1c 	bl	4cf0 <_ZNSt9basic_iosIcSt11char_traitsIcEE5clearESt12_Ios_Iostate@plt>
    6484:	b0000200 	adrp	x0, 47000 <GCC_except_table137+0x112f4>
    6488:	90000121 	adrp	x1, 2a000 <_ZN6google8protobuf2io18StringOutputStreamD1Ev>
    648c:	913e4021 	add	x1, x1, #0xf90
    6490:	52800022 	mov	w2, #0x1                   	// #1
    6494:	f946a800 	ldr	x0, [x0, #3408]
    6498:	97fff9b6 	bl	4b70 <_ZSt16__ostream_insertIcSt11char_traitsIcEERSt13basic_ostreamIT_T0_ES6_PKS3_l@plt>
    649c:	97fffa05 	bl	4cb0 <__cxa_end_catch@plt>
    64a0:	17fffc4b 	b	55cc <main+0x1f8>
    64a4:	17ffff87 	b	62c0 <main+0xeec>
    64a8:	aa0003f3 	mov	x19, x0
    64ac:	97fffa01 	bl	4cb0 <__cxa_end_catch@plt>
    64b0:	17ffff85 	b	62c4 <main+0xef0>
    64b4:	94000057 	bl	6610 <__clang_call_terminate>

00000000000064b8 <_ZStplIcSt11char_traitsIcESaIcEENSt7__cxx1112basic_stringIT_T0_T1_EEOS8_PKS5_>:
    64b8:	a9bd7bfd 	stp	x29, x30, [sp, #-48]!
    64bc:	f9000bf5 	str	x21, [sp, #16]
    64c0:	a9024ff4 	stp	x20, x19, [sp, #32]
    64c4:	910003fd 	mov	x29, sp
    64c8:	aa0003f5 	mov	x21, x0
    64cc:	aa0103e0 	mov	x0, x1
    64d0:	aa0103f4 	mov	x20, x1
    64d4:	aa0803f3 	mov	x19, x8
    64d8:	97fff902 	bl	48e0 <strlen@plt>
    64dc:	f94006a8 	ldr	x8, [x21, #8]
    64e0:	92f80009 	mov	x9, #0x3fffffffffffffff    	// #4611686018427387903
    64e4:	cb080128 	sub	x8, x9, x8
    64e8:	eb00011f 	cmp	x8, x0
    64ec:	54000323 	b.cc	6550 <_ZStplIcSt11char_traitsIcESaIcEENSt7__cxx1112basic_stringIT_T0_T1_EEOS8_PKS5_+0x98>  // b.lo, b.ul, b.last
    64f0:	aa0003e2 	mov	x2, x0
    64f4:	aa1503e0 	mov	x0, x21
    64f8:	aa1403e1 	mov	x1, x20
    64fc:	97fff8fd 	bl	48f0 <_ZNSt7__cxx1112basic_stringIcSt11char_traitsIcESaIcEE9_M_appendEPKcm@plt>
    6500:	91004269 	add	x9, x19, #0x10
    6504:	aa0003e8 	mov	x8, x0
    6508:	f9000269 	str	x9, [x19]
    650c:	f841050a 	ldr	x10, [x8], #16
    6510:	eb08015f 	cmp	x10, x8
    6514:	540000a0 	b.eq	6528 <_ZStplIcSt11char_traitsIcESaIcEENSt7__cxx1112basic_stringIT_T0_T1_EEOS8_PKS5_+0x70>  // b.none
    6518:	f900026a 	str	x10, [x19]
    651c:	f9400109 	ldr	x9, [x8]
    6520:	f9000a69 	str	x9, [x19, #16]
    6524:	14000003 	b	6530 <_ZStplIcSt11char_traitsIcESaIcEENSt7__cxx1112basic_stringIT_T0_T1_EEOS8_PKS5_+0x78>
    6528:	3dc00140 	ldr	q0, [x10]
    652c:	3d800120 	str	q0, [x9]
    6530:	f9400409 	ldr	x9, [x0, #8]
    6534:	f9000669 	str	x9, [x19, #8]
    6538:	a9007c08 	stp	x8, xzr, [x0]
    653c:	3900401f 	strb	wzr, [x0, #16]
    6540:	a9424ff4 	ldp	x20, x19, [sp, #32]
    6544:	f9400bf5 	ldr	x21, [sp, #16]
    6548:	a8c37bfd 	ldp	x29, x30, [sp], #48
    654c:	d65f03c0 	ret
    6550:	b0000120 	adrp	x0, 2b000 <_IO_stdin_used+0x2b0>
    6554:	9100b400 	add	x0, x0, #0x2d
    6558:	97fff90a 	bl	4980 <_ZSt20__throw_length_errorPKc@plt>

000000000000655c <_ZStplIcSt11char_traitsIcESaIcEENSt7__cxx1112basic_stringIT_T0_T1_EEPKS5_RKS8_>:
    655c:	a9bc7bfd 	stp	x29, x30, [sp, #-64]!
    6560:	f9000bf7 	str	x23, [sp, #16]
    6564:	a90257f6 	stp	x22, x21, [sp, #32]
    6568:	a9034ff4 	stp	x20, x19, [sp, #48]
    656c:	910003fd 	mov	x29, sp
    6570:	aa0103f4 	mov	x20, x1
    6574:	aa0003f5 	mov	x21, x0
    6578:	aa0803f3 	mov	x19, x8
    657c:	97fff8d9 	bl	48e0 <strlen@plt>
    6580:	f9400688 	ldr	x8, [x20, #8]
    6584:	aa0003f6 	mov	x22, x0
    6588:	aa1303f7 	mov	x23, x19
    658c:	8b000101 	add	x1, x8, x0
    6590:	38010eff 	strb	wzr, [x23, #16]!
    6594:	a9007e77 	stp	x23, xzr, [x19]
    6598:	aa1303e0 	mov	x0, x19
    659c:	97fff9b5 	bl	4c70 <_ZNSt7__cxx1112basic_stringIcSt11char_traitsIcESaIcEE7reserveEm@plt>
    65a0:	f9400668 	ldr	x8, [x19, #8]
    65a4:	92f80009 	mov	x9, #0x3fffffffffffffff    	// #4611686018427387903
    65a8:	cb080128 	sub	x8, x9, x8
    65ac:	eb16011f 	cmp	x8, x22
    65b0:	540001a3 	b.cc	65e4 <_ZStplIcSt11char_traitsIcESaIcEENSt7__cxx1112basic_stringIT_T0_T1_EEPKS5_RKS8_+0x88>  // b.lo, b.ul, b.last
    65b4:	aa1303e0 	mov	x0, x19
    65b8:	aa1503e1 	mov	x1, x21
    65bc:	aa1603e2 	mov	x2, x22
    65c0:	97fff8cc 	bl	48f0 <_ZNSt7__cxx1112basic_stringIcSt11char_traitsIcESaIcEE9_M_appendEPKcm@plt>
    65c4:	a9400a81 	ldp	x1, x2, [x20]
    65c8:	aa1303e0 	mov	x0, x19
    65cc:	97fff8c9 	bl	48f0 <_ZNSt7__cxx1112basic_stringIcSt11char_traitsIcESaIcEE9_M_appendEPKcm@plt>
    65d0:	a9434ff4 	ldp	x20, x19, [sp, #48]
    65d4:	a94257f6 	ldp	x22, x21, [sp, #32]
    65d8:	f9400bf7 	ldr	x23, [sp, #16]
    65dc:	a8c47bfd 	ldp	x29, x30, [sp], #64
    65e0:	d65f03c0 	ret
    65e4:	b0000120 	adrp	x0, 2b000 <_IO_stdin_used+0x2b0>
    65e8:	9100b400 	add	x0, x0, #0x2d
    65ec:	97fff8e5 	bl	4980 <_ZSt20__throw_length_errorPKc@plt>
    65f0:	f9400268 	ldr	x8, [x19]
    65f4:	aa0003f3 	mov	x19, x0
    65f8:	eb17011f 	cmp	x8, x23
    65fc:	54000060 	b.eq	6608 <_ZStplIcSt11char_traitsIcESaIcEENSt7__cxx1112basic_stringIT_T0_T1_EEPKS5_RKS8_+0xac>  // b.none
    6600:	aa0803e0 	mov	x0, x8
    6604:	97fff93f 	bl	4b00 <_ZdlPv@plt>
    6608:	aa1303e0 	mov	x0, x19
    660c:	97fff9c5 	bl	4d20 <_Unwind_Resume@plt>

0000000000006610 <__clang_call_terminate>:
    6610:	f81f0ffe 	str	x30, [sp, #-16]!
    6614:	97fff8cf 	bl	4950 <__cxa_begin_catch@plt>
    6618:	97fff8a2 	bl	48a0 <_ZSt9terminatev@plt>

000000000000661c <_ZN6mapnik16vector_tile_impl15zlib_decompressEPKcmRNSt7__cxx1112basic_stringIcSt11char_traitsIcESaIcEEE>:
    661c:	d10343ff 	sub	sp, sp, #0xd0
    6620:	a9097bfd 	stp	x29, x30, [sp, #144]
    6624:	f90053f7 	str	x23, [sp, #160]
    6628:	a90b57f6 	stp	x22, x21, [sp, #176]
    662c:	a90c4ff4 	stp	x20, x19, [sp, #192]
    6630:	910243fd 	add	x29, sp, #0x90
    6634:	aa0203f3 	mov	x19, x2
    6638:	aa0103f5 	mov	x21, x1
    663c:	aa0003f6 	mov	x22, x0
    6640:	90000122 	adrp	x2, 2a000 <_ZN6google8protobuf2io18StringOutputStreamD1Ev>
    6644:	913f8842 	add	x2, x2, #0xfe2
    6648:	910083e0 	add	x0, sp, #0x20
    664c:	528005e1 	mov	w1, #0x2f                  	// #47
    6650:	52800e03 	mov	w3, #0x70                  	// #112
    6654:	b9002bff 	str	wzr, [sp, #40]
    6658:	f90013ff 	str	xzr, [sp, #32]
    665c:	a906ffff 	stp	xzr, xzr, [sp, #104]
    6660:	f90033ff 	str	xzr, [sp, #96]
    6664:	97fff923 	bl	4af0 <inflateInit2_@plt>
    6668:	aa1f03f4 	mov	x20, xzr
    666c:	d37ffab7 	lsl	x23, x21, #1
    6670:	f90013f6 	str	x22, [sp, #32]
    6674:	b9002bf5 	str	w21, [sp, #40]
    6678:	14000005 	b	668c <_ZN6mapnik16vector_tile_impl15zlib_decompressEPKcmRNSt7__cxx1112basic_stringIcSt11char_traitsIcESaIcEEE+0x70>
    667c:	b94043e8 	ldr	w8, [sp, #64]
    6680:	cb0802e9 	sub	x9, x23, x8
    6684:	8b140134 	add	x20, x9, x20
    6688:	35000428 	cbnz	w8, 670c <_ZN6mapnik16vector_tile_impl15zlib_decompressEPKcmRNSt7__cxx1112basic_stringIcSt11char_traitsIcESaIcEEE+0xf0>
    668c:	8b170281 	add	x1, x20, x23
    6690:	aa1303e0 	mov	x0, x19
    6694:	2a1f03e2 	mov	w2, wzr
    6698:	97fff88e 	bl	48d0 <_ZNSt7__cxx1112basic_stringIcSt11char_traitsIcESaIcEE6resizeEmc@plt>
    669c:	f9400268 	ldr	x8, [x19]
    66a0:	910083e0 	add	x0, sp, #0x20
    66a4:	52800081 	mov	w1, #0x4                   	// #4
    66a8:	b90043f7 	str	w23, [sp, #64]
    66ac:	8b140108 	add	x8, x8, x20
    66b0:	f9001fe8 	str	x8, [sp, #56]
    66b4:	97fff907 	bl	4ad0 <inflate@plt>
    66b8:	7100081f 	cmp	w0, #0x2
    66bc:	54fffe03 	b.cc	667c <_ZN6mapnik16vector_tile_impl15zlib_decompressEPKcmRNSt7__cxx1112basic_stringIcSt11char_traitsIcESaIcEEE+0x60>  // b.lo, b.ul, b.last
    66c0:	3100141f 	cmn	w0, #0x5
    66c4:	54fffdc0 	b.eq	667c <_ZN6mapnik16vector_tile_impl15zlib_decompressEPKcmRNSt7__cxx1112basic_stringIcSt11char_traitsIcESaIcEEE+0x60>  // b.none
    66c8:	f9402be1 	ldr	x1, [sp, #80]
    66cc:	910003e0 	mov	x0, sp
    66d0:	910063a2 	add	x2, x29, #0x18
    66d4:	97fff89b 	bl	4940 <_ZNSt7__cxx1112basic_stringIcSt11char_traitsIcESaIcEEC2EPKcRKS3_@plt>
    66d8:	910083e0 	add	x0, sp, #0x20
    66dc:	97fff91d 	bl	4b50 <inflateEnd@plt>
    66e0:	52800200 	mov	w0, #0x10                  	// #16
    66e4:	97fff89f 	bl	4960 <__cxa_allocate_exception@plt>
    66e8:	aa0003f4 	mov	x20, x0
    66ec:	910003e1 	mov	x1, sp
    66f0:	97fff96c 	bl	4ca0 <_ZNSt13runtime_errorC1ERKNSt7__cxx1112basic_stringIcSt11char_traitsIcESaIcEEE@plt>
    66f4:	b0000201 	adrp	x1, 47000 <GCC_except_table137+0x112f4>
    66f8:	b0000202 	adrp	x2, 47000 <GCC_except_table137+0x112f4>
    66fc:	aa1403e0 	mov	x0, x20
    6700:	f947e821 	ldr	x1, [x1, #4048]
    6704:	f9472042 	ldr	x2, [x2, #3648]
    6708:	97fff97e 	bl	4d00 <__cxa_throw@plt>
    670c:	910083e0 	add	x0, sp, #0x20
    6710:	97fff910 	bl	4b50 <inflateEnd@plt>
    6714:	aa1303e0 	mov	x0, x19
    6718:	aa1403e1 	mov	x1, x20
    671c:	2a1f03e2 	mov	w2, wzr
    6720:	97fff86c 	bl	48d0 <_ZNSt7__cxx1112basic_stringIcSt11char_traitsIcESaIcEE6resizeEmc@plt>
    6724:	a94c4ff4 	ldp	x20, x19, [sp, #192]
    6728:	a94b57f6 	ldp	x22, x21, [sp, #176]
    672c:	a9497bfd 	ldp	x29, x30, [sp, #144]
    6730:	f94053f7 	ldr	x23, [sp, #160]
    6734:	910343ff 	add	sp, sp, #0xd0
    6738:	d65f03c0 	ret
    673c:	aa0003f3 	mov	x19, x0
    6740:	aa1403e0 	mov	x0, x20
    6744:	97fff8d3 	bl	4a90 <__cxa_free_exception@plt>
    6748:	14000002 	b	6750 <_ZN6mapnik16vector_tile_impl15zlib_decompressEPKcmRNSt7__cxx1112basic_stringIcSt11char_traitsIcESaIcEEE+0x134>
    674c:	aa0003f3 	mov	x19, x0
    6750:	f94003e0 	ldr	x0, [sp]
    6754:	910003e8 	mov	x8, sp
    6758:	91004108 	add	x8, x8, #0x10
    675c:	eb08001f 	cmp	x0, x8
    6760:	54000040 	b.eq	6768 <_ZN6mapnik16vector_tile_impl15zlib_decompressEPKcmRNSt7__cxx1112basic_stringIcSt11char_traitsIcESaIcEEE+0x14c>  // b.none
    6764:	97fff8e7 	bl	4b00 <_ZdlPv@plt>
    6768:	aa1303e0 	mov	x0, x19
    676c:	97fff96d 	bl	4d20 <_Unwind_Resume@plt>

0000000000006770 <_ZNSt6vectorINSt7__cxx1112basic_stringIcSt11char_traitsIcESaIcEEESaIS5_EE17_M_realloc_insertIJS5_EEEvN9__gnu_cxx17__normal_iteratorIPS5_S7_EEDpOT_>:
    6770:	a9bb7bfd 	stp	x29, x30, [sp, #-80]!
    6774:	a90167fa 	stp	x26, x25, [sp, #16]
    6778:	a9025ff8 	stp	x24, x23, [sp, #32]
    677c:	a90357f6 	stp	x22, x21, [sp, #48]
    6780:	a9044ff4 	stp	x20, x19, [sp, #64]
    6784:	910003fd 	mov	x29, sp
    6788:	a9406414 	ldp	x20, x25, [x0]
    678c:	b27be7e9 	mov	x9, #0x7fffffffffffffe0    	// #9223372036854775776
    6790:	cb140328 	sub	x8, x25, x20
    6794:	eb09011f 	cmp	x8, x9
    6798:	54000d40 	b.eq	6940 <_ZNSt6vectorINSt7__cxx1112basic_stringIcSt11char_traitsIcESaIcEEESaIS5_EE17_M_realloc_insertIJS5_EEEvN9__gnu_cxx17__normal_iteratorIPS5_S7_EEDpOT_+0x1d0>  // b.none
    679c:	9345fd08 	asr	x8, x8, #5
    67a0:	aa0003f3 	mov	x19, x0
    67a4:	f100051f 	cmp	x8, #0x1
    67a8:	aa0203f7 	mov	x23, x2
    67ac:	9a9f8509 	csinc	x9, x8, xzr, hi  // hi = pmore
    67b0:	aa0103f5 	mov	x21, x1
    67b4:	ab080128 	adds	x8, x9, x8
    67b8:	cb14003a 	sub	x26, x1, x20
    67bc:	1a9f37e9 	cset	w9, cs  // cs = hs, nlast
    67c0:	f246151f 	tst	x8, #0xfc00000000000000
    67c4:	1a9f07ea 	cset	w10, ne  // ne = any
    67c8:	2a0a0129 	orr	w9, w9, w10
    67cc:	7100013f 	cmp	w9, #0x0
    67d0:	92ff8009 	mov	x9, #0x3ffffffffffffff     	// #288230376151711743
    67d4:	9a881138 	csel	x24, x9, x8, ne  // ne = any
    67d8:	d37beb00 	lsl	x0, x24, #5
    67dc:	97fff8d5 	bl	4b30 <_Znwm@plt>
    67e0:	aa1703e8 	mov	x8, x23
    67e4:	8b1a0009 	add	x9, x0, x26
    67e8:	aa0003f6 	mov	x22, x0
    67ec:	9100412a 	add	x10, x9, #0x10
    67f0:	f841050b 	ldr	x11, [x8], #16
    67f4:	f900012a 	str	x10, [x9]
    67f8:	eb08017f 	cmp	x11, x8
    67fc:	540000a0 	b.eq	6810 <_ZNSt6vectorINSt7__cxx1112basic_stringIcSt11char_traitsIcESaIcEEESaIS5_EE17_M_realloc_insertIJS5_EEEvN9__gnu_cxx17__normal_iteratorIPS5_S7_EEDpOT_+0xa0>  // b.none
    6800:	f940010c 	ldr	x12, [x8]
    6804:	f900012b 	str	x11, [x9]
    6808:	f900014c 	str	x12, [x10]
    680c:	14000003 	b	6818 <_ZNSt6vectorINSt7__cxx1112basic_stringIcSt11char_traitsIcESaIcEEESaIS5_EE17_M_realloc_insertIJS5_EEEvN9__gnu_cxx17__normal_iteratorIPS5_S7_EEDpOT_+0xa8>
    6810:	3dc00160 	ldr	q0, [x11]
    6814:	3d800140 	str	q0, [x10]
    6818:	f94006ea 	ldr	x10, [x23, #8]
    681c:	a9007ee8 	stp	x8, xzr, [x23]
    6820:	aa1603e8 	mov	x8, x22
    6824:	eb15029f 	cmp	x20, x21
    6828:	390042ff 	strb	wzr, [x23, #16]
    682c:	f900052a 	str	x10, [x9, #8]
    6830:	54000360 	b.eq	689c <_ZNSt6vectorINSt7__cxx1112basic_stringIcSt11char_traitsIcESaIcEEESaIS5_EE17_M_realloc_insertIJS5_EEEvN9__gnu_cxx17__normal_iteratorIPS5_S7_EEDpOT_+0x12c>  // b.none
    6834:	aa1f03e8 	mov	x8, xzr
    6838:	1400000e 	b	6870 <_ZNSt6vectorINSt7__cxx1112basic_stringIcSt11char_traitsIcESaIcEEESaIS5_EE17_M_realloc_insertIJS5_EEEvN9__gnu_cxx17__normal_iteratorIPS5_S7_EEDpOT_+0x100>
    683c:	f940012c 	ldr	x12, [x9]
    6840:	f900014b 	str	x11, [x10]
    6844:	f900094c 	str	x12, [x10, #16]
    6848:	8b08028a 	add	x10, x20, x8
    684c:	8b0802cb 	add	x11, x22, x8
    6850:	91008108 	add	x8, x8, #0x20
    6854:	3900013f 	strb	wzr, [x9]
    6858:	8b08028d 	add	x13, x20, x8
    685c:	f940054c 	ldr	x12, [x10, #8]
    6860:	eb1501bf 	cmp	x13, x21
    6864:	a9007d49 	stp	x9, xzr, [x10]
    6868:	f900056c 	str	x12, [x11, #8]
    686c:	54000160 	b.eq	6898 <_ZNSt6vectorINSt7__cxx1112basic_stringIcSt11char_traitsIcESaIcEEESaIS5_EE17_M_realloc_insertIJS5_EEEvN9__gnu_cxx17__normal_iteratorIPS5_S7_EEDpOT_+0x128>  // b.none
    6870:	8b080289 	add	x9, x20, x8
    6874:	8b0802ca 	add	x10, x22, x8
    6878:	9100414c 	add	x12, x10, #0x10
    687c:	f841052b 	ldr	x11, [x9], #16
    6880:	f900014c 	str	x12, [x10]
    6884:	eb0b013f 	cmp	x9, x11
    6888:	54fffda1 	b.ne	683c <_ZNSt6vectorINSt7__cxx1112basic_stringIcSt11char_traitsIcESaIcEEESaIS5_EE17_M_realloc_insertIJS5_EEEvN9__gnu_cxx17__normal_iteratorIPS5_S7_EEDpOT_+0xcc>  // b.any
    688c:	3dc00160 	ldr	q0, [x11]
    6890:	3d800180 	str	q0, [x12]
    6894:	17ffffed 	b	6848 <_ZNSt6vectorINSt7__cxx1112basic_stringIcSt11char_traitsIcESaIcEEESaIS5_EE17_M_realloc_insertIJS5_EEEvN9__gnu_cxx17__normal_iteratorIPS5_S7_EEDpOT_+0xd8>
    6898:	8b0802c8 	add	x8, x22, x8
    689c:	eb15033f 	cmp	x25, x21
    68a0:	54000360 	b.eq	690c <_ZNSt6vectorINSt7__cxx1112basic_stringIcSt11char_traitsIcESaIcEEESaIS5_EE17_M_realloc_insertIJS5_EEEvN9__gnu_cxx17__normal_iteratorIPS5_S7_EEDpOT_+0x19c>  // b.none
    68a4:	aa1f03e9 	mov	x9, xzr
    68a8:	1400000e 	b	68e0 <_ZNSt6vectorINSt7__cxx1112basic_stringIcSt11char_traitsIcESaIcEEESaIS5_EE17_M_realloc_insertIJS5_EEEvN9__gnu_cxx17__normal_iteratorIPS5_S7_EEDpOT_+0x170>
    68ac:	f940014d 	ldr	x13, [x10]
    68b0:	f900116c 	str	x12, [x11, #32]
    68b4:	f900196d 	str	x13, [x11, #48]
    68b8:	8b0902ab 	add	x11, x21, x9
    68bc:	8b09010c 	add	x12, x8, x9
    68c0:	91008129 	add	x9, x9, #0x20
    68c4:	8b0902ae 	add	x14, x21, x9
    68c8:	f940056d 	ldr	x13, [x11, #8]
    68cc:	eb1901df 	cmp	x14, x25
    68d0:	a9007d6a 	stp	x10, xzr, [x11]
    68d4:	3900015f 	strb	wzr, [x10]
    68d8:	f900158d 	str	x13, [x12, #40]
    68dc:	54000160 	b.eq	6908 <_ZNSt6vectorINSt7__cxx1112basic_stringIcSt11char_traitsIcESaIcEEESaIS5_EE17_M_realloc_insertIJS5_EEEvN9__gnu_cxx17__normal_iteratorIPS5_S7_EEDpOT_+0x198>  // b.none
    68e0:	8b0902aa 	add	x10, x21, x9
    68e4:	8b09010b 	add	x11, x8, x9
    68e8:	9100c16d 	add	x13, x11, #0x30
    68ec:	f841054c 	ldr	x12, [x10], #16
    68f0:	f900116d 	str	x13, [x11, #32]
    68f4:	eb0c015f 	cmp	x10, x12
    68f8:	54fffda1 	b.ne	68ac <_ZNSt6vectorINSt7__cxx1112basic_stringIcSt11char_traitsIcESaIcEEESaIS5_EE17_M_realloc_insertIJS5_EEEvN9__gnu_cxx17__normal_iteratorIPS5_S7_EEDpOT_+0x13c>  // b.any
    68fc:	3dc00180 	ldr	q0, [x12]
    6900:	3d8001a0 	str	q0, [x13]
    6904:	17ffffed 	b	68b8 <_ZNSt6vectorINSt7__cxx1112basic_stringIcSt11char_traitsIcESaIcEEESaIS5_EE17_M_realloc_insertIJS5_EEEvN9__gnu_cxx17__normal_iteratorIPS5_S7_EEDpOT_+0x148>
    6908:	8b090108 	add	x8, x8, x9
    690c:	91008115 	add	x21, x8, #0x20
    6910:	b4000074 	cbz	x20, 691c <_ZNSt6vectorINSt7__cxx1112basic_stringIcSt11char_traitsIcESaIcEEESaIS5_EE17_M_realloc_insertIJS5_EEEvN9__gnu_cxx17__normal_iteratorIPS5_S7_EEDpOT_+0x1ac>
    6914:	aa1403e0 	mov	x0, x20
    6918:	97fff87a 	bl	4b00 <_ZdlPv@plt>
    691c:	8b1816c8 	add	x8, x22, x24, lsl #5
    6920:	a9005676 	stp	x22, x21, [x19]
    6924:	f9000a68 	str	x8, [x19, #16]
    6928:	a9444ff4 	ldp	x20, x19, [sp, #64]
    692c:	a94357f6 	ldp	x22, x21, [sp, #48]
    6930:	a9425ff8 	ldp	x24, x23, [sp, #32]
    6934:	a94167fa 	ldp	x26, x25, [sp, #16]
    6938:	a8c57bfd 	ldp	x29, x30, [sp], #80
    693c:	d65f03c0 	ret
    6940:	b0000120 	adrp	x0, 2b000 <_IO_stdin_used+0x2b0>
    6944:	91004c00 	add	x0, x0, #0x13
    6948:	97fff80e 	bl	4980 <_ZSt20__throw_length_errorPKc@plt>

000000000000694c <_ZNSt7__cxx1112basic_stringIcSt11char_traitsIcESaIcEE12_M_constructISt19istreambuf_iteratorIcS2_EEEvT_S8_St18input_iterator_tag>:
    694c:	d10183ff 	sub	sp, sp, #0x60
    6950:	a9017bfd 	stp	x29, x30, [sp, #16]
    6954:	a90267fa 	stp	x26, x25, [sp, #32]
    6958:	a9035ff8 	stp	x24, x23, [sp, #48]
    695c:	a90457f6 	stp	x22, x21, [sp, #64]
    6960:	a9054ff4 	stp	x20, x19, [sp, #80]
    6964:	910043fd 	add	x29, sp, #0x10
    6968:	aa0403f4 	mov	x20, x4
    696c:	aa0303f6 	mov	x22, x3
    6970:	aa0203f8 	mov	x24, x2
    6974:	aa0103f5 	mov	x21, x1
    6978:	aa0003f3 	mov	x19, x0
    697c:	528001e8 	mov	w8, #0xf                   	// #15
    6980:	aa1f03f7 	mov	x23, xzr
    6984:	f90007e8 	str	x8, [sp, #8]
    6988:	b50006e1 	cbnz	x1, 6a64 <_ZNSt7__cxx1112basic_stringIcSt11char_traitsIcESaIcEE12_M_constructISt19istreambuf_iteratorIcS2_EEEvT_S8_St18input_iterator_tag+0x118>
    698c:	14000033 	b	6a58 <_ZNSt7__cxx1112basic_stringIcSt11char_traitsIcESaIcEE12_M_constructISt19istreambuf_iteratorIcS2_EEEvT_S8_St18input_iterator_tag+0x10c>
    6990:	b40000f5 	cbz	x21, 69ac <_ZNSt7__cxx1112basic_stringIcSt11char_traitsIcESaIcEE12_M_constructISt19istreambuf_iteratorIcS2_EEEvT_S8_St18input_iterator_tag+0x60>
    6994:	3100071f 	cmn	w24, #0x1
    6998:	540000a1 	b.ne	69ac <_ZNSt7__cxx1112basic_stringIcSt11char_traitsIcESaIcEE12_M_constructISt19istreambuf_iteratorIcS2_EEEvT_S8_St18input_iterator_tag+0x60>  // b.any
    699c:	a94126a8 	ldp	x8, x9, [x21, #16]
    69a0:	eb09011f 	cmp	x8, x9
    69a4:	54000342 	b.cs	6a0c <_ZNSt7__cxx1112basic_stringIcSt11char_traitsIcESaIcEE12_M_constructISt19istreambuf_iteratorIcS2_EEEvT_S8_St18input_iterator_tag+0xc0>  // b.hs, b.nlast
    69a8:	39400118 	ldrb	w24, [x8]
    69ac:	f9400268 	ldr	x8, [x19]
    69b0:	38376918 	strb	w24, [x8, x23]
    69b4:	a94126a8 	ldp	x8, x9, [x21, #16]
    69b8:	eb09011f 	cmp	x8, x9
    69bc:	54000402 	b.cs	6a3c <_ZNSt7__cxx1112basic_stringIcSt11char_traitsIcESaIcEE12_M_constructISt19istreambuf_iteratorIcS2_EEEvT_S8_St18input_iterator_tag+0xf0>  // b.hs, b.nlast
    69c0:	91000508 	add	x8, x8, #0x1
    69c4:	f9000aa8 	str	x8, [x21, #16]
    69c8:	910006f7 	add	x23, x23, #0x1
    69cc:	12800018 	mov	w24, #0xffffffff            	// #-1
    69d0:	b50004b5 	cbnz	x21, 6a64 <_ZNSt7__cxx1112basic_stringIcSt11char_traitsIcESaIcEE12_M_constructISt19istreambuf_iteratorIcS2_EEEvT_S8_St18input_iterator_tag+0x118>
    69d4:	14000021 	b	6a58 <_ZNSt7__cxx1112basic_stringIcSt11char_traitsIcESaIcEE12_M_constructISt19istreambuf_iteratorIcS2_EEEvT_S8_St18input_iterator_tag+0x10c>
    69d8:	f94002c8 	ldr	x8, [x22]
    69dc:	aa1603e0 	mov	x0, x22
    69e0:	f9402508 	ldr	x8, [x8, #72]
    69e4:	d63f0100 	blr	x8
    69e8:	3100041f 	cmn	w0, #0x1
    69ec:	9a9603f6 	csel	x22, xzr, x22, eq  // eq = none
    69f0:	3100073f 	cmn	w25, #0x1
    69f4:	1a9f17e8 	cset	w8, eq  // eq = none
    69f8:	3100041f 	cmn	w0, #0x1
    69fc:	1a9f17e9 	cset	w9, eq  // eq = none
    6a00:	6b09011f 	cmp	w8, w9
    6a04:	54000761 	b.ne	6af0 <_ZNSt7__cxx1112basic_stringIcSt11char_traitsIcESaIcEE12_M_constructISt19istreambuf_iteratorIcS2_EEEvT_S8_St18input_iterator_tag+0x1a4>  // b.any
    6a08:	1400003d 	b	6afc <_ZNSt7__cxx1112basic_stringIcSt11char_traitsIcESaIcEE12_M_constructISt19istreambuf_iteratorIcS2_EEEvT_S8_St18input_iterator_tag+0x1b0>
    6a0c:	f94002a8 	ldr	x8, [x21]
    6a10:	aa1503e0 	mov	x0, x21
    6a14:	f9402508 	ldr	x8, [x8, #72]
    6a18:	d63f0100 	blr	x8
    6a1c:	3100041f 	cmn	w0, #0x1
    6a20:	2a0003f8 	mov	w24, w0
    6a24:	9a9503f5 	csel	x21, xzr, x21, eq  // eq = none
    6a28:	f9400268 	ldr	x8, [x19]
    6a2c:	38376918 	strb	w24, [x8, x23]
    6a30:	a94126a8 	ldp	x8, x9, [x21, #16]
    6a34:	eb09011f 	cmp	x8, x9
    6a38:	54fffc43 	b.cc	69c0 <_ZNSt7__cxx1112basic_stringIcSt11char_traitsIcESaIcEE12_M_constructISt19istreambuf_iteratorIcS2_EEEvT_S8_St18input_iterator_tag+0x74>  // b.lo, b.ul, b.last
    6a3c:	f94002a8 	ldr	x8, [x21]
    6a40:	aa1503e0 	mov	x0, x21
    6a44:	f9402908 	ldr	x8, [x8, #80]
    6a48:	d63f0100 	blr	x8
    6a4c:	910006f7 	add	x23, x23, #0x1
    6a50:	12800018 	mov	w24, #0xffffffff            	// #-1
    6a54:	b5000095 	cbnz	x21, 6a64 <_ZNSt7__cxx1112basic_stringIcSt11char_traitsIcESaIcEE12_M_constructISt19istreambuf_iteratorIcS2_EEEvT_S8_St18input_iterator_tag+0x118>
    6a58:	2a1803f9 	mov	w25, w24
    6a5c:	b5000136 	cbnz	x22, 6a80 <_ZNSt7__cxx1112basic_stringIcSt11char_traitsIcESaIcEE12_M_constructISt19istreambuf_iteratorIcS2_EEEvT_S8_St18input_iterator_tag+0x134>
    6a60:	1400001d 	b	6ad4 <_ZNSt7__cxx1112basic_stringIcSt11char_traitsIcESaIcEE12_M_constructISt19istreambuf_iteratorIcS2_EEEvT_S8_St18input_iterator_tag+0x188>
    6a64:	3100071f 	cmn	w24, #0x1
    6a68:	54ffff81 	b.ne	6a58 <_ZNSt7__cxx1112basic_stringIcSt11char_traitsIcESaIcEE12_M_constructISt19istreambuf_iteratorIcS2_EEEvT_S8_St18input_iterator_tag+0x10c>  // b.any
    6a6c:	a94126a8 	ldp	x8, x9, [x21, #16]
    6a70:	eb09011f 	cmp	x8, x9
    6a74:	54000202 	b.cs	6ab4 <_ZNSt7__cxx1112basic_stringIcSt11char_traitsIcESaIcEE12_M_constructISt19istreambuf_iteratorIcS2_EEEvT_S8_St18input_iterator_tag+0x168>  // b.hs, b.nlast
    6a78:	39400119 	ldrb	w25, [x8]
    6a7c:	b40002d6 	cbz	x22, 6ad4 <_ZNSt7__cxx1112basic_stringIcSt11char_traitsIcESaIcEE12_M_constructISt19istreambuf_iteratorIcS2_EEEvT_S8_St18input_iterator_tag+0x188>
    6a80:	3100069f 	cmn	w20, #0x1
    6a84:	54000281 	b.ne	6ad4 <_ZNSt7__cxx1112basic_stringIcSt11char_traitsIcESaIcEE12_M_constructISt19istreambuf_iteratorIcS2_EEEvT_S8_St18input_iterator_tag+0x188>  // b.any
    6a88:	a94126c8 	ldp	x8, x9, [x22, #16]
    6a8c:	eb09011f 	cmp	x8, x9
    6a90:	54fffa42 	b.cs	69d8 <_ZNSt7__cxx1112basic_stringIcSt11char_traitsIcESaIcEE12_M_constructISt19istreambuf_iteratorIcS2_EEEvT_S8_St18input_iterator_tag+0x8c>  // b.hs, b.nlast
    6a94:	39400100 	ldrb	w0, [x8]
    6a98:	3100073f 	cmn	w25, #0x1
    6a9c:	1a9f17e8 	cset	w8, eq  // eq = none
    6aa0:	3100041f 	cmn	w0, #0x1
    6aa4:	1a9f17e9 	cset	w9, eq  // eq = none
    6aa8:	6b09011f 	cmp	w8, w9
    6aac:	54000221 	b.ne	6af0 <_ZNSt7__cxx1112basic_stringIcSt11char_traitsIcESaIcEE12_M_constructISt19istreambuf_iteratorIcS2_EEEvT_S8_St18input_iterator_tag+0x1a4>  // b.any
    6ab0:	14000013 	b	6afc <_ZNSt7__cxx1112basic_stringIcSt11char_traitsIcESaIcEE12_M_constructISt19istreambuf_iteratorIcS2_EEEvT_S8_St18input_iterator_tag+0x1b0>
    6ab4:	f94002a8 	ldr	x8, [x21]
    6ab8:	aa1503e0 	mov	x0, x21
    6abc:	f9402508 	ldr	x8, [x8, #72]
    6ac0:	d63f0100 	blr	x8
    6ac4:	3100041f 	cmn	w0, #0x1
    6ac8:	2a0003f9 	mov	w25, w0
    6acc:	9a9503f5 	csel	x21, xzr, x21, eq  // eq = none
    6ad0:	b5fffd96 	cbnz	x22, 6a80 <_ZNSt7__cxx1112basic_stringIcSt11char_traitsIcESaIcEE12_M_constructISt19istreambuf_iteratorIcS2_EEEvT_S8_St18input_iterator_tag+0x134>
    6ad4:	2a1403e0 	mov	w0, w20
    6ad8:	3100073f 	cmn	w25, #0x1
    6adc:	1a9f17e8 	cset	w8, eq  // eq = none
    6ae0:	3100069f 	cmn	w20, #0x1
    6ae4:	1a9f17e9 	cset	w9, eq  // eq = none
    6ae8:	6b09011f 	cmp	w8, w9
    6aec:	54000080 	b.eq	6afc <_ZNSt7__cxx1112basic_stringIcSt11char_traitsIcESaIcEE12_M_constructISt19istreambuf_iteratorIcS2_EEEvT_S8_St18input_iterator_tag+0x1b0>  // b.none
    6af0:	f94007e8 	ldr	x8, [sp, #8]
    6af4:	eb0802ff 	cmp	x23, x8
    6af8:	54fff4c3 	b.cc	6990 <_ZNSt7__cxx1112basic_stringIcSt11char_traitsIcESaIcEE12_M_constructISt19istreambuf_iteratorIcS2_EEEvT_S8_St18input_iterator_tag+0x44>  // b.lo, b.ul, b.last
    6afc:	9100427a 	add	x26, x19, #0x10
    6b00:	b5000095 	cbnz	x21, 6b10 <_ZNSt7__cxx1112basic_stringIcSt11char_traitsIcESaIcEE12_M_constructISt19istreambuf_iteratorIcS2_EEEvT_S8_St18input_iterator_tag+0x1c4>
    6b04:	2a1803f9 	mov	w25, w24
    6b08:	b5000136 	cbnz	x22, 6b2c <_ZNSt7__cxx1112basic_stringIcSt11char_traitsIcESaIcEE12_M_constructISt19istreambuf_iteratorIcS2_EEEvT_S8_St18input_iterator_tag+0x1e0>
    6b0c:	14000018 	b	6b6c <_ZNSt7__cxx1112basic_stringIcSt11char_traitsIcESaIcEE12_M_constructISt19istreambuf_iteratorIcS2_EEEvT_S8_St18input_iterator_tag+0x220>
    6b10:	3100071f 	cmn	w24, #0x1
    6b14:	54ffff81 	b.ne	6b04 <_ZNSt7__cxx1112basic_stringIcSt11char_traitsIcESaIcEE12_M_constructISt19istreambuf_iteratorIcS2_EEEvT_S8_St18input_iterator_tag+0x1b8>  // b.any
    6b18:	a94126a8 	ldp	x8, x9, [x21, #16]
    6b1c:	eb09011f 	cmp	x8, x9
    6b20:	54000162 	b.cs	6b4c <_ZNSt7__cxx1112basic_stringIcSt11char_traitsIcESaIcEE12_M_constructISt19istreambuf_iteratorIcS2_EEEvT_S8_St18input_iterator_tag+0x200>  // b.hs, b.nlast
    6b24:	39400119 	ldrb	w25, [x8]
    6b28:	b4000236 	cbz	x22, 6b6c <_ZNSt7__cxx1112basic_stringIcSt11char_traitsIcESaIcEE12_M_constructISt19istreambuf_iteratorIcS2_EEEvT_S8_St18input_iterator_tag+0x220>
    6b2c:	3100069f 	cmn	w20, #0x1
    6b30:	540001e1 	b.ne	6b6c <_ZNSt7__cxx1112basic_stringIcSt11char_traitsIcESaIcEE12_M_constructISt19istreambuf_iteratorIcS2_EEEvT_S8_St18input_iterator_tag+0x220>  // b.any
    6b34:	a94126c8 	ldp	x8, x9, [x22, #16]
    6b38:	eb09011f 	cmp	x8, x9
    6b3c:	54000842 	b.cs	6c44 <_ZNSt7__cxx1112basic_stringIcSt11char_traitsIcESaIcEE12_M_constructISt19istreambuf_iteratorIcS2_EEEvT_S8_St18input_iterator_tag+0x2f8>  // b.hs, b.nlast
    6b40:	3100073f 	cmn	w25, #0x1
    6b44:	54000200 	b.eq	6b84 <_ZNSt7__cxx1112basic_stringIcSt11char_traitsIcESaIcEE12_M_constructISt19istreambuf_iteratorIcS2_EEEvT_S8_St18input_iterator_tag+0x238>  // b.none
    6b48:	1400005d 	b	6cbc <_ZNSt7__cxx1112basic_stringIcSt11char_traitsIcESaIcEE12_M_constructISt19istreambuf_iteratorIcS2_EEEvT_S8_St18input_iterator_tag+0x370>
    6b4c:	f94002a8 	ldr	x8, [x21]
    6b50:	f9402508 	ldr	x8, [x8, #72]
    6b54:	aa1503e0 	mov	x0, x21
    6b58:	d63f0100 	blr	x8
    6b5c:	3100041f 	cmn	w0, #0x1
    6b60:	2a0003f9 	mov	w25, w0
    6b64:	9a9503f5 	csel	x21, xzr, x21, eq  // eq = none
    6b68:	b5fffe36 	cbnz	x22, 6b2c <_ZNSt7__cxx1112basic_stringIcSt11char_traitsIcESaIcEE12_M_constructISt19istreambuf_iteratorIcS2_EEEvT_S8_St18input_iterator_tag+0x1e0>
    6b6c:	3100069f 	cmn	w20, #0x1
    6b70:	1a9f17e8 	cset	w8, eq  // eq = none
    6b74:	3100073f 	cmn	w25, #0x1
    6b78:	1a9f17e9 	cset	w9, eq  // eq = none
    6b7c:	6b09011f 	cmp	w8, w9
    6b80:	540009e0 	b.eq	6cbc <_ZNSt7__cxx1112basic_stringIcSt11char_traitsIcESaIcEE12_M_constructISt19istreambuf_iteratorIcS2_EEEvT_S8_St18input_iterator_tag+0x370>  // b.none
    6b84:	f94007e8 	ldr	x8, [sp, #8]
    6b88:	eb0802ff 	cmp	x23, x8
    6b8c:	540002a1 	b.ne	6be0 <_ZNSt7__cxx1112basic_stringIcSt11char_traitsIcESaIcEE12_M_constructISt19istreambuf_iteratorIcS2_EEEvT_S8_St18input_iterator_tag+0x294>  // b.any
    6b90:	910006e8 	add	x8, x23, #0x1
    6b94:	f90007e8 	str	x8, [sp, #8]
    6b98:	910023e1 	add	x1, sp, #0x8
    6b9c:	aa1303e0 	mov	x0, x19
    6ba0:	aa1703e2 	mov	x2, x23
    6ba4:	97fff863 	bl	4d30 <_ZNSt7__cxx1112basic_stringIcSt11char_traitsIcESaIcEE9_M_createERmm@plt>
    6ba8:	aa0003f9 	mov	x25, x0
    6bac:	b40000d7 	cbz	x23, 6bc4 <_ZNSt7__cxx1112basic_stringIcSt11char_traitsIcESaIcEE12_M_constructISt19istreambuf_iteratorIcS2_EEEvT_S8_St18input_iterator_tag+0x278>
    6bb0:	f9400261 	ldr	x1, [x19]
    6bb4:	f10006ff 	cmp	x23, #0x1
    6bb8:	54000381 	b.ne	6c28 <_ZNSt7__cxx1112basic_stringIcSt11char_traitsIcESaIcEE12_M_constructISt19istreambuf_iteratorIcS2_EEEvT_S8_St18input_iterator_tag+0x2dc>  // b.any
    6bbc:	39400028 	ldrb	w8, [x1]
    6bc0:	39000328 	strb	w8, [x25]
    6bc4:	f9400260 	ldr	x0, [x19]
    6bc8:	eb1a001f 	cmp	x0, x26
    6bcc:	54000040 	b.eq	6bd4 <_ZNSt7__cxx1112basic_stringIcSt11char_traitsIcESaIcEE12_M_constructISt19istreambuf_iteratorIcS2_EEEvT_S8_St18input_iterator_tag+0x288>  // b.none
    6bd0:	97fff7cc 	bl	4b00 <_ZdlPv@plt>
    6bd4:	f94007e8 	ldr	x8, [sp, #8]
    6bd8:	f9000279 	str	x25, [x19]
    6bdc:	f9000a68 	str	x8, [x19, #16]
    6be0:	b40000f5 	cbz	x21, 6bfc <_ZNSt7__cxx1112basic_stringIcSt11char_traitsIcESaIcEE12_M_constructISt19istreambuf_iteratorIcS2_EEEvT_S8_St18input_iterator_tag+0x2b0>
    6be4:	3100071f 	cmn	w24, #0x1
    6be8:	540000a1 	b.ne	6bfc <_ZNSt7__cxx1112basic_stringIcSt11char_traitsIcESaIcEE12_M_constructISt19istreambuf_iteratorIcS2_EEEvT_S8_St18input_iterator_tag+0x2b0>  // b.any
    6bec:	a94126a8 	ldp	x8, x9, [x21, #16]
    6bf0:	eb09011f 	cmp	x8, x9
    6bf4:	54000422 	b.cs	6c78 <_ZNSt7__cxx1112basic_stringIcSt11char_traitsIcESaIcEE12_M_constructISt19istreambuf_iteratorIcS2_EEEvT_S8_St18input_iterator_tag+0x32c>  // b.hs, b.nlast
    6bf8:	39400118 	ldrb	w24, [x8]
    6bfc:	f9400268 	ldr	x8, [x19]
    6c00:	38376918 	strb	w24, [x8, x23]
    6c04:	a94126a8 	ldp	x8, x9, [x21, #16]
    6c08:	eb09011f 	cmp	x8, x9
    6c0c:	540004e2 	b.cs	6ca8 <_ZNSt7__cxx1112basic_stringIcSt11char_traitsIcESaIcEE12_M_constructISt19istreambuf_iteratorIcS2_EEEvT_S8_St18input_iterator_tag+0x35c>  // b.hs, b.nlast
    6c10:	91000508 	add	x8, x8, #0x1
    6c14:	f9000aa8 	str	x8, [x21, #16]
    6c18:	910006f7 	add	x23, x23, #0x1
    6c1c:	12800018 	mov	w24, #0xffffffff            	// #-1
    6c20:	b5fff795 	cbnz	x21, 6b10 <_ZNSt7__cxx1112basic_stringIcSt11char_traitsIcESaIcEE12_M_constructISt19istreambuf_iteratorIcS2_EEEvT_S8_St18input_iterator_tag+0x1c4>
    6c24:	17ffffb8 	b	6b04 <_ZNSt7__cxx1112basic_stringIcSt11char_traitsIcESaIcEE12_M_constructISt19istreambuf_iteratorIcS2_EEEvT_S8_St18input_iterator_tag+0x1b8>
    6c28:	aa1903e0 	mov	x0, x25
    6c2c:	aa1703e2 	mov	x2, x23
    6c30:	97fff708 	bl	4850 <memcpy@plt>
    6c34:	f9400260 	ldr	x0, [x19]
    6c38:	eb1a001f 	cmp	x0, x26
    6c3c:	54fffca1 	b.ne	6bd0 <_ZNSt7__cxx1112basic_stringIcSt11char_traitsIcESaIcEE12_M_constructISt19istreambuf_iteratorIcS2_EEEvT_S8_St18input_iterator_tag+0x284>  // b.any
    6c40:	17ffffe5 	b	6bd4 <_ZNSt7__cxx1112basic_stringIcSt11char_traitsIcESaIcEE12_M_constructISt19istreambuf_iteratorIcS2_EEEvT_S8_St18input_iterator_tag+0x288>
    6c44:	f94002c8 	ldr	x8, [x22]
    6c48:	f9402508 	ldr	x8, [x8, #72]
    6c4c:	aa1603e0 	mov	x0, x22
    6c50:	d63f0100 	blr	x8
    6c54:	3100041f 	cmn	w0, #0x1
    6c58:	54fff741 	b.ne	6b40 <_ZNSt7__cxx1112basic_stringIcSt11char_traitsIcESaIcEE12_M_constructISt19istreambuf_iteratorIcS2_EEEvT_S8_St18input_iterator_tag+0x1f4>  // b.any
    6c5c:	3100073f 	cmn	w25, #0x1
    6c60:	540002e0 	b.eq	6cbc <_ZNSt7__cxx1112basic_stringIcSt11char_traitsIcESaIcEE12_M_constructISt19istreambuf_iteratorIcS2_EEEvT_S8_St18input_iterator_tag+0x370>  // b.none
    6c64:	aa1f03f6 	mov	x22, xzr
    6c68:	f94007e8 	ldr	x8, [sp, #8]
    6c6c:	eb0802ff 	cmp	x23, x8
    6c70:	54fff900 	b.eq	6b90 <_ZNSt7__cxx1112basic_stringIcSt11char_traitsIcESaIcEE12_M_constructISt19istreambuf_iteratorIcS2_EEEvT_S8_St18input_iterator_tag+0x244>  // b.none
    6c74:	17ffffdb 	b	6be0 <_ZNSt7__cxx1112basic_stringIcSt11char_traitsIcESaIcEE12_M_constructISt19istreambuf_iteratorIcS2_EEEvT_S8_St18input_iterator_tag+0x294>
    6c78:	f94002a8 	ldr	x8, [x21]
    6c7c:	f9402508 	ldr	x8, [x8, #72]
    6c80:	aa1503e0 	mov	x0, x21
    6c84:	d63f0100 	blr	x8
    6c88:	3100041f 	cmn	w0, #0x1
    6c8c:	2a0003f8 	mov	w24, w0
    6c90:	9a9503f5 	csel	x21, xzr, x21, eq  // eq = none
    6c94:	f9400268 	ldr	x8, [x19]
    6c98:	38376918 	strb	w24, [x8, x23]
    6c9c:	a94126a8 	ldp	x8, x9, [x21, #16]
    6ca0:	eb09011f 	cmp	x8, x9
    6ca4:	54fffb63 	b.cc	6c10 <_ZNSt7__cxx1112basic_stringIcSt11char_traitsIcESaIcEE12_M_constructISt19istreambuf_iteratorIcS2_EEEvT_S8_St18input_iterator_tag+0x2c4>  // b.lo, b.ul, b.last
    6ca8:	f94002a8 	ldr	x8, [x21]
    6cac:	f9402908 	ldr	x8, [x8, #80]
    6cb0:	aa1503e0 	mov	x0, x21
    6cb4:	d63f0100 	blr	x8
    6cb8:	17ffffd8 	b	6c18 <_ZNSt7__cxx1112basic_stringIcSt11char_traitsIcESaIcEE12_M_constructISt19istreambuf_iteratorIcS2_EEEvT_S8_St18input_iterator_tag+0x2cc>
    6cbc:	f9400268 	ldr	x8, [x19]
    6cc0:	f9000677 	str	x23, [x19, #8]
    6cc4:	3837691f 	strb	wzr, [x8, x23]
    6cc8:	a9454ff4 	ldp	x20, x19, [sp, #80]
    6ccc:	a94457f6 	ldp	x22, x21, [sp, #64]
    6cd0:	a9435ff8 	ldp	x24, x23, [sp, #48]
    6cd4:	a94267fa 	ldp	x26, x25, [sp, #32]
    6cd8:	a9417bfd 	ldp	x29, x30, [sp, #16]
    6cdc:	910183ff 	add	sp, sp, #0x60
    6ce0:	d65f03c0 	ret
    6ce4:	14000001 	b	6ce8 <_ZNSt7__cxx1112basic_stringIcSt11char_traitsIcESaIcEE12_M_constructISt19istreambuf_iteratorIcS2_EEEvT_S8_St18input_iterator_tag+0x39c>
    6ce8:	97fff71a 	bl	4950 <__cxa_begin_catch@plt>
    6cec:	f9400260 	ldr	x0, [x19]
    6cf0:	eb1a001f 	cmp	x0, x26
    6cf4:	54000040 	b.eq	6cfc <_ZNSt7__cxx1112basic_stringIcSt11char_traitsIcESaIcEE12_M_constructISt19istreambuf_iteratorIcS2_EEEvT_S8_St18input_iterator_tag+0x3b0>  // b.none
    6cf8:	97fff782 	bl	4b00 <_ZdlPv@plt>
    6cfc:	97fff7d1 	bl	4c40 <__cxa_rethrow@plt>
    6d00:	aa0003f3 	mov	x19, x0
    6d04:	97fff7eb 	bl	4cb0 <__cxa_end_catch@plt>
    6d08:	aa1303e0 	mov	x0, x19
    6d0c:	97fff805 	bl	4d20 <_Unwind_Resume@plt>
    6d10:	97fffe40 	bl	6610 <__clang_call_terminate>

0000000000006d14 <_ZN30protobuf_vector_5ftile_2eproto26InitDefaultsTile_ValueImplEv>:
    6d14:	a9be7bfd 	stp	x29, x30, [sp, #-32]!
    6d18:	f9000bf3 	str	x19, [sp, #16]
    6d1c:	910003fd 	mov	x29, sp
    6d20:	97fff700 	bl	4920 <_mcount@plt>
    6d24:	529b4908 	mov	w8, #0xda48                	// #55880
    6d28:	529b4901 	mov	w1, #0xda48                	// #55880
    6d2c:	72a005a8 	movk	w8, #0x2d, lsl #16
    6d30:	b0000122 	adrp	x2, 2b000 <_IO_stdin_used+0x2b0>
    6d34:	9105bc42 	add	x2, x2, #0x16f
    6d38:	32000100 	orr	w0, w8, #0x1
    6d3c:	72a005a1 	movk	w1, #0x2d, lsl #16
    6d40:	94001ced 	bl	e0f4 <_ZN6google8protobuf8internal13VerifyVersionEiiPKc>
    6d44:	9400569b 	bl	1c7b0 <_ZN6google8protobuf8internal20InitProtobufDefaultsEv>
    6d48:	d0000213 	adrp	x19, 48000 <_Znam@GLIBCXX_3.4>
    6d4c:	910bc273 	add	x19, x19, #0x2f0
    6d50:	b0000208 	adrp	x8, 47000 <GCC_except_table137+0x112f4>
    6d54:	9108c108 	add	x8, x8, #0x230
    6d58:	91002260 	add	x0, x19, #0x8
    6d5c:	f9000268 	str	x8, [x19]
    6d60:	94002b40 	bl	11a60 <_ZN6google8protobuf8internal12ExtensionSetC1Ev>
    6d64:	b0000208 	adrp	x8, 47000 <GCC_except_table137+0x112f4>
    6d68:	aa1303e0 	mov	x0, x19
    6d6c:	6f00e400 	movi	v0.2d, #0x0
    6d70:	f946a108 	ldr	x8, [x8, #3392]
    6d74:	a9047e7f 	stp	xzr, xzr, [x19, #64]
    6d78:	3c858260 	stur	q0, [x19, #88]
    6d7c:	f9002a68 	str	x8, [x19, #80]
    6d80:	3c868260 	stur	q0, [x19, #104]
    6d84:	f9003e7f 	str	xzr, [x19, #120]
    6d88:	f9400bf3 	ldr	x19, [sp, #16]
    6d8c:	a8c27bfd 	ldp	x29, x30, [sp], #32
    6d90:	14001f6c 	b	eb40 <_ZN6google8protobuf8internal24OnShutdownDestroyMessageEPKv>

0000000000006d94 <_ZN11vector_tile10Tile_Value21InitAsDefaultInstanceEv>:
    6d94:	a9bf7bfd 	stp	x29, x30, [sp, #-16]!
    6d98:	910003fd 	mov	x29, sp
    6d9c:	97fff6e1 	bl	4920 <_mcount@plt>
    6da0:	a8c17bfd 	ldp	x29, x30, [sp], #16
    6da4:	d65f03c0 	ret

0000000000006da8 <_ZN30protobuf_vector_5ftile_2eproto22InitDefaultsTile_ValueEv>:
    6da8:	d10103ff 	sub	sp, sp, #0x40
    6dac:	a9027bfd 	stp	x29, x30, [sp, #32]
    6db0:	f9001bf3 	str	x19, [sp, #48]
    6db4:	910083fd 	add	x29, sp, #0x20
    6db8:	97fff6da 	bl	4920 <_mcount@plt>
    6dbc:	d0000208 	adrp	x8, 48000 <_Znam@GLIBCXX_3.4>
    6dc0:	9113c108 	add	x8, x8, #0x4f0
    6dc4:	c8dffd08 	ldar	x8, [x8]
    6dc8:	f100091f 	cmp	x8, #0x2
    6dcc:	540001c0 	b.eq	6e04 <_ZN30protobuf_vector_5ftile_2eproto22InitDefaultsTile_ValueEv+0x5c>  // b.none
    6dd0:	b0000208 	adrp	x8, 47000 <GCC_except_table137+0x112f4>
    6dd4:	90000009 	adrp	x9, 6000 <main+0xc2c>
    6dd8:	91345129 	add	x9, x9, #0xd14
    6ddc:	f9470d08 	ldr	x8, [x8, #3608]
    6de0:	390063ff 	strb	wzr, [sp, #24]
    6de4:	91004108 	add	x8, x8, #0x10
    6de8:	a900a7e8 	stp	x8, x9, [sp, #8]
    6dec:	d0000200 	adrp	x0, 48000 <_Znam@GLIBCXX_3.4>
    6df0:	9113c000 	add	x0, x0, #0x4f0
    6df4:	910023e1 	add	x1, sp, #0x8
    6df8:	94002396 	bl	fc50 <_ZN6google8protobuf18GoogleOnceInitImplEPlPNS0_7ClosureE>
    6dfc:	910023e0 	add	x0, sp, #0x8
    6e00:	94001b49 	bl	db24 <_ZN6google8protobuf8internal16FunctionClosure0D1Ev>
    6e04:	a9427bfd 	ldp	x29, x30, [sp, #32]
    6e08:	f9401bf3 	ldr	x19, [sp, #48]
    6e0c:	910103ff 	add	sp, sp, #0x40
    6e10:	d65f03c0 	ret
    6e14:	aa0003f3 	mov	x19, x0
    6e18:	910023e0 	add	x0, sp, #0x8
    6e1c:	94001b42 	bl	db24 <_ZN6google8protobuf8internal16FunctionClosure0D1Ev>
    6e20:	aa1303e0 	mov	x0, x19
    6e24:	97fff7bf 	bl	4d20 <_Unwind_Resume@plt>

0000000000006e28 <_ZN30protobuf_vector_5ftile_2eproto28InitDefaultsTile_FeatureImplEv>:
    6e28:	a9bf7bfd 	stp	x29, x30, [sp, #-16]!
    6e2c:	910003fd 	mov	x29, sp
    6e30:	97fff6bc 	bl	4920 <_mcount@plt>
    6e34:	529b4908 	mov	w8, #0xda48                	// #55880
    6e38:	529b4901 	mov	w1, #0xda48                	// #55880
    6e3c:	72a005a8 	movk	w8, #0x2d, lsl #16
    6e40:	b0000122 	adrp	x2, 2b000 <_IO_stdin_used+0x2b0>
    6e44:	9105bc42 	add	x2, x2, #0x16f
    6e48:	32000100 	orr	w0, w8, #0x1
    6e4c:	72a005a1 	movk	w1, #0x2d, lsl #16
    6e50:	94001ca9 	bl	e0f4 <_ZN6google8protobuf8internal13VerifyVersionEiiPKc>
    6e54:	94005657 	bl	1c7b0 <_ZN6google8protobuf8internal20InitProtobufDefaultsEv>
    6e58:	d0000200 	adrp	x0, 48000 <_Znam@GLIBCXX_3.4>
    6e5c:	910dc000 	add	x0, x0, #0x370
    6e60:	b0000208 	adrp	x8, 47000 <GCC_except_table137+0x112f4>
    6e64:	910b4108 	add	x8, x8, #0x2d0
    6e68:	6f00e400 	movi	v0.2d, #0x0
    6e6c:	a9037c1f 	stp	xzr, xzr, [x0, #48]
    6e70:	f9000008 	str	x8, [x0]
    6e74:	b0000208 	adrp	x8, 47000 <GCC_except_table137+0x112f4>
    6e78:	f946a108 	ldr	x8, [x8, #3392]
    6e7c:	3c808000 	stur	q0, [x0, #8]
    6e80:	3c818000 	stur	q0, [x0, #24]
    6e84:	a904fc08 	stp	x8, xzr, [x0, #72]
    6e88:	b900581f 	str	wzr, [x0, #88]
    6e8c:	a8c17bfd 	ldp	x29, x30, [sp], #16
    6e90:	14001f2c 	b	eb40 <_ZN6google8protobuf8internal24OnShutdownDestroyMessageEPKv>

0000000000006e94 <_ZN11vector_tile12Tile_Feature21InitAsDefaultInstanceEv>:
    6e94:	a9bf7bfd 	stp	x29, x30, [sp, #-16]!
    6e98:	910003fd 	mov	x29, sp
    6e9c:	97fff6a1 	bl	4920 <_mcount@plt>
    6ea0:	a8c17bfd 	ldp	x29, x30, [sp], #16
    6ea4:	d65f03c0 	ret

0000000000006ea8 <_ZN30protobuf_vector_5ftile_2eproto24InitDefaultsTile_FeatureEv>:
    6ea8:	d10103ff 	sub	sp, sp, #0x40
    6eac:	a9027bfd 	stp	x29, x30, [sp, #32]
    6eb0:	f9001bf3 	str	x19, [sp, #48]
    6eb4:	910083fd 	add	x29, sp, #0x20
    6eb8:	97fff69a 	bl	4920 <_mcount@plt>
    6ebc:	d0000208 	adrp	x8, 48000 <_Znam@GLIBCXX_3.4>
    6ec0:	9113e108 	add	x8, x8, #0x4f8
    6ec4:	c8dffd08 	ldar	x8, [x8]
    6ec8:	f100091f 	cmp	x8, #0x2
    6ecc:	540001c0 	b.eq	6f04 <_ZN30protobuf_vector_5ftile_2eproto24InitDefaultsTile_FeatureEv+0x5c>  // b.none
    6ed0:	b0000208 	adrp	x8, 47000 <GCC_except_table137+0x112f4>
    6ed4:	90000009 	adrp	x9, 6000 <main+0xc2c>
    6ed8:	9138a129 	add	x9, x9, #0xe28
    6edc:	f9470d08 	ldr	x8, [x8, #3608]
    6ee0:	390063ff 	strb	wzr, [sp, #24]
    6ee4:	91004108 	add	x8, x8, #0x10
    6ee8:	a900a7e8 	stp	x8, x9, [sp, #8]
    6eec:	d0000200 	adrp	x0, 48000 <_Znam@GLIBCXX_3.4>
    6ef0:	9113e000 	add	x0, x0, #0x4f8
    6ef4:	910023e1 	add	x1, sp, #0x8
    6ef8:	94002356 	bl	fc50 <_ZN6google8protobuf18GoogleOnceInitImplEPlPNS0_7ClosureE>
    6efc:	910023e0 	add	x0, sp, #0x8
    6f00:	94001b09 	bl	db24 <_ZN6google8protobuf8internal16FunctionClosure0D1Ev>
    6f04:	a9427bfd 	ldp	x29, x30, [sp, #32]
    6f08:	f9401bf3 	ldr	x19, [sp, #48]
    6f0c:	910103ff 	add	sp, sp, #0x40
    6f10:	d65f03c0 	ret
    6f14:	aa0003f3 	mov	x19, x0
    6f18:	910023e0 	add	x0, sp, #0x8
    6f1c:	94001b02 	bl	db24 <_ZN6google8protobuf8internal16FunctionClosure0D1Ev>
    6f20:	aa1303e0 	mov	x0, x19
    6f24:	97fff77f 	bl	4d20 <_Unwind_Resume@plt>

0000000000006f28 <_ZN30protobuf_vector_5ftile_2eproto26InitDefaultsTile_LayerImplEv>:
    6f28:	d10103ff 	sub	sp, sp, #0x40
    6f2c:	a9027bfd 	stp	x29, x30, [sp, #32]
    6f30:	f9001bf3 	str	x19, [sp, #48]
    6f34:	910083fd 	add	x29, sp, #0x20
    6f38:	97fff67a 	bl	4920 <_mcount@plt>
    6f3c:	529b4908 	mov	w8, #0xda48                	// #55880
    6f40:	529b4901 	mov	w1, #0xda48                	// #55880
    6f44:	72a005a8 	movk	w8, #0x2d, lsl #16
    6f48:	b0000122 	adrp	x2, 2b000 <_IO_stdin_used+0x2b0>
    6f4c:	9105bc42 	add	x2, x2, #0x16f
    6f50:	32000100 	orr	w0, w8, #0x1
    6f54:	72a005a1 	movk	w1, #0x2d, lsl #16
    6f58:	94001c67 	bl	e0f4 <_ZN6google8protobuf8internal13VerifyVersionEiiPKc>
    6f5c:	94005615 	bl	1c7b0 <_ZN6google8protobuf8internal20InitProtobufDefaultsEv>
    6f60:	d0000208 	adrp	x8, 48000 <_Znam@GLIBCXX_3.4>
    6f64:	9113e108 	add	x8, x8, #0x4f8
    6f68:	c8dffd08 	ldar	x8, [x8]
    6f6c:	f100091f 	cmp	x8, #0x2
    6f70:	540001c0 	b.eq	6fa8 <_ZN30protobuf_vector_5ftile_2eproto26InitDefaultsTile_LayerImplEv+0x80>  // b.none
    6f74:	b0000208 	adrp	x8, 47000 <GCC_except_table137+0x112f4>
    6f78:	90000009 	adrp	x9, 6000 <main+0xc2c>
    6f7c:	9138a129 	add	x9, x9, #0xe28
    6f80:	f9470d08 	ldr	x8, [x8, #3608]
    6f84:	390063ff 	strb	wzr, [sp, #24]
    6f88:	91004108 	add	x8, x8, #0x10
    6f8c:	a900a7e8 	stp	x8, x9, [sp, #8]
    6f90:	d0000200 	adrp	x0, 48000 <_Znam@GLIBCXX_3.4>
    6f94:	9113e000 	add	x0, x0, #0x4f8
    6f98:	910023e1 	add	x1, sp, #0x8
    6f9c:	9400232d 	bl	fc50 <_ZN6google8protobuf18GoogleOnceInitImplEPlPNS0_7ClosureE>
    6fa0:	910023e0 	add	x0, sp, #0x8
    6fa4:	94001ae0 	bl	db24 <_ZN6google8protobuf8internal16FunctionClosure0D1Ev>
    6fa8:	d0000208 	adrp	x8, 48000 <_Znam@GLIBCXX_3.4>
    6fac:	9113c108 	add	x8, x8, #0x4f0
    6fb0:	c8dffd08 	ldar	x8, [x8]
    6fb4:	f100091f 	cmp	x8, #0x2
    6fb8:	540001c0 	b.eq	6ff0 <_ZN30protobuf_vector_5ftile_2eproto26InitDefaultsTile_LayerImplEv+0xc8>  // b.none
    6fbc:	b0000208 	adrp	x8, 47000 <GCC_except_table137+0x112f4>
    6fc0:	90000009 	adrp	x9, 6000 <main+0xc2c>
    6fc4:	91345129 	add	x9, x9, #0xd14
    6fc8:	f9470d08 	ldr	x8, [x8, #3608]
    6fcc:	390063ff 	strb	wzr, [sp, #24]
    6fd0:	91004108 	add	x8, x8, #0x10
    6fd4:	a900a7e8 	stp	x8, x9, [sp, #8]
    6fd8:	d0000200 	adrp	x0, 48000 <_Znam@GLIBCXX_3.4>
    6fdc:	9113c000 	add	x0, x0, #0x4f0
    6fe0:	910023e1 	add	x1, sp, #0x8
    6fe4:	9400231b 	bl	fc50 <_ZN6google8protobuf18GoogleOnceInitImplEPlPNS0_7ClosureE>
    6fe8:	910023e0 	add	x0, sp, #0x8
    6fec:	94001ace 	bl	db24 <_ZN6google8protobuf8internal16FunctionClosure0D1Ev>
    6ff0:	d0000213 	adrp	x19, 48000 <_Znam@GLIBCXX_3.4>
    6ff4:	910f4273 	add	x19, x19, #0x3d0
    6ff8:	b0000208 	adrp	x8, 47000 <GCC_except_table137+0x112f4>
    6ffc:	910dc108 	add	x8, x8, #0x370
    7000:	91002260 	add	x0, x19, #0x8
    7004:	f9000268 	str	x8, [x19]
    7008:	94002a96 	bl	11a60 <_ZN6google8protobuf8internal12ExtensionSetC1Ev>
    700c:	90000208 	adrp	x8, 47000 <GCC_except_table137+0x112f4>
    7010:	90000129 	adrp	x9, 2b000 <_IO_stdin_used+0x2b0>
    7014:	6f00e400 	movi	v0.2d, #0x0
    7018:	aa1303e0 	mov	x0, x19
    701c:	f946a108 	ldr	x8, [x8, #3392]
    7020:	fd403d21 	ldr	d1, [x9, #120]
    7024:	ad028260 	stp	q0, q0, [x19, #80]
    7028:	ad038260 	stp	q0, q0, [x19, #112]
    702c:	3d801260 	str	q0, [x19, #64]
    7030:	a909227f 	stp	xzr, x8, [x19, #144]
    7034:	fd005261 	str	d1, [x19, #160]
    7038:	94001ec2 	bl	eb40 <_ZN6google8protobuf8internal24OnShutdownDestroyMessageEPKv>
    703c:	a9427bfd 	ldp	x29, x30, [sp, #32]
    7040:	f9401bf3 	ldr	x19, [sp, #48]
    7044:	910103ff 	add	sp, sp, #0x40
    7048:	d65f03c0 	ret
    704c:	14000001 	b	7050 <_ZN30protobuf_vector_5ftile_2eproto26InitDefaultsTile_LayerImplEv+0x128>
    7050:	aa0003f3 	mov	x19, x0
    7054:	910023e0 	add	x0, sp, #0x8
    7058:	94001ab3 	bl	db24 <_ZN6google8protobuf8internal16FunctionClosure0D1Ev>
    705c:	aa1303e0 	mov	x0, x19
    7060:	97fff730 	bl	4d20 <_Unwind_Resume@plt>

0000000000007064 <_ZN11vector_tile10Tile_Layer21InitAsDefaultInstanceEv>:
    7064:	a9bf7bfd 	stp	x29, x30, [sp, #-16]!
    7068:	910003fd 	mov	x29, sp
    706c:	97fff62d 	bl	4920 <_mcount@plt>
    7070:	a8c17bfd 	ldp	x29, x30, [sp], #16
    7074:	d65f03c0 	ret

0000000000007078 <_ZN30protobuf_vector_5ftile_2eproto22InitDefaultsTile_LayerEv>:
    7078:	d10103ff 	sub	sp, sp, #0x40
    707c:	a9027bfd 	stp	x29, x30, [sp, #32]
    7080:	f9001bf3 	str	x19, [sp, #48]
    7084:	910083fd 	add	x29, sp, #0x20
    7088:	97fff626 	bl	4920 <_mcount@plt>
    708c:	b0000208 	adrp	x8, 48000 <_Znam@GLIBCXX_3.4>
    7090:	91138108 	add	x8, x8, #0x4e0
    7094:	c8dffd08 	ldar	x8, [x8]
    7098:	f100091f 	cmp	x8, #0x2
    709c:	540001c0 	b.eq	70d4 <_ZN30protobuf_vector_5ftile_2eproto22InitDefaultsTile_LayerEv+0x5c>  // b.none
    70a0:	90000208 	adrp	x8, 47000 <GCC_except_table137+0x112f4>
    70a4:	f0ffffe9 	adrp	x9, 6000 <main+0xc2c>
    70a8:	913ca129 	add	x9, x9, #0xf28
    70ac:	f9470d08 	ldr	x8, [x8, #3608]
    70b0:	390063ff 	strb	wzr, [sp, #24]
    70b4:	91004108 	add	x8, x8, #0x10
    70b8:	a900a7e8 	stp	x8, x9, [sp, #8]
    70bc:	b0000200 	adrp	x0, 48000 <_Znam@GLIBCXX_3.4>
    70c0:	91138000 	add	x0, x0, #0x4e0
    70c4:	910023e1 	add	x1, sp, #0x8
    70c8:	940022e2 	bl	fc50 <_ZN6google8protobuf18GoogleOnceInitImplEPlPNS0_7ClosureE>
    70cc:	910023e0 	add	x0, sp, #0x8
    70d0:	94001a95 	bl	db24 <_ZN6google8protobuf8internal16FunctionClosure0D1Ev>
    70d4:	a9427bfd 	ldp	x29, x30, [sp, #32]
    70d8:	f9401bf3 	ldr	x19, [sp, #48]
    70dc:	910103ff 	add	sp, sp, #0x40
    70e0:	d65f03c0 	ret
    70e4:	aa0003f3 	mov	x19, x0
    70e8:	910023e0 	add	x0, sp, #0x8
    70ec:	94001a8e 	bl	db24 <_ZN6google8protobuf8internal16FunctionClosure0D1Ev>
    70f0:	aa1303e0 	mov	x0, x19
    70f4:	97fff70b 	bl	4d20 <_Unwind_Resume@plt>

00000000000070f8 <_ZN30protobuf_vector_5ftile_2eproto20InitDefaultsTileImplEv>:
    70f8:	d10103ff 	sub	sp, sp, #0x40
    70fc:	a9027bfd 	stp	x29, x30, [sp, #32]
    7100:	f9001bf3 	str	x19, [sp, #48]
    7104:	910083fd 	add	x29, sp, #0x20
    7108:	97fff606 	bl	4920 <_mcount@plt>
    710c:	529b4908 	mov	w8, #0xda48                	// #55880
    7110:	529b4901 	mov	w1, #0xda48                	// #55880
    7114:	72a005a8 	movk	w8, #0x2d, lsl #16
    7118:	90000122 	adrp	x2, 2b000 <_IO_stdin_used+0x2b0>
    711c:	9105bc42 	add	x2, x2, #0x16f
    7120:	32000100 	orr	w0, w8, #0x1
    7124:	72a005a1 	movk	w1, #0x2d, lsl #16
    7128:	94001bf3 	bl	e0f4 <_ZN6google8protobuf8internal13VerifyVersionEiiPKc>
    712c:	940055a1 	bl	1c7b0 <_ZN6google8protobuf8internal20InitProtobufDefaultsEv>
    7130:	b0000208 	adrp	x8, 48000 <_Znam@GLIBCXX_3.4>
    7134:	91138108 	add	x8, x8, #0x4e0
    7138:	c8dffd08 	ldar	x8, [x8]
    713c:	f100091f 	cmp	x8, #0x2
    7140:	540001c0 	b.eq	7178 <_ZN30protobuf_vector_5ftile_2eproto20InitDefaultsTileImplEv+0x80>  // b.none
    7144:	90000208 	adrp	x8, 47000 <GCC_except_table137+0x112f4>
    7148:	f0ffffe9 	adrp	x9, 6000 <main+0xc2c>
    714c:	913ca129 	add	x9, x9, #0xf28
    7150:	f9470d08 	ldr	x8, [x8, #3608]
    7154:	390063ff 	strb	wzr, [sp, #24]
    7158:	91004108 	add	x8, x8, #0x10
    715c:	a900a7e8 	stp	x8, x9, [sp, #8]
    7160:	b0000200 	adrp	x0, 48000 <_Znam@GLIBCXX_3.4>
    7164:	91138000 	add	x0, x0, #0x4e0
    7168:	910023e1 	add	x1, sp, #0x8
    716c:	940022b9 	bl	fc50 <_ZN6google8protobuf18GoogleOnceInitImplEPlPNS0_7ClosureE>
    7170:	910023e0 	add	x0, sp, #0x8
    7174:	94001a6c 	bl	db24 <_ZN6google8protobuf8internal16FunctionClosure0D1Ev>
    7178:	b0000213 	adrp	x19, 48000 <_Znam@GLIBCXX_3.4>
    717c:	9111e273 	add	x19, x19, #0x478
    7180:	90000208 	adrp	x8, 47000 <GCC_except_table137+0x112f4>
    7184:	91104108 	add	x8, x8, #0x410
    7188:	91002260 	add	x0, x19, #0x8
    718c:	f9000268 	str	x8, [x19]
    7190:	94002a34 	bl	11a60 <_ZN6google8protobuf8internal12ExtensionSetC1Ev>
    7194:	6f00e400 	movi	v0.2d, #0x0
    7198:	aa1303e0 	mov	x0, x19
    719c:	f900327f 	str	xzr, [x19, #96]
    71a0:	ad020260 	stp	q0, q0, [x19, #64]
    71a4:	94001e67 	bl	eb40 <_ZN6google8protobuf8internal24OnShutdownDestroyMessageEPKv>
    71a8:	a9427bfd 	ldp	x29, x30, [sp, #32]
    71ac:	f9401bf3 	ldr	x19, [sp, #48]
    71b0:	910103ff 	add	sp, sp, #0x40
    71b4:	d65f03c0 	ret
    71b8:	aa0003f3 	mov	x19, x0
    71bc:	910023e0 	add	x0, sp, #0x8
    71c0:	94001a59 	bl	db24 <_ZN6google8protobuf8internal16FunctionClosure0D1Ev>
    71c4:	aa1303e0 	mov	x0, x19
    71c8:	97fff6d6 	bl	4d20 <_Unwind_Resume@plt>

00000000000071cc <_ZN11vector_tile4Tile21InitAsDefaultInstanceEv>:
    71cc:	a9bf7bfd 	stp	x29, x30, [sp, #-16]!
    71d0:	910003fd 	mov	x29, sp
    71d4:	97fff5d3 	bl	4920 <_mcount@plt>
    71d8:	a8c17bfd 	ldp	x29, x30, [sp], #16
    71dc:	d65f03c0 	ret

00000000000071e0 <_ZN30protobuf_vector_5ftile_2eproto16InitDefaultsTileEv>:
    71e0:	d10103ff 	sub	sp, sp, #0x40
    71e4:	a9027bfd 	stp	x29, x30, [sp, #32]
    71e8:	f9001bf3 	str	x19, [sp, #48]
    71ec:	910083fd 	add	x29, sp, #0x20
    71f0:	97fff5cc 	bl	4920 <_mcount@plt>
    71f4:	b0000208 	adrp	x8, 48000 <_Znam@GLIBCXX_3.4>
    71f8:	9113a108 	add	x8, x8, #0x4e8
    71fc:	c8dffd08 	ldar	x8, [x8]
    7200:	f100091f 	cmp	x8, #0x2
    7204:	540001c0 	b.eq	723c <_ZN30protobuf_vector_5ftile_2eproto16InitDefaultsTileEv+0x5c>  // b.none
    7208:	90000208 	adrp	x8, 47000 <GCC_except_table137+0x112f4>
    720c:	90000009 	adrp	x9, 7000 <_ZN30protobuf_vector_5ftile_2eproto26InitDefaultsTile_LayerImplEv+0xd8>
    7210:	9103e129 	add	x9, x9, #0xf8
    7214:	f9470d08 	ldr	x8, [x8, #3608]
    7218:	390063ff 	strb	wzr, [sp, #24]
    721c:	91004108 	add	x8, x8, #0x10
    7220:	a900a7e8 	stp	x8, x9, [sp, #8]
    7224:	b0000200 	adrp	x0, 48000 <_Znam@GLIBCXX_3.4>
    7228:	9113a000 	add	x0, x0, #0x4e8
    722c:	910023e1 	add	x1, sp, #0x8
    7230:	94002288 	bl	fc50 <_ZN6google8protobuf18GoogleOnceInitImplEPlPNS0_7ClosureE>
    7234:	910023e0 	add	x0, sp, #0x8
    7238:	94001a3b 	bl	db24 <_ZN6google8protobuf8internal16FunctionClosure0D1Ev>
    723c:	a9427bfd 	ldp	x29, x30, [sp, #32]
    7240:	f9401bf3 	ldr	x19, [sp, #48]
    7244:	910103ff 	add	sp, sp, #0x40
    7248:	d65f03c0 	ret
    724c:	aa0003f3 	mov	x19, x0
    7250:	910023e0 	add	x0, sp, #0x8
    7254:	94001a34 	bl	db24 <_ZN6google8protobuf8internal16FunctionClosure0D1Ev>
    7258:	aa1303e0 	mov	x0, x19
    725c:	97fff6b1 	bl	4d20 <_Unwind_Resume@plt>

0000000000007260 <_ZN11vector_tile21Tile_GeomType_IsValidEi>:
    7260:	a9be7bfd 	stp	x29, x30, [sp, #-32]!
    7264:	f9000bf3 	str	x19, [sp, #16]
    7268:	910003fd 	mov	x29, sp
    726c:	2a0003f3 	mov	w19, w0
    7270:	97fff5ac 	bl	4920 <_mcount@plt>
    7274:	7100127f 	cmp	w19, #0x4
    7278:	1a9f27e0 	cset	w0, cc  // cc = lo, ul, last
    727c:	f9400bf3 	ldr	x19, [sp, #16]
    7280:	a8c27bfd 	ldp	x29, x30, [sp], #32
    7284:	d65f03c0 	ret

0000000000007288 <_ZN11vector_tile10Tile_ValueC1Ev>:
    7288:	d10143ff 	sub	sp, sp, #0x50
    728c:	a9027bfd 	stp	x29, x30, [sp, #32]
    7290:	f9001bf5 	str	x21, [sp, #48]
    7294:	a9044ff4 	stp	x20, x19, [sp, #64]
    7298:	910083fd 	add	x29, sp, #0x20
    729c:	aa0003f3 	mov	x19, x0
    72a0:	97fff5a0 	bl	4920 <_mcount@plt>
    72a4:	91002274 	add	x20, x19, #0x8
    72a8:	90000208 	adrp	x8, 47000 <GCC_except_table137+0x112f4>
    72ac:	9108c108 	add	x8, x8, #0x230
    72b0:	aa1403e0 	mov	x0, x20
    72b4:	f9000268 	str	x8, [x19]
    72b8:	940029ea 	bl	11a60 <_ZN6google8protobuf8internal12ExtensionSetC1Ev>
    72bc:	aa1303f5 	mov	x21, x19
    72c0:	b0000208 	adrp	x8, 48000 <_Znam@GLIBCXX_3.4>
    72c4:	910bc108 	add	x8, x8, #0x2f0
    72c8:	b9004a7f 	str	wzr, [x19, #72]
    72cc:	eb08027f 	cmp	x19, x8
    72d0:	f8040ebf 	str	xzr, [x21, #64]!
    72d4:	54000260 	b.eq	7320 <_ZN11vector_tile10Tile_ValueC1Ev+0x98>  // b.none
    72d8:	b0000208 	adrp	x8, 48000 <_Znam@GLIBCXX_3.4>
    72dc:	9113c108 	add	x8, x8, #0x4f0
    72e0:	c8dffd08 	ldar	x8, [x8]
    72e4:	f100091f 	cmp	x8, #0x2
    72e8:	540001c0 	b.eq	7320 <_ZN11vector_tile10Tile_ValueC1Ev+0x98>  // b.none
    72ec:	90000208 	adrp	x8, 47000 <GCC_except_table137+0x112f4>
    72f0:	f0ffffe9 	adrp	x9, 6000 <main+0xc2c>
    72f4:	91345129 	add	x9, x9, #0xd14
    72f8:	f9470d08 	ldr	x8, [x8, #3608]
    72fc:	390063ff 	strb	wzr, [sp, #24]
    7300:	91004108 	add	x8, x8, #0x10
    7304:	a900a7e8 	stp	x8, x9, [sp, #8]
    7308:	b0000200 	adrp	x0, 48000 <_Znam@GLIBCXX_3.4>
    730c:	9113c000 	add	x0, x0, #0x4f0
    7310:	910023e1 	add	x1, sp, #0x8
    7314:	9400224f 	bl	fc50 <_ZN6google8protobuf18GoogleOnceInitImplEPlPNS0_7ClosureE>
    7318:	910023e0 	add	x0, sp, #0x8
    731c:	94001a02 	bl	db24 <_ZN6google8protobuf8internal16FunctionClosure0D1Ev>
    7320:	90000208 	adrp	x8, 47000 <GCC_except_table137+0x112f4>
    7324:	6f00e400 	movi	v0.2d, #0x0
    7328:	f946a108 	ldr	x8, [x8, #3392]
    732c:	b9004e7f 	str	wzr, [x19, #76]
    7330:	3c858260 	stur	q0, [x19, #88]
    7334:	f9002a68 	str	x8, [x19, #80]
    7338:	3c868260 	stur	q0, [x19, #104]
    733c:	f9003e7f 	str	xzr, [x19, #120]
    7340:	a9444ff4 	ldp	x20, x19, [sp, #64]
    7344:	a9427bfd 	ldp	x29, x30, [sp, #32]
    7348:	f9401bf5 	ldr	x21, [sp, #48]
    734c:	910143ff 	add	sp, sp, #0x50
    7350:	d65f03c0 	ret
    7354:	aa0003f3 	mov	x19, x0
    7358:	910023e0 	add	x0, sp, #0x8
    735c:	940019f2 	bl	db24 <_ZN6google8protobuf8internal16FunctionClosure0D1Ev>
    7360:	aa1503e0 	mov	x0, x21
    7364:	9400119f 	bl	b9e0 <_ZN6google8protobuf8internal29InternalMetadataWithArenaBaseINSt7__cxx1112basic_stringIcSt11char_traitsIcESaIcEEENS1_29InternalMetadataWithArenaLiteEED2Ev>
    7368:	aa1403e0 	mov	x0, x20
    736c:	94003ea1 	bl	16df0 <_ZN6google8protobuf8internal12ExtensionSetD1Ev>
    7370:	aa1303e0 	mov	x0, x19
    7374:	97fff66b 	bl	4d20 <_Unwind_Resume@plt>

0000000000007378 <_ZN11vector_tile10Tile_Value10SharedCtorEv>:
    7378:	a9be7bfd 	stp	x29, x30, [sp, #-32]!
    737c:	f9000bf3 	str	x19, [sp, #16]
    7380:	910003fd 	mov	x29, sp
    7384:	aa0003f3 	mov	x19, x0
    7388:	97fff566 	bl	4920 <_mcount@plt>
    738c:	90000208 	adrp	x8, 47000 <GCC_except_table137+0x112f4>
    7390:	6f00e400 	movi	v0.2d, #0x0
    7394:	f946a108 	ldr	x8, [x8, #3392]
    7398:	b9004e7f 	str	wzr, [x19, #76]
    739c:	3c858260 	stur	q0, [x19, #88]
    73a0:	f9002a68 	str	x8, [x19, #80]
    73a4:	3c868260 	stur	q0, [x19, #104]
    73a8:	f9003e7f 	str	xzr, [x19, #120]
    73ac:	f9400bf3 	ldr	x19, [sp, #16]
    73b0:	a8c27bfd 	ldp	x29, x30, [sp], #32
    73b4:	d65f03c0 	ret

00000000000073b8 <_ZN11vector_tile10Tile_ValueC1ERKS0_>:
    73b8:	a9bc7bfd 	stp	x29, x30, [sp, #-64]!
    73bc:	f9000bf7 	str	x23, [sp, #16]
    73c0:	a90257f6 	stp	x22, x21, [sp, #32]
    73c4:	a9034ff4 	stp	x20, x19, [sp, #48]
    73c8:	910003fd 	mov	x29, sp
    73cc:	aa0103f4 	mov	x20, x1
    73d0:	aa0003f3 	mov	x19, x0
    73d4:	97fff553 	bl	4920 <_mcount@plt>
    73d8:	aa1303f5 	mov	x21, x19
    73dc:	90000208 	adrp	x8, 47000 <GCC_except_table137+0x112f4>
    73e0:	9108c108 	add	x8, x8, #0x230
    73e4:	f80086a8 	str	x8, [x21], #8
    73e8:	aa1503e0 	mov	x0, x21
    73ec:	9400299d 	bl	11a60 <_ZN6google8protobuf8internal12ExtensionSetC1Ev>
    73f0:	aa1303f6 	mov	x22, x19
    73f4:	f8040edf 	str	xzr, [x22, #64]!
    73f8:	b9404a88 	ldr	w8, [x20, #72]
    73fc:	29017ec8 	stp	w8, wzr, [x22, #8]
    7400:	f9402297 	ldr	x23, [x20, #64]
    7404:	360000d7 	tbz	w23, #0, 741c <_ZN11vector_tile10Tile_ValueC1ERKS0_+0x64>
    7408:	aa1603e0 	mov	x0, x22
    740c:	9400139f 	bl	c288 <_ZN6google8protobuf8internal29InternalMetadataWithArenaBaseINSt7__cxx1112basic_stringIcSt11char_traitsIcESaIcEEENS1_29InternalMetadataWithArenaLiteEE27mutable_unknown_fields_slowEv>
    7410:	927ffae8 	and	x8, x23, #0xfffffffffffffffe
    7414:	a9400901 	ldp	x1, x2, [x8]
    7418:	97fff536 	bl	48f0 <_ZNSt7__cxx1112basic_stringIcSt11char_traitsIcESaIcEE9_M_appendEPKcm@plt>
    741c:	91002281 	add	x1, x20, #0x8
    7420:	aa1503e0 	mov	x0, x21
    7424:	94004917 	bl	19880 <_ZN6google8protobuf8internal12ExtensionSet9MergeFromERKS2_>
    7428:	90000208 	adrp	x8, 47000 <GCC_except_table137+0x112f4>
    742c:	aa1303e0 	mov	x0, x19
    7430:	f946a108 	ldr	x8, [x8, #3392]
    7434:	f8050c08 	str	x8, [x0, #80]!
    7438:	39412289 	ldrb	w9, [x20, #72]
    743c:	360000a9 	tbz	w9, #0, 7450 <_ZN11vector_tile10Tile_ValueC1ERKS0_+0x98>
    7440:	f9402a81 	ldr	x1, [x20, #80]
    7444:	eb08003f 	cmp	x1, x8
    7448:	54000040 	b.eq	7450 <_ZN11vector_tile10Tile_ValueC1ERKS0_+0x98>  // b.none
    744c:	9400135f 	bl	c1c8 <_ZN6google8protobuf8internal14ArenaStringPtr21CreateInstanceNoArenaEPKNSt7__cxx1112basic_stringIcSt11char_traitsIcESaIcEEE>
    7450:	f9403e88 	ldr	x8, [x20, #120]
    7454:	3cc68280 	ldur	q0, [x20, #104]
    7458:	3cc58281 	ldur	q1, [x20, #88]
    745c:	f9003e68 	str	x8, [x19, #120]
    7460:	3c868260 	stur	q0, [x19, #104]
    7464:	3c858261 	stur	q1, [x19, #88]
    7468:	a9434ff4 	ldp	x20, x19, [sp, #48]
    746c:	a94257f6 	ldp	x22, x21, [sp, #32]
    7470:	f9400bf7 	ldr	x23, [sp, #16]
    7474:	a8c47bfd 	ldp	x29, x30, [sp], #64
    7478:	d65f03c0 	ret
    747c:	aa0003f3 	mov	x19, x0
    7480:	aa1603e0 	mov	x0, x22
    7484:	94001157 	bl	b9e0 <_ZN6google8protobuf8internal29InternalMetadataWithArenaBaseINSt7__cxx1112basic_stringIcSt11char_traitsIcESaIcEEENS1_29InternalMetadataWithArenaLiteEED2Ev>
    7488:	aa1503e0 	mov	x0, x21
    748c:	94003e59 	bl	16df0 <_ZN6google8protobuf8internal12ExtensionSetD1Ev>
    7490:	aa1303e0 	mov	x0, x19
    7494:	97fff623 	bl	4d20 <_Unwind_Resume@plt>

0000000000007498 <_ZN11vector_tile10Tile_ValueD1Ev>:
    7498:	a9be7bfd 	stp	x29, x30, [sp, #-32]!
    749c:	a9014ff4 	stp	x20, x19, [sp, #16]
    74a0:	910003fd 	mov	x29, sp
    74a4:	aa0003f3 	mov	x19, x0
    74a8:	97fff51e 	bl	4920 <_mcount@plt>
    74ac:	90000208 	adrp	x8, 47000 <GCC_except_table137+0x112f4>
    74b0:	f9402a74 	ldr	x20, [x19, #80]
    74b4:	90000209 	adrp	x9, 47000 <GCC_except_table137+0x112f4>
    74b8:	9108c129 	add	x9, x9, #0x230
    74bc:	f946a108 	ldr	x8, [x8, #3392]
    74c0:	f9000269 	str	x9, [x19]
    74c4:	eb08029f 	cmp	x20, x8
    74c8:	54000120 	b.eq	74ec <_ZN11vector_tile10Tile_ValueD1Ev+0x54>  // b.none
    74cc:	b4000114 	cbz	x20, 74ec <_ZN11vector_tile10Tile_ValueD1Ev+0x54>
    74d0:	aa1403e8 	mov	x8, x20
    74d4:	f8410500 	ldr	x0, [x8], #16
    74d8:	eb08001f 	cmp	x0, x8
    74dc:	54000040 	b.eq	74e4 <_ZN11vector_tile10Tile_ValueD1Ev+0x4c>  // b.none
    74e0:	97fff588 	bl	4b00 <_ZdlPv@plt>
    74e4:	aa1403e0 	mov	x0, x20
    74e8:	97fff586 	bl	4b00 <_ZdlPv@plt>
    74ec:	f9402268 	ldr	x8, [x19, #64]
    74f0:	360001a8 	tbz	w8, #0, 7524 <_ZN11vector_tile10Tile_ValueD1Ev+0x8c>
    74f4:	927ff914 	and	x20, x8, #0xfffffffffffffffe
    74f8:	f9401288 	ldr	x8, [x20, #32]
    74fc:	f100011f 	cmp	x8, #0x0
    7500:	fa400a84 	ccmp	x20, #0x0, #0x4, eq  // eq = none
    7504:	54000100 	b.eq	7524 <_ZN11vector_tile10Tile_ValueD1Ev+0x8c>  // b.none
    7508:	aa1403e8 	mov	x8, x20
    750c:	f8410500 	ldr	x0, [x8], #16
    7510:	eb08001f 	cmp	x0, x8
    7514:	54000040 	b.eq	751c <_ZN11vector_tile10Tile_ValueD1Ev+0x84>  // b.none
    7518:	97fff57a 	bl	4b00 <_ZdlPv@plt>
    751c:	aa1403e0 	mov	x0, x20
    7520:	97fff578 	bl	4b00 <_ZdlPv@plt>
    7524:	91002260 	add	x0, x19, #0x8
    7528:	f900227f 	str	xzr, [x19, #64]
    752c:	a9414ff4 	ldp	x20, x19, [sp, #16]
    7530:	a8c27bfd 	ldp	x29, x30, [sp], #32
    7534:	14003e2f 	b	16df0 <_ZN6google8protobuf8internal12ExtensionSetD1Ev>

0000000000007538 <_ZN11vector_tile10Tile_Value10SharedDtorEv>:
    7538:	a9be7bfd 	stp	x29, x30, [sp, #-32]!
    753c:	f9000bf3 	str	x19, [sp, #16]
    7540:	910003fd 	mov	x29, sp
    7544:	aa0003f3 	mov	x19, x0
    7548:	97fff4f6 	bl	4920 <_mcount@plt>
    754c:	90000208 	adrp	x8, 47000 <GCC_except_table137+0x112f4>
    7550:	f9402a73 	ldr	x19, [x19, #80]
    7554:	f946a108 	ldr	x8, [x8, #3392]
    7558:	eb08027f 	cmp	x19, x8
    755c:	54000160 	b.eq	7588 <_ZN11vector_tile10Tile_Value10SharedDtorEv+0x50>  // b.none
    7560:	b4000153 	cbz	x19, 7588 <_ZN11vector_tile10Tile_Value10SharedDtorEv+0x50>
    7564:	aa1303e8 	mov	x8, x19
    7568:	f8410500 	ldr	x0, [x8], #16
    756c:	eb08001f 	cmp	x0, x8
    7570:	54000040 	b.eq	7578 <_ZN11vector_tile10Tile_Value10SharedDtorEv+0x40>  // b.none
    7574:	97fff563 	bl	4b00 <_ZdlPv@plt>
    7578:	aa1303e0 	mov	x0, x19
    757c:	f9400bf3 	ldr	x19, [sp, #16]
    7580:	a8c27bfd 	ldp	x29, x30, [sp], #32
    7584:	17fff55f 	b	4b00 <_ZdlPv@plt>
    7588:	f9400bf3 	ldr	x19, [sp, #16]
    758c:	a8c27bfd 	ldp	x29, x30, [sp], #32
    7590:	d65f03c0 	ret

0000000000007594 <_ZN11vector_tile10Tile_ValueD0Ev>:
    7594:	a9be7bfd 	stp	x29, x30, [sp, #-32]!
    7598:	f9000bf3 	str	x19, [sp, #16]
    759c:	910003fd 	mov	x29, sp
    75a0:	aa0003f3 	mov	x19, x0
    75a4:	97fff4df 	bl	4920 <_mcount@plt>
    75a8:	aa1303e0 	mov	x0, x19
    75ac:	97ffffbb 	bl	7498 <_ZN11vector_tile10Tile_ValueD1Ev>
    75b0:	aa1303e0 	mov	x0, x19
    75b4:	f9400bf3 	ldr	x19, [sp, #16]
    75b8:	a8c27bfd 	ldp	x29, x30, [sp], #32
    75bc:	17fff551 	b	4b00 <_ZdlPv@plt>

00000000000075c0 <_ZNK11vector_tile10Tile_Value13SetCachedSizeEi>:
    75c0:	a9be7bfd 	stp	x29, x30, [sp, #-32]!
    75c4:	a9014ff4 	stp	x20, x19, [sp, #16]
    75c8:	910003fd 	mov	x29, sp
    75cc:	2a0103f3 	mov	w19, w1
    75d0:	aa0003f4 	mov	x20, x0
    75d4:	97fff4d3 	bl	4920 <_mcount@plt>
    75d8:	b9004e93 	str	w19, [x20, #76]
    75dc:	a9414ff4 	ldp	x20, x19, [sp, #16]
    75e0:	a8c27bfd 	ldp	x29, x30, [sp], #32
    75e4:	d65f03c0 	ret

00000000000075e8 <_ZN11vector_tile10Tile_Value16default_instanceEv>:
    75e8:	d10103ff 	sub	sp, sp, #0x40
    75ec:	a9027bfd 	stp	x29, x30, [sp, #32]
    75f0:	f9001bf3 	str	x19, [sp, #48]
    75f4:	910083fd 	add	x29, sp, #0x20
    75f8:	97fff4ca 	bl	4920 <_mcount@plt>
    75fc:	b0000208 	adrp	x8, 48000 <_Znam@GLIBCXX_3.4>
    7600:	9113c108 	add	x8, x8, #0x4f0
    7604:	c8dffd08 	ldar	x8, [x8]
    7608:	f100091f 	cmp	x8, #0x2
    760c:	540001c0 	b.eq	7644 <_ZN11vector_tile10Tile_Value16default_instanceEv+0x5c>  // b.none
    7610:	90000208 	adrp	x8, 47000 <GCC_except_table137+0x112f4>
    7614:	f0ffffe9 	adrp	x9, 6000 <main+0xc2c>
    7618:	91345129 	add	x9, x9, #0xd14
    761c:	f9470d08 	ldr	x8, [x8, #3608]
    7620:	390063ff 	strb	wzr, [sp, #24]
    7624:	91004108 	add	x8, x8, #0x10
    7628:	a900a7e8 	stp	x8, x9, [sp, #8]
    762c:	b0000200 	adrp	x0, 48000 <_Znam@GLIBCXX_3.4>
    7630:	9113c000 	add	x0, x0, #0x4f0
    7634:	910023e1 	add	x1, sp, #0x8
    7638:	94002186 	bl	fc50 <_ZN6google8protobuf18GoogleOnceInitImplEPlPNS0_7ClosureE>
    763c:	910023e0 	add	x0, sp, #0x8
    7640:	94001939 	bl	db24 <_ZN6google8protobuf8internal16FunctionClosure0D1Ev>
    7644:	b0000200 	adrp	x0, 48000 <_Znam@GLIBCXX_3.4>
    7648:	910bc000 	add	x0, x0, #0x2f0
    764c:	a9427bfd 	ldp	x29, x30, [sp, #32]
    7650:	f9401bf3 	ldr	x19, [sp, #48]
    7654:	910103ff 	add	sp, sp, #0x40
    7658:	d65f03c0 	ret
    765c:	aa0003f3 	mov	x19, x0
    7660:	910023e0 	add	x0, sp, #0x8
    7664:	94001930 	bl	db24 <_ZN6google8protobuf8internal16FunctionClosure0D1Ev>
    7668:	aa1303e0 	mov	x0, x19
    766c:	97fff5ad 	bl	4d20 <_Unwind_Resume@plt>

0000000000007670 <_ZNK11vector_tile10Tile_Value3NewEPN6google8protobuf5ArenaE>:
    7670:	a9be7bfd 	stp	x29, x30, [sp, #-32]!
    7674:	a9014ff4 	stp	x20, x19, [sp, #16]
    7678:	910003fd 	mov	x29, sp
    767c:	aa0103f4 	mov	x20, x1
    7680:	97fff4a8 	bl	4920 <_mcount@plt>
    7684:	52801000 	mov	w0, #0x80                  	// #128
    7688:	97fff52a 	bl	4b30 <_Znwm@plt>
    768c:	aa0003f3 	mov	x19, x0
    7690:	97fffefe 	bl	7288 <_ZN11vector_tile10Tile_ValueC1Ev>
    7694:	b4000094 	cbz	x20, 76a4 <_ZNK11vector_tile10Tile_Value3NewEPN6google8protobuf5ArenaE+0x34>
    7698:	aa1403e0 	mov	x0, x20
    769c:	aa1303e1 	mov	x1, x19
    76a0:	940010e7 	bl	ba3c <_ZN6google8protobuf5Arena3OwnIN11vector_tile10Tile_ValueEEEvPT_>
    76a4:	aa1303e0 	mov	x0, x19
    76a8:	a9414ff4 	ldp	x20, x19, [sp, #16]
    76ac:	a8c27bfd 	ldp	x29, x30, [sp], #32
    76b0:	d65f03c0 	ret
    76b4:	aa0003f4 	mov	x20, x0
    76b8:	aa1303e0 	mov	x0, x19
    76bc:	97fff511 	bl	4b00 <_ZdlPv@plt>
    76c0:	aa1403e0 	mov	x0, x20
    76c4:	97fff597 	bl	4d20 <_Unwind_Resume@plt>

00000000000076c8 <_ZN11vector_tile10Tile_Value5ClearEv>:
    76c8:	a9be7bfd 	stp	x29, x30, [sp, #-32]!
    76cc:	f9000bf3 	str	x19, [sp, #16]
    76d0:	910003fd 	mov	x29, sp
    76d4:	aa0003f3 	mov	x19, x0
    76d8:	97fff492 	bl	4920 <_mcount@plt>
    76dc:	91002260 	add	x0, x19, #0x8
    76e0:	94003414 	bl	14730 <_ZN6google8protobuf8internal12ExtensionSet5ClearEv>
    76e4:	b9404a68 	ldr	w8, [x19, #72]
    76e8:	360000a8 	tbz	w8, #0, 76fc <_ZN11vector_tile10Tile_Value5ClearEv+0x34>
    76ec:	f9402a69 	ldr	x9, [x19, #80]
    76f0:	f940012a 	ldr	x10, [x9]
    76f4:	f900053f 	str	xzr, [x9, #8]
    76f8:	3900015f 	strb	wzr, [x10]
    76fc:	721f151f 	tst	w8, #0x7e
    7700:	540000a0 	b.eq	7714 <_ZN11vector_tile10Tile_Value5ClearEv+0x4c>  // b.none
    7704:	6f00e400 	movi	v0.2d, #0x0
    7708:	f9003e7f 	str	xzr, [x19, #120]
    770c:	3c868260 	stur	q0, [x19, #104]
    7710:	3c858260 	stur	q0, [x19, #88]
    7714:	f9402268 	ldr	x8, [x19, #64]
    7718:	b9004a7f 	str	wzr, [x19, #72]
    771c:	360000a8 	tbz	w8, #0, 7730 <_ZN11vector_tile10Tile_Value5ClearEv+0x68>
    7720:	927ff908 	and	x8, x8, #0xfffffffffffffffe
    7724:	f9400109 	ldr	x9, [x8]
    7728:	f900051f 	str	xzr, [x8, #8]
    772c:	3900013f 	strb	wzr, [x9]
    7730:	f9400bf3 	ldr	x19, [sp, #16]
    7734:	a8c27bfd 	ldp	x29, x30, [sp], #32
    7738:	d65f03c0 	ret

000000000000773c <_ZN11vector_tile10Tile_Value27MergePartialFromCodedStreamEPN6google8protobuf2io16CodedInputStreamE>:
    773c:	d10303ff 	sub	sp, sp, #0xc0
    7740:	a9067bfd 	stp	x29, x30, [sp, #96]
    7744:	f9003bfb 	str	x27, [sp, #112]
    7748:	a90867fa 	stp	x26, x25, [sp, #128]
    774c:	a9095ff8 	stp	x24, x23, [sp, #144]
    7750:	a90a57f6 	stp	x22, x21, [sp, #160]
    7754:	a90b4ff4 	stp	x20, x19, [sp, #176]
    7758:	910183fd 	add	x29, sp, #0x60
    775c:	aa0103f4 	mov	x20, x1
    7760:	aa0003f5 	mov	x21, x0
    7764:	97fff46f 	bl	4920 <_mcount@plt>
    7768:	aa1503e9 	mov	x9, x21
    776c:	d100a3aa 	sub	x10, x29, #0x28
    7770:	9100615a 	add	x26, x10, #0x18
    7774:	91002153 	add	x19, x10, #0x8
    7778:	f81e83bf 	stur	xzr, [x29, #-24]
    777c:	f8440d28 	ldr	x8, [x9, #64]!
    7780:	a93deba9 	stp	x9, x26, [x29, #-40]
    7784:	381f03bf 	sturb	wzr, [x29, #-16]
    7788:	36000088 	tbz	w8, #0, 7798 <_ZN11vector_tile10Tile_Value27MergePartialFromCodedStreamEPN6google8protobuf2io16CodedInputStreamE+0x5c>
    778c:	927ff901 	and	x1, x8, #0xfffffffffffffffe
    7790:	aa1303e0 	mov	x0, x19
    7794:	97fff4bb 	bl	4a80 <_ZNSt7__cxx1112basic_stringIcSt11char_traitsIcESaIcEE4swapERS4_@plt>
    7798:	9100a3e0 	add	x0, sp, #0x28
    779c:	aa1303e1 	mov	x1, x19
    77a0:	940088e4 	bl	29b30 <_ZN6google8protobuf2io18StringOutputStreamC1EPNSt7__cxx1112basic_stringIcSt11char_traitsIcESaIcEEE>
    77a4:	910023e0 	add	x0, sp, #0x8
    77a8:	9100a3e1 	add	x1, sp, #0x28
    77ac:	2a1f03e2 	mov	w2, wzr
    77b0:	94008409 	bl	287d4 <_ZN6google8protobuf2io17CodedOutputStreamC1EPNS1_20ZeroCopyOutputStreamEb>
    77b4:	90000218 	adrp	x24, 47000 <GCC_except_table137+0x112f4>
    77b8:	910142b6 	add	x22, x21, #0x50
    77bc:	910022b7 	add	x23, x21, #0x8
    77c0:	b0000219 	adrp	x25, 48000 <_Znam@GLIBCXX_3.4>
    77c4:	910bc339 	add	x25, x25, #0x2f0
    77c8:	9000013b 	adrp	x27, 2b000 <_IO_stdin_used+0x2b0>
    77cc:	9102037b 	add	x27, x27, #0x80
    77d0:	f946a318 	ldr	x24, [x24, #3392]
    77d4:	a9402688 	ldp	x8, x9, [x20]
    77d8:	eb09011f 	cmp	x8, x9
    77dc:	54000142 	b.cs	7804 <_ZN11vector_tile10Tile_Value27MergePartialFromCodedStreamEPN6google8protobuf2io16CodedInputStreamE+0xc8>  // b.hs, b.nlast
    77e0:	39c00109 	ldrsb	w9, [x8]
    77e4:	12001d21 	and	w1, w9, #0xff
    77e8:	7100053f 	cmp	w9, #0x1
    77ec:	540000eb 	b.lt	7808 <_ZN11vector_tile10Tile_Value27MergePartialFromCodedStreamEPN6google8protobuf2io16CodedInputStreamE+0xcc>  // b.tstop
    77f0:	91000509 	add	x9, x8, #0x1
    77f4:	b2600028 	orr	x8, x1, #0x100000000
    77f8:	f9000289 	str	x9, [x20]
    77fc:	b7000168 	tbnz	x8, #32, 7828 <_ZN11vector_tile10Tile_Value27MergePartialFromCodedStreamEPN6google8protobuf2io16CodedInputStreamE+0xec>
    7800:	1400007f 	b	79fc <_ZN11vector_tile10Tile_Value27MergePartialFromCodedStreamEPN6google8protobuf2io16CodedInputStreamE+0x2c0>
    7804:	2a1f03e1 	mov	w1, wzr
    7808:	aa1403e0 	mov	x0, x20
    780c:	940082cd 	bl	28340 <_ZN6google8protobuf2io16CodedInputStream15ReadTagFallbackEj>
    7810:	51000408 	sub	w8, w0, #0x1
    7814:	7101fd1f 	cmp	w8, #0x7f
    7818:	2a0003e8 	mov	w8, w0
    781c:	1a9f27e9 	cset	w9, cc  // cc = lo, ul, last
    7820:	b3600128 	bfi	x8, x9, #32, #1
    7824:	b6000ec8 	tbz	x8, #32, 79fc <_ZN11vector_tile10Tile_Value27MergePartialFromCodedStreamEPN6google8protobuf2io16CodedInputStreamE+0x2c0>
    7828:	53037d09 	lsr	w9, w8, #3
    782c:	51000529 	sub	w9, w9, #0x1
    7830:	7100193f 	cmp	w9, #0x6
    7834:	54000e48 	b.hi	79fc <_ZN11vector_tile10Tile_Value27MergePartialFromCodedStreamEPN6google8protobuf2io16CodedInputStreamE+0x2c0>  // b.pmore
    7838:	1000008a 	adr	x10, 7848 <_ZN11vector_tile10Tile_Value27MergePartialFromCodedStreamEPN6google8protobuf2io16CodedInputStreamE+0x10c>
    783c:	38696b6b 	ldrb	w11, [x27, x9]
    7840:	8b0b094a 	add	x10, x10, x11, lsl #2
    7844:	d61f0140 	br	x10
    7848:	92401d09 	and	x9, x8, #0xff
    784c:	f100293f 	cmp	x9, #0xa
    7850:	54000d61 	b.ne	79fc <_ZN11vector_tile10Tile_Value27MergePartialFromCodedStreamEPN6google8protobuf2io16CodedInputStreamE+0x2c0>  // b.any
    7854:	b9404aa8 	ldr	w8, [x21, #72]
    7858:	f9402aa1 	ldr	x1, [x21, #80]
    785c:	32000108 	orr	w8, w8, #0x1
    7860:	eb18003f 	cmp	x1, x24
    7864:	b9004aa8 	str	w8, [x21, #72]
    7868:	540000a1 	b.ne	787c <_ZN11vector_tile10Tile_Value27MergePartialFromCodedStreamEPN6google8protobuf2io16CodedInputStreamE+0x140>  // b.any
    786c:	aa1603e0 	mov	x0, x22
    7870:	aa1803e1 	mov	x1, x24
    7874:	94001255 	bl	c1c8 <_ZN6google8protobuf8internal14ArenaStringPtr21CreateInstanceNoArenaEPKNSt7__cxx1112basic_stringIcSt11char_traitsIcESaIcEEE>
    7878:	f94002c1 	ldr	x1, [x22]
    787c:	aa1403e0 	mov	x0, x20
    7880:	94007b8d 	bl	266b4 <_ZN6google8protobuf8internal14WireFormatLite9ReadBytesEPNS0_2io16CodedInputStreamEPNSt7__cxx1112basic_stringIcSt11char_traitsIcESaIcEEE>
    7884:	3707fa80 	tbnz	w0, #0, 77d4 <_ZN11vector_tile10Tile_Value27MergePartialFromCodedStreamEPN6google8protobuf2io16CodedInputStreamE+0x98>
    7888:	1400009b 	b	7af4 <_ZN11vector_tile10Tile_Value27MergePartialFromCodedStreamEPN6google8protobuf2io16CodedInputStreamE+0x3b8>
    788c:	92401d09 	and	x9, x8, #0xff
    7890:	f100a13f 	cmp	x9, #0x28
    7894:	54000b41 	b.ne	79fc <_ZN11vector_tile10Tile_Value27MergePartialFromCodedStreamEPN6google8protobuf2io16CodedInputStreamE+0x2c0>  // b.any
    7898:	b9404aa8 	ldr	w8, [x21, #72]
    789c:	321b0108 	orr	w8, w8, #0x20
    78a0:	b9004aa8 	str	w8, [x21, #72]
    78a4:	a9402688 	ldp	x8, x9, [x20]
    78a8:	eb09011f 	cmp	x8, x9
    78ac:	54000ca2 	b.cs	7a40 <_ZN11vector_tile10Tile_Value27MergePartialFromCodedStreamEPN6google8protobuf2io16CodedInputStreamE+0x304>  // b.hs, b.nlast
    78b0:	39c00109 	ldrsb	w9, [x8]
    78b4:	37f80c69 	tbnz	w9, #31, 7a40 <_ZN11vector_tile10Tile_Value27MergePartialFromCodedStreamEPN6google8protobuf2io16CodedInputStreamE+0x304>
    78b8:	92401d29 	and	x9, x9, #0xff
    78bc:	91000508 	add	x8, x8, #0x1
    78c0:	f9003aa9 	str	x9, [x21, #112]
    78c4:	f9000288 	str	x8, [x20]
    78c8:	17ffffc3 	b	77d4 <_ZN11vector_tile10Tile_Value27MergePartialFromCodedStreamEPN6google8protobuf2io16CodedInputStreamE+0x98>
    78cc:	92401d09 	and	x9, x8, #0xff
    78d0:	f100653f 	cmp	x9, #0x19
    78d4:	54000941 	b.ne	79fc <_ZN11vector_tile10Tile_Value27MergePartialFromCodedStreamEPN6google8protobuf2io16CodedInputStreamE+0x2c0>  // b.any
    78d8:	b9404aa8 	ldr	w8, [x21, #72]
    78dc:	321f0108 	orr	w8, w8, #0x2
    78e0:	b9004aa8 	str	w8, [x21, #72]
    78e4:	b9400a89 	ldr	w9, [x20, #8]
    78e8:	f9400288 	ldr	x8, [x20]
    78ec:	4b080129 	sub	w9, w9, w8
    78f0:	7100213f 	cmp	w9, #0x8
    78f4:	54000d8b 	b.lt	7aa4 <_ZN11vector_tile10Tile_Value27MergePartialFromCodedStreamEPN6google8protobuf2io16CodedInputStreamE+0x368>  // b.tstop
    78f8:	fc408500 	ldr	d0, [x8], #8
    78fc:	f9000288 	str	x8, [x20]
    7900:	fd002ea0 	str	d0, [x21, #88]
    7904:	17ffffb4 	b	77d4 <_ZN11vector_tile10Tile_Value27MergePartialFromCodedStreamEPN6google8protobuf2io16CodedInputStreamE+0x98>
    7908:	92401d09 	and	x9, x8, #0xff
    790c:	f100813f 	cmp	x9, #0x20
    7910:	54000761 	b.ne	79fc <_ZN11vector_tile10Tile_Value27MergePartialFromCodedStreamEPN6google8protobuf2io16CodedInputStreamE+0x2c0>  // b.any
    7914:	b9404aa8 	ldr	w8, [x21, #72]
    7918:	321e0108 	orr	w8, w8, #0x4
    791c:	b9004aa8 	str	w8, [x21, #72]
    7920:	a9402688 	ldp	x8, x9, [x20]
    7924:	eb09011f 	cmp	x8, x9
    7928:	54000962 	b.cs	7a54 <_ZN11vector_tile10Tile_Value27MergePartialFromCodedStreamEPN6google8protobuf2io16CodedInputStreamE+0x318>  // b.hs, b.nlast
    792c:	39c00109 	ldrsb	w9, [x8]
    7930:	37f80929 	tbnz	w9, #31, 7a54 <_ZN11vector_tile10Tile_Value27MergePartialFromCodedStreamEPN6google8protobuf2io16CodedInputStreamE+0x318>
    7934:	91000508 	add	x8, x8, #0x1
    7938:	92401d20 	and	x0, x9, #0xff
    793c:	f9000288 	str	x8, [x20]
    7940:	f90032a0 	str	x0, [x21, #96]
    7944:	17ffffa4 	b	77d4 <_ZN11vector_tile10Tile_Value27MergePartialFromCodedStreamEPN6google8protobuf2io16CodedInputStreamE+0x98>
    7948:	92401d09 	and	x9, x8, #0xff
    794c:	f100553f 	cmp	x9, #0x15
    7950:	54000561 	b.ne	79fc <_ZN11vector_tile10Tile_Value27MergePartialFromCodedStreamEPN6google8protobuf2io16CodedInputStreamE+0x2c0>  // b.any
    7954:	b9404aa8 	ldr	w8, [x21, #72]
    7958:	321d0108 	orr	w8, w8, #0x8
    795c:	b9004aa8 	str	w8, [x21, #72]
    7960:	b9400a89 	ldr	w9, [x20, #8]
    7964:	f9400288 	ldr	x8, [x20]
    7968:	4b080129 	sub	w9, w9, w8
    796c:	7100113f 	cmp	w9, #0x4
    7970:	54000a8b 	b.lt	7ac0 <_ZN11vector_tile10Tile_Value27MergePartialFromCodedStreamEPN6google8protobuf2io16CodedInputStreamE+0x384>  // b.tstop
    7974:	bc404500 	ldr	s0, [x8], #4
    7978:	f9000288 	str	x8, [x20]
    797c:	bd006aa0 	str	s0, [x21, #104]
    7980:	17ffff95 	b	77d4 <_ZN11vector_tile10Tile_Value27MergePartialFromCodedStreamEPN6google8protobuf2io16CodedInputStreamE+0x98>
    7984:	92401d09 	and	x9, x8, #0xff
    7988:	f100c13f 	cmp	x9, #0x30
    798c:	54000381 	b.ne	79fc <_ZN11vector_tile10Tile_Value27MergePartialFromCodedStreamEPN6google8protobuf2io16CodedInputStreamE+0x2c0>  // b.any
    7990:	b9404aa8 	ldr	w8, [x21, #72]
    7994:	321a0108 	orr	w8, w8, #0x40
    7998:	b9004aa8 	str	w8, [x21, #72]
    799c:	a9402688 	ldp	x8, x9, [x20]
    79a0:	eb09011f 	cmp	x8, x9
    79a4:	54000622 	b.cs	7a68 <_ZN11vector_tile10Tile_Value27MergePartialFromCodedStreamEPN6google8protobuf2io16CodedInputStreamE+0x32c>  // b.hs, b.nlast
    79a8:	39c00109 	ldrsb	w9, [x8]
    79ac:	37f805e9 	tbnz	w9, #31, 7a68 <_ZN11vector_tile10Tile_Value27MergePartialFromCodedStreamEPN6google8protobuf2io16CodedInputStreamE+0x32c>
    79b0:	91000508 	add	x8, x8, #0x1
    79b4:	92401d20 	and	x0, x9, #0xff
    79b8:	f9000288 	str	x8, [x20]
    79bc:	1400002e 	b	7a74 <_ZN11vector_tile10Tile_Value27MergePartialFromCodedStreamEPN6google8protobuf2io16CodedInputStreamE+0x338>
    79c0:	92401d09 	and	x9, x8, #0xff
    79c4:	f100e13f 	cmp	x9, #0x38
    79c8:	540001a1 	b.ne	79fc <_ZN11vector_tile10Tile_Value27MergePartialFromCodedStreamEPN6google8protobuf2io16CodedInputStreamE+0x2c0>  // b.any
    79cc:	b9404aa8 	ldr	w8, [x21, #72]
    79d0:	321c0108 	orr	w8, w8, #0x10
    79d4:	b9004aa8 	str	w8, [x21, #72]
    79d8:	a9402688 	ldp	x8, x9, [x20]
    79dc:	eb09011f 	cmp	x8, x9
    79e0:	54000542 	b.cs	7a88 <_ZN11vector_tile10Tile_Value27MergePartialFromCodedStreamEPN6google8protobuf2io16CodedInputStreamE+0x34c>  // b.hs, b.nlast
    79e4:	39c00109 	ldrsb	w9, [x8]
    79e8:	37f80509 	tbnz	w9, #31, 7a88 <_ZN11vector_tile10Tile_Value27MergePartialFromCodedStreamEPN6google8protobuf2io16CodedInputStreamE+0x34c>
    79ec:	91000508 	add	x8, x8, #0x1
    79f0:	92401d20 	and	x0, x9, #0xff
    79f4:	f9000288 	str	x8, [x20]
    79f8:	14000027 	b	7a94 <_ZN11vector_tile10Tile_Value27MergePartialFromCodedStreamEPN6google8protobuf2io16CodedInputStreamE+0x358>
    79fc:	34000708 	cbz	w8, 7adc <_ZN11vector_tile10Tile_Value27MergePartialFromCodedStreamEPN6google8protobuf2io16CodedInputStreamE+0x3a0>
    7a00:	7101011f 	cmp	w8, #0x40
    7a04:	54000123 	b.cc	7a28 <_ZN11vector_tile10Tile_Value27MergePartialFromCodedStreamEPN6google8protobuf2io16CodedInputStreamE+0x2ec>  // b.lo, b.ul, b.last
    7a08:	910023e4 	add	x4, sp, #0x8
    7a0c:	aa1703e0 	mov	x0, x23
    7a10:	2a0803e1 	mov	w1, w8
    7a14:	aa1403e2 	mov	x2, x20
    7a18:	aa1903e3 	mov	x3, x25
    7a1c:	94004d29 	bl	1aec0 <_ZN6google8protobuf8internal12ExtensionSet10ParseFieldEjPNS0_2io16CodedInputStreamEPKNS0_11MessageLiteEPNS3_17CodedOutputStreamE>
    7a20:	3707eda0 	tbnz	w0, #0, 77d4 <_ZN11vector_tile10Tile_Value27MergePartialFromCodedStreamEPN6google8protobuf2io16CodedInputStreamE+0x98>
    7a24:	14000034 	b	7af4 <_ZN11vector_tile10Tile_Value27MergePartialFromCodedStreamEPN6google8protobuf2io16CodedInputStreamE+0x3b8>
    7a28:	910023e2 	add	x2, sp, #0x8
    7a2c:	aa1403e0 	mov	x0, x20
    7a30:	2a0803e1 	mov	w1, w8
    7a34:	940073a7 	bl	248d0 <_ZN6google8protobuf8internal14WireFormatLite9SkipFieldEPNS0_2io16CodedInputStreamEjPNS3_17CodedOutputStreamE>
    7a38:	3707ece0 	tbnz	w0, #0, 77d4 <_ZN11vector_tile10Tile_Value27MergePartialFromCodedStreamEPN6google8protobuf2io16CodedInputStreamE+0x98>
    7a3c:	1400002e 	b	7af4 <_ZN11vector_tile10Tile_Value27MergePartialFromCodedStreamEPN6google8protobuf2io16CodedInputStreamE+0x3b8>
    7a40:	aa1403e0 	mov	x0, x20
    7a44:	940080c8 	bl	27d64 <_ZN6google8protobuf2io16CodedInputStream20ReadVarint64FallbackEv>
    7a48:	f9003aa0 	str	x0, [x21, #112]
    7a4c:	3707ec41 	tbnz	w1, #0, 77d4 <_ZN11vector_tile10Tile_Value27MergePartialFromCodedStreamEPN6google8protobuf2io16CodedInputStreamE+0x98>
    7a50:	14000029 	b	7af4 <_ZN11vector_tile10Tile_Value27MergePartialFromCodedStreamEPN6google8protobuf2io16CodedInputStreamE+0x3b8>
    7a54:	aa1403e0 	mov	x0, x20
    7a58:	940080c3 	bl	27d64 <_ZN6google8protobuf2io16CodedInputStream20ReadVarint64FallbackEv>
    7a5c:	360004c1 	tbz	w1, #0, 7af4 <_ZN11vector_tile10Tile_Value27MergePartialFromCodedStreamEPN6google8protobuf2io16CodedInputStreamE+0x3b8>
    7a60:	f90032a0 	str	x0, [x21, #96]
    7a64:	17ffff5c 	b	77d4 <_ZN11vector_tile10Tile_Value27MergePartialFromCodedStreamEPN6google8protobuf2io16CodedInputStreamE+0x98>
    7a68:	aa1403e0 	mov	x0, x20
    7a6c:	940080be 	bl	27d64 <_ZN6google8protobuf2io16CodedInputStream20ReadVarint64FallbackEv>
    7a70:	36000421 	tbz	w1, #0, 7af4 <_ZN11vector_tile10Tile_Value27MergePartialFromCodedStreamEPN6google8protobuf2io16CodedInputStreamE+0x3b8>
    7a74:	92400008 	and	x8, x0, #0x1
    7a78:	cb0803e8 	neg	x8, x8
    7a7c:	ca400508 	eor	x8, x8, x0, lsr #1
    7a80:	f9003ea8 	str	x8, [x21, #120]
    7a84:	17ffff54 	b	77d4 <_ZN11vector_tile10Tile_Value27MergePartialFromCodedStreamEPN6google8protobuf2io16CodedInputStreamE+0x98>
    7a88:	aa1403e0 	mov	x0, x20
    7a8c:	940080b6 	bl	27d64 <_ZN6google8protobuf2io16CodedInputStream20ReadVarint64FallbackEv>
    7a90:	36000321 	tbz	w1, #0, 7af4 <_ZN11vector_tile10Tile_Value27MergePartialFromCodedStreamEPN6google8protobuf2io16CodedInputStreamE+0x3b8>
    7a94:	f100001f 	cmp	x0, #0x0
    7a98:	1a9f07e8 	cset	w8, ne  // ne = any
    7a9c:	3901b2a8 	strb	w8, [x21, #108]
    7aa0:	17ffff4d 	b	77d4 <_ZN11vector_tile10Tile_Value27MergePartialFromCodedStreamEPN6google8protobuf2io16CodedInputStreamE+0x98>
    7aa4:	910063a1 	add	x1, x29, #0x18
    7aa8:	aa1403e0 	mov	x0, x20
    7aac:	94008049 	bl	27bd0 <_ZN6google8protobuf2io16CodedInputStream26ReadLittleEndian64FallbackEPm>
    7ab0:	36000220 	tbz	w0, #0, 7af4 <_ZN11vector_tile10Tile_Value27MergePartialFromCodedStreamEPN6google8protobuf2io16CodedInputStreamE+0x3b8>
    7ab4:	fd400fa0 	ldr	d0, [x29, #24]
    7ab8:	fd002ea0 	str	d0, [x21, #88]
    7abc:	17ffff46 	b	77d4 <_ZN11vector_tile10Tile_Value27MergePartialFromCodedStreamEPN6google8protobuf2io16CodedInputStreamE+0x98>
    7ac0:	910063a1 	add	x1, x29, #0x18
    7ac4:	aa1403e0 	mov	x0, x20
    7ac8:	9400801b 	bl	27b34 <_ZN6google8protobuf2io16CodedInputStream26ReadLittleEndian32FallbackEPj>
    7acc:	36000140 	tbz	w0, #0, 7af4 <_ZN11vector_tile10Tile_Value27MergePartialFromCodedStreamEPN6google8protobuf2io16CodedInputStreamE+0x3b8>
    7ad0:	bd401ba0 	ldr	s0, [x29, #24]
    7ad4:	bd006aa0 	str	s0, [x21, #104]
    7ad8:	17ffff3f 	b	77d4 <_ZN11vector_tile10Tile_Value27MergePartialFromCodedStreamEPN6google8protobuf2io16CodedInputStreamE+0x98>
    7adc:	52800034 	mov	w20, #0x1                   	// #1
    7ae0:	910023e0 	add	x0, sp, #0x8
    7ae4:	940082f3 	bl	286b0 <_ZN6google8protobuf2io17CodedOutputStreamD1Ev>
    7ae8:	f85e83a8 	ldur	x8, [x29, #-24]
    7aec:	b50000e8 	cbnz	x8, 7b08 <_ZN11vector_tile10Tile_Value27MergePartialFromCodedStreamEPN6google8protobuf2io16CodedInputStreamE+0x3cc>
    7af0:	1400000c 	b	7b20 <_ZN11vector_tile10Tile_Value27MergePartialFromCodedStreamEPN6google8protobuf2io16CodedInputStreamE+0x3e4>
    7af4:	2a1f03f4 	mov	w20, wzr
    7af8:	910023e0 	add	x0, sp, #0x8
    7afc:	940082ed 	bl	286b0 <_ZN6google8protobuf2io17CodedOutputStreamD1Ev>
    7b00:	f85e83a8 	ldur	x8, [x29, #-24]
    7b04:	b40000e8 	cbz	x8, 7b20 <_ZN11vector_tile10Tile_Value27MergePartialFromCodedStreamEPN6google8protobuf2io16CodedInputStreamE+0x3e4>
    7b08:	f85d83a0 	ldur	x0, [x29, #-40]
    7b0c:	f9400008 	ldr	x8, [x0]
    7b10:	36000228 	tbz	w8, #0, 7b54 <_ZN11vector_tile10Tile_Value27MergePartialFromCodedStreamEPN6google8protobuf2io16CodedInputStreamE+0x418>
    7b14:	927ff900 	and	x0, x8, #0xfffffffffffffffe
    7b18:	aa1303e1 	mov	x1, x19
    7b1c:	97fff3d9 	bl	4a80 <_ZNSt7__cxx1112basic_stringIcSt11char_traitsIcESaIcEE4swapERS4_@plt>
    7b20:	f85e03a0 	ldur	x0, [x29, #-32]
    7b24:	eb1a001f 	cmp	x0, x26
    7b28:	54000040 	b.eq	7b30 <_ZN11vector_tile10Tile_Value27MergePartialFromCodedStreamEPN6google8protobuf2io16CodedInputStreamE+0x3f4>  // b.none
    7b2c:	97fff3f5 	bl	4b00 <_ZdlPv@plt>
    7b30:	2a1403e0 	mov	w0, w20
    7b34:	a94b4ff4 	ldp	x20, x19, [sp, #176]
    7b38:	a94a57f6 	ldp	x22, x21, [sp, #160]
    7b3c:	a9495ff8 	ldp	x24, x23, [sp, #144]
    7b40:	a94867fa 	ldp	x26, x25, [sp, #128]
    7b44:	a9467bfd 	ldp	x29, x30, [sp, #96]
    7b48:	f9403bfb 	ldr	x27, [sp, #112]
    7b4c:	910303ff 	add	sp, sp, #0xc0
    7b50:	d65f03c0 	ret
    7b54:	940011cd 	bl	c288 <_ZN6google8protobuf8internal29InternalMetadataWithArenaBaseINSt7__cxx1112basic_stringIcSt11char_traitsIcESaIcEEENS1_29InternalMetadataWithArenaLiteEE27mutable_unknown_fields_slowEv>
    7b58:	17fffff0 	b	7b18 <_ZN11vector_tile10Tile_Value27MergePartialFromCodedStreamEPN6google8protobuf2io16CodedInputStreamE+0x3dc>
    7b5c:	97fffaad 	bl	6610 <__clang_call_terminate>
    7b60:	14000001 	b	7b64 <_ZN11vector_tile10Tile_Value27MergePartialFromCodedStreamEPN6google8protobuf2io16CodedInputStreamE+0x428>
    7b64:	aa0003f3 	mov	x19, x0
    7b68:	14000004 	b	7b78 <_ZN11vector_tile10Tile_Value27MergePartialFromCodedStreamEPN6google8protobuf2io16CodedInputStreamE+0x43c>
    7b6c:	aa0003f3 	mov	x19, x0
    7b70:	910023e0 	add	x0, sp, #0x8
    7b74:	940082cf 	bl	286b0 <_ZN6google8protobuf2io17CodedOutputStreamD1Ev>
    7b78:	d100a3a0 	sub	x0, x29, #0x28
    7b7c:	94000fc1 	bl	ba80 <_ZN6google8protobuf8internal22LiteUnknownFieldSetterD2Ev>
    7b80:	aa1303e0 	mov	x0, x19
    7b84:	97fff467 	bl	4d20 <_Unwind_Resume@plt>

0000000000007b88 <_ZNK11vector_tile10Tile_Value24SerializeWithCachedSizesEPN6google8protobuf2io17CodedOutputStreamE>:
    7b88:	a9bd7bfd 	stp	x29, x30, [sp, #-48]!
    7b8c:	f9000bf5 	str	x21, [sp, #16]
    7b90:	a9024ff4 	stp	x20, x19, [sp, #32]
    7b94:	910003fd 	mov	x29, sp
    7b98:	aa0103f3 	mov	x19, x1
    7b9c:	aa0003f4 	mov	x20, x0
    7ba0:	97fff360 	bl	4920 <_mcount@plt>
    7ba4:	b9404a95 	ldr	w21, [x20, #72]
    7ba8:	37000375 	tbnz	w21, #0, 7c14 <_ZNK11vector_tile10Tile_Value24SerializeWithCachedSizesEPN6google8protobuf2io17CodedOutputStreamE+0x8c>
    7bac:	371803f5 	tbnz	w21, #3, 7c28 <_ZNK11vector_tile10Tile_Value24SerializeWithCachedSizesEPN6google8protobuf2io17CodedOutputStreamE+0xa0>
    7bb0:	37080475 	tbnz	w21, #1, 7c3c <_ZNK11vector_tile10Tile_Value24SerializeWithCachedSizesEPN6google8protobuf2io17CodedOutputStreamE+0xb4>
    7bb4:	371004f5 	tbnz	w21, #2, 7c50 <_ZNK11vector_tile10Tile_Value24SerializeWithCachedSizesEPN6google8protobuf2io17CodedOutputStreamE+0xc8>
    7bb8:	37280575 	tbnz	w21, #5, 7c64 <_ZNK11vector_tile10Tile_Value24SerializeWithCachedSizesEPN6google8protobuf2io17CodedOutputStreamE+0xdc>
    7bbc:	373005f5 	tbnz	w21, #6, 7c78 <_ZNK11vector_tile10Tile_Value24SerializeWithCachedSizesEPN6google8protobuf2io17CodedOutputStreamE+0xf0>
    7bc0:	362000b5 	tbz	w21, #4, 7bd4 <_ZNK11vector_tile10Tile_Value24SerializeWithCachedSizesEPN6google8protobuf2io17CodedOutputStreamE+0x4c>
    7bc4:	3941b281 	ldrb	w1, [x20, #108]
    7bc8:	528000e0 	mov	w0, #0x7                   	// #7
    7bcc:	aa1303e2 	mov	x2, x19
    7bd0:	94007735 	bl	258a4 <_ZN6google8protobuf8internal14WireFormatLite9WriteBoolEibPNS0_2io17CodedOutputStreamE>
    7bd4:	91002280 	add	x0, x20, #0x8
    7bd8:	52800101 	mov	w1, #0x8                   	// #8
    7bdc:	52a40002 	mov	w2, #0x20000000            	// #536870912
    7be0:	aa1303e3 	mov	x3, x19
    7be4:	94003787 	bl	15a00 <_ZNK6google8protobuf8internal12ExtensionSet24SerializeWithCachedSizesEiiPNS0_2io17CodedOutputStreamE>
    7be8:	f9402288 	ldr	x8, [x20, #64]
    7bec:	37000528 	tbnz	w8, #0, 7c90 <_ZNK11vector_tile10Tile_Value24SerializeWithCachedSizesEPN6google8protobuf2io17CodedOutputStreamE+0x108>
    7bf0:	90000208 	adrp	x8, 47000 <GCC_except_table137+0x112f4>
    7bf4:	f946a108 	ldr	x8, [x8, #3392]
    7bf8:	f9400101 	ldr	x1, [x8]
    7bfc:	b9400902 	ldr	w2, [x8, #8]
    7c00:	aa1303e0 	mov	x0, x19
    7c04:	a9424ff4 	ldp	x20, x19, [sp, #32]
    7c08:	f9400bf5 	ldr	x21, [sp, #16]
    7c0c:	a8c37bfd 	ldp	x29, x30, [sp], #48
    7c10:	14008338 	b	288f0 <_ZN6google8protobuf2io17CodedOutputStream8WriteRawEPKvi>
    7c14:	f9402a81 	ldr	x1, [x20, #80]
    7c18:	52800020 	mov	w0, #0x1                   	// #1
    7c1c:	aa1303e2 	mov	x2, x19
    7c20:	940077f8 	bl	25c00 <_ZN6google8protobuf8internal14WireFormatLite23WriteStringMaybeAliasedEiRKNSt7__cxx1112basic_stringIcSt11char_traitsIcESaIcEEEPNS0_2io17CodedOutputStreamE>
    7c24:	361ffc75 	tbz	w21, #3, 7bb0 <_ZNK11vector_tile10Tile_Value24SerializeWithCachedSizesEPN6google8protobuf2io17CodedOutputStreamE+0x28>
    7c28:	bd406a80 	ldr	s0, [x20, #104]
    7c2c:	52800040 	mov	w0, #0x2                   	// #2
    7c30:	aa1303e1 	mov	x1, x19
    7c34:	940076cc 	bl	25764 <_ZN6google8protobuf8internal14WireFormatLite10WriteFloatEifPNS0_2io17CodedOutputStreamE>
    7c38:	360ffbf5 	tbz	w21, #1, 7bb4 <_ZNK11vector_tile10Tile_Value24SerializeWithCachedSizesEPN6google8protobuf2io17CodedOutputStreamE+0x2c>
    7c3c:	fd402e80 	ldr	d0, [x20, #88]
    7c40:	52800060 	mov	w0, #0x3                   	// #3
    7c44:	aa1303e1 	mov	x1, x19
    7c48:	940076ef 	bl	25804 <_ZN6google8protobuf8internal14WireFormatLite11WriteDoubleEidPNS0_2io17CodedOutputStreamE>
    7c4c:	3617fb75 	tbz	w21, #2, 7bb8 <_ZNK11vector_tile10Tile_Value24SerializeWithCachedSizesEPN6google8protobuf2io17CodedOutputStreamE+0x30>
    7c50:	f9403281 	ldr	x1, [x20, #96]
    7c54:	52800080 	mov	w0, #0x4                   	// #4
    7c58:	aa1303e2 	mov	x2, x19
    7c5c:	940074ea 	bl	25004 <_ZN6google8protobuf8internal14WireFormatLite10WriteInt64EilPNS0_2io17CodedOutputStreamE>
    7c60:	362ffaf5 	tbz	w21, #5, 7bbc <_ZNK11vector_tile10Tile_Value24SerializeWithCachedSizesEPN6google8protobuf2io17CodedOutputStreamE+0x34>
    7c64:	f9403a81 	ldr	x1, [x20, #112]
    7c68:	528000a0 	mov	w0, #0x5                   	// #5
    7c6c:	aa1303e2 	mov	x2, x19
    7c70:	94007561 	bl	251f4 <_ZN6google8protobuf8internal14WireFormatLite11WriteUInt64EimPNS0_2io17CodedOutputStreamE>
    7c74:	3637fa75 	tbz	w21, #6, 7bc0 <_ZNK11vector_tile10Tile_Value24SerializeWithCachedSizesEPN6google8protobuf2io17CodedOutputStreamE+0x38>
    7c78:	f9403e81 	ldr	x1, [x20, #120]
    7c7c:	528000c0 	mov	w0, #0x6                   	// #6
    7c80:	aa1303e2 	mov	x2, x19
    7c84:	940075d7 	bl	253e0 <_ZN6google8protobuf8internal14WireFormatLite11WriteSInt64EilPNS0_2io17CodedOutputStreamE>
    7c88:	3727f9f5 	tbnz	w21, #4, 7bc4 <_ZNK11vector_tile10Tile_Value24SerializeWithCachedSizesEPN6google8protobuf2io17CodedOutputStreamE+0x3c>
    7c8c:	17ffffd2 	b	7bd4 <_ZNK11vector_tile10Tile_Value24SerializeWithCachedSizesEPN6google8protobuf2io17CodedOutputStreamE+0x4c>
    7c90:	927ff908 	and	x8, x8, #0xfffffffffffffffe
    7c94:	17ffffd9 	b	7bf8 <_ZNK11vector_tile10Tile_Value24SerializeWithCachedSizesEPN6google8protobuf2io17CodedOutputStreamE+0x70>

0000000000007c98 <_ZNK11vector_tile10Tile_Value12ByteSizeLongEv>:
    7c98:	a9be7bfd 	stp	x29, x30, [sp, #-32]!
    7c9c:	f9000bf3 	str	x19, [sp, #16]
    7ca0:	910003fd 	mov	x29, sp
    7ca4:	aa0003f3 	mov	x19, x0
    7ca8:	97fff31e 	bl	4920 <_mcount@plt>
    7cac:	91002260 	add	x0, x19, #0x8
    7cb0:	94003b54 	bl	16a00 <_ZNK6google8protobuf8internal12ExtensionSet8ByteSizeEv>
    7cb4:	f9402268 	ldr	x8, [x19, #64]
    7cb8:	370007c8 	tbnz	w8, #0, 7db0 <_ZNK11vector_tile10Tile_Value12ByteSizeLongEv+0x118>
    7cbc:	90000208 	adrp	x8, 47000 <GCC_except_table137+0x112f4>
    7cc0:	f946a108 	ldr	x8, [x8, #3392]
    7cc4:	f9400509 	ldr	x9, [x8, #8]
    7cc8:	b9404a68 	ldr	w8, [x19, #72]
    7ccc:	8b000120 	add	x0, x9, x0
    7cd0:	7200191f 	tst	w8, #0x7f
    7cd4:	54000660 	b.eq	7da0 <_ZNK11vector_tile10Tile_Value12ByteSizeLongEv+0x108>  // b.none
    7cd8:	36000188 	tbz	w8, #0, 7d08 <_ZNK11vector_tile10Tile_Value12ByteSizeLongEv+0x70>
    7cdc:	f9402a69 	ldr	x9, [x19, #80]
    7ce0:	f9400529 	ldr	x9, [x9, #8]
    7ce4:	3200012a 	orr	w10, w9, #0x1
    7ce8:	8b090009 	add	x9, x0, x9
    7cec:	5ac0114a 	clz	w10, w10
    7cf0:	5200114a 	eor	w10, w10, #0x1f
    7cf4:	0b0a0d4a 	add	w10, w10, w10, lsl #3
    7cf8:	1101254a 	add	w10, w10, #0x49
    7cfc:	53067d4a 	lsr	w10, w10, #6
    7d00:	8b0a0129 	add	x9, x9, x10
    7d04:	91000520 	add	x0, x9, #0x1
    7d08:	91002409 	add	x9, x0, #0x9
    7d0c:	721f011f 	tst	w8, #0x2
    7d10:	9a890009 	csel	x9, x0, x9, eq  // eq = none
    7d14:	36100128 	tbz	w8, #2, 7d38 <_ZNK11vector_tile10Tile_Value12ByteSizeLongEv+0xa0>
    7d18:	f940326a 	ldr	x10, [x19, #96]
    7d1c:	b240014a 	orr	x10, x10, #0x1
    7d20:	dac0114a 	clz	x10, x10
    7d24:	d240154a 	eor	x10, x10, #0x3f
    7d28:	8b0a0d4a 	add	x10, x10, x10, lsl #3
    7d2c:	9101254a 	add	x10, x10, #0x49
    7d30:	8b4a1929 	add	x9, x9, x10, lsr #6
    7d34:	91000529 	add	x9, x9, #0x1
    7d38:	9100152a 	add	x10, x9, #0x5
    7d3c:	721d011f 	tst	w8, #0x8
    7d40:	9a8a0129 	csel	x9, x9, x10, eq  // eq = none
    7d44:	721c011f 	tst	w8, #0x10
    7d48:	9100092a 	add	x10, x9, #0x2
    7d4c:	9a8a0120 	csel	x0, x9, x10, eq  // eq = none
    7d50:	36280128 	tbz	w8, #5, 7d74 <_ZNK11vector_tile10Tile_Value12ByteSizeLongEv+0xdc>
    7d54:	f9403a69 	ldr	x9, [x19, #112]
    7d58:	b2400129 	orr	x9, x9, #0x1
    7d5c:	dac01129 	clz	x9, x9
    7d60:	d2401529 	eor	x9, x9, #0x3f
    7d64:	8b090d29 	add	x9, x9, x9, lsl #3
    7d68:	91012529 	add	x9, x9, #0x49
    7d6c:	8b491809 	add	x9, x0, x9, lsr #6
    7d70:	91000520 	add	x0, x9, #0x1
    7d74:	36300168 	tbz	w8, #6, 7da0 <_ZNK11vector_tile10Tile_Value12ByteSizeLongEv+0x108>
    7d78:	f9403e68 	ldr	x8, [x19, #120]
    7d7c:	d37ff909 	lsl	x9, x8, #1
    7d80:	ca88fd28 	eor	x8, x9, x8, asr #63
    7d84:	b2400108 	orr	x8, x8, #0x1
    7d88:	dac01108 	clz	x8, x8
    7d8c:	d2401508 	eor	x8, x8, #0x3f
    7d90:	8b080d08 	add	x8, x8, x8, lsl #3
    7d94:	91012508 	add	x8, x8, #0x49
    7d98:	8b481808 	add	x8, x0, x8, lsr #6
    7d9c:	91000500 	add	x0, x8, #0x1
    7da0:	b9004e60 	str	w0, [x19, #76]
    7da4:	f9400bf3 	ldr	x19, [sp, #16]
    7da8:	a8c27bfd 	ldp	x29, x30, [sp], #32
    7dac:	d65f03c0 	ret
    7db0:	927ff908 	and	x8, x8, #0xfffffffffffffffe
    7db4:	f9400509 	ldr	x9, [x8, #8]
    7db8:	b9404a68 	ldr	w8, [x19, #72]
    7dbc:	8b000120 	add	x0, x9, x0
    7dc0:	7200191f 	tst	w8, #0x7f
    7dc4:	54fff8a1 	b.ne	7cd8 <_ZNK11vector_tile10Tile_Value12ByteSizeLongEv+0x40>  // b.any
    7dc8:	17fffff6 	b	7da0 <_ZNK11vector_tile10Tile_Value12ByteSizeLongEv+0x108>

0000000000007dcc <_ZN11vector_tile10Tile_Value21CheckTypeAndMergeFromERKN6google8protobuf11MessageLiteE>:
    7dcc:	a9be7bfd 	stp	x29, x30, [sp, #-32]!
    7dd0:	a9014ff4 	stp	x20, x19, [sp, #16]
    7dd4:	910003fd 	mov	x29, sp
    7dd8:	aa0103f3 	mov	x19, x1
    7ddc:	aa0003f4 	mov	x20, x0
    7de0:	97fff2d0 	bl	4920 <_mcount@plt>
    7de4:	aa1403e0 	mov	x0, x20
    7de8:	aa1303e1 	mov	x1, x19
    7dec:	a9414ff4 	ldp	x20, x19, [sp, #16]
    7df0:	a8c27bfd 	ldp	x29, x30, [sp], #32
    7df4:	14000001 	b	7df8 <_ZN11vector_tile10Tile_Value9MergeFromERKS0_>

0000000000007df8 <_ZN11vector_tile10Tile_Value9MergeFromERKS0_>:
    7df8:	a9bd7bfd 	stp	x29, x30, [sp, #-48]!
    7dfc:	f9000bf5 	str	x21, [sp, #16]
    7e00:	a9024ff4 	stp	x20, x19, [sp, #32]
    7e04:	910003fd 	mov	x29, sp
    7e08:	aa0103f4 	mov	x20, x1
    7e0c:	aa0003f3 	mov	x19, x0
    7e10:	97fff2c4 	bl	4920 <_mcount@plt>
    7e14:	91002260 	add	x0, x19, #0x8
    7e18:	91002281 	add	x1, x20, #0x8
    7e1c:	94004699 	bl	19880 <_ZN6google8protobuf8internal12ExtensionSet9MergeFromERKS2_>
    7e20:	f9402288 	ldr	x8, [x20, #64]
    7e24:	36000108 	tbz	w8, #0, 7e44 <_ZN11vector_tile10Tile_Value9MergeFromERKS0_+0x4c>
    7e28:	91010260 	add	x0, x19, #0x40
    7e2c:	927ff915 	and	x21, x8, #0xfffffffffffffffe
    7e30:	f9400009 	ldr	x9, [x0]
    7e34:	360006e9 	tbz	w9, #0, 7f10 <_ZN11vector_tile10Tile_Value9MergeFromERKS0_+0x118>
    7e38:	927ff920 	and	x0, x9, #0xfffffffffffffffe
    7e3c:	a9400aa1 	ldp	x1, x2, [x21]
    7e40:	97fff2ac 	bl	48f0 <_ZNSt7__cxx1112basic_stringIcSt11char_traitsIcESaIcEE9_M_appendEPKcm@plt>
    7e44:	b9404a95 	ldr	w21, [x20, #72]
    7e48:	72001abf 	tst	w21, #0x7f
    7e4c:	54000360 	b.eq	7eb8 <_ZN11vector_tile10Tile_Value9MergeFromERKS0_+0xc0>  // b.none
    7e50:	360001f5 	tbz	w21, #0, 7e8c <_ZN11vector_tile10Tile_Value9MergeFromERKS0_+0x94>
    7e54:	aa1303e0 	mov	x0, x19
    7e58:	f8450c08 	ldr	x8, [x0, #80]!
    7e5c:	b85f8009 	ldur	w9, [x0, #-8]
    7e60:	32000129 	orr	w9, w9, #0x1
    7e64:	b81f8009 	stur	w9, [x0, #-8]
    7e68:	f9402a81 	ldr	x1, [x20, #80]
    7e6c:	eb01011f 	cmp	x8, x1
    7e70:	540000e0 	b.eq	7e8c <_ZN11vector_tile10Tile_Value9MergeFromERKS0_+0x94>  // b.none
    7e74:	90000209 	adrp	x9, 47000 <GCC_except_table137+0x112f4>
    7e78:	f946a129 	ldr	x9, [x9, #3392]
    7e7c:	eb09011f 	cmp	x8, x9
    7e80:	54000240 	b.eq	7ec8 <_ZN11vector_tile10Tile_Value9MergeFromERKS0_+0xd0>  // b.none
    7e84:	aa0803e0 	mov	x0, x8
    7e88:	97fff2c2 	bl	4990 <_ZNSt7__cxx1112basic_stringIcSt11char_traitsIcESaIcEE9_M_assignERKS4_@plt>
    7e8c:	37080235 	tbnz	w21, #1, 7ed0 <_ZN11vector_tile10Tile_Value9MergeFromERKS0_+0xd8>
    7e90:	37100275 	tbnz	w21, #2, 7edc <_ZN11vector_tile10Tile_Value9MergeFromERKS0_+0xe4>
    7e94:	371802b5 	tbnz	w21, #3, 7ee8 <_ZN11vector_tile10Tile_Value9MergeFromERKS0_+0xf0>
    7e98:	372002f5 	tbnz	w21, #4, 7ef4 <_ZN11vector_tile10Tile_Value9MergeFromERKS0_+0xfc>
    7e9c:	37280335 	tbnz	w21, #5, 7f00 <_ZN11vector_tile10Tile_Value9MergeFromERKS0_+0x108>
    7ea0:	36300075 	tbz	w21, #6, 7eac <_ZN11vector_tile10Tile_Value9MergeFromERKS0_+0xb4>
    7ea4:	f9403e88 	ldr	x8, [x20, #120]
    7ea8:	f9003e68 	str	x8, [x19, #120]
    7eac:	b9404a68 	ldr	w8, [x19, #72]
    7eb0:	2a150108 	orr	w8, w8, w21
    7eb4:	b9004a68 	str	w8, [x19, #72]
    7eb8:	a9424ff4 	ldp	x20, x19, [sp, #32]
    7ebc:	f9400bf5 	ldr	x21, [sp, #16]
    7ec0:	a8c37bfd 	ldp	x29, x30, [sp], #48
    7ec4:	d65f03c0 	ret
    7ec8:	940010c0 	bl	c1c8 <_ZN6google8protobuf8internal14ArenaStringPtr21CreateInstanceNoArenaEPKNSt7__cxx1112basic_stringIcSt11char_traitsIcESaIcEEE>
    7ecc:	360ffe35 	tbz	w21, #1, 7e90 <_ZN11vector_tile10Tile_Value9MergeFromERKS0_+0x98>
    7ed0:	fd402e80 	ldr	d0, [x20, #88]
    7ed4:	fd002e60 	str	d0, [x19, #88]
    7ed8:	3617fdf5 	tbz	w21, #2, 7e94 <_ZN11vector_tile10Tile_Value9MergeFromERKS0_+0x9c>
    7edc:	f9403288 	ldr	x8, [x20, #96]
    7ee0:	f9003268 	str	x8, [x19, #96]
    7ee4:	361ffdb5 	tbz	w21, #3, 7e98 <_ZN11vector_tile10Tile_Value9MergeFromERKS0_+0xa0>
    7ee8:	bd406a80 	ldr	s0, [x20, #104]
    7eec:	bd006a60 	str	s0, [x19, #104]
    7ef0:	3627fd75 	tbz	w21, #4, 7e9c <_ZN11vector_tile10Tile_Value9MergeFromERKS0_+0xa4>
    7ef4:	3941b288 	ldrb	w8, [x20, #108]
    7ef8:	3901b268 	strb	w8, [x19, #108]
    7efc:	362ffd35 	tbz	w21, #5, 7ea0 <_ZN11vector_tile10Tile_Value9MergeFromERKS0_+0xa8>
    7f00:	f9403a88 	ldr	x8, [x20, #112]
    7f04:	f9003a68 	str	x8, [x19, #112]
    7f08:	3737fcf5 	tbnz	w21, #6, 7ea4 <_ZN11vector_tile10Tile_Value9MergeFromERKS0_+0xac>
    7f0c:	17ffffe8 	b	7eac <_ZN11vector_tile10Tile_Value9MergeFromERKS0_+0xb4>
    7f10:	940010de 	bl	c288 <_ZN6google8protobuf8internal29InternalMetadataWithArenaBaseINSt7__cxx1112basic_stringIcSt11char_traitsIcESaIcEEENS1_29InternalMetadataWithArenaLiteEE27mutable_unknown_fields_slowEv>
    7f14:	17ffffca 	b	7e3c <_ZN11vector_tile10Tile_Value9MergeFromERKS0_+0x44>

0000000000007f18 <_ZN11vector_tile10Tile_Value8CopyFromERKS0_>:
    7f18:	a9be7bfd 	stp	x29, x30, [sp, #-32]!
    7f1c:	a9014ff4 	stp	x20, x19, [sp, #16]
    7f20:	910003fd 	mov	x29, sp
    7f24:	aa0103f3 	mov	x19, x1
    7f28:	aa0003f4 	mov	x20, x0
    7f2c:	97fff27d 	bl	4920 <_mcount@plt>
    7f30:	eb14027f 	cmp	x19, x20
    7f34:	54000360 	b.eq	7fa0 <_ZN11vector_tile10Tile_Value8CopyFromERKS0_+0x88>  // b.none
    7f38:	91002280 	add	x0, x20, #0x8
    7f3c:	940031fd 	bl	14730 <_ZN6google8protobuf8internal12ExtensionSet5ClearEv>
    7f40:	b9404a88 	ldr	w8, [x20, #72]
    7f44:	360000a8 	tbz	w8, #0, 7f58 <_ZN11vector_tile10Tile_Value8CopyFromERKS0_+0x40>
    7f48:	f9402a89 	ldr	x9, [x20, #80]
    7f4c:	f940012a 	ldr	x10, [x9]
    7f50:	f900053f 	str	xzr, [x9, #8]
    7f54:	3900015f 	strb	wzr, [x10]
    7f58:	721f151f 	tst	w8, #0x7e
    7f5c:	540000a0 	b.eq	7f70 <_ZN11vector_tile10Tile_Value8CopyFromERKS0_+0x58>  // b.none
    7f60:	6f00e400 	movi	v0.2d, #0x0
    7f64:	f9003e9f 	str	xzr, [x20, #120]
    7f68:	3c868280 	stur	q0, [x20, #104]
    7f6c:	3c858280 	stur	q0, [x20, #88]
    7f70:	f9402288 	ldr	x8, [x20, #64]
    7f74:	b9004a9f 	str	wzr, [x20, #72]
    7f78:	360000a8 	tbz	w8, #0, 7f8c <_ZN11vector_tile10Tile_Value8CopyFromERKS0_+0x74>
    7f7c:	927ff908 	and	x8, x8, #0xfffffffffffffffe
    7f80:	f9400109 	ldr	x9, [x8]
    7f84:	f900051f 	str	xzr, [x8, #8]
    7f88:	3900013f 	strb	wzr, [x9]
    7f8c:	aa1403e0 	mov	x0, x20
    7f90:	aa1303e1 	mov	x1, x19
    7f94:	a9414ff4 	ldp	x20, x19, [sp, #16]
    7f98:	a8c27bfd 	ldp	x29, x30, [sp], #32
    7f9c:	17ffff97 	b	7df8 <_ZN11vector_tile10Tile_Value9MergeFromERKS0_>
    7fa0:	a9414ff4 	ldp	x20, x19, [sp, #16]
    7fa4:	a8c27bfd 	ldp	x29, x30, [sp], #32
    7fa8:	d65f03c0 	ret

0000000000007fac <_ZNK11vector_tile10Tile_Value13IsInitializedEv>:
    7fac:	a9be7bfd 	stp	x29, x30, [sp, #-32]!
    7fb0:	f9000bf3 	str	x19, [sp, #16]
    7fb4:	910003fd 	mov	x29, sp
    7fb8:	aa0003f3 	mov	x19, x0
    7fbc:	97fff259 	bl	4920 <_mcount@plt>
    7fc0:	91002260 	add	x0, x19, #0x8
    7fc4:	f9400bf3 	ldr	x19, [sp, #16]
    7fc8:	a8c27bfd 	ldp	x29, x30, [sp], #32
    7fcc:	140030a5 	b	14260 <_ZNK6google8protobuf8internal12ExtensionSet13IsInitializedEv>

0000000000007fd0 <_ZN11vector_tile10Tile_Value4SwapEPS0_>:
    7fd0:	a9be7bfd 	stp	x29, x30, [sp, #-32]!
    7fd4:	a9014ff4 	stp	x20, x19, [sp, #16]
    7fd8:	910003fd 	mov	x29, sp
    7fdc:	aa0103f3 	mov	x19, x1
    7fe0:	aa0003f4 	mov	x20, x0
    7fe4:	97fff24f 	bl	4920 <_mcount@plt>
    7fe8:	eb14027f 	cmp	x19, x20
    7fec:	540000c0 	b.eq	8004 <_ZN11vector_tile10Tile_Value4SwapEPS0_+0x34>  // b.none
    7ff0:	aa1403e0 	mov	x0, x20
    7ff4:	aa1303e1 	mov	x1, x19
    7ff8:	a9414ff4 	ldp	x20, x19, [sp, #16]
    7ffc:	a8c27bfd 	ldp	x29, x30, [sp], #32
    8000:	14000004 	b	8010 <_ZN11vector_tile10Tile_Value12InternalSwapEPS0_>
    8004:	a9414ff4 	ldp	x20, x19, [sp, #16]
    8008:	a8c27bfd 	ldp	x29, x30, [sp], #32
    800c:	d65f03c0 	ret

0000000000008010 <_ZN11vector_tile10Tile_Value12InternalSwapEPS0_>:
    8010:	a9bd7bfd 	stp	x29, x30, [sp, #-48]!
    8014:	a90157f6 	stp	x22, x21, [sp, #16]
    8018:	a9024ff4 	stp	x20, x19, [sp, #32]
    801c:	910003fd 	mov	x29, sp
    8020:	aa0103f3 	mov	x19, x1
    8024:	aa0003f4 	mov	x20, x0
    8028:	97fff23e 	bl	4920 <_mcount@plt>
    802c:	f9402a68 	ldr	x8, [x19, #80]
    8030:	aa1403f5 	mov	x21, x20
    8034:	f940326a 	ldr	x10, [x19, #96]
    8038:	aa1303e0 	mov	x0, x19
    803c:	f9402a89 	ldr	x9, [x20, #80]
    8040:	f9002a88 	str	x8, [x20, #80]
    8044:	f9403288 	ldr	x8, [x20, #96]
    8048:	f900328a 	str	x10, [x20, #96]
    804c:	fd402e60 	ldr	d0, [x19, #88]
    8050:	f9002a69 	str	x9, [x19, #80]
    8054:	3941b269 	ldrb	w9, [x19, #108]
    8058:	f9403a6a 	ldr	x10, [x19, #112]
    805c:	f9003268 	str	x8, [x19, #96]
    8060:	3941b288 	ldrb	w8, [x20, #108]
    8064:	3901b289 	strb	w9, [x20, #108]
    8068:	f9403a89 	ldr	x9, [x20, #112]
    806c:	f9003a8a 	str	x10, [x20, #112]
    8070:	fd402e81 	ldr	d1, [x20, #88]
    8074:	3901b268 	strb	w8, [x19, #108]
    8078:	f9403e68 	ldr	x8, [x19, #120]
    807c:	f9003a69 	str	x9, [x19, #112]
    8080:	b9404a6b 	ldr	w11, [x19, #72]
    8084:	f9403e8a 	ldr	x10, [x20, #120]
    8088:	fd002e80 	str	d0, [x20, #88]
    808c:	f9003e88 	str	x8, [x20, #120]
    8090:	bd406a60 	ldr	s0, [x19, #104]
    8094:	f8440ea8 	ldr	x8, [x21, #64]!
    8098:	f8440c09 	ldr	x9, [x0, #64]!
    809c:	fd002e61 	str	d1, [x19, #88]
    80a0:	bd406a81 	ldr	s1, [x20, #104]
    80a4:	f9003e6a 	str	x10, [x19, #120]
    80a8:	b9404a8a 	ldr	w10, [x20, #72]
    80ac:	b9004a8b 	str	w11, [x20, #72]
    80b0:	2a09010b 	orr	w11, w8, w9
    80b4:	bd006a80 	str	s0, [x20, #104]
    80b8:	b9004a6a 	str	w10, [x19, #72]
    80bc:	bd006a61 	str	s1, [x19, #104]
    80c0:	360000eb 	tbz	w11, #0, 80dc <_ZN11vector_tile10Tile_Value12InternalSwapEPS0_+0xcc>
    80c4:	36000209 	tbz	w9, #0, 8104 <_ZN11vector_tile10Tile_Value12InternalSwapEPS0_+0xf4>
    80c8:	927ff936 	and	x22, x9, #0xfffffffffffffffe
    80cc:	36000248 	tbz	w8, #0, 8114 <_ZN11vector_tile10Tile_Value12InternalSwapEPS0_+0x104>
    80d0:	927ff900 	and	x0, x8, #0xfffffffffffffffe
    80d4:	aa1603e1 	mov	x1, x22
    80d8:	97fff26a 	bl	4a80 <_ZNSt7__cxx1112basic_stringIcSt11char_traitsIcESaIcEE4swapERS4_@plt>
    80dc:	b9404e88 	ldr	w8, [x20, #76]
    80e0:	91002280 	add	x0, x20, #0x8
    80e4:	b9404e69 	ldr	w9, [x19, #76]
    80e8:	91002261 	add	x1, x19, #0x8
    80ec:	b9004e89 	str	w9, [x20, #76]
    80f0:	b9004e68 	str	w8, [x19, #76]
    80f4:	a9424ff4 	ldp	x20, x19, [sp, #32]
    80f8:	a94157f6 	ldp	x22, x21, [sp, #16]
    80fc:	a8c37bfd 	ldp	x29, x30, [sp], #48
    8100:	140045f8 	b	198e0 <_ZN6google8protobuf8internal12ExtensionSet4SwapEPS2_>
    8104:	94001061 	bl	c288 <_ZN6google8protobuf8internal29InternalMetadataWithArenaBaseINSt7__cxx1112basic_stringIcSt11char_traitsIcESaIcEEENS1_29InternalMetadataWithArenaLiteEE27mutable_unknown_fields_slowEv>
    8108:	aa0003f6 	mov	x22, x0
    810c:	f94002a8 	ldr	x8, [x21]
    8110:	3707fe08 	tbnz	w8, #0, 80d0 <_ZN11vector_tile10Tile_Value12InternalSwapEPS0_+0xc0>
    8114:	aa1503e0 	mov	x0, x21
    8118:	9400105c 	bl	c288 <_ZN6google8protobuf8internal29InternalMetadataWithArenaBaseINSt7__cxx1112basic_stringIcSt11char_traitsIcESaIcEEENS1_29InternalMetadataWithArenaLiteEE27mutable_unknown_fields_slowEv>
    811c:	17ffffee 	b	80d4 <_ZN11vector_tile10Tile_Value12InternalSwapEPS0_+0xc4>

0000000000008120 <_ZNK11vector_tile10Tile_Value11GetTypeNameB5cxx11Ev>:
    8120:	a9be7bfd 	stp	x29, x30, [sp, #-32]!
    8124:	f9000bf3 	str	x19, [sp, #16]
    8128:	910003fd 	mov	x29, sp
    812c:	aa0803f3 	mov	x19, x8
    8130:	97fff1fc 	bl	4920 <_mcount@plt>
    8134:	91004268 	add	x8, x19, #0x10
    8138:	528002c9 	mov	w9, #0x16                  	// #22
    813c:	910063a1 	add	x1, x29, #0x18
    8140:	aa1303e0 	mov	x0, x19
    8144:	aa1f03e2 	mov	x2, xzr
    8148:	f9000268 	str	x8, [x19]
    814c:	f9000fa9 	str	x9, [x29, #24]
    8150:	97fff2f8 	bl	4d30 <_ZNSt7__cxx1112basic_stringIcSt11char_traitsIcESaIcEE9_M_createERmm@plt>
    8154:	f0000109 	adrp	x9, 2b000 <_IO_stdin_used+0x2b0>
    8158:	91064529 	add	x9, x9, #0x191
    815c:	f9400fa8 	ldr	x8, [x29, #24]
    8160:	f9000260 	str	x0, [x19]
    8164:	f840e12a 	ldur	x10, [x9, #14]
    8168:	3dc00120 	ldr	q0, [x9]
    816c:	f9000a68 	str	x8, [x19, #16]
    8170:	f800e00a 	stur	x10, [x0, #14]
    8174:	3d800000 	str	q0, [x0]
    8178:	f9400269 	ldr	x9, [x19]
    817c:	f9000668 	str	x8, [x19, #8]
    8180:	3828693f 	strb	wzr, [x9, x8]
    8184:	f9400bf3 	ldr	x19, [sp, #16]
    8188:	a8c27bfd 	ldp	x29, x30, [sp], #32
    818c:	d65f03c0 	ret

0000000000008190 <_ZN11vector_tile12Tile_FeatureC1Ev>:
    8190:	d10143ff 	sub	sp, sp, #0x50
    8194:	a9027bfd 	stp	x29, x30, [sp, #32]
    8198:	f9001bf5 	str	x21, [sp, #48]
    819c:	a9044ff4 	stp	x20, x19, [sp, #64]
    81a0:	910083fd 	add	x29, sp, #0x20
    81a4:	aa0003f3 	mov	x19, x0
    81a8:	97fff1de 	bl	4920 <_mcount@plt>
    81ac:	f00001e8 	adrp	x8, 47000 <GCC_except_table137+0x112f4>
    81b0:	910b4108 	add	x8, x8, #0x2d0
    81b4:	aa1303f4 	mov	x20, x19
    81b8:	b900127f 	str	wzr, [x19, #16]
    81bc:	a901fe7f 	stp	xzr, xzr, [x19, #24]
    81c0:	f9000268 	str	x8, [x19]
    81c4:	90000208 	adrp	x8, 48000 <_Znam@GLIBCXX_3.4>
    81c8:	910dc108 	add	x8, x8, #0x370
    81cc:	a9037e7f 	stp	xzr, xzr, [x19, #48]
    81d0:	eb08027f 	cmp	x19, x8
    81d4:	f8008e9f 	str	xzr, [x20, #8]!
    81d8:	54000260 	b.eq	8224 <_ZN11vector_tile12Tile_FeatureC1Ev+0x94>  // b.none
    81dc:	90000208 	adrp	x8, 48000 <_Znam@GLIBCXX_3.4>
    81e0:	9113e108 	add	x8, x8, #0x4f8
    81e4:	c8dffd08 	ldar	x8, [x8]
    81e8:	f100091f 	cmp	x8, #0x2
    81ec:	540001c0 	b.eq	8224 <_ZN11vector_tile12Tile_FeatureC1Ev+0x94>  // b.none
    81f0:	f00001e8 	adrp	x8, 47000 <GCC_except_table137+0x112f4>
    81f4:	d0ffffe9 	adrp	x9, 6000 <main+0xc2c>
    81f8:	9138a129 	add	x9, x9, #0xe28
    81fc:	f9470d08 	ldr	x8, [x8, #3608]
    8200:	390063ff 	strb	wzr, [sp, #24]
    8204:	91004108 	add	x8, x8, #0x10
    8208:	a900a7e8 	stp	x8, x9, [sp, #8]
    820c:	90000200 	adrp	x0, 48000 <_Znam@GLIBCXX_3.4>
    8210:	9113e000 	add	x0, x0, #0x4f8
    8214:	910023e1 	add	x1, sp, #0x8
    8218:	94001e8e 	bl	fc50 <_ZN6google8protobuf18GoogleOnceInitImplEPlPNS0_7ClosureE>
    821c:	910023e0 	add	x0, sp, #0x8
    8220:	94001641 	bl	db24 <_ZN6google8protobuf8internal16FunctionClosure0D1Ev>
    8224:	f00001e8 	adrp	x8, 47000 <GCC_except_table137+0x112f4>
    8228:	f946a108 	ldr	x8, [x8, #3392]
    822c:	b900167f 	str	wzr, [x19, #20]
    8230:	a904fe68 	stp	x8, xzr, [x19, #72]
    8234:	b9005a7f 	str	wzr, [x19, #88]
    8238:	a9444ff4 	ldp	x20, x19, [sp, #64]
    823c:	a9427bfd 	ldp	x29, x30, [sp, #32]
    8240:	f9401bf5 	ldr	x21, [sp, #48]
    8244:	910143ff 	add	sp, sp, #0x50
    8248:	d65f03c0 	ret
    824c:	aa0003f5 	mov	x21, x0
    8250:	910023e0 	add	x0, sp, #0x8
    8254:	94001634 	bl	db24 <_ZN6google8protobuf8internal16FunctionClosure0D1Ev>
    8258:	f9401e60 	ldr	x0, [x19, #56]
    825c:	b4000080 	cbz	x0, 826c <_ZN11vector_tile12Tile_FeatureC1Ev+0xdc>
    8260:	f9400008 	ldr	x8, [x0]
    8264:	b5000048 	cbnz	x8, 826c <_ZN11vector_tile12Tile_FeatureC1Ev+0xdc>
    8268:	97fff226 	bl	4b00 <_ZdlPv@plt>
    826c:	f9401260 	ldr	x0, [x19, #32]
    8270:	b4000080 	cbz	x0, 8280 <_ZN11vector_tile12Tile_FeatureC1Ev+0xf0>
    8274:	f9400008 	ldr	x8, [x0]
    8278:	b5000048 	cbnz	x8, 8280 <_ZN11vector_tile12Tile_FeatureC1Ev+0xf0>
    827c:	97fff221 	bl	4b00 <_ZdlPv@plt>
    8280:	aa1403e0 	mov	x0, x20
    8284:	94000dd7 	bl	b9e0 <_ZN6google8protobuf8internal29InternalMetadataWithArenaBaseINSt7__cxx1112basic_stringIcSt11char_traitsIcESaIcEEENS1_29InternalMetadataWithArenaLiteEED2Ev>
    8288:	aa1503e0 	mov	x0, x21
    828c:	97fff2a5 	bl	4d20 <_Unwind_Resume@plt>

0000000000008290 <_ZN11vector_tile12Tile_Feature10SharedCtorEv>:
    8290:	a9be7bfd 	stp	x29, x30, [sp, #-32]!
    8294:	f9000bf3 	str	x19, [sp, #16]
    8298:	910003fd 	mov	x29, sp
    829c:	aa0003f3 	mov	x19, x0
    82a0:	97fff1a0 	bl	4920 <_mcount@plt>
    82a4:	f00001e8 	adrp	x8, 47000 <GCC_except_table137+0x112f4>
    82a8:	f946a108 	ldr	x8, [x8, #3392]
    82ac:	b900167f 	str	wzr, [x19, #20]
    82b0:	a904fe68 	stp	x8, xzr, [x19, #72]
    82b4:	b9005a7f 	str	wzr, [x19, #88]
    82b8:	f9400bf3 	ldr	x19, [sp, #16]
    82bc:	a8c27bfd 	ldp	x29, x30, [sp], #32
    82c0:	d65f03c0 	ret

00000000000082c4 <_ZN11vector_tile12Tile_FeatureC1ERKS0_>:
    82c4:	a9bd7bfd 	stp	x29, x30, [sp, #-48]!
    82c8:	a90157f6 	stp	x22, x21, [sp, #16]
    82cc:	a9024ff4 	stp	x20, x19, [sp, #32]
    82d0:	910003fd 	mov	x29, sp
    82d4:	aa0103f5 	mov	x21, x1
    82d8:	aa0003f4 	mov	x20, x0
    82dc:	97fff191 	bl	4920 <_mcount@plt>
    82e0:	aa1403f3 	mov	x19, x20
    82e4:	f8008e7f 	str	xzr, [x19, #8]!
    82e8:	b94012a8 	ldr	w8, [x21, #16]
    82ec:	f801c29f 	stur	xzr, [x20, #28]
    82f0:	f801429f 	stur	xzr, [x20, #20]
    82f4:	b900269f 	str	wzr, [x20, #36]
    82f8:	b9001288 	str	w8, [x20, #16]
    82fc:	f00001e8 	adrp	x8, 47000 <GCC_except_table137+0x112f4>
    8300:	910b4108 	add	x8, x8, #0x2d0
    8304:	b9401aa1 	ldr	w1, [x21, #24]
    8308:	f9000288 	str	x8, [x20]
    830c:	34000181 	cbz	w1, 833c <_ZN11vector_tile12Tile_FeatureC1ERKS0_+0x78>
    8310:	91006280 	add	x0, x20, #0x18
    8314:	9400111a 	bl	c77c <_ZN6google8protobuf13RepeatedFieldIjE7ReserveEi>
    8318:	f9401288 	ldr	x8, [x20, #32]
    831c:	f94012a9 	ldr	x9, [x21, #32]
    8320:	b9801aaa 	ldrsw	x10, [x21, #24]
    8324:	91002100 	add	x0, x8, #0x8
    8328:	91002121 	add	x1, x9, #0x8
    832c:	d37ef542 	lsl	x2, x10, #2
    8330:	97fff148 	bl	4850 <memcpy@plt>
    8334:	b9401aa8 	ldr	w8, [x21, #24]
    8338:	b9001a88 	str	w8, [x20, #24]
    833c:	aa1403e0 	mov	x0, x20
    8340:	a9837c1f 	stp	xzr, xzr, [x0, #48]!
    8344:	b94032a1 	ldr	w1, [x21, #48]
    8348:	34000161 	cbz	w1, 8374 <_ZN11vector_tile12Tile_FeatureC1ERKS0_+0xb0>
    834c:	9400110c 	bl	c77c <_ZN6google8protobuf13RepeatedFieldIjE7ReserveEi>
    8350:	f9401e88 	ldr	x8, [x20, #56]
    8354:	f9401ea9 	ldr	x9, [x21, #56]
    8358:	b98032aa 	ldrsw	x10, [x21, #48]
    835c:	91002100 	add	x0, x8, #0x8
    8360:	91002121 	add	x1, x9, #0x8
    8364:	d37ef542 	lsl	x2, x10, #2
    8368:	97fff13a 	bl	4850 <memcpy@plt>
    836c:	b94032a8 	ldr	w8, [x21, #48]
    8370:	b9003288 	str	w8, [x20, #48]
    8374:	f94006b6 	ldr	x22, [x21, #8]
    8378:	360000f6 	tbz	w22, #0, 8394 <_ZN11vector_tile12Tile_FeatureC1ERKS0_+0xd0>
    837c:	f9400268 	ldr	x8, [x19]
    8380:	360002e8 	tbz	w8, #0, 83dc <_ZN11vector_tile12Tile_FeatureC1ERKS0_+0x118>
    8384:	927ff900 	and	x0, x8, #0xfffffffffffffffe
    8388:	927ffac8 	and	x8, x22, #0xfffffffffffffffe
    838c:	a9400901 	ldp	x1, x2, [x8]
    8390:	97fff158 	bl	48f0 <_ZNSt7__cxx1112basic_stringIcSt11char_traitsIcESaIcEE9_M_appendEPKcm@plt>
    8394:	f00001e8 	adrp	x8, 47000 <GCC_except_table137+0x112f4>
    8398:	aa1403e0 	mov	x0, x20
    839c:	f946a108 	ldr	x8, [x8, #3392]
    83a0:	f8048c08 	str	x8, [x0, #72]!
    83a4:	394042a9 	ldrb	w9, [x21, #16]
    83a8:	360000a9 	tbz	w9, #0, 83bc <_ZN11vector_tile12Tile_FeatureC1ERKS0_+0xf8>
    83ac:	f94026a1 	ldr	x1, [x21, #72]
    83b0:	eb08003f 	cmp	x1, x8
    83b4:	54000040 	b.eq	83bc <_ZN11vector_tile12Tile_FeatureC1ERKS0_+0xf8>  // b.none
    83b8:	94000f84 	bl	c1c8 <_ZN6google8protobuf8internal14ArenaStringPtr21CreateInstanceNoArenaEPKNSt7__cxx1112basic_stringIcSt11char_traitsIcESaIcEEE>
    83bc:	b9405aa8 	ldr	w8, [x21, #88]
    83c0:	f9402aa9 	ldr	x9, [x21, #80]
    83c4:	b9005a88 	str	w8, [x20, #88]
    83c8:	f9002a89 	str	x9, [x20, #80]
    83cc:	a9424ff4 	ldp	x20, x19, [sp, #32]
    83d0:	a94157f6 	ldp	x22, x21, [sp, #16]
    83d4:	a8c37bfd 	ldp	x29, x30, [sp], #48
    83d8:	d65f03c0 	ret
    83dc:	aa1303e0 	mov	x0, x19
    83e0:	94000faa 	bl	c288 <_ZN6google8protobuf8internal29InternalMetadataWithArenaBaseINSt7__cxx1112basic_stringIcSt11char_traitsIcESaIcEEENS1_29InternalMetadataWithArenaLiteEE27mutable_unknown_fields_slowEv>
    83e4:	17ffffe9 	b	8388 <_ZN11vector_tile12Tile_FeatureC1ERKS0_+0xc4>
    83e8:	aa0003f5 	mov	x21, x0
    83ec:	1400000a 	b	8414 <_ZN11vector_tile12Tile_FeatureC1ERKS0_+0x150>
    83f0:	aa0003f5 	mov	x21, x0
    83f4:	1400000d 	b	8428 <_ZN11vector_tile12Tile_FeatureC1ERKS0_+0x164>
    83f8:	f9401e88 	ldr	x8, [x20, #56]
    83fc:	aa0003f5 	mov	x21, x0
    8400:	b40000a8 	cbz	x8, 8414 <_ZN11vector_tile12Tile_FeatureC1ERKS0_+0x150>
    8404:	f9400109 	ldr	x9, [x8]
    8408:	b5000069 	cbnz	x9, 8414 <_ZN11vector_tile12Tile_FeatureC1ERKS0_+0x150>
    840c:	aa0803e0 	mov	x0, x8
    8410:	97fff1bc 	bl	4b00 <_ZdlPv@plt>
    8414:	f9401280 	ldr	x0, [x20, #32]
    8418:	b4000080 	cbz	x0, 8428 <_ZN11vector_tile12Tile_FeatureC1ERKS0_+0x164>
    841c:	f9400008 	ldr	x8, [x0]
    8420:	b5000048 	cbnz	x8, 8428 <_ZN11vector_tile12Tile_FeatureC1ERKS0_+0x164>
    8424:	97fff1b7 	bl	4b00 <_ZdlPv@plt>
    8428:	aa1303e0 	mov	x0, x19
    842c:	94000d6d 	bl	b9e0 <_ZN6google8protobuf8internal29InternalMetadataWithArenaBaseINSt7__cxx1112basic_stringIcSt11char_traitsIcESaIcEEENS1_29InternalMetadataWithArenaLiteEED2Ev>
    8430:	aa1503e0 	mov	x0, x21
    8434:	97fff23b 	bl	4d20 <_Unwind_Resume@plt>

0000000000008438 <_ZN11vector_tile12Tile_FeatureD1Ev>:
    8438:	a9be7bfd 	stp	x29, x30, [sp, #-32]!
    843c:	a9014ff4 	stp	x20, x19, [sp, #16]
    8440:	910003fd 	mov	x29, sp
    8444:	aa0003f3 	mov	x19, x0
    8448:	97fff136 	bl	4920 <_mcount@plt>
    844c:	f00001e8 	adrp	x8, 47000 <GCC_except_table137+0x112f4>
    8450:	f9402674 	ldr	x20, [x19, #72]
    8454:	f00001e9 	adrp	x9, 47000 <GCC_except_table137+0x112f4>
    8458:	910b4129 	add	x9, x9, #0x2d0
    845c:	f946a108 	ldr	x8, [x8, #3392]
    8460:	f9000269 	str	x9, [x19]
    8464:	eb08029f 	cmp	x20, x8
    8468:	54000120 	b.eq	848c <_ZN11vector_tile12Tile_FeatureD1Ev+0x54>  // b.none
    846c:	b4000114 	cbz	x20, 848c <_ZN11vector_tile12Tile_FeatureD1Ev+0x54>
    8470:	aa1403e8 	mov	x8, x20
    8474:	f8410500 	ldr	x0, [x8], #16
    8478:	eb08001f 	cmp	x0, x8
    847c:	54000040 	b.eq	8484 <_ZN11vector_tile12Tile_FeatureD1Ev+0x4c>  // b.none
    8480:	97fff1a0 	bl	4b00 <_ZdlPv@plt>
    8484:	aa1403e0 	mov	x0, x20
    8488:	97fff19e 	bl	4b00 <_ZdlPv@plt>
    848c:	f9401e60 	ldr	x0, [x19, #56]
    8490:	b4000080 	cbz	x0, 84a0 <_ZN11vector_tile12Tile_FeatureD1Ev+0x68>
    8494:	f9400008 	ldr	x8, [x0]
    8498:	b5000048 	cbnz	x8, 84a0 <_ZN11vector_tile12Tile_FeatureD1Ev+0x68>
    849c:	97fff199 	bl	4b00 <_ZdlPv@plt>
    84a0:	f9401260 	ldr	x0, [x19, #32]
    84a4:	b4000060 	cbz	x0, 84b0 <_ZN11vector_tile12Tile_FeatureD1Ev+0x78>
    84a8:	f9400008 	ldr	x8, [x0]
    84ac:	b40001e8 	cbz	x8, 84e8 <_ZN11vector_tile12Tile_FeatureD1Ev+0xb0>
    84b0:	f9400668 	ldr	x8, [x19, #8]
    84b4:	36000208 	tbz	w8, #0, 84f4 <_ZN11vector_tile12Tile_FeatureD1Ev+0xbc>
    84b8:	927ff914 	and	x20, x8, #0xfffffffffffffffe
    84bc:	f9401288 	ldr	x8, [x20, #32]
    84c0:	b50001a8 	cbnz	x8, 84f4 <_ZN11vector_tile12Tile_FeatureD1Ev+0xbc>
    84c4:	b4000194 	cbz	x20, 84f4 <_ZN11vector_tile12Tile_FeatureD1Ev+0xbc>
    84c8:	aa1403e8 	mov	x8, x20
    84cc:	f8410500 	ldr	x0, [x8], #16
    84d0:	eb08001f 	cmp	x0, x8
    84d4:	54000040 	b.eq	84dc <_ZN11vector_tile12Tile_FeatureD1Ev+0xa4>  // b.none
    84d8:	97fff18a 	bl	4b00 <_ZdlPv@plt>
    84dc:	aa1403e0 	mov	x0, x20
    84e0:	97fff188 	bl	4b00 <_ZdlPv@plt>
    84e4:	14000004 	b	84f4 <_ZN11vector_tile12Tile_FeatureD1Ev+0xbc>
    84e8:	97fff186 	bl	4b00 <_ZdlPv@plt>
    84ec:	f9400668 	ldr	x8, [x19, #8]
    84f0:	3707fe48 	tbnz	w8, #0, 84b8 <_ZN11vector_tile12Tile_FeatureD1Ev+0x80>
    84f4:	f900067f 	str	xzr, [x19, #8]
    84f8:	a9414ff4 	ldp	x20, x19, [sp, #16]
    84fc:	a8c27bfd 	ldp	x29, x30, [sp], #32
    8500:	d65f03c0 	ret

0000000000008504 <_ZN11vector_tile12Tile_Feature10SharedDtorEv>:
    8504:	a9be7bfd 	stp	x29, x30, [sp, #-32]!
    8508:	f9000bf3 	str	x19, [sp, #16]
    850c:	910003fd 	mov	x29, sp
    8510:	aa0003f3 	mov	x19, x0
    8514:	97fff103 	bl	4920 <_mcount@plt>
    8518:	f00001e8 	adrp	x8, 47000 <GCC_except_table137+0x112f4>
    851c:	f9402673 	ldr	x19, [x19, #72]
    8520:	f946a108 	ldr	x8, [x8, #3392]
    8524:	eb08027f 	cmp	x19, x8
    8528:	54000160 	b.eq	8554 <_ZN11vector_tile12Tile_Feature10SharedDtorEv+0x50>  // b.none
    852c:	b4000153 	cbz	x19, 8554 <_ZN11vector_tile12Tile_Feature10SharedDtorEv+0x50>
    8530:	aa1303e8 	mov	x8, x19
    8534:	f8410500 	ldr	x0, [x8], #16
    8538:	eb08001f 	cmp	x0, x8
    853c:	54000040 	b.eq	8544 <_ZN11vector_tile12Tile_Feature10SharedDtorEv+0x40>  // b.none
    8540:	97fff170 	bl	4b00 <_ZdlPv@plt>
    8544:	aa1303e0 	mov	x0, x19
    8548:	f9400bf3 	ldr	x19, [sp, #16]
    854c:	a8c27bfd 	ldp	x29, x30, [sp], #32
    8550:	17fff16c 	b	4b00 <_ZdlPv@plt>
    8554:	f9400bf3 	ldr	x19, [sp, #16]
    8558:	a8c27bfd 	ldp	x29, x30, [sp], #32
    855c:	d65f03c0 	ret

0000000000008560 <_ZN11vector_tile12Tile_FeatureD0Ev>:
    8560:	a9be7bfd 	stp	x29, x30, [sp, #-32]!
    8564:	f9000bf3 	str	x19, [sp, #16]
    8568:	910003fd 	mov	x29, sp
    856c:	aa0003f3 	mov	x19, x0
    8570:	97fff0ec 	bl	4920 <_mcount@plt>
    8574:	aa1303e0 	mov	x0, x19
    8578:	97ffffb0 	bl	8438 <_ZN11vector_tile12Tile_FeatureD1Ev>
    857c:	aa1303e0 	mov	x0, x19
    8580:	f9400bf3 	ldr	x19, [sp, #16]
    8584:	a8c27bfd 	ldp	x29, x30, [sp], #32
    8588:	17fff15e 	b	4b00 <_ZdlPv@plt>

000000000000858c <_ZNK11vector_tile12Tile_Feature13SetCachedSizeEi>:
    858c:	a9be7bfd 	stp	x29, x30, [sp, #-32]!
    8590:	a9014ff4 	stp	x20, x19, [sp, #16]
    8594:	910003fd 	mov	x29, sp
    8598:	2a0103f3 	mov	w19, w1
    859c:	aa0003f4 	mov	x20, x0
    85a0:	97fff0e0 	bl	4920 <_mcount@plt>
    85a4:	b9001693 	str	w19, [x20, #20]
    85a8:	a9414ff4 	ldp	x20, x19, [sp, #16]
    85ac:	a8c27bfd 	ldp	x29, x30, [sp], #32
    85b0:	d65f03c0 	ret

00000000000085b4 <_ZN11vector_tile12Tile_Feature16default_instanceEv>:
    85b4:	d10103ff 	sub	sp, sp, #0x40
    85b8:	a9027bfd 	stp	x29, x30, [sp, #32]
    85bc:	f9001bf3 	str	x19, [sp, #48]
    85c0:	910083fd 	add	x29, sp, #0x20
    85c4:	97fff0d7 	bl	4920 <_mcount@plt>
    85c8:	90000208 	adrp	x8, 48000 <_Znam@GLIBCXX_3.4>
    85cc:	9113e108 	add	x8, x8, #0x4f8
    85d0:	c8dffd08 	ldar	x8, [x8]
    85d4:	f100091f 	cmp	x8, #0x2
    85d8:	540001c0 	b.eq	8610 <_ZN11vector_tile12Tile_Feature16default_instanceEv+0x5c>  // b.none
    85dc:	f00001e8 	adrp	x8, 47000 <GCC_except_table137+0x112f4>
    85e0:	d0ffffe9 	adrp	x9, 6000 <main+0xc2c>
    85e4:	9138a129 	add	x9, x9, #0xe28
    85e8:	f9470d08 	ldr	x8, [x8, #3608]
    85ec:	390063ff 	strb	wzr, [sp, #24]
    85f0:	91004108 	add	x8, x8, #0x10
    85f4:	a900a7e8 	stp	x8, x9, [sp, #8]
    85f8:	90000200 	adrp	x0, 48000 <_Znam@GLIBCXX_3.4>
    85fc:	9113e000 	add	x0, x0, #0x4f8
    8600:	910023e1 	add	x1, sp, #0x8
    8604:	94001d93 	bl	fc50 <_ZN6google8protobuf18GoogleOnceInitImplEPlPNS0_7ClosureE>
    8608:	910023e0 	add	x0, sp, #0x8
    860c:	94001546 	bl	db24 <_ZN6google8protobuf8internal16FunctionClosure0D1Ev>
    8610:	90000200 	adrp	x0, 48000 <_Znam@GLIBCXX_3.4>
    8614:	910dc000 	add	x0, x0, #0x370
    8618:	a9427bfd 	ldp	x29, x30, [sp, #32]
    861c:	f9401bf3 	ldr	x19, [sp, #48]
    8620:	910103ff 	add	sp, sp, #0x40
    8624:	d65f03c0 	ret
    8628:	aa0003f3 	mov	x19, x0
    862c:	910023e0 	add	x0, sp, #0x8
    8630:	9400153d 	bl	db24 <_ZN6google8protobuf8internal16FunctionClosure0D1Ev>
    8634:	aa1303e0 	mov	x0, x19
    8638:	97fff1ba 	bl	4d20 <_Unwind_Resume@plt>

000000000000863c <_ZNK11vector_tile12Tile_Feature3NewEPN6google8protobuf5ArenaE>:
    863c:	a9be7bfd 	stp	x29, x30, [sp, #-32]!
    8640:	a9014ff4 	stp	x20, x19, [sp, #16]
    8644:	910003fd 	mov	x29, sp
    8648:	aa0103f4 	mov	x20, x1
    864c:	97fff0b5 	bl	4920 <_mcount@plt>
    8650:	52800c00 	mov	w0, #0x60                  	// #96
    8654:	97fff137 	bl	4b30 <_Znwm@plt>
    8658:	aa0003f3 	mov	x19, x0
    865c:	97fffecd 	bl	8190 <_ZN11vector_tile12Tile_FeatureC1Ev>
    8660:	b4000094 	cbz	x20, 8670 <_ZNK11vector_tile12Tile_Feature3NewEPN6google8protobuf5ArenaE+0x34>
    8664:	aa1403e0 	mov	x0, x20
    8668:	aa1303e1 	mov	x1, x19
    866c:	94000d1f 	bl	bae8 <_ZN6google8protobuf5Arena3OwnIN11vector_tile12Tile_FeatureEEEvPT_>
    8670:	aa1303e0 	mov	x0, x19
    8674:	a9414ff4 	ldp	x20, x19, [sp, #16]
    8678:	a8c27bfd 	ldp	x29, x30, [sp], #32
    867c:	d65f03c0 	ret
    8680:	aa0003f4 	mov	x20, x0
    8684:	aa1303e0 	mov	x0, x19
    8688:	97fff11e 	bl	4b00 <_ZdlPv@plt>
    868c:	aa1403e0 	mov	x0, x20
    8690:	97fff1a4 	bl	4d20 <_Unwind_Resume@plt>

0000000000008694 <_ZN11vector_tile12Tile_Feature5ClearEv>:
    8694:	a9be7bfd 	stp	x29, x30, [sp, #-32]!
    8698:	f9000bf3 	str	x19, [sp, #16]
    869c:	910003fd 	mov	x29, sp
    86a0:	aa0003f3 	mov	x19, x0
    86a4:	97fff09f 	bl	4920 <_mcount@plt>
    86a8:	b9401268 	ldr	w8, [x19, #16]
    86ac:	b9001a7f 	str	wzr, [x19, #24]
    86b0:	b900327f 	str	wzr, [x19, #48]
    86b4:	360000a8 	tbz	w8, #0, 86c8 <_ZN11vector_tile12Tile_Feature5ClearEv+0x34>
    86b8:	f9402669 	ldr	x9, [x19, #72]
    86bc:	f940012a 	ldr	x10, [x9]
    86c0:	f900053f 	str	xzr, [x9, #8]
    86c4:	3900015f 	strb	wzr, [x10]
    86c8:	721f051f 	tst	w8, #0x6
    86cc:	54000060 	b.eq	86d8 <_ZN11vector_tile12Tile_Feature5ClearEv+0x44>  // b.none
    86d0:	b9005a7f 	str	wzr, [x19, #88]
    86d4:	f9002a7f 	str	xzr, [x19, #80]
    86d8:	f9400668 	ldr	x8, [x19, #8]
    86dc:	b900127f 	str	wzr, [x19, #16]
    86e0:	360000a8 	tbz	w8, #0, 86f4 <_ZN11vector_tile12Tile_Feature5ClearEv+0x60>
    86e4:	927ff908 	and	x8, x8, #0xfffffffffffffffe
    86e8:	f9400109 	ldr	x9, [x8]
    86ec:	f900051f 	str	xzr, [x8, #8]
    86f0:	3900013f 	strb	wzr, [x9]
    86f4:	f9400bf3 	ldr	x19, [sp, #16]
    86f8:	a8c27bfd 	ldp	x29, x30, [sp], #32
    86fc:	d65f03c0 	ret

0000000000008700 <_ZN11vector_tile12Tile_Feature27MergePartialFromCodedStreamEPN6google8protobuf2io16CodedInputStreamE>:
    8700:	d10303ff 	sub	sp, sp, #0xc0
    8704:	a9067bfd 	stp	x29, x30, [sp, #96]
    8708:	a9076ffc 	stp	x28, x27, [sp, #112]
    870c:	a90867fa 	stp	x26, x25, [sp, #128]
    8710:	a9095ff8 	stp	x24, x23, [sp, #144]
    8714:	a90a57f6 	stp	x22, x21, [sp, #160]
    8718:	a90b4ff4 	stp	x20, x19, [sp, #176]
    871c:	910183fd 	add	x29, sp, #0x60
    8720:	aa0103f4 	mov	x20, x1
    8724:	aa0003f5 	mov	x21, x0
    8728:	97fff07e 	bl	4920 <_mcount@plt>
    872c:	aa1503e9 	mov	x9, x21
    8730:	d100a3aa 	sub	x10, x29, #0x28
    8734:	9100615c 	add	x28, x10, #0x18
    8738:	91002153 	add	x19, x10, #0x8
    873c:	f81e83bf 	stur	xzr, [x29, #-24]
    8740:	f8408d28 	ldr	x8, [x9, #8]!
    8744:	a93df3a9 	stp	x9, x28, [x29, #-40]
    8748:	381f03bf 	sturb	wzr, [x29, #-16]
    874c:	36000088 	tbz	w8, #0, 875c <_ZN11vector_tile12Tile_Feature27MergePartialFromCodedStreamEPN6google8protobuf2io16CodedInputStreamE+0x5c>
    8750:	927ff901 	and	x1, x8, #0xfffffffffffffffe
    8754:	aa1303e0 	mov	x0, x19
    8758:	97fff0ca 	bl	4a80 <_ZNSt7__cxx1112basic_stringIcSt11char_traitsIcESaIcEE4swapERS4_@plt>
    875c:	9100a3e0 	add	x0, sp, #0x28
    8760:	aa1303e1 	mov	x1, x19
    8764:	940084f3 	bl	29b30 <_ZN6google8protobuf2io18StringOutputStreamC1EPNSt7__cxx1112basic_stringIcSt11char_traitsIcESaIcEEE>
    8768:	910023e0 	add	x0, sp, #0x8
    876c:	9100a3e1 	add	x1, sp, #0x28
    8770:	2a1f03e2 	mov	w2, wzr
    8774:	94008018 	bl	287d4 <_ZN6google8protobuf2io17CodedOutputStreamC1EPNS1_20ZeroCopyOutputStreamEb>
    8778:	910122b6 	add	x22, x21, #0x48
    877c:	9100c2b7 	add	x23, x21, #0x30
    8780:	910062b8 	add	x24, x21, #0x18
    8784:	f0000119 	adrp	x25, 2b000 <_IO_stdin_used+0x2b0>
    8788:	91021f39 	add	x25, x25, #0x87
    878c:	14000004 	b	879c <_ZN11vector_tile12Tile_Feature27MergePartialFromCodedStreamEPN6google8protobuf2io16CodedInputStreamE+0x9c>
    8790:	aa1403e0 	mov	x0, x20
    8794:	2a1a03e1 	mov	w1, w26
    8798:	94007b7a 	bl	27580 <_ZN6google8protobuf2io16CodedInputStream8PopLimitEi>
    879c:	a9402688 	ldp	x8, x9, [x20]
    87a0:	eb09011f 	cmp	x8, x9
    87a4:	54000142 	b.cs	87cc <_ZN11vector_tile12Tile_Feature27MergePartialFromCodedStreamEPN6google8protobuf2io16CodedInputStreamE+0xcc>  // b.hs, b.nlast
    87a8:	39c00109 	ldrsb	w9, [x8]
    87ac:	12001d21 	and	w1, w9, #0xff
    87b0:	7100053f 	cmp	w9, #0x1
    87b4:	540000eb 	b.lt	87d0 <_ZN11vector_tile12Tile_Feature27MergePartialFromCodedStreamEPN6google8protobuf2io16CodedInputStreamE+0xd0>  // b.tstop
    87b8:	91000509 	add	x9, x8, #0x1
    87bc:	b2600028 	orr	x8, x1, #0x100000000
    87c0:	f9000289 	str	x9, [x20]
    87c4:	b7000168 	tbnz	x8, #32, 87f0 <_ZN11vector_tile12Tile_Feature27MergePartialFromCodedStreamEPN6google8protobuf2io16CodedInputStreamE+0xf0>
    87c8:	1400005e 	b	8940 <_ZN11vector_tile12Tile_Feature27MergePartialFromCodedStreamEPN6google8protobuf2io16CodedInputStreamE+0x240>
    87cc:	2a1f03e1 	mov	w1, wzr
    87d0:	aa1403e0 	mov	x0, x20
    87d4:	94007edb 	bl	28340 <_ZN6google8protobuf2io16CodedInputStream15ReadTagFallbackEj>
    87d8:	51000408 	sub	w8, w0, #0x1
    87dc:	7101fd1f 	cmp	w8, #0x7f
    87e0:	2a0003e8 	mov	w8, w0
    87e4:	1a9f27e9 	cset	w9, cc  // cc = lo, ul, last
    87e8:	b3600128 	bfi	x8, x9, #32, #1
    87ec:	b6000aa8 	tbz	x8, #32, 8940 <_ZN11vector_tile12Tile_Feature27MergePartialFromCodedStreamEPN6google8protobuf2io16CodedInputStreamE+0x240>
    87f0:	53037d09 	lsr	w9, w8, #3
    87f4:	51000529 	sub	w9, w9, #0x1
    87f8:	7100113f 	cmp	w9, #0x4
    87fc:	54000a28 	b.hi	8940 <_ZN11vector_tile12Tile_Feature27MergePartialFromCodedStreamEPN6google8protobuf2io16CodedInputStreamE+0x240>  // b.pmore
    8800:	1000008a 	adr	x10, 8810 <_ZN11vector_tile12Tile_Feature27MergePartialFromCodedStreamEPN6google8protobuf2io16CodedInputStreamE+0x110>
    8804:	38696b2b 	ldrb	w11, [x25, x9]
    8808:	8b0b094a 	add	x10, x10, x11, lsl #2
    880c:	d61f0140 	br	x10
    8810:	92401d09 	and	x9, x8, #0xff
    8814:	f100213f 	cmp	x9, #0x8
    8818:	54000941 	b.ne	8940 <_ZN11vector_tile12Tile_Feature27MergePartialFromCodedStreamEPN6google8protobuf2io16CodedInputStreamE+0x240>  // b.any
    881c:	b94012a8 	ldr	w8, [x21, #16]
    8820:	321f0108 	orr	w8, w8, #0x2
    8824:	b90012a8 	str	w8, [x21, #16]
    8828:	a9402688 	ldp	x8, x9, [x20]
    882c:	eb09011f 	cmp	x8, x9
    8830:	54000b22 	b.cs	8994 <_ZN11vector_tile12Tile_Feature27MergePartialFromCodedStreamEPN6google8protobuf2io16CodedInputStreamE+0x294>  // b.hs, b.nlast
    8834:	39c00109 	ldrsb	w9, [x8]
    8838:	37f80ae9 	tbnz	w9, #31, 8994 <_ZN11vector_tile12Tile_Feature27MergePartialFromCodedStreamEPN6google8protobuf2io16CodedInputStreamE+0x294>
    883c:	92401d29 	and	x9, x9, #0xff
    8840:	91000508 	add	x8, x8, #0x1
    8844:	f9002aa9 	str	x9, [x21, #80]
    8848:	f9000288 	str	x8, [x20]
    884c:	17ffffd4 	b	879c <_ZN11vector_tile12Tile_Feature27MergePartialFromCodedStreamEPN6google8protobuf2io16CodedInputStreamE+0x9c>
    8850:	92401d09 	and	x9, x8, #0xff
    8854:	f100a93f 	cmp	x9, #0x2a
    8858:	54000741 	b.ne	8940 <_ZN11vector_tile12Tile_Feature27MergePartialFromCodedStreamEPN6google8protobuf2io16CodedInputStreamE+0x240>  // b.any
    885c:	f00001e9 	adrp	x9, 47000 <GCC_except_table137+0x112f4>
    8860:	b94012a8 	ldr	w8, [x21, #16]
    8864:	f94026a1 	ldr	x1, [x21, #72]
    8868:	f946a129 	ldr	x9, [x9, #3392]
    886c:	32000108 	orr	w8, w8, #0x1
    8870:	eb09003f 	cmp	x1, x9
    8874:	b90012a8 	str	w8, [x21, #16]
    8878:	540000c1 	b.ne	8890 <_ZN11vector_tile12Tile_Feature27MergePartialFromCodedStreamEPN6google8protobuf2io16CodedInputStreamE+0x190>  // b.any
    887c:	f00001e1 	adrp	x1, 47000 <GCC_except_table137+0x112f4>
    8880:	aa1603e0 	mov	x0, x22
    8884:	f946a021 	ldr	x1, [x1, #3392]
    8888:	94000e50 	bl	c1c8 <_ZN6google8protobuf8internal14ArenaStringPtr21CreateInstanceNoArenaEPKNSt7__cxx1112basic_stringIcSt11char_traitsIcESaIcEEE>
    888c:	f94002c1 	ldr	x1, [x22]
    8890:	aa1403e0 	mov	x0, x20
    8894:	94007788 	bl	266b4 <_ZN6google8protobuf8internal14WireFormatLite9ReadBytesEPNS0_2io16CodedInputStreamEPNSt7__cxx1112basic_stringIcSt11char_traitsIcESaIcEEE>
    8898:	3707f820 	tbnz	w0, #0, 879c <_ZN11vector_tile12Tile_Feature27MergePartialFromCodedStreamEPN6google8protobuf2io16CodedInputStreamE+0x9c>
    889c:	140000ed 	b	8c50 <_ZN11vector_tile12Tile_Feature27MergePartialFromCodedStreamEPN6google8protobuf2io16CodedInputStreamE+0x550>
    88a0:	92401d09 	and	x9, x8, #0xff
    88a4:	f100613f 	cmp	x9, #0x18
    88a8:	540004c1 	b.ne	8940 <_ZN11vector_tile12Tile_Feature27MergePartialFromCodedStreamEPN6google8protobuf2io16CodedInputStreamE+0x240>  // b.any
    88ac:	a9402688 	ldp	x8, x9, [x20]
    88b0:	eb09011f 	cmp	x8, x9
    88b4:	54001262 	b.cs	8b00 <_ZN11vector_tile12Tile_Feature27MergePartialFromCodedStreamEPN6google8protobuf2io16CodedInputStreamE+0x400>  // b.hs, b.nlast
    88b8:	39c00109 	ldrsb	w9, [x8]
    88bc:	12001d3a 	and	w26, w9, #0xff
    88c0:	37f81229 	tbnz	w9, #31, 8b04 <_ZN11vector_tile12Tile_Feature27MergePartialFromCodedStreamEPN6google8protobuf2io16CodedInputStreamE+0x404>
    88c4:	91000508 	add	x8, x8, #0x1
    88c8:	f9000288 	str	x8, [x20]
    88cc:	14000093 	b	8b18 <_ZN11vector_tile12Tile_Feature27MergePartialFromCodedStreamEPN6google8protobuf2io16CodedInputStreamE+0x418>
    88d0:	12001d09 	and	w9, w8, #0xff
    88d4:	7100813f 	cmp	w9, #0x20
    88d8:	54000420 	b.eq	895c <_ZN11vector_tile12Tile_Feature27MergePartialFromCodedStreamEPN6google8protobuf2io16CodedInputStreamE+0x25c>  // b.none
    88dc:	7100893f 	cmp	w9, #0x22
    88e0:	54000301 	b.ne	8940 <_ZN11vector_tile12Tile_Feature27MergePartialFromCodedStreamEPN6google8protobuf2io16CodedInputStreamE+0x240>  // b.any
    88e4:	a9402688 	ldp	x8, x9, [x20]
    88e8:	eb09011f 	cmp	x8, x9
    88ec:	540005e2 	b.cs	89a8 <_ZN11vector_tile12Tile_Feature27MergePartialFromCodedStreamEPN6google8protobuf2io16CodedInputStreamE+0x2a8>  // b.hs, b.nlast
    88f0:	39c00109 	ldrsb	w9, [x8]
    88f4:	37f805a9 	tbnz	w9, #31, 89a8 <_ZN11vector_tile12Tile_Feature27MergePartialFromCodedStreamEPN6google8protobuf2io16CodedInputStreamE+0x2a8>
    88f8:	91000508 	add	x8, x8, #0x1
    88fc:	12001d21 	and	w1, w9, #0xff
    8900:	f9000288 	str	x8, [x20]
    8904:	1400002d 	b	89b8 <_ZN11vector_tile12Tile_Feature27MergePartialFromCodedStreamEPN6google8protobuf2io16CodedInputStreamE+0x2b8>
    8908:	12001d09 	and	w9, w8, #0xff
    890c:	7100413f 	cmp	w9, #0x10
    8910:	54000340 	b.eq	8978 <_ZN11vector_tile12Tile_Feature27MergePartialFromCodedStreamEPN6google8protobuf2io16CodedInputStreamE+0x278>  // b.none
    8914:	7100493f 	cmp	w9, #0x12
    8918:	54000141 	b.ne	8940 <_ZN11vector_tile12Tile_Feature27MergePartialFromCodedStreamEPN6google8protobuf2io16CodedInputStreamE+0x240>  // b.any
    891c:	a9402688 	ldp	x8, x9, [x20]
    8920:	eb09011f 	cmp	x8, x9
    8924:	54000982 	b.cs	8a54 <_ZN11vector_tile12Tile_Feature27MergePartialFromCodedStreamEPN6google8protobuf2io16CodedInputStreamE+0x354>  // b.hs, b.nlast
    8928:	39c00109 	ldrsb	w9, [x8]
    892c:	37f80949 	tbnz	w9, #31, 8a54 <_ZN11vector_tile12Tile_Feature27MergePartialFromCodedStreamEPN6google8protobuf2io16CodedInputStreamE+0x354>
    8930:	91000508 	add	x8, x8, #0x1
    8934:	12001d21 	and	w1, w9, #0xff
    8938:	f9000288 	str	x8, [x20]
    893c:	1400004a 	b	8a64 <_ZN11vector_tile12Tile_Feature27MergePartialFromCodedStreamEPN6google8protobuf2io16CodedInputStreamE+0x364>
    8940:	34001588 	cbz	w8, 8bf0 <_ZN11vector_tile12Tile_Feature27MergePartialFromCodedStreamEPN6google8protobuf2io16CodedInputStreamE+0x4f0>
    8944:	910023e2 	add	x2, sp, #0x8
    8948:	aa1403e0 	mov	x0, x20
    894c:	2a0803e1 	mov	w1, w8
    8950:	94006fe0 	bl	248d0 <_ZN6google8protobuf8internal14WireFormatLite9SkipFieldEPNS0_2io16CodedInputStreamEjPNS3_17CodedOutputStreamE>
    8954:	3707f240 	tbnz	w0, #0, 879c <_ZN11vector_tile12Tile_Feature27MergePartialFromCodedStreamEPN6google8protobuf2io16CodedInputStreamE+0x9c>
    8958:	140000be 	b	8c50 <_ZN11vector_tile12Tile_Feature27MergePartialFromCodedStreamEPN6google8protobuf2io16CodedInputStreamE+0x550>
    895c:	52800020 	mov	w0, #0x1                   	// #1
    8960:	52800441 	mov	w1, #0x22                  	// #34
    8964:	aa1403e2 	mov	x2, x20
    8968:	aa1703e3 	mov	x3, x23
    896c:	94000c70 	bl	bb2c <_ZN6google8protobuf8internal14WireFormatLite29ReadRepeatedPrimitiveNoInlineIjLNS2_9FieldTypeE13EEEbijPNS0_2io16CodedInputStreamEPNS0_13RepeatedFieldIT_EE>
    8970:	3707f160 	tbnz	w0, #0, 879c <_ZN11vector_tile12Tile_Feature27MergePartialFromCodedStreamEPN6google8protobuf2io16CodedInputStreamE+0x9c>
    8974:	140000b7 	b	8c50 <_ZN11vector_tile12Tile_Feature27MergePartialFromCodedStreamEPN6google8protobuf2io16CodedInputStreamE+0x550>
    8978:	52800020 	mov	w0, #0x1                   	// #1
    897c:	52800241 	mov	w1, #0x12                  	// #18
    8980:	aa1403e2 	mov	x2, x20
    8984:	aa1803e3 	mov	x3, x24
    8988:	94000c69 	bl	bb2c <_ZN6google8protobuf8internal14WireFormatLite29ReadRepeatedPrimitiveNoInlineIjLNS2_9FieldTypeE13EEEbijPNS0_2io16CodedInputStreamEPNS0_13RepeatedFieldIT_EE>
    898c:	3707f080 	tbnz	w0, #0, 879c <_ZN11vector_tile12Tile_Feature27MergePartialFromCodedStreamEPN6google8protobuf2io16CodedInputStreamE+0x9c>
    8990:	140000b0 	b	8c50 <_ZN11vector_tile12Tile_Feature27MergePartialFromCodedStreamEPN6google8protobuf2io16CodedInputStreamE+0x550>
    8994:	aa1403e0 	mov	x0, x20
    8998:	94007cf3 	bl	27d64 <_ZN6google8protobuf2io16CodedInputStream20ReadVarint64FallbackEv>
    899c:	f9002aa0 	str	x0, [x21, #80]
    89a0:	3707efe1 	tbnz	w1, #0, 879c <_ZN11vector_tile12Tile_Feature27MergePartialFromCodedStreamEPN6google8protobuf2io16CodedInputStreamE+0x9c>
    89a4:	140000ab 	b	8c50 <_ZN11vector_tile12Tile_Feature27MergePartialFromCodedStreamEPN6google8protobuf2io16CodedInputStreamE+0x550>
    89a8:	aa1403e0 	mov	x0, x20
    89ac:	94007dde 	bl	28124 <_ZN6google8protobuf2io16CodedInputStream27ReadVarintSizeAsIntFallbackEv>
    89b0:	2a0003e1 	mov	w1, w0
    89b4:	37f814e1 	tbnz	w1, #31, 8c50 <_ZN11vector_tile12Tile_Feature27MergePartialFromCodedStreamEPN6google8protobuf2io16CodedInputStreamE+0x550>
    89b8:	aa1403e0 	mov	x0, x20
    89bc:	94007ad2 	bl	27504 <_ZN6google8protobuf2io16CodedInputStream9PushLimitEi>
    89c0:	2a0003fa 	mov	w26, w0
    89c4:	aa1403e0 	mov	x0, x20
    89c8:	94007b27 	bl	27664 <_ZNK6google8protobuf2io16CodedInputStream15BytesUntilLimitEv>
    89cc:	7100041f 	cmp	w0, #0x1
    89d0:	54ffee0b 	b.lt	8790 <_ZN11vector_tile12Tile_Feature27MergePartialFromCodedStreamEPN6google8protobuf2io16CodedInputStreamE+0x90>  // b.tstop
    89d4:	a9402688 	ldp	x8, x9, [x20]
    89d8:	eb09011f 	cmp	x8, x9
    89dc:	540000e2 	b.cs	89f8 <_ZN11vector_tile12Tile_Feature27MergePartialFromCodedStreamEPN6google8protobuf2io16CodedInputStreamE+0x2f8>  // b.hs, b.nlast
    89e0:	39c00109 	ldrsb	w9, [x8]
    89e4:	12001d3b 	and	w27, w9, #0xff
    89e8:	37f800a9 	tbnz	w9, #31, 89fc <_ZN11vector_tile12Tile_Feature27MergePartialFromCodedStreamEPN6google8protobuf2io16CodedInputStreamE+0x2fc>
    89ec:	91000508 	add	x8, x8, #0x1
    89f0:	f9000288 	str	x8, [x20]
    89f4:	14000007 	b	8a10 <_ZN11vector_tile12Tile_Feature27MergePartialFromCodedStreamEPN6google8protobuf2io16CodedInputStreamE+0x310>
    89f8:	2a1f03fb 	mov	w27, wzr
    89fc:	aa1403e0 	mov	x0, x20
    8a00:	2a1b03e1 	mov	w1, w27
    8a04:	94007d53 	bl	27f50 <_ZN6google8protobuf2io16CodedInputStream20ReadVarint32FallbackEj>
    8a08:	aa0003fb 	mov	x27, x0
    8a0c:	b7f81220 	tbnz	x0, #63, 8c50 <_ZN11vector_tile12Tile_Feature27MergePartialFromCodedStreamEPN6google8protobuf2io16CodedInputStreamE+0x550>
    8a10:	294626a8 	ldp	w8, w9, [x21, #48]
    8a14:	6b09011f 	cmp	w8, w9
    8a18:	540000a1 	b.ne	8a2c <_ZN11vector_tile12Tile_Feature27MergePartialFromCodedStreamEPN6google8protobuf2io16CodedInputStreamE+0x32c>  // b.any
    8a1c:	11000501 	add	w1, w8, #0x1
    8a20:	aa1703e0 	mov	x0, x23
    8a24:	94000f56 	bl	c77c <_ZN6google8protobuf13RepeatedFieldIjE7ReserveEi>
    8a28:	b94002e8 	ldr	w8, [x23]
    8a2c:	f9401ea9 	ldr	x9, [x21, #56]
    8a30:	1100050a 	add	w10, w8, #0x1
    8a34:	8b28c928 	add	x8, x9, w8, sxtw #2
    8a38:	b90032aa 	str	w10, [x21, #48]
    8a3c:	b900091b 	str	w27, [x8, #8]
    8a40:	aa1403e0 	mov	x0, x20
    8a44:	94007b08 	bl	27664 <_ZNK6google8protobuf2io16CodedInputStream15BytesUntilLimitEv>
    8a48:	7100001f 	cmp	w0, #0x0
    8a4c:	54fffc4c 	b.gt	89d4 <_ZN11vector_tile12Tile_Feature27MergePartialFromCodedStreamEPN6google8protobuf2io16CodedInputStreamE+0x2d4>
    8a50:	17ffff50 	b	8790 <_ZN11vector_tile12Tile_Feature27MergePartialFromCodedStreamEPN6google8protobuf2io16CodedInputStreamE+0x90>
    8a54:	aa1403e0 	mov	x0, x20
    8a58:	94007db3 	bl	28124 <_ZN6google8protobuf2io16CodedInputStream27ReadVarintSizeAsIntFallbackEv>
    8a5c:	2a0003e1 	mov	w1, w0
    8a60:	37f80f81 	tbnz	w1, #31, 8c50 <_ZN11vector_tile12Tile_Feature27MergePartialFromCodedStreamEPN6google8protobuf2io16CodedInputStreamE+0x550>
    8a64:	aa1403e0 	mov	x0, x20
    8a68:	94007aa7 	bl	27504 <_ZN6google8protobuf2io16CodedInputStream9PushLimitEi>
    8a6c:	2a0003fa 	mov	w26, w0
    8a70:	aa1403e0 	mov	x0, x20
    8a74:	94007afc 	bl	27664 <_ZNK6google8protobuf2io16CodedInputStream15BytesUntilLimitEv>
    8a78:	7100041f 	cmp	w0, #0x1
    8a7c:	54ffe8ab 	b.lt	8790 <_ZN11vector_tile12Tile_Feature27MergePartialFromCodedStreamEPN6google8protobuf2io16CodedInputStreamE+0x90>  // b.tstop
    8a80:	a9402688 	ldp	x8, x9, [x20]
    8a84:	eb09011f 	cmp	x8, x9
    8a88:	540000e2 	b.cs	8aa4 <_ZN11vector_tile12Tile_Feature27MergePartialFromCodedStreamEPN6google8protobuf2io16CodedInputStreamE+0x3a4>  // b.hs, b.nlast
    8a8c:	39c00109 	ldrsb	w9, [x8]
    8a90:	12001d3b 	and	w27, w9, #0xff
    8a94:	37f800a9 	tbnz	w9, #31, 8aa8 <_ZN11vector_tile12Tile_Feature27MergePartialFromCodedStreamEPN6google8protobuf2io16CodedInputStreamE+0x3a8>
    8a98:	91000508 	add	x8, x8, #0x1
    8a9c:	f9000288 	str	x8, [x20]
    8aa0:	14000007 	b	8abc <_ZN11vector_tile12Tile_Feature27MergePartialFromCodedStreamEPN6google8protobuf2io16CodedInputStreamE+0x3bc>
    8aa4:	2a1f03fb 	mov	w27, wzr
    8aa8:	aa1403e0 	mov	x0, x20
    8aac:	2a1b03e1 	mov	w1, w27
    8ab0:	94007d28 	bl	27f50 <_ZN6google8protobuf2io16CodedInputStream20ReadVarint32FallbackEj>
    8ab4:	aa0003fb 	mov	x27, x0
    8ab8:	b7f80cc0 	tbnz	x0, #63, 8c50 <_ZN11vector_tile12Tile_Feature27MergePartialFromCodedStreamEPN6google8protobuf2io16CodedInputStreamE+0x550>
    8abc:	294326a8 	ldp	w8, w9, [x21, #24]
    8ac0:	6b09011f 	cmp	w8, w9
    8ac4:	540000a1 	b.ne	8ad8 <_ZN11vector_tile12Tile_Feature27MergePartialFromCodedStreamEPN6google8protobuf2io16CodedInputStreamE+0x3d8>  // b.any
    8ac8:	11000501 	add	w1, w8, #0x1
    8acc:	aa1803e0 	mov	x0, x24
    8ad0:	94000f2b 	bl	c77c <_ZN6google8protobuf13RepeatedFieldIjE7ReserveEi>
    8ad4:	b9400308 	ldr	w8, [x24]
    8ad8:	f94012a9 	ldr	x9, [x21, #32]
    8adc:	1100050a 	add	w10, w8, #0x1
    8ae0:	8b28c928 	add	x8, x9, w8, sxtw #2
    8ae4:	b9001aaa 	str	w10, [x21, #24]
    8ae8:	b900091b 	str	w27, [x8, #8]
    8aec:	aa1403e0 	mov	x0, x20
    8af0:	94007add 	bl	27664 <_ZNK6google8protobuf2io16CodedInputStream15BytesUntilLimitEv>
    8af4:	7100001f 	cmp	w0, #0x0
    8af8:	54fffc4c 	b.gt	8a80 <_ZN11vector_tile12Tile_Feature27MergePartialFromCodedStreamEPN6google8protobuf2io16CodedInputStreamE+0x380>
    8afc:	17ffff25 	b	8790 <_ZN11vector_tile12Tile_Feature27MergePartialFromCodedStreamEPN6google8protobuf2io16CodedInputStreamE+0x90>
    8b00:	2a1f03fa 	mov	w26, wzr
    8b04:	aa1403e0 	mov	x0, x20
    8b08:	2a1a03e1 	mov	w1, w26
    8b0c:	94007d11 	bl	27f50 <_ZN6google8protobuf2io16CodedInputStream20ReadVarint32FallbackEj>
    8b10:	aa0003fa 	mov	x26, x0
    8b14:	b7f809e0 	tbnz	x0, #63, 8c50 <_ZN11vector_tile12Tile_Feature27MergePartialFromCodedStreamEPN6google8protobuf2io16CodedInputStreamE+0x550>
    8b18:	71000f5f 	cmp	w26, #0x3
    8b1c:	540000c8 	b.hi	8b34 <_ZN11vector_tile12Tile_Feature27MergePartialFromCodedStreamEPN6google8protobuf2io16CodedInputStreamE+0x434>  // b.pmore
    8b20:	b94012a8 	ldr	w8, [x21, #16]
    8b24:	b9005aba 	str	w26, [x21, #88]
    8b28:	321e0108 	orr	w8, w8, #0x4
    8b2c:	b90012a8 	str	w8, [x21, #16]
    8b30:	17ffff1b 	b	879c <_ZN11vector_tile12Tile_Feature27MergePartialFromCodedStreamEPN6google8protobuf2io16CodedInputStreamE+0x9c>
    8b34:	b9401be8 	ldr	w8, [sp, #24]
    8b38:	7100151f 	cmp	w8, #0x5
    8b3c:	540002eb 	b.lt	8b98 <_ZN11vector_tile12Tile_Feature27MergePartialFromCodedStreamEPN6google8protobuf2io16CodedInputStreamE+0x498>  // b.tstop
    8b40:	f9400be8 	ldr	x8, [sp, #16]
    8b44:	52800309 	mov	w9, #0x18                  	// #24
    8b48:	39000109 	strb	w9, [x8]
    8b4c:	f9400be8 	ldr	x8, [sp, #16]
    8b50:	b9401be9 	ldr	w9, [sp, #24]
    8b54:	9100050a 	add	x10, x8, #0x1
    8b58:	51000528 	sub	w8, w9, #0x1
    8b5c:	f9000bea 	str	x10, [sp, #16]
    8b60:	b9001be8 	str	w8, [sp, #24]
    8b64:	7100151f 	cmp	w8, #0x5
    8b68:	5400024b 	b.lt	8bb0 <_ZN11vector_tile12Tile_Feature27MergePartialFromCodedStreamEPN6google8protobuf2io16CodedInputStreamE+0x4b0>  // b.tstop
    8b6c:	f9400be8 	ldr	x8, [sp, #16]
    8b70:	7102035f 	cmp	w26, #0x80
    8b74:	54000263 	b.cc	8bc0 <_ZN11vector_tile12Tile_Feature27MergePartialFromCodedStreamEPN6google8protobuf2io16CodedInputStreamE+0x4c0>  // b.lo, b.ul, b.last
    8b78:	aa0803e9 	mov	x9, x8
    8b7c:	53077f4a 	lsr	w10, w26, #7
    8b80:	3219034b 	orr	w11, w26, #0x80
    8b84:	530e7f4c 	lsr	w12, w26, #14
    8b88:	2a0a03fa 	mov	w26, w10
    8b8c:	3800152b 	strb	w11, [x9], #1
    8b90:	35ffff6c 	cbnz	w12, 8b7c <_ZN11vector_tile12Tile_Feature27MergePartialFromCodedStreamEPN6google8protobuf2io16CodedInputStreamE+0x47c>
    8b94:	1400000d 	b	8bc8 <_ZN11vector_tile12Tile_Feature27MergePartialFromCodedStreamEPN6google8protobuf2io16CodedInputStreamE+0x4c8>
    8b98:	910023e0 	add	x0, sp, #0x8
    8b9c:	52800301 	mov	w1, #0x18                  	// #24
    8ba0:	94007fe0 	bl	28b20 <_ZN6google8protobuf2io17CodedOutputStream21WriteVarint32SlowPathEj>
    8ba4:	b9401be8 	ldr	w8, [sp, #24]
    8ba8:	7100151f 	cmp	w8, #0x5
    8bac:	54fffe0a 	b.ge	8b6c <_ZN11vector_tile12Tile_Feature27MergePartialFromCodedStreamEPN6google8protobuf2io16CodedInputStreamE+0x46c>  // b.tcont
    8bb0:	910023e0 	add	x0, sp, #0x8
    8bb4:	2a1a03e1 	mov	w1, w26
    8bb8:	94007fda 	bl	28b20 <_ZN6google8protobuf2io17CodedOutputStream21WriteVarint32SlowPathEj>
    8bbc:	17fffef8 	b	879c <_ZN11vector_tile12Tile_Feature27MergePartialFromCodedStreamEPN6google8protobuf2io16CodedInputStreamE+0x9c>
    8bc0:	2a1a03ea 	mov	w10, w26
    8bc4:	aa0803e9 	mov	x9, x8
    8bc8:	3900012a 	strb	w10, [x9]
    8bcc:	cb080128 	sub	x8, x9, x8
    8bd0:	f9400be9 	ldr	x9, [sp, #16]
    8bd4:	91000508 	add	x8, x8, #0x1
    8bd8:	b9401bea 	ldr	w10, [sp, #24]
    8bdc:	8b28c129 	add	x9, x9, w8, sxtw
    8be0:	4b080148 	sub	w8, w10, w8
    8be4:	f9000be9 	str	x9, [sp, #16]
    8be8:	b9001be8 	str	w8, [sp, #24]
    8bec:	17fffeec 	b	879c <_ZN11vector_tile12Tile_Feature27MergePartialFromCodedStreamEPN6google8protobuf2io16CodedInputStreamE+0x9c>
    8bf0:	52800034 	mov	w20, #0x1                   	// #1
    8bf4:	910023e0 	add	x0, sp, #0x8
    8bf8:	94007eae 	bl	286b0 <_ZN6google8protobuf2io17CodedOutputStreamD1Ev>
    8bfc:	f85e83a8 	ldur	x8, [x29, #-24]
    8c00:	b40000e8 	cbz	x8, 8c1c <_ZN11vector_tile12Tile_Feature27MergePartialFromCodedStreamEPN6google8protobuf2io16CodedInputStreamE+0x51c>
    8c04:	f85d83a0 	ldur	x0, [x29, #-40]
    8c08:	f9400008 	ldr	x8, [x0]
    8c0c:	360002e8 	tbz	w8, #0, 8c68 <_ZN11vector_tile12Tile_Feature27MergePartialFromCodedStreamEPN6google8protobuf2io16CodedInputStreamE+0x568>
    8c10:	927ff900 	and	x0, x8, #0xfffffffffffffffe
    8c14:	aa1303e1 	mov	x1, x19
    8c18:	97ffef9a 	bl	4a80 <_ZNSt7__cxx1112basic_stringIcSt11char_traitsIcESaIcEE4swapERS4_@plt>
    8c1c:	f85e03a0 	ldur	x0, [x29, #-32]
    8c20:	eb1c001f 	cmp	x0, x28
    8c24:	54000040 	b.eq	8c2c <_ZN11vector_tile12Tile_Feature27MergePartialFromCodedStreamEPN6google8protobuf2io16CodedInputStreamE+0x52c>  // b.none
    8c28:	97ffefb6 	bl	4b00 <_ZdlPv@plt>
    8c2c:	2a1403e0 	mov	w0, w20
    8c30:	a94b4ff4 	ldp	x20, x19, [sp, #176]
    8c34:	a94a57f6 	ldp	x22, x21, [sp, #160]
    8c38:	a9495ff8 	ldp	x24, x23, [sp, #144]
    8c3c:	a94867fa 	ldp	x26, x25, [sp, #128]
    8c40:	a9476ffc 	ldp	x28, x27, [sp, #112]
    8c44:	a9467bfd 	ldp	x29, x30, [sp, #96]
    8c48:	910303ff 	add	sp, sp, #0xc0
    8c4c:	d65f03c0 	ret
    8c50:	2a1f03f4 	mov	w20, wzr
    8c54:	910023e0 	add	x0, sp, #0x8
    8c58:	94007e96 	bl	286b0 <_ZN6google8protobuf2io17CodedOutputStreamD1Ev>
    8c5c:	f85e83a8 	ldur	x8, [x29, #-24]
    8c60:	b5fffd28 	cbnz	x8, 8c04 <_ZN11vector_tile12Tile_Feature27MergePartialFromCodedStreamEPN6google8protobuf2io16CodedInputStreamE+0x504>
    8c64:	17ffffee 	b	8c1c <_ZN11vector_tile12Tile_Feature27MergePartialFromCodedStreamEPN6google8protobuf2io16CodedInputStreamE+0x51c>
    8c68:	94000d88 	bl	c288 <_ZN6google8protobuf8internal29InternalMetadataWithArenaBaseINSt7__cxx1112basic_stringIcSt11char_traitsIcESaIcEEENS1_29InternalMetadataWithArenaLiteEE27mutable_unknown_fields_slowEv>
    8c6c:	17ffffea 	b	8c14 <_ZN11vector_tile12Tile_Feature27MergePartialFromCodedStreamEPN6google8protobuf2io16CodedInputStreamE+0x514>
    8c70:	97fff668 	bl	6610 <__clang_call_terminate>
    8c74:	14000001 	b	8c78 <_ZN11vector_tile12Tile_Feature27MergePartialFromCodedStreamEPN6google8protobuf2io16CodedInputStreamE+0x578>
    8c78:	aa0003f3 	mov	x19, x0
    8c7c:	14000007 	b	8c98 <_ZN11vector_tile12Tile_Feature27MergePartialFromCodedStreamEPN6google8protobuf2io16CodedInputStreamE+0x598>
    8c80:	14000003 	b	8c8c <_ZN11vector_tile12Tile_Feature27MergePartialFromCodedStreamEPN6google8protobuf2io16CodedInputStreamE+0x58c>
    8c84:	14000002 	b	8c8c <_ZN11vector_tile12Tile_Feature27MergePartialFromCodedStreamEPN6google8protobuf2io16CodedInputStreamE+0x58c>
    8c88:	14000001 	b	8c8c <_ZN11vector_tile12Tile_Feature27MergePartialFromCodedStreamEPN6google8protobuf2io16CodedInputStreamE+0x58c>
    8c8c:	aa0003f3 	mov	x19, x0
    8c90:	910023e0 	add	x0, sp, #0x8
    8c94:	94007e87 	bl	286b0 <_ZN6google8protobuf2io17CodedOutputStreamD1Ev>
    8c98:	d100a3a0 	sub	x0, x29, #0x28
    8c9c:	94000b79 	bl	ba80 <_ZN6google8protobuf8internal22LiteUnknownFieldSetterD2Ev>
    8ca0:	aa1303e0 	mov	x0, x19
    8ca4:	97fff01f 	bl	4d20 <_Unwind_Resume@plt>

0000000000008ca8 <_ZNK11vector_tile12Tile_Feature24SerializeWithCachedSizesEPN6google8protobuf2io17CodedOutputStreamE>:
    8ca8:	a9bc7bfd 	stp	x29, x30, [sp, #-64]!
    8cac:	f9000bf7 	str	x23, [sp, #16]
    8cb0:	a90257f6 	stp	x22, x21, [sp, #32]
    8cb4:	a9034ff4 	stp	x20, x19, [sp, #48]
    8cb8:	910003fd 	mov	x29, sp
    8cbc:	aa0103f3 	mov	x19, x1
    8cc0:	aa0003f4 	mov	x20, x0
    8cc4:	97ffef17 	bl	4920 <_mcount@plt>
    8cc8:	b9401295 	ldr	w21, [x20, #16]
    8ccc:	360800b5 	tbz	w21, #1, 8ce0 <_ZNK11vector_tile12Tile_Feature24SerializeWithCachedSizesEPN6google8protobuf2io17CodedOutputStreamE+0x38>
    8cd0:	f9402a81 	ldr	x1, [x20, #80]
    8cd4:	52800020 	mov	w0, #0x1                   	// #1
    8cd8:	aa1303e2 	mov	x2, x19
    8cdc:	94007146 	bl	251f4 <_ZN6google8protobuf8internal14WireFormatLite11WriteUInt64EimPNS0_2io17CodedOutputStreamE>
    8ce0:	b9401a88 	ldr	w8, [x20, #24]
    8ce4:	7100051f 	cmp	w8, #0x1
    8ce8:	54000b8b 	b.lt	8e58 <_ZNK11vector_tile12Tile_Feature24SerializeWithCachedSizesEPN6google8protobuf2io17CodedOutputStreamE+0x1b0>  // b.tstop
    8cec:	b9401268 	ldr	w8, [x19, #16]
    8cf0:	7100151f 	cmp	w8, #0x5
    8cf4:	5400026b 	b.lt	8d40 <_ZNK11vector_tile12Tile_Feature24SerializeWithCachedSizesEPN6google8protobuf2io17CodedOutputStreamE+0x98>  // b.tstop
    8cf8:	f9400668 	ldr	x8, [x19, #8]
    8cfc:	52800249 	mov	w9, #0x12                  	// #18
    8d00:	39000109 	strb	w9, [x8]
    8d04:	f9400668 	ldr	x8, [x19, #8]
    8d08:	b9401269 	ldr	w9, [x19, #16]
    8d0c:	9100050a 	add	x10, x8, #0x1
    8d10:	51000528 	sub	w8, w9, #0x1
    8d14:	f900066a 	str	x10, [x19, #8]
    8d18:	b9001268 	str	w8, [x19, #16]
    8d1c:	b9402a81 	ldr	w1, [x20, #40]
    8d20:	7100151f 	cmp	w8, #0x5
    8d24:	540001ca 	b.ge	8d5c <_ZNK11vector_tile12Tile_Feature24SerializeWithCachedSizesEPN6google8protobuf2io17CodedOutputStreamE+0xb4>  // b.tcont
    8d28:	aa1303e0 	mov	x0, x19
    8d2c:	94007f7d 	bl	28b20 <_ZN6google8protobuf2io17CodedOutputStream21WriteVarint32SlowPathEj>
    8d30:	b9401a96 	ldr	w22, [x20, #24]
    8d34:	710006df 	cmp	w22, #0x1
    8d38:	5400044a 	b.ge	8dc0 <_ZNK11vector_tile12Tile_Feature24SerializeWithCachedSizesEPN6google8protobuf2io17CodedOutputStreamE+0x118>  // b.tcont
    8d3c:	14000047 	b	8e58 <_ZNK11vector_tile12Tile_Feature24SerializeWithCachedSizesEPN6google8protobuf2io17CodedOutputStreamE+0x1b0>
    8d40:	aa1303e0 	mov	x0, x19
    8d44:	52800241 	mov	w1, #0x12                  	// #18
    8d48:	94007f76 	bl	28b20 <_ZN6google8protobuf2io17CodedOutputStream21WriteVarint32SlowPathEj>
    8d4c:	b9401268 	ldr	w8, [x19, #16]
    8d50:	b9402a81 	ldr	w1, [x20, #40]
    8d54:	7100151f 	cmp	w8, #0x5
    8d58:	54fffe8b 	b.lt	8d28 <_ZNK11vector_tile12Tile_Feature24SerializeWithCachedSizesEPN6google8protobuf2io17CodedOutputStreamE+0x80>  // b.tstop
    8d5c:	f9400668 	ldr	x8, [x19, #8]
    8d60:	7102003f 	cmp	w1, #0x80
    8d64:	54000123 	b.cc	8d88 <_ZNK11vector_tile12Tile_Feature24SerializeWithCachedSizesEPN6google8protobuf2io17CodedOutputStreamE+0xe0>  // b.lo, b.ul, b.last
    8d68:	aa0803e9 	mov	x9, x8
    8d6c:	53077c2a 	lsr	w10, w1, #7
    8d70:	3219002b 	orr	w11, w1, #0x80
    8d74:	530e7c2c 	lsr	w12, w1, #14
    8d78:	2a0a03e1 	mov	w1, w10
    8d7c:	3800152b 	strb	w11, [x9], #1
    8d80:	35ffff6c 	cbnz	w12, 8d6c <_ZNK11vector_tile12Tile_Feature24SerializeWithCachedSizesEPN6google8protobuf2io17CodedOutputStreamE+0xc4>
    8d84:	14000003 	b	8d90 <_ZNK11vector_tile12Tile_Feature24SerializeWithCachedSizesEPN6google8protobuf2io17CodedOutputStreamE+0xe8>
    8d88:	2a0103ea 	mov	w10, w1
    8d8c:	aa0803e9 	mov	x9, x8
    8d90:	3900012a 	strb	w10, [x9]
    8d94:	cb080128 	sub	x8, x9, x8
    8d98:	f9400669 	ldr	x9, [x19, #8]
    8d9c:	91000508 	add	x8, x8, #0x1
    8da0:	b940126a 	ldr	w10, [x19, #16]
    8da4:	8b28c129 	add	x9, x9, w8, sxtw
    8da8:	4b080148 	sub	w8, w10, w8
    8dac:	f9000669 	str	x9, [x19, #8]
    8db0:	b9001268 	str	w8, [x19, #16]
    8db4:	b9401a96 	ldr	w22, [x20, #24]
    8db8:	710006df 	cmp	w22, #0x1
    8dbc:	540004eb 	b.lt	8e58 <_ZNK11vector_tile12Tile_Feature24SerializeWithCachedSizesEPN6google8protobuf2io17CodedOutputStreamE+0x1b0>  // b.tstop
    8dc0:	aa1f03f7 	mov	x23, xzr
    8dc4:	14000006 	b	8ddc <_ZNK11vector_tile12Tile_Feature24SerializeWithCachedSizesEPN6google8protobuf2io17CodedOutputStreamE+0x134>
    8dc8:	aa1303e0 	mov	x0, x19
    8dcc:	94007f55 	bl	28b20 <_ZN6google8protobuf2io17CodedOutputStream21WriteVarint32SlowPathEj>
    8dd0:	910006f7 	add	x23, x23, #0x1
    8dd4:	eb1602ff 	cmp	x23, x22
    8dd8:	54000400 	b.eq	8e58 <_ZNK11vector_tile12Tile_Feature24SerializeWithCachedSizesEPN6google8protobuf2io17CodedOutputStreamE+0x1b0>  // b.none
    8ddc:	f9401288 	ldr	x8, [x20, #32]
    8de0:	b9401269 	ldr	w9, [x19, #16]
    8de4:	8b170908 	add	x8, x8, x23, lsl #2
    8de8:	7100153f 	cmp	w9, #0x5
    8dec:	b9400901 	ldr	w1, [x8, #8]
    8df0:	54fffecb 	b.lt	8dc8 <_ZNK11vector_tile12Tile_Feature24SerializeWithCachedSizesEPN6google8protobuf2io17CodedOutputStreamE+0x120>  // b.tstop
    8df4:	f9400668 	ldr	x8, [x19, #8]
    8df8:	7102003f 	cmp	w1, #0x80
    8dfc:	54000123 	b.cc	8e20 <_ZNK11vector_tile12Tile_Feature24SerializeWithCachedSizesEPN6google8protobuf2io17CodedOutputStreamE+0x178>  // b.lo, b.ul, b.last
    8e00:	aa0803e9 	mov	x9, x8
    8e04:	53077c2a 	lsr	w10, w1, #7
    8e08:	3219002b 	orr	w11, w1, #0x80
    8e0c:	530e7c2c 	lsr	w12, w1, #14
    8e10:	2a0a03e1 	mov	w1, w10
    8e14:	3800152b 	strb	w11, [x9], #1
    8e18:	35ffff6c 	cbnz	w12, 8e04 <_ZNK11vector_tile12Tile_Feature24SerializeWithCachedSizesEPN6google8protobuf2io17CodedOutputStreamE+0x15c>
    8e1c:	14000003 	b	8e28 <_ZNK11vector_tile12Tile_Feature24SerializeWithCachedSizesEPN6google8protobuf2io17CodedOutputStreamE+0x180>
    8e20:	2a0103ea 	mov	w10, w1
    8e24:	aa0803e9 	mov	x9, x8
    8e28:	3900012a 	strb	w10, [x9]
    8e2c:	cb080128 	sub	x8, x9, x8
    8e30:	f9400669 	ldr	x9, [x19, #8]
    8e34:	91000508 	add	x8, x8, #0x1
    8e38:	b940126a 	ldr	w10, [x19, #16]
    8e3c:	8b28c129 	add	x9, x9, w8, sxtw
    8e40:	4b080148 	sub	w8, w10, w8
    8e44:	f9000669 	str	x9, [x19, #8]
    8e48:	b9001268 	str	w8, [x19, #16]
    8e4c:	910006f7 	add	x23, x23, #0x1
    8e50:	eb1602ff 	cmp	x23, x22
    8e54:	54fffc41 	b.ne	8ddc <_ZNK11vector_tile12Tile_Feature24SerializeWithCachedSizesEPN6google8protobuf2io17CodedOutputStreamE+0x134>  // b.any
    8e58:	361000b5 	tbz	w21, #2, 8e6c <_ZNK11vector_tile12Tile_Feature24SerializeWithCachedSizesEPN6google8protobuf2io17CodedOutputStreamE+0x1c4>
    8e5c:	b9405a81 	ldr	w1, [x20, #88]
    8e60:	52800060 	mov	w0, #0x3                   	// #3
    8e64:	aa1303e2 	mov	x2, x19
    8e68:	940072c2 	bl	25970 <_ZN6google8protobuf8internal14WireFormatLite9WriteEnumEiiPNS0_2io17CodedOutputStreamE>
    8e6c:	b9403288 	ldr	w8, [x20, #48]
    8e70:	7100051f 	cmp	w8, #0x1
    8e74:	54000b8b 	b.lt	8fe4 <_ZNK11vector_tile12Tile_Feature24SerializeWithCachedSizesEPN6google8protobuf2io17CodedOutputStreamE+0x33c>  // b.tstop
    8e78:	b9401268 	ldr	w8, [x19, #16]
    8e7c:	7100151f 	cmp	w8, #0x5
    8e80:	5400026b 	b.lt	8ecc <_ZNK11vector_tile12Tile_Feature24SerializeWithCachedSizesEPN6google8protobuf2io17CodedOutputStreamE+0x224>  // b.tstop
    8e84:	f9400668 	ldr	x8, [x19, #8]
    8e88:	52800449 	mov	w9, #0x22                  	// #34
    8e8c:	39000109 	strb	w9, [x8]
    8e90:	f9400668 	ldr	x8, [x19, #8]
    8e94:	b9401269 	ldr	w9, [x19, #16]
    8e98:	9100050a 	add	x10, x8, #0x1
    8e9c:	51000528 	sub	w8, w9, #0x1
    8ea0:	f900066a 	str	x10, [x19, #8]
    8ea4:	b9001268 	str	w8, [x19, #16]
    8ea8:	b9404281 	ldr	w1, [x20, #64]
    8eac:	7100151f 	cmp	w8, #0x5
    8eb0:	540001ca 	b.ge	8ee8 <_ZNK11vector_tile12Tile_Feature24SerializeWithCachedSizesEPN6google8protobuf2io17CodedOutputStreamE+0x240>  // b.tcont
    8eb4:	aa1303e0 	mov	x0, x19
    8eb8:	94007f1a 	bl	28b20 <_ZN6google8protobuf2io17CodedOutputStream21WriteVarint32SlowPathEj>
    8ebc:	b9403296 	ldr	w22, [x20, #48]
    8ec0:	710006df 	cmp	w22, #0x1
    8ec4:	5400044a 	b.ge	8f4c <_ZNK11vector_tile12Tile_Feature24SerializeWithCachedSizesEPN6google8protobuf2io17CodedOutputStreamE+0x2a4>  // b.tcont
    8ec8:	14000047 	b	8fe4 <_ZNK11vector_tile12Tile_Feature24SerializeWithCachedSizesEPN6google8protobuf2io17CodedOutputStreamE+0x33c>
    8ecc:	aa1303e0 	mov	x0, x19
    8ed0:	52800441 	mov	w1, #0x22                  	// #34
    8ed4:	94007f13 	bl	28b20 <_ZN6google8protobuf2io17CodedOutputStream21WriteVarint32SlowPathEj>
    8ed8:	b9401268 	ldr	w8, [x19, #16]
    8edc:	b9404281 	ldr	w1, [x20, #64]
    8ee0:	7100151f 	cmp	w8, #0x5
    8ee4:	54fffe8b 	b.lt	8eb4 <_ZNK11vector_tile12Tile_Feature24SerializeWithCachedSizesEPN6google8protobuf2io17CodedOutputStreamE+0x20c>  // b.tstop
    8ee8:	f9400668 	ldr	x8, [x19, #8]
    8eec:	7102003f 	cmp	w1, #0x80
    8ef0:	54000123 	b.cc	8f14 <_ZNK11vector_tile12Tile_Feature24SerializeWithCachedSizesEPN6google8protobuf2io17CodedOutputStreamE+0x26c>  // b.lo, b.ul, b.last
    8ef4:	aa0803e9 	mov	x9, x8
    8ef8:	53077c2a 	lsr	w10, w1, #7
    8efc:	3219002b 	orr	w11, w1, #0x80
    8f00:	530e7c2c 	lsr	w12, w1, #14
    8f04:	2a0a03e1 	mov	w1, w10
    8f08:	3800152b 	strb	w11, [x9], #1
    8f0c:	35ffff6c 	cbnz	w12, 8ef8 <_ZNK11vector_tile12Tile_Feature24SerializeWithCachedSizesEPN6google8protobuf2io17CodedOutputStreamE+0x250>
    8f10:	14000003 	b	8f1c <_ZNK11vector_tile12Tile_Feature24SerializeWithCachedSizesEPN6google8protobuf2io17CodedOutputStreamE+0x274>
    8f14:	2a0103ea 	mov	w10, w1
    8f18:	aa0803e9 	mov	x9, x8
    8f1c:	3900012a 	strb	w10, [x9]
    8f20:	cb080128 	sub	x8, x9, x8
    8f24:	f9400669 	ldr	x9, [x19, #8]
    8f28:	91000508 	add	x8, x8, #0x1
    8f2c:	b940126a 	ldr	w10, [x19, #16]
    8f30:	8b28c129 	add	x9, x9, w8, sxtw
    8f34:	4b080148 	sub	w8, w10, w8
    8f38:	f9000669 	str	x9, [x19, #8]
    8f3c:	b9001268 	str	w8, [x19, #16]
    8f40:	b9403296 	ldr	w22, [x20, #48]
    8f44:	710006df 	cmp	w22, #0x1
    8f48:	540004eb 	b.lt	8fe4 <_ZNK11vector_tile12Tile_Feature24SerializeWithCachedSizesEPN6google8protobuf2io17CodedOutputStreamE+0x33c>  // b.tstop
    8f4c:	aa1f03f7 	mov	x23, xzr
    8f50:	14000006 	b	8f68 <_ZNK11vector_tile12Tile_Feature24SerializeWithCachedSizesEPN6google8protobuf2io17CodedOutputStreamE+0x2c0>
    8f54:	aa1303e0 	mov	x0, x19
    8f58:	94007ef2 	bl	28b20 <_ZN6google8protobuf2io17CodedOutputStream21WriteVarint32SlowPathEj>
    8f5c:	910006f7 	add	x23, x23, #0x1
    8f60:	eb1602ff 	cmp	x23, x22
    8f64:	54000400 	b.eq	8fe4 <_ZNK11vector_tile12Tile_Feature24SerializeWithCachedSizesEPN6google8protobuf2io17CodedOutputStreamE+0x33c>  // b.none
    8f68:	f9401e88 	ldr	x8, [x20, #56]
    8f6c:	b9401269 	ldr	w9, [x19, #16]
    8f70:	8b170908 	add	x8, x8, x23, lsl #2
    8f74:	7100153f 	cmp	w9, #0x5
    8f78:	b9400901 	ldr	w1, [x8, #8]
    8f7c:	54fffecb 	b.lt	8f54 <_ZNK11vector_tile12Tile_Feature24SerializeWithCachedSizesEPN6google8protobuf2io17CodedOutputStreamE+0x2ac>  // b.tstop
    8f80:	f9400668 	ldr	x8, [x19, #8]
    8f84:	7102003f 	cmp	w1, #0x80
    8f88:	54000123 	b.cc	8fac <_ZNK11vector_tile12Tile_Feature24SerializeWithCachedSizesEPN6google8protobuf2io17CodedOutputStreamE+0x304>  // b.lo, b.ul, b.last
    8f8c:	aa0803e9 	mov	x9, x8
    8f90:	53077c2a 	lsr	w10, w1, #7
    8f94:	3219002b 	orr	w11, w1, #0x80
    8f98:	530e7c2c 	lsr	w12, w1, #14
    8f9c:	2a0a03e1 	mov	w1, w10
    8fa0:	3800152b 	strb	w11, [x9], #1
    8fa4:	35ffff6c 	cbnz	w12, 8f90 <_ZNK11vector_tile12Tile_Feature24SerializeWithCachedSizesEPN6google8protobuf2io17CodedOutputStreamE+0x2e8>
    8fa8:	14000003 	b	8fb4 <_ZNK11vector_tile12Tile_Feature24SerializeWithCachedSizesEPN6google8protobuf2io17CodedOutputStreamE+0x30c>
    8fac:	2a0103ea 	mov	w10, w1
    8fb0:	aa0803e9 	mov	x9, x8
    8fb4:	3900012a 	strb	w10, [x9]
    8fb8:	cb080128 	sub	x8, x9, x8
    8fbc:	f9400669 	ldr	x9, [x19, #8]
    8fc0:	91000508 	add	x8, x8, #0x1
    8fc4:	b940126a 	ldr	w10, [x19, #16]
    8fc8:	8b28c129 	add	x9, x9, w8, sxtw
    8fcc:	4b080148 	sub	w8, w10, w8
    8fd0:	f9000669 	str	x9, [x19, #8]
    8fd4:	b9001268 	str	w8, [x19, #16]
    8fd8:	910006f7 	add	x23, x23, #0x1
    8fdc:	eb1602ff 	cmp	x23, x22
    8fe0:	54fffc41 	b.ne	8f68 <_ZNK11vector_tile12Tile_Feature24SerializeWithCachedSizesEPN6google8protobuf2io17CodedOutputStreamE+0x2c0>  // b.any
    8fe4:	360000b5 	tbz	w21, #0, 8ff8 <_ZNK11vector_tile12Tile_Feature24SerializeWithCachedSizesEPN6google8protobuf2io17CodedOutputStreamE+0x350>
    8fe8:	f9402681 	ldr	x1, [x20, #72]
    8fec:	528000a0 	mov	w0, #0x5                   	// #5
    8ff0:	aa1303e2 	mov	x2, x19
    8ff4:	940073df 	bl	25f70 <_ZN6google8protobuf8internal14WireFormatLite22WriteBytesMaybeAliasedEiRKNSt7__cxx1112basic_stringIcSt11char_traitsIcESaIcEEEPNS0_2io17CodedOutputStreamE>
    8ff8:	f9400688 	ldr	x8, [x20, #8]
    8ffc:	37000168 	tbnz	w8, #0, 9028 <_ZNK11vector_tile12Tile_Feature24SerializeWithCachedSizesEPN6google8protobuf2io17CodedOutputStreamE+0x380>
